TMS320C2000 Assembler PC v22.6.2 Fri Dec 19 11:01:59 2025

Copyright (c) 1996-2018 Texas Instruments Incorporated
dual_axis_servo_drive_main_cpu.asm                                   PAGE    1

       1              ;***************************************************************
       2              ;* TMS320C2000 G3 C/C++ Codegen                               PC v22.6.2.LTS *
       3              ;* Date/Time created: Fri Dec 19 11:01:58 2025                 *
       4              ;***************************************************************
       5                      .compiler_opts --abi=eabi --diag_wrap=off --float_support=fpu32 --hll_source=on --idiv_support=idiv0 
       6                      .asg    XAR2, FP
       7              
       8              $C$DW$CU        .dwtag  DW_TAG_compile_unit
       9                      .dwattr $C$DW$CU, DW_AT_name("../sources/dual_axis_servo_drive_main_cpu.c")
      10                      .dwattr $C$DW$CU, DW_AT_producer("TI TMS320C2000 G3 C/C++ Codegen PC v22.6.2.LTS Copyright (c) 1996-2
      11                      .dwattr $C$DW$CU, DW_AT_TI_version(0x01)
      12                      .dwattr $C$DW$CU, DW_AT_comp_dir("C:\Users\Teddy\Documents\GitHub\2512_LAUNCHXL-F280025C\251210_LAUNC
      13              
      14              $C$DW$1 .dwtag  DW_TAG_subprogram
      15                      .dwattr $C$DW$1, DW_AT_name("Device_init")
      16                      .dwattr $C$DW$1, DW_AT_linkage_name("Device_init")
      17                      .dwattr $C$DW$1, DW_AT_declaration
      18                      .dwattr $C$DW$1, DW_AT_external
      19                      .dwattr $C$DW$1, DW_AT_decl_file("C:/ti/C2000Ware_MotorControl_SDK_5_04_00_00/c2000ware/device_suppor
      20                      .dwattr $C$DW$1, DW_AT_decl_line(0x187)
      21                      .dwattr $C$DW$1, DW_AT_decl_column(0x0d)
      22                      .dwendtag $C$DW$1
      23              
      24              
      25              $C$DW$2 .dwtag  DW_TAG_subprogram
      26                      .dwattr $C$DW$2, DW_AT_name("HAL_clearDataRAM")
      27                      .dwattr $C$DW$2, DW_AT_linkage_name("HAL_clearDataRAM")
      28                      .dwattr $C$DW$2, DW_AT_declaration
      29                      .dwattr $C$DW$2, DW_AT_external
      30                      .dwattr $C$DW$2, DW_AT_decl_file("..\sources\dual_axis_servo_drive_hal.h")
      31                      .dwattr $C$DW$2, DW_AT_decl_line(0x183)
      32                      .dwattr $C$DW$2, DW_AT_decl_column(0x0d)
      33              $C$DW$3 .dwtag  DW_TAG_formal_parameter
      34                      .dwattr $C$DW$3, DW_AT_type(*$C$DW$T$3)
      35              
      36              $C$DW$4 .dwtag  DW_TAG_formal_parameter
      37                      .dwattr $C$DW$4, DW_AT_type(*$C$DW$T$34)
      38              
      39                      .dwendtag $C$DW$2
      40              
      41              
      42              $C$DW$5 .dwtag  DW_TAG_subprogram
      43                      .dwattr $C$DW$5, DW_AT_name("HAL_setParams")
      44                      .dwattr $C$DW$5, DW_AT_linkage_name("HAL_setParams")
      45                      .dwattr $C$DW$5, DW_AT_declaration
      46                      .dwattr $C$DW$5, DW_AT_external
      47                      .dwattr $C$DW$5, DW_AT_decl_file("..\sources\dual_axis_servo_drive_hal.h")
      48                      .dwattr $C$DW$5, DW_AT_decl_line(0x178)
      49                      .dwattr $C$DW$5, DW_AT_decl_column(0x0d)
      50              $C$DW$6 .dwtag  DW_TAG_formal_parameter
      51                      .dwattr $C$DW$6, DW_AT_type(*$C$DW$T$156)
      52              
      53                      .dwendtag $C$DW$5
      54              
      55              
TMS320C2000 Assembler PC v22.6.2 Fri Dec 19 11:01:59 2025

Copyright (c) 1996-2018 Texas Instruments Incorporated
dual_axis_servo_drive_main_cpu.asm                                   PAGE    2

      56              $C$DW$7 .dwtag  DW_TAG_subprogram
      57                      .dwattr $C$DW$7, DW_AT_name("HAL_setMotorParams")
      58                      .dwattr $C$DW$7, DW_AT_linkage_name("HAL_setMotorParams")
      59                      .dwattr $C$DW$7, DW_AT_declaration
      60                      .dwattr $C$DW$7, DW_AT_external
      61                      .dwattr $C$DW$7, DW_AT_decl_file("..\sources\dual_axis_servo_drive_hal.h")
      62                      .dwattr $C$DW$7, DW_AT_decl_line(0x17d)
      63                      .dwattr $C$DW$7, DW_AT_decl_column(0x0d)
      64              $C$DW$8 .dwtag  DW_TAG_formal_parameter
      65                      .dwattr $C$DW$8, DW_AT_type(*$C$DW$T$144)
      66              
      67                      .dwendtag $C$DW$7
      68              
      69              
      70              $C$DW$9 .dwtag  DW_TAG_subprogram
      71                      .dwattr $C$DW$9, DW_AT_name("initMotorParameters")
      72                      .dwattr $C$DW$9, DW_AT_linkage_name("initMotorParameters")
      73                      .dwattr $C$DW$9, DW_AT_declaration
      74                      .dwattr $C$DW$9, DW_AT_external
      75                      .dwattr $C$DW$9, DW_AT_decl_file("..\sources\dual_axis_servo_drive_cpu.h")
      76                      .dwattr $C$DW$9, DW_AT_decl_line(0x13d)
      77                      .dwattr $C$DW$9, DW_AT_decl_column(0x0d)
      78              $C$DW$10        .dwtag  DW_TAG_formal_parameter
      79                      .dwattr $C$DW$10, DW_AT_type(*$C$DW$T$161)
      80              
      81              $C$DW$11        .dwtag  DW_TAG_formal_parameter
      82                      .dwattr $C$DW$11, DW_AT_type(*$C$DW$T$144)
      83              
      84                      .dwendtag $C$DW$9
      85              
      86              
      87              $C$DW$12        .dwtag  DW_TAG_subprogram
      88                      .dwattr $C$DW$12, DW_AT_name("initControlVars")
      89                      .dwattr $C$DW$12, DW_AT_linkage_name("initControlVars")
      90                      .dwattr $C$DW$12, DW_AT_declaration
      91                      .dwattr $C$DW$12, DW_AT_external
      92                      .dwattr $C$DW$12, DW_AT_decl_file("..\sources\dual_axis_servo_drive_cpu.h")
      93                      .dwattr $C$DW$12, DW_AT_decl_line(0x142)
      94                      .dwattr $C$DW$12, DW_AT_decl_column(0x0d)
      95              $C$DW$13        .dwtag  DW_TAG_formal_parameter
      96                      .dwattr $C$DW$13, DW_AT_type(*$C$DW$T$161)
      97              
      98                      .dwendtag $C$DW$12
      99              
     100              
     101              $C$DW$14        .dwtag  DW_TAG_subprogram
     102                      .dwattr $C$DW$14, DW_AT_name("HAL_setupMotorFaultProtection")
     103                      .dwattr $C$DW$14, DW_AT_linkage_name("HAL_setupMotorFaultProtection")
     104                      .dwattr $C$DW$14, DW_AT_declaration
     105                      .dwattr $C$DW$14, DW_AT_external
     106                      .dwattr $C$DW$14, DW_AT_decl_file("..\sources\dual_axis_servo_drive_hal.h")
     107                      .dwattr $C$DW$14, DW_AT_decl_line(0x172)
     108                      .dwattr $C$DW$14, DW_AT_decl_column(0x0e)
     109              $C$DW$15        .dwtag  DW_TAG_formal_parameter
     110                      .dwattr $C$DW$15, DW_AT_type(*$C$DW$T$144)
TMS320C2000 Assembler PC v22.6.2 Fri Dec 19 11:01:59 2025

Copyright (c) 1996-2018 Texas Instruments Incorporated
dual_axis_servo_drive_main_cpu.asm                                   PAGE    3

     111              
     112                      .dwendtag $C$DW$14
     113              
     114              
     115              $C$DW$16        .dwtag  DW_TAG_subprogram
     116                      .dwattr $C$DW$16, DW_AT_name("resetControlVars")
     117                      .dwattr $C$DW$16, DW_AT_linkage_name("resetControlVars")
     118                      .dwattr $C$DW$16, DW_AT_declaration
     119                      .dwattr $C$DW$16, DW_AT_external
     120                      .dwattr $C$DW$16, DW_AT_decl_file("..\sources\dual_axis_servo_drive_cpu.h")
     121                      .dwattr $C$DW$16, DW_AT_decl_line(0x147)
     122                      .dwattr $C$DW$16, DW_AT_decl_column(0x0d)
     123              $C$DW$17        .dwtag  DW_TAG_formal_parameter
     124                      .dwattr $C$DW$17, DW_AT_type(*$C$DW$T$161)
     125              
     126                      .dwendtag $C$DW$16
     127              
     128              
     129              $C$DW$18        .dwtag  DW_TAG_subprogram
     130                      .dwattr $C$DW$18, DW_AT_name("DLOG_2CH_F_init")
     131                      .dwattr $C$DW$18, DW_AT_linkage_name("DLOG_2CH_F_init")
     132                      .dwattr $C$DW$18, DW_AT_declaration
     133                      .dwattr $C$DW$18, DW_AT_external
     134                      .dwattr $C$DW$18, DW_AT_decl_file("..\sources\dlog_2ch_f.h")
     135                      .dwattr $C$DW$18, DW_AT_decl_line(0x40)
     136                      .dwattr $C$DW$18, DW_AT_decl_column(0x06)
     137              $C$DW$19        .dwtag  DW_TAG_formal_parameter
     138                      .dwattr $C$DW$19, DW_AT_type(*$C$DW$T$135)
     139              
     140                      .dwendtag $C$DW$18
     141              
     142              
     143              $C$DW$20        .dwtag  DW_TAG_subprogram
     144                      .dwattr $C$DW$20, DW_AT_name("HAL_setupInterrupts")
     145                      .dwattr $C$DW$20, DW_AT_linkage_name("HAL_setupInterrupts")
     146                      .dwattr $C$DW$20, DW_AT_declaration
     147                      .dwattr $C$DW$20, DW_AT_external
     148                      .dwattr $C$DW$20, DW_AT_decl_file("..\sources\dual_axis_servo_drive_hal.h")
     149                      .dwattr $C$DW$20, DW_AT_decl_line(0x145)
     150                      .dwattr $C$DW$20, DW_AT_decl_column(0x0d)
     151              $C$DW$21        .dwtag  DW_TAG_formal_parameter
     152                      .dwattr $C$DW$21, DW_AT_type(*$C$DW$T$144)
     153              
     154                      .dwendtag $C$DW$20
     155              
     156              
     157              $C$DW$22        .dwtag  DW_TAG_subprogram
     158                      .dwattr $C$DW$22, DW_AT_name("runOffsetsCalculation")
     159                      .dwattr $C$DW$22, DW_AT_linkage_name("runOffsetsCalculation")
     160                      .dwattr $C$DW$22, DW_AT_declaration
     161                      .dwattr $C$DW$22, DW_AT_external
     162                      .dwattr $C$DW$22, DW_AT_decl_file("..\sources\dual_axis_servo_drive_cpu.h")
     163                      .dwattr $C$DW$22, DW_AT_decl_line(0x14c)
     164                      .dwattr $C$DW$22, DW_AT_decl_column(0x0d)
     165              $C$DW$23        .dwtag  DW_TAG_formal_parameter
TMS320C2000 Assembler PC v22.6.2 Fri Dec 19 11:01:59 2025

Copyright (c) 1996-2018 Texas Instruments Incorporated
dual_axis_servo_drive_main_cpu.asm                                   PAGE    4

     166                      .dwattr $C$DW$23, DW_AT_type(*$C$DW$T$161)
     167              
     168                      .dwendtag $C$DW$22
     169              
     170              
     171              $C$DW$24        .dwtag  DW_TAG_subprogram
     172                      .dwattr $C$DW$24, DW_AT_name("HAL_enableInterrupts")
     173                      .dwattr $C$DW$24, DW_AT_linkage_name("HAL_enableInterrupts")
     174                      .dwattr $C$DW$24, DW_AT_declaration
     175                      .dwattr $C$DW$24, DW_AT_external
     176                      .dwattr $C$DW$24, DW_AT_decl_file("..\sources\dual_axis_servo_drive_hal.h")
     177                      .dwattr $C$DW$24, DW_AT_decl_line(0x129)
     178                      .dwattr $C$DW$24, DW_AT_decl_column(0x0d)
     179              $C$DW$25        .dwtag  DW_TAG_formal_parameter
     180                      .dwattr $C$DW$25, DW_AT_type(*$C$DW$T$144)
     181              
     182                      .dwendtag $C$DW$24
     183              
     184              
     185              $C$DW$26        .dwtag  DW_TAG_subprogram
     186                      .dwattr $C$DW$26, DW_AT_name("runControl")
     187                      .dwattr $C$DW$26, DW_AT_linkage_name("runControl")
     188                      .dwattr $C$DW$26, DW_AT_declaration
     189                      .dwattr $C$DW$26, DW_AT_external
     190                      .dwattr $C$DW$26, DW_AT_decl_file("..\sources\dual_axis_servo_drive_cpu.h")
     191                      .dwattr $C$DW$26, DW_AT_decl_line(0x157)
     192                      .dwattr $C$DW$26, DW_AT_decl_column(0x0d)
     193                      .dwendtag $C$DW$26
     194              
     195              
     196              $C$DW$27        .dwtag  DW_TAG_subprogram
     197                      .dwattr $C$DW$27, DW_AT_name("runMotorControl")
     198                      .dwattr $C$DW$27, DW_AT_linkage_name("runMotorControl")
     199                      .dwattr $C$DW$27, DW_AT_declaration
     200                      .dwattr $C$DW$27, DW_AT_external
     201                      .dwattr $C$DW$27, DW_AT_decl_file("..\sources\dual_axis_servo_drive_cpu.h")
     202                      .dwattr $C$DW$27, DW_AT_decl_line(0x152)
     203                      .dwattr $C$DW$27, DW_AT_decl_column(0x01)
     204              $C$DW$28        .dwtag  DW_TAG_formal_parameter
     205                      .dwattr $C$DW$28, DW_AT_type(*$C$DW$T$161)
     206              
     207              $C$DW$29        .dwtag  DW_TAG_formal_parameter
     208                      .dwattr $C$DW$29, DW_AT_type(*$C$DW$T$144)
     209              
     210                      .dwendtag $C$DW$27
     211              
     212              $C$DW$30        .dwtag  DW_TAG_variable
     213                      .dwattr $C$DW$30, DW_AT_name("ctrlState")
     214                      .dwattr $C$DW$30, DW_AT_linkage_name("ctrlState")
     215                      .dwattr $C$DW$30, DW_AT_type(*$C$DW$T$123)
     216                      .dwattr $C$DW$30, DW_AT_declaration
     217                      .dwattr $C$DW$30, DW_AT_external
     218                      .dwattr $C$DW$30, DW_AT_decl_file("..\sources\dual_axis_servo_drive_cpu.h")
     219                      .dwattr $C$DW$30, DW_AT_decl_line(0x9f)
     220                      .dwattr $C$DW$30, DW_AT_decl_column(0x17)
TMS320C2000 Assembler PC v22.6.2 Fri Dec 19 11:01:59 2025

Copyright (c) 1996-2018 Texas Instruments Incorporated
dual_axis_servo_drive_main_cpu.asm                                   PAGE    5

     221              
     222              $C$DW$31        .dwtag  DW_TAG_variable
     223                      .dwattr $C$DW$31, DW_AT_name("flagSyncRun")
     224                      .dwattr $C$DW$31, DW_AT_linkage_name("flagSyncRun")
     225                      .dwattr $C$DW$31, DW_AT_type(*$C$DW$T$90)
     226                      .dwattr $C$DW$31, DW_AT_declaration
     227                      .dwattr $C$DW$31, DW_AT_external
     228                      .dwattr $C$DW$31, DW_AT_decl_file("..\sources\dual_axis_servo_drive_cpu.h")
     229                      .dwattr $C$DW$31, DW_AT_decl_line(0xa0)
     230                      .dwattr $C$DW$31, DW_AT_decl_column(0x0d)
     231              
     232                      .global ||serialCommsTimer||
     233 00000000               .bss    ||serialCommsTimer||,1,1,0
     234              $C$DW$32        .dwtag  DW_TAG_variable
     235                      .dwattr $C$DW$32, DW_AT_name("serialCommsTimer")
     236                      .dwattr $C$DW$32, DW_AT_linkage_name("serialCommsTimer")
     237                      .dwattr $C$DW$32, DW_AT_location[DW_OP_addr ||serialCommsTimer||]
     238                      .dwattr $C$DW$32, DW_AT_type(*$C$DW$T$34)
     239                      .dwattr $C$DW$32, DW_AT_external
     240                      .dwattr $C$DW$32, DW_AT_decl_file("../sources/dual_axis_servo_drive_main_cpu.c")
     241                      .dwattr $C$DW$32, DW_AT_decl_line(0x5d)
     242                      .dwattr $C$DW$32, DW_AT_decl_column(0x0a)
     243              
     244                      .global ||enableFlag||
     245 00000001               .bss    ||enableFlag||,1,1,0
     246              $C$DW$33        .dwtag  DW_TAG_variable
     247                      .dwattr $C$DW$33, DW_AT_name("enableFlag")
     248                      .dwattr $C$DW$33, DW_AT_linkage_name("enableFlag")
     249                      .dwattr $C$DW$33, DW_AT_location[DW_OP_addr ||enableFlag||]
     250                      .dwattr $C$DW$33, DW_AT_type(*$C$DW$T$192)
     251                      .dwattr $C$DW$33, DW_AT_external
     252                      .dwattr $C$DW$33, DW_AT_decl_file("../sources/dual_axis_servo_drive_main_cpu.c")
     253                      .dwattr $C$DW$33, DW_AT_decl_line(0x63)
     254                      .dwattr $C$DW$33, DW_AT_decl_column(0x13)
     255              
     256                      .global ||backTicker||
     257 00000002               .bss    ||backTicker||,1,1,0
     258              $C$DW$34        .dwtag  DW_TAG_variable
     259                      .dwattr $C$DW$34, DW_AT_name("backTicker")
     260                      .dwattr $C$DW$34, DW_AT_linkage_name("backTicker")
     261                      .dwattr $C$DW$34, DW_AT_location[DW_OP_addr ||backTicker||]
     262                      .dwattr $C$DW$34, DW_AT_type(*$C$DW$T$34)
     263                      .dwattr $C$DW$34, DW_AT_external
     264                      .dwattr $C$DW$34, DW_AT_decl_file("../sources/dual_axis_servo_drive_main_cpu.c")
     265                      .dwattr $C$DW$34, DW_AT_decl_line(0x64)
     266                      .dwattr $C$DW$34, DW_AT_decl_column(0x0a)
     267              
     268                      .global ||led1Cnt||
     269 00000003               .bss    ||led1Cnt||,1,1,0
     270              $C$DW$35        .dwtag  DW_TAG_variable
     271                      .dwattr $C$DW$35, DW_AT_name("led1Cnt")
     272                      .dwattr $C$DW$35, DW_AT_linkage_name("led1Cnt")
     273                      .dwattr $C$DW$35, DW_AT_location[DW_OP_addr ||led1Cnt||]
     274                      .dwattr $C$DW$35, DW_AT_type(*$C$DW$T$34)
     275                      .dwattr $C$DW$35, DW_AT_external
TMS320C2000 Assembler PC v22.6.2 Fri Dec 19 11:01:59 2025

Copyright (c) 1996-2018 Texas Instruments Incorporated
dual_axis_servo_drive_main_cpu.asm                                   PAGE    6

     276                      .dwattr $C$DW$35, DW_AT_decl_file("../sources/dual_axis_servo_drive_main_cpu.c")
     277                      .dwattr $C$DW$35, DW_AT_decl_line(0x65)
     278                      .dwattr $C$DW$35, DW_AT_decl_column(0x0a)
     279              
     280                      .global ||led2Cnt||
     281 00000004               .bss    ||led2Cnt||,1,1,0
     282              $C$DW$36        .dwtag  DW_TAG_variable
     283                      .dwattr $C$DW$36, DW_AT_name("led2Cnt")
     284                      .dwattr $C$DW$36, DW_AT_linkage_name("led2Cnt")
     285                      .dwattr $C$DW$36, DW_AT_location[DW_OP_addr ||led2Cnt||]
     286                      .dwattr $C$DW$36, DW_AT_type(*$C$DW$T$34)
     287                      .dwattr $C$DW$36, DW_AT_external
     288                      .dwattr $C$DW$36, DW_AT_decl_file("../sources/dual_axis_servo_drive_main_cpu.c")
     289                      .dwattr $C$DW$36, DW_AT_decl_line(0x66)
     290                      .dwattr $C$DW$36, DW_AT_decl_column(0x0a)
     291              
     292                      .global ||test2||
     293 00000000               .data
     294                      .align  1
     295                      .elfsym ||test2||,SYM_SIZE(1),SYM_BLOCKED(1)
     296 00000000       ||test2||:
     297 00000000 0000          .bits           0,16
     298                                      ; test2 @ 0
     299              
     300              $C$DW$37        .dwtag  DW_TAG_variable
     301                      .dwattr $C$DW$37, DW_AT_name("test2")
     302                      .dwattr $C$DW$37, DW_AT_linkage_name("test2")
     303                      .dwattr $C$DW$37, DW_AT_location[DW_OP_addr ||test2||]
     304                      .dwattr $C$DW$37, DW_AT_type(*$C$DW$T$10)
     305                      .dwattr $C$DW$37, DW_AT_external
     306                      .dwattr $C$DW$37, DW_AT_decl_file("../sources/dual_axis_servo_drive_main_cpu.c")
     307                      .dwattr $C$DW$37, DW_AT_decl_line(0xa1)
     308                      .dwattr $C$DW$37, DW_AT_decl_column(0x05)
     309              
     310              $C$DW$38        .dwtag  DW_TAG_variable
     311                      .dwattr $C$DW$38, DW_AT_name("halHandle")
     312                      .dwattr $C$DW$38, DW_AT_linkage_name("halHandle")
     313                      .dwattr $C$DW$38, DW_AT_type(*$C$DW$T$156)
     314                      .dwattr $C$DW$38, DW_AT_declaration
     315                      .dwattr $C$DW$38, DW_AT_external
     316                      .dwattr $C$DW$38, DW_AT_decl_file("..\sources\dual_axis_servo_drive_hal.h")
     317                      .dwattr $C$DW$38, DW_AT_decl_line(0xc4)
     318                      .dwattr $C$DW$38, DW_AT_decl_column(0x16)
     319              
     320                      .global ||Alpha_State_Ptr||
     321 00000006               .bss    ||Alpha_State_Ptr||,2,1,1
     322              $C$DW$39        .dwtag  DW_TAG_variable
     323                      .dwattr $C$DW$39, DW_AT_name("Alpha_State_Ptr")
     324                      .dwattr $C$DW$39, DW_AT_linkage_name("Alpha_State_Ptr")
     325                      .dwattr $C$DW$39, DW_AT_location[DW_OP_addr ||Alpha_State_Ptr||]
     326                      .dwattr $C$DW$39, DW_AT_type(*$C$DW$T$166)
     327                      .dwattr $C$DW$39, DW_AT_external
     328                      .dwattr $C$DW$39, DW_AT_decl_file("../sources/dual_axis_servo_drive_main_cpu.c")
     329                      .dwattr $C$DW$39, DW_AT_decl_line(0x57)
     330                      .dwattr $C$DW$39, DW_AT_decl_column(0x08)
TMS320C2000 Assembler PC v22.6.2 Fri Dec 19 11:01:59 2025

Copyright (c) 1996-2018 Texas Instruments Incorporated
dual_axis_servo_drive_main_cpu.asm                                   PAGE    7

     331              
     332                      .global ||A_Task_Ptr||
     333 00000008               .bss    ||A_Task_Ptr||,2,1,1
     334              $C$DW$40        .dwtag  DW_TAG_variable
     335                      .dwattr $C$DW$40, DW_AT_name("A_Task_Ptr")
     336                      .dwattr $C$DW$40, DW_AT_linkage_name("A_Task_Ptr")
     337                      .dwattr $C$DW$40, DW_AT_location[DW_OP_addr ||A_Task_Ptr||]
     338                      .dwattr $C$DW$40, DW_AT_type(*$C$DW$T$166)
     339                      .dwattr $C$DW$40, DW_AT_external
     340                      .dwattr $C$DW$40, DW_AT_decl_file("../sources/dual_axis_servo_drive_main_cpu.c")
     341                      .dwattr $C$DW$40, DW_AT_decl_line(0x58)
     342                      .dwattr $C$DW$40, DW_AT_decl_column(0x08)
     343              
     344                      .global ||B_Task_Ptr||
     345 0000000a               .bss    ||B_Task_Ptr||,2,1,1
     346              $C$DW$41        .dwtag  DW_TAG_variable
     347                      .dwattr $C$DW$41, DW_AT_name("B_Task_Ptr")
     348                      .dwattr $C$DW$41, DW_AT_linkage_name("B_Task_Ptr")
     349                      .dwattr $C$DW$41, DW_AT_location[DW_OP_addr ||B_Task_Ptr||]
     350                      .dwattr $C$DW$41, DW_AT_type(*$C$DW$T$166)
     351                      .dwattr $C$DW$41, DW_AT_external
     352                      .dwattr $C$DW$41, DW_AT_decl_file("../sources/dual_axis_servo_drive_main_cpu.c")
     353                      .dwattr $C$DW$41, DW_AT_decl_line(0x59)
     354                      .dwattr $C$DW$41, DW_AT_decl_column(0x08)
     355              
     356                      .global ||dlogCh1||
     357 00000000       ||dlogCh1||:    .usect  "datalog_data",2,1,1
     358              $C$DW$42        .dwtag  DW_TAG_variable
     359                      .dwattr $C$DW$42, DW_AT_name("dlogCh1")
     360                      .dwattr $C$DW$42, DW_AT_linkage_name("dlogCh1")
     361                      .dwattr $C$DW$42, DW_AT_location[DW_OP_addr ||dlogCh1||]
     362                      .dwattr $C$DW$42, DW_AT_type(*$C$DW$T$21)
     363                      .dwattr $C$DW$42, DW_AT_external
     364                      .dwattr $C$DW$42, DW_AT_decl_file("../sources/dual_axis_servo_drive_main_cpu.c")
     365                      .dwattr $C$DW$42, DW_AT_decl_line(0x86)
     366                      .dwattr $C$DW$42, DW_AT_decl_column(0x0b)
     367              
     368                      .global ||dlogCh2||
     369 00000002       ||dlogCh2||:    .usect  "datalog_data",2,1,1
     370              $C$DW$43        .dwtag  DW_TAG_variable
     371                      .dwattr $C$DW$43, DW_AT_name("dlogCh2")
     372                      .dwattr $C$DW$43, DW_AT_linkage_name("dlogCh2")
     373                      .dwattr $C$DW$43, DW_AT_location[DW_OP_addr ||dlogCh2||]
     374                      .dwattr $C$DW$43, DW_AT_type(*$C$DW$T$21)
     375                      .dwattr $C$DW$43, DW_AT_external
     376                      .dwattr $C$DW$43, DW_AT_decl_file("../sources/dual_axis_servo_drive_main_cpu.c")
     377                      .dwattr $C$DW$43, DW_AT_decl_line(0x87)
     378                      .dwattr $C$DW$43, DW_AT_decl_column(0x0b)
     379              
     380                      .global ||test||
     381 00000001               .data
     382                      .align  2
     383                      .elfsym ||test||,SYM_SIZE(2),SYM_BLOCKED(1)
     384 00000002       ||test||:
     385 00000002 0000          .xfloat $strtod("0x0p+0")               ; test @ 0
TMS320C2000 Assembler PC v22.6.2 Fri Dec 19 11:01:59 2025

Copyright (c) 1996-2018 Texas Instruments Incorporated
dual_axis_servo_drive_main_cpu.asm                                   PAGE    8

         00000003 0000 
     386              
     387              $C$DW$44        .dwtag  DW_TAG_variable
     388                      .dwattr $C$DW$44, DW_AT_name("test")
     389                      .dwattr $C$DW$44, DW_AT_linkage_name("test")
     390                      .dwattr $C$DW$44, DW_AT_location[DW_OP_addr ||test||]
     391                      .dwattr $C$DW$44, DW_AT_type(*$C$DW$T$16)
     392                      .dwattr $C$DW$44, DW_AT_external
     393                      .dwattr $C$DW$44, DW_AT_decl_file("../sources/dual_axis_servo_drive_main_cpu.c")
     394                      .dwattr $C$DW$44, DW_AT_decl_line(0xa0)
     395                      .dwattr $C$DW$44, DW_AT_decl_column(0x07)
     396              
     397              
     398              $C$DW$45        .dwtag  DW_TAG_subprogram
     399                      .dwattr $C$DW$45, DW_AT_name("HAL_init")
     400                      .dwattr $C$DW$45, DW_AT_linkage_name("HAL_init")
     401                      .dwattr $C$DW$45, DW_AT_type(*$C$DW$T$156)
     402                      .dwattr $C$DW$45, DW_AT_declaration
     403                      .dwattr $C$DW$45, DW_AT_external
     404                      .dwattr $C$DW$45, DW_AT_decl_file("..\sources\dual_axis_servo_drive_hal.h")
     405                      .dwattr $C$DW$45, DW_AT_decl_line(0x132)
     406                      .dwattr $C$DW$45, DW_AT_decl_column(0x13)
     407              $C$DW$46        .dwtag  DW_TAG_formal_parameter
     408                      .dwattr $C$DW$46, DW_AT_type(*$C$DW$T$3)
     409              
     410              $C$DW$47        .dwtag  DW_TAG_formal_parameter
     411                      .dwattr $C$DW$47, DW_AT_type(*$C$DW$T$146)
     412              
     413                      .dwendtag $C$DW$45
     414              
     415              
     416              $C$DW$48        .dwtag  DW_TAG_subprogram
     417                      .dwattr $C$DW$48, DW_AT_name("HAL_MTR_init")
     418                      .dwattr $C$DW$48, DW_AT_linkage_name("HAL_MTR_init")
     419                      .dwattr $C$DW$48, DW_AT_type(*$C$DW$T$144)
     420                      .dwattr $C$DW$48, DW_AT_declaration
     421                      .dwattr $C$DW$48, DW_AT_external
     422                      .dwattr $C$DW$48, DW_AT_decl_file("..\sources\dual_axis_servo_drive_hal.h")
     423                      .dwattr $C$DW$48, DW_AT_decl_line(0x13b)
     424                      .dwattr $C$DW$48, DW_AT_decl_column(0x17)
     425              $C$DW$49        .dwtag  DW_TAG_formal_parameter
     426                      .dwattr $C$DW$49, DW_AT_type(*$C$DW$T$3)
     427              
     428              $C$DW$50        .dwtag  DW_TAG_formal_parameter
     429                      .dwattr $C$DW$50, DW_AT_type(*$C$DW$T$146)
     430              
     431                      .dwendtag $C$DW$48
     432              
     433              
     434              $C$DW$51        .dwtag  DW_TAG_subprogram
     435                      .dwattr $C$DW$51, DW_AT_name("FCL_getSwVersion")
     436                      .dwattr $C$DW$51, DW_AT_linkage_name("FCL_getSwVersion")
     437                      .dwattr $C$DW$51, DW_AT_type(*$C$DW$T$28)
     438                      .dwattr $C$DW$51, DW_AT_declaration
     439                      .dwattr $C$DW$51, DW_AT_external
TMS320C2000 Assembler PC v22.6.2 Fri Dec 19 11:01:59 2025

Copyright (c) 1996-2018 Texas Instruments Incorporated
dual_axis_servo_drive_main_cpu.asm                                   PAGE    9

     440                      .dwattr $C$DW$51, DW_AT_decl_file("..\sources\fcl_foc_cpu_dm.h")
     441                      .dwattr $C$DW$51, DW_AT_decl_line(0x11a)
     442                      .dwattr $C$DW$51, DW_AT_decl_column(0x11)
     443                      .dwendtag $C$DW$51
     444              
     445              
     446              $C$DW$52        .dwtag  DW_TAG_subprogram
     447                      .dwattr $C$DW$52, DW_AT_name("__eallow")
     448                      .dwattr $C$DW$52, DW_AT_linkage_name("__eallow")
     449                      .dwattr $C$DW$52, DW_AT_declaration
     450                      .dwattr $C$DW$52, DW_AT_external
     451                      .dwendtag $C$DW$52
     452              
     453              
     454              $C$DW$53        .dwtag  DW_TAG_subprogram
     455                      .dwattr $C$DW$53, DW_AT_name("__edis")
     456                      .dwattr $C$DW$53, DW_AT_linkage_name("__edis")
     457                      .dwattr $C$DW$53, DW_AT_declaration
     458                      .dwattr $C$DW$53, DW_AT_external
     459                      .dwendtag $C$DW$53
     460              
     461              $C$DW$54        .dwtag  DW_TAG_variable
     462                      .dwattr $C$DW$54, DW_AT_name("halMtrHandle")
     463                      .dwattr $C$DW$54, DW_AT_linkage_name("halMtrHandle")
     464                      .dwattr $C$DW$54, DW_AT_type(*$C$DW$T$148)
     465                      .dwattr $C$DW$54, DW_AT_declaration
     466                      .dwattr $C$DW$54, DW_AT_external
     467                      .dwattr $C$DW$54, DW_AT_decl_file("..\sources\dual_axis_servo_drive_hal.h")
     468                      .dwattr $C$DW$54, DW_AT_decl_line(0xc7)
     469                      .dwattr $C$DW$54, DW_AT_decl_column(0x17)
     470              
     471                      .global ||vTimer0||
     472 00000000       ||vTimer0||:    .usect  ".bss:vTimer0",4,0,0
     473              $C$DW$55        .dwtag  DW_TAG_variable
     474                      .dwattr $C$DW$55, DW_AT_name("vTimer0")
     475                      .dwattr $C$DW$55, DW_AT_linkage_name("vTimer0")
     476                      .dwattr $C$DW$55, DW_AT_location[DW_OP_addr ||vTimer0||]
     477                      .dwattr $C$DW$55, DW_AT_type(*$C$DW$T$191)
     478                      .dwattr $C$DW$55, DW_AT_external
     479                      .dwattr $C$DW$55, DW_AT_decl_file("../sources/dual_axis_servo_drive_main_cpu.c")
     480                      .dwattr $C$DW$55, DW_AT_decl_line(0x5b)
     481                      .dwattr $C$DW$55, DW_AT_decl_column(0x0a)
     482              
     483                      .global ||vTimer1||
     484 00000000       ||vTimer1||:    .usect  ".bss:vTimer1",4,0,0
     485              $C$DW$56        .dwtag  DW_TAG_variable
     486                      .dwattr $C$DW$56, DW_AT_name("vTimer1")
     487                      .dwattr $C$DW$56, DW_AT_linkage_name("vTimer1")
     488                      .dwattr $C$DW$56, DW_AT_location[DW_OP_addr ||vTimer1||]
     489                      .dwattr $C$DW$56, DW_AT_type(*$C$DW$T$191)
     490                      .dwattr $C$DW$56, DW_AT_external
     491                      .dwattr $C$DW$56, DW_AT_decl_file("../sources/dual_axis_servo_drive_main_cpu.c")
     492                      .dwattr $C$DW$56, DW_AT_decl_line(0x5c)
     493                      .dwattr $C$DW$56, DW_AT_decl_column(0x0a)
     494              
TMS320C2000 Assembler PC v22.6.2 Fri Dec 19 11:01:59 2025

Copyright (c) 1996-2018 Texas Instruments Incorporated
dual_axis_servo_drive_main_cpu.asm                                   PAGE   10

     495              $C$DW$57        .dwtag  DW_TAG_variable
     496                      .dwattr $C$DW$57, DW_AT_name("hal")
     497                      .dwattr $C$DW$57, DW_AT_linkage_name("hal")
     498                      .dwattr $C$DW$57, DW_AT_type(*$C$DW$T$154)
     499                      .dwattr $C$DW$57, DW_AT_declaration
     500                      .dwattr $C$DW$57, DW_AT_external
     501                      .dwattr $C$DW$57, DW_AT_decl_file("..\sources\dual_axis_servo_drive_hal.h")
     502                      .dwattr $C$DW$57, DW_AT_decl_line(0xc5)
     503                      .dwattr $C$DW$57, DW_AT_decl_column(0x16)
     504              
     505                      .global ||dlog_2ch1||
     506 00000004       ||dlog_2ch1||:  .usect  "datalog_data",18,1,1
     507              $C$DW$58        .dwtag  DW_TAG_variable
     508                      .dwattr $C$DW$58, DW_AT_name("dlog_2ch1")
     509                      .dwattr $C$DW$58, DW_AT_linkage_name("dlog_2ch1")
     510                      .dwattr $C$DW$58, DW_AT_location[DW_OP_addr ||dlog_2ch1||]
     511                      .dwattr $C$DW$58, DW_AT_type(*$C$DW$T$134)
     512                      .dwattr $C$DW$58, DW_AT_external
     513                      .dwattr $C$DW$58, DW_AT_decl_file("../sources/dual_axis_servo_drive_main_cpu.c")
     514                      .dwattr $C$DW$58, DW_AT_decl_line(0x8a)
     515                      .dwattr $C$DW$58, DW_AT_decl_column(0x0c)
     516              
     517              $C$DW$59        .dwtag  DW_TAG_variable
     518                      .dwattr $C$DW$59, DW_AT_name("halMtr")
     519                      .dwattr $C$DW$59, DW_AT_linkage_name("halMtr")
     520                      .dwattr $C$DW$59, DW_AT_type(*$C$DW$T$142)
     521                      .dwattr $C$DW$59, DW_AT_declaration
     522                      .dwattr $C$DW$59, DW_AT_external
     523                      .dwattr $C$DW$59, DW_AT_decl_file("..\sources\dual_axis_servo_drive_hal.h")
     524                      .dwattr $C$DW$59, DW_AT_decl_line(0xc8)
     525                      .dwattr $C$DW$59, DW_AT_decl_column(0x17)
     526              
     527                      .global ||DBUFF_4CH1||
     528 00000016       ||DBUFF_4CH1||: .usect  "datalog_data",400,0,1
     529              $C$DW$60        .dwtag  DW_TAG_variable
     530                      .dwattr $C$DW$60, DW_AT_name("DBUFF_4CH1")
     531                      .dwattr $C$DW$60, DW_AT_linkage_name("DBUFF_4CH1")
     532                      .dwattr $C$DW$60, DW_AT_location[DW_OP_addr ||DBUFF_4CH1||]
     533                      .dwattr $C$DW$60, DW_AT_type(*$C$DW$T$207)
     534                      .dwattr $C$DW$60, DW_AT_external
     535                      .dwattr $C$DW$60, DW_AT_decl_file("../sources/dual_axis_servo_drive_main_cpu.c")
     536                      .dwattr $C$DW$60, DW_AT_decl_line(0x83)
     537                      .dwattr $C$DW$60, DW_AT_decl_column(0x0b)
     538              
     539                      .global ||DBUFF_4CH2||
     540 000001a6       ||DBUFF_4CH2||: .usect  "datalog_data",400,0,1
     541              $C$DW$61        .dwtag  DW_TAG_variable
     542                      .dwattr $C$DW$61, DW_AT_name("DBUFF_4CH2")
     543                      .dwattr $C$DW$61, DW_AT_linkage_name("DBUFF_4CH2")
     544                      .dwattr $C$DW$61, DW_AT_location[DW_OP_addr ||DBUFF_4CH2||]
     545                      .dwattr $C$DW$61, DW_AT_type(*$C$DW$T$207)
     546                      .dwattr $C$DW$61, DW_AT_external
     547                      .dwattr $C$DW$61, DW_AT_decl_file("../sources/dual_axis_servo_drive_main_cpu.c")
     548                      .dwattr $C$DW$61, DW_AT_decl_line(0x84)
     549                      .dwattr $C$DW$61, DW_AT_decl_column(0x0b)
TMS320C2000 Assembler PC v22.6.2 Fri Dec 19 11:01:59 2025

Copyright (c) 1996-2018 Texas Instruments Incorporated
dual_axis_servo_drive_main_cpu.asm                                   PAGE   11

     550              
     551              $C$DW$62        .dwtag  DW_TAG_variable
     552                      .dwattr $C$DW$62, DW_AT_name("motorVars")
     553                      .dwattr $C$DW$62, DW_AT_linkage_name("motorVars")
     554                      .dwattr $C$DW$62, DW_AT_type(*$C$DW$T$162)
     555                      .dwattr $C$DW$62, DW_AT_declaration
     556                      .dwattr $C$DW$62, DW_AT_external
     557                      .dwattr $C$DW$62, DW_AT_decl_file("..\sources\fcl_foc_cpu_dm.h")
     558                      .dwattr $C$DW$62, DW_AT_decl_line(0x113)
     559                      .dwattr $C$DW$62, DW_AT_decl_column(0x15)
     560              
     561                      .sblock ".bss"
     562                      .sblock ".data"
     563                      .sblock "datalog_data"
     564              ;       C:\ti\ccs2031\ccs\tools\compiler\ti-cgt-c2000_22.6.2.LTS\bin\opt2000.exe C:\\Users\\Teddy\\AppData\\L
     565              ;       C:\ti\ccs2031\ccs\tools\compiler\ti-cgt-c2000_22.6.2.LTS\bin\acia2000.exe -@C:\\Users\\Teddy\\AppData
     566 00000000               .sect   ".text:B3"
     567                      .clink
     568                      .global ||B3||
     569              
     570              $C$DW$63        .dwtag  DW_TAG_subprogram
     571                      .dwattr $C$DW$63, DW_AT_name("B3")
     572                      .dwattr $C$DW$63, DW_AT_low_pc(||B3||)
     573                      .dwattr $C$DW$63, DW_AT_high_pc(0x00)
     574                      .dwattr $C$DW$63, DW_AT_linkage_name("B3")
     575                      .dwattr $C$DW$63, DW_AT_external
     576                      .dwattr $C$DW$63, DW_AT_decl_file("../sources/dual_axis_servo_drive_main_cpu.c")
     577                      .dwattr $C$DW$63, DW_AT_decl_line(0x234)
     578                      .dwattr $C$DW$63, DW_AT_decl_column(0x06)
     579                      .dwattr $C$DW$63, DW_AT_TI_max_frame_size(-2)
     580                      .dwpsn  file "../sources/dual_axis_servo_drive_main_cpu.c",line 566,column 1,is_stmt,address ||B3||,i
     581              
     582                      .dwfde $C$DW$CIE, ||B3||
     583              
     584              ;***************************************************************
     585              ;* FNAME: B3                            FR SIZE:   0           *
     586              ;*                                                             *
     587              ;* FUNCTION ENVIRONMENT                                        *
     588              ;*                                                             *
     589              ;* FUNCTION PROPERTIES                                         *
     590              ;*                            0 Parameter,  0 Auto,  0 SOE     *
     591              ;***************************************************************
     592              
     593 00000000       ||B3||:
     594                      .dwcfi  cfa_offset, -2
     595                      .dwcfi  save_reg_to_mem, 26, 0
     596                      .dwpsn  file "../sources/dual_axis_servo_drive_main_cpu.c",line 570,column 5,is_stmt,isa 0
     597 00000000 8F00!         MOVL      XAR4,#||B1||          ; [CPU_ARAU] |570| 
         00000001 0000 
     598 00000002 761F!         MOVW      DP,#||B_Task_Ptr||    ; [CPU_ARAU] 
         00000003 0000 
     599 00000004 A800!         MOVL      @||B_Task_Ptr||,XAR4  ; [CPU_ALU] |570| 
     600              $C$DW$64        .dwtag  DW_TAG_TI_branch
     601                      .dwattr $C$DW$64, DW_AT_low_pc(0x00)
     602                      .dwattr $C$DW$64, DW_AT_TI_return
TMS320C2000 Assembler PC v22.6.2 Fri Dec 19 11:01:59 2025

Copyright (c) 1996-2018 Texas Instruments Incorporated
dual_axis_servo_drive_main_cpu.asm                                   PAGE   12

     603              
     604 00000005 0006          LRETR     ; [CPU_ALU] 
     605                      ; return occurs ; [] 
     606                      .dwattr $C$DW$63, DW_AT_TI_end_file("../sources/dual_axis_servo_drive_main_cpu.c")
     607                      .dwattr $C$DW$63, DW_AT_TI_end_line(0x23c)
     608                      .dwattr $C$DW$63, DW_AT_TI_end_column(0x01)
     609                      .dwendentry
     610                      .dwendtag $C$DW$63
     611              
     612 00000000               .sect   ".text:B2"
     613                      .clink
     614                      .global ||B2||
     615              
     616              $C$DW$65        .dwtag  DW_TAG_subprogram
     617                      .dwattr $C$DW$65, DW_AT_name("B2")
     618                      .dwattr $C$DW$65, DW_AT_low_pc(||B2||)
     619                      .dwattr $C$DW$65, DW_AT_high_pc(0x00)
     620                      .dwattr $C$DW$65, DW_AT_linkage_name("B2")
     621                      .dwattr $C$DW$65, DW_AT_external
     622                      .dwattr $C$DW$65, DW_AT_decl_file("../sources/dual_axis_servo_drive_main_cpu.c")
     623                      .dwattr $C$DW$65, DW_AT_decl_line(0x22a)
     624                      .dwattr $C$DW$65, DW_AT_decl_column(0x06)
     625                      .dwattr $C$DW$65, DW_AT_TI_max_frame_size(-2)
     626                      .dwpsn  file "../sources/dual_axis_servo_drive_main_cpu.c",line 556,column 1,is_stmt,address ||B2||,i
     627              
     628                      .dwfde $C$DW$CIE, ||B2||
     629              
     630              ;***************************************************************
     631              ;* FNAME: B2                            FR SIZE:   0           *
     632              ;*                                                             *
     633              ;* FUNCTION ENVIRONMENT                                        *
     634              ;*                                                             *
     635              ;* FUNCTION PROPERTIES                                         *
     636              ;*                            0 Parameter,  0 Auto,  0 SOE     *
     637              ;***************************************************************
     638              
     639 00000000       ||B2||:
     640                      .dwcfi  cfa_offset, -2
     641                      .dwcfi  save_reg_to_mem, 26, 0
     642                      .dwpsn  file "../sources/dual_axis_servo_drive_main_cpu.c",line 559,column 5,is_stmt,isa 0
     643 00000000 8F00!         MOVL      XAR4,#||B3||          ; [CPU_ARAU] |559| 
         00000001 0000 
     644 00000002 761F!         MOVW      DP,#||B_Task_Ptr||    ; [CPU_ARAU] 
         00000003 0000 
     645 00000004 A800!         MOVL      @||B_Task_Ptr||,XAR4  ; [CPU_ALU] |559| 
     646              $C$DW$66        .dwtag  DW_TAG_TI_branch
     647                      .dwattr $C$DW$66, DW_AT_low_pc(0x00)
     648                      .dwattr $C$DW$66, DW_AT_TI_return
     649              
     650 00000005 0006          LRETR     ; [CPU_ALU] 
     651                      ; return occurs ; [] 
     652                      .dwattr $C$DW$65, DW_AT_TI_end_file("../sources/dual_axis_servo_drive_main_cpu.c")
     653                      .dwattr $C$DW$65, DW_AT_TI_end_line(0x231)
     654                      .dwattr $C$DW$65, DW_AT_TI_end_column(0x01)
     655                      .dwendentry
TMS320C2000 Assembler PC v22.6.2 Fri Dec 19 11:01:59 2025

Copyright (c) 1996-2018 Texas Instruments Incorporated
dual_axis_servo_drive_main_cpu.asm                                   PAGE   13

     656                      .dwendtag $C$DW$65
     657              
     658 00000000               .sect   ".text:A3"
     659                      .clink
     660                      .global ||A3||
     661              
     662              $C$DW$67        .dwtag  DW_TAG_subprogram
     663                      .dwattr $C$DW$67, DW_AT_name("A3")
     664                      .dwattr $C$DW$67, DW_AT_low_pc(||A3||)
     665                      .dwattr $C$DW$67, DW_AT_high_pc(0x00)
     666                      .dwattr $C$DW$67, DW_AT_linkage_name("A3")
     667                      .dwattr $C$DW$67, DW_AT_external
     668                      .dwattr $C$DW$67, DW_AT_decl_file("../sources/dual_axis_servo_drive_main_cpu.c")
     669                      .dwattr $C$DW$67, DW_AT_decl_line(0x1ff)
     670                      .dwattr $C$DW$67, DW_AT_decl_column(0x06)
     671                      .dwattr $C$DW$67, DW_AT_TI_max_frame_size(-2)
     672                      .dwpsn  file "../sources/dual_axis_servo_drive_main_cpu.c",line 513,column 1,is_stmt,address ||A3||,i
     673              
     674                      .dwfde $C$DW$CIE, ||A3||
     675              
     676              ;***************************************************************
     677              ;* FNAME: A3                            FR SIZE:   0           *
     678              ;*                                                             *
     679              ;* FUNCTION ENVIRONMENT                                        *
     680              ;*                                                             *
     681              ;* FUNCTION PROPERTIES                                         *
     682              ;*                            0 Parameter,  0 Auto,  0 SOE     *
     683              ;***************************************************************
     684              
     685 00000000       ||A3||:
     686                      .dwcfi  cfa_offset, -2
     687                      .dwcfi  save_reg_to_mem, 26, 0
     688 00000000 761F!         MOVW      DP,#||led2Cnt||       ; [CPU_ARAU] 
         00000001 0000 
     689                      .dwpsn  file "../sources/dual_axis_servo_drive_main_cpu.c",line 514,column 5,is_stmt,isa 0
     690 00000002 0A00!         INC       @||led2Cnt||          ; [CPU_ALU] |514| 
     691 00000003 1B00!         CMP       @||led2Cnt||,#2000    ; [CPU_ALU] |514| 
         00000004 07D0 
     692 00000005 6805          B         ||$C$L1||,LO          ; [CPU_ALU] |514| 
     693                      ; branchcc occurs ; [] |514| 
     694                      .dwpsn  file "C:/ti/C2000Ware_MotorControl_SDK_5_04_00_00/c2000ware/driverlib/f28002x/driverlib/gpio.
     695 00000006 0204          MOVB      ACC,#4                ; [CPU_ALU] |521| 
     696                      .dwpsn  file "../sources/dual_axis_servo_drive_main_cpu.c",line 518,column 9,is_stmt,isa 0
     697 00000007 2B00!         MOV       @||led2Cnt||,#0       ; [CPU_ALU] |518| 
     698                      .dwpsn  file "C:/ti/C2000Ware_MotorControl_SDK_5_04_00_00/c2000ware/driverlib/f28002x/driverlib/gpio.
     699 00000008 BDA9          MOV32     *(0:0x7f0e),ACC       ; [CPU_FPU] |521| 
         00000009 7F0E 
     700 0000000a       ||$C$L1||:    
     701                      .dwpsn  file "../sources/dual_axis_servo_drive_main_cpu.c",line 525,column 5,is_stmt,isa 0
     702 0000000a 8F00!         MOVL      XAR4,#||A1||          ; [CPU_ARAU] |525| 
         0000000b 0000 
     703 0000000c A800!         MOVL      @||A_Task_Ptr||,XAR4  ; [CPU_ALU] |525| 
     704              $C$DW$68        .dwtag  DW_TAG_TI_branch
     705                      .dwattr $C$DW$68, DW_AT_low_pc(0x00)
     706                      .dwattr $C$DW$68, DW_AT_TI_return
TMS320C2000 Assembler PC v22.6.2 Fri Dec 19 11:01:59 2025

Copyright (c) 1996-2018 Texas Instruments Incorporated
dual_axis_servo_drive_main_cpu.asm                                   PAGE   14

     707              
     708 0000000d 0006          LRETR     ; [CPU_ALU] 
     709                      ; return occurs ; [] 
     710                      .dwattr $C$DW$67, DW_AT_TI_end_file("../sources/dual_axis_servo_drive_main_cpu.c")
     711                      .dwattr $C$DW$67, DW_AT_TI_end_line(0x20f)
     712                      .dwattr $C$DW$67, DW_AT_TI_end_column(0x01)
     713                      .dwendentry
     714                      .dwendtag $C$DW$67
     715              
     716 00000000               .sect   ".text:A2"
     717                      .clink
     718                      .global ||A2||
     719              
     720              $C$DW$69        .dwtag  DW_TAG_subprogram
     721                      .dwattr $C$DW$69, DW_AT_name("A2")
     722                      .dwattr $C$DW$69, DW_AT_low_pc(||A2||)
     723                      .dwattr $C$DW$69, DW_AT_high_pc(0x00)
     724                      .dwattr $C$DW$69, DW_AT_linkage_name("A2")
     725                      .dwattr $C$DW$69, DW_AT_external
     726                      .dwattr $C$DW$69, DW_AT_decl_file("../sources/dual_axis_servo_drive_main_cpu.c")
     727                      .dwattr $C$DW$69, DW_AT_decl_line(0x1f4)
     728                      .dwattr $C$DW$69, DW_AT_decl_column(0x06)
     729                      .dwattr $C$DW$69, DW_AT_TI_max_frame_size(-2)
     730                      .dwpsn  file "../sources/dual_axis_servo_drive_main_cpu.c",line 502,column 1,is_stmt,address ||A2||,i
     731              
     732                      .dwfde $C$DW$CIE, ||A2||
     733              
     734              ;***************************************************************
     735              ;* FNAME: A2                            FR SIZE:   0           *
     736              ;*                                                             *
     737              ;* FUNCTION ENVIRONMENT                                        *
     738              ;*                                                             *
     739              ;* FUNCTION PROPERTIES                                         *
     740              ;*                            0 Parameter,  0 Auto,  0 SOE     *
     741              ;***************************************************************
     742              
     743 00000000       ||A2||:
     744                      .dwcfi  cfa_offset, -2
     745                      .dwcfi  save_reg_to_mem, 26, 0
     746                      .dwpsn  file "../sources/dual_axis_servo_drive_main_cpu.c",line 506,column 5,is_stmt,isa 0
     747 00000000 8F00!         MOVL      XAR4,#||A3||          ; [CPU_ARAU] |506| 
         00000001 0000 
     748 00000002 761F!         MOVW      DP,#||A_Task_Ptr||    ; [CPU_ARAU] 
         00000003 0000 
     749 00000004 A800!         MOVL      @||A_Task_Ptr||,XAR4  ; [CPU_ALU] |506| 
     750              $C$DW$70        .dwtag  DW_TAG_TI_branch
     751                      .dwattr $C$DW$70, DW_AT_low_pc(0x00)
     752                      .dwattr $C$DW$70, DW_AT_TI_return
     753              
     754 00000005 0006          LRETR     ; [CPU_ALU] 
     755                      ; return occurs ; [] 
     756                      .dwattr $C$DW$69, DW_AT_TI_end_file("../sources/dual_axis_servo_drive_main_cpu.c")
     757                      .dwattr $C$DW$69, DW_AT_TI_end_line(0x1fc)
     758                      .dwattr $C$DW$69, DW_AT_TI_end_column(0x01)
     759                      .dwendentry
TMS320C2000 Assembler PC v22.6.2 Fri Dec 19 11:01:59 2025

Copyright (c) 1996-2018 Texas Instruments Incorporated
dual_axis_servo_drive_main_cpu.asm                                   PAGE   15

     760                      .dwendtag $C$DW$69
     761              
     762 00000000               .sect   ".text:B1"
     763                      .clink
     764                      .global ||B1||
     765              
     766              $C$DW$71        .dwtag  DW_TAG_subprogram
     767                      .dwattr $C$DW$71, DW_AT_name("B1")
     768                      .dwattr $C$DW$71, DW_AT_low_pc(||B1||)
     769                      .dwattr $C$DW$71, DW_AT_high_pc(0x00)
     770                      .dwattr $C$DW$71, DW_AT_linkage_name("B1")
     771                      .dwattr $C$DW$71, DW_AT_external
     772                      .dwattr $C$DW$71, DW_AT_decl_file("../sources/dual_axis_servo_drive_main_cpu.c")
     773                      .dwattr $C$DW$71, DW_AT_decl_line(0x218)
     774                      .dwattr $C$DW$71, DW_AT_decl_column(0x06)
     775                      .dwattr $C$DW$71, DW_AT_TI_max_frame_size(-2)
     776                      .dwpsn  file "../sources/dual_axis_servo_drive_main_cpu.c",line 538,column 1,is_stmt,address ||B1||,i
     777              
     778                      .dwfde $C$DW$CIE, ||B1||
     779              
     780              ;***************************************************************
     781              ;* FNAME: B1                            FR SIZE:   0           *
     782              ;*                                                             *
     783              ;* FUNCTION ENVIRONMENT                                        *
     784              ;*                                                             *
     785              ;* FUNCTION PROPERTIES                                         *
     786              ;*                            0 Parameter,  0 Auto,  0 SOE     *
     787              ;***************************************************************
     788              
     789 00000000       ||B1||:
     790                      .dwcfi  cfa_offset, -2
     791                      .dwcfi  save_reg_to_mem, 26, 0
     792                      .dwpsn  file "../sources/dual_axis_servo_drive_main_cpu.c",line 549,column 5,is_stmt,isa 0
     793 00000000 8F00!         MOVL      XAR4,#||B2||          ; [CPU_ARAU] |549| 
         00000001 0000 
     794 00000002 761F!         MOVW      DP,#||B_Task_Ptr||    ; [CPU_ARAU] 
         00000003 0000 
     795 00000004 A800!         MOVL      @||B_Task_Ptr||,XAR4  ; [CPU_ALU] |549| 
     796              $C$DW$72        .dwtag  DW_TAG_TI_branch
     797                      .dwattr $C$DW$72, DW_AT_low_pc(0x00)
     798                      .dwattr $C$DW$72, DW_AT_TI_return
     799              
     800 00000005 0006          LRETR     ; [CPU_ALU] 
     801                      ; return occurs ; [] 
     802                      .dwattr $C$DW$71, DW_AT_TI_end_file("../sources/dual_axis_servo_drive_main_cpu.c")
     803                      .dwattr $C$DW$71, DW_AT_TI_end_line(0x227)
     804                      .dwattr $C$DW$71, DW_AT_TI_end_column(0x01)
     805                      .dwendentry
     806                      .dwendtag $C$DW$71
     807              
     808 00000000               .sect   ".text:A1"
     809                      .clink
     810                      .global ||A1||
     811              
     812              $C$DW$73        .dwtag  DW_TAG_subprogram
TMS320C2000 Assembler PC v22.6.2 Fri Dec 19 11:01:59 2025

Copyright (c) 1996-2018 Texas Instruments Incorporated
dual_axis_servo_drive_main_cpu.asm                                   PAGE   16

     813                      .dwattr $C$DW$73, DW_AT_name("A1")
     814                      .dwattr $C$DW$73, DW_AT_low_pc(||A1||)
     815                      .dwattr $C$DW$73, DW_AT_high_pc(0x00)
     816                      .dwattr $C$DW$73, DW_AT_linkage_name("A1")
     817                      .dwattr $C$DW$73, DW_AT_external
     818                      .dwattr $C$DW$73, DW_AT_decl_file("../sources/dual_axis_servo_drive_main_cpu.c")
     819                      .dwattr $C$DW$73, DW_AT_decl_line(0x1e9)
     820                      .dwattr $C$DW$73, DW_AT_decl_column(0x06)
     821                      .dwattr $C$DW$73, DW_AT_TI_max_frame_size(-2)
     822                      .dwpsn  file "../sources/dual_axis_servo_drive_main_cpu.c",line 491,column 1,is_stmt,address ||A1||,i
     823              
     824                      .dwfde $C$DW$CIE, ||A1||
     825              
     826              ;***************************************************************
     827              ;* FNAME: A1                            FR SIZE:   0           *
     828              ;*                                                             *
     829              ;* FUNCTION ENVIRONMENT                                        *
     830              ;*                                                             *
     831              ;* FUNCTION PROPERTIES                                         *
     832              ;*                            0 Parameter,  0 Auto,  0 SOE     *
     833              ;***************************************************************
     834              
     835 00000000       ||A1||:
     836                      .dwcfi  cfa_offset, -2
     837                      .dwcfi  save_reg_to_mem, 26, 0
     838                      .dwpsn  file "../sources/dual_axis_servo_drive_main_cpu.c",line 495,column 5,is_stmt,isa 0
     839 00000000 8F00!         MOVL      XAR4,#||A2||          ; [CPU_ARAU] |495| 
         00000001 0000 
     840 00000002 761F!         MOVW      DP,#||A_Task_Ptr||    ; [CPU_ARAU] 
         00000003 0000 
     841 00000004 A800!         MOVL      @||A_Task_Ptr||,XAR4  ; [CPU_ALU] |495| 
     842              $C$DW$74        .dwtag  DW_TAG_TI_branch
     843                      .dwattr $C$DW$74, DW_AT_low_pc(0x00)
     844                      .dwattr $C$DW$74, DW_AT_TI_return
     845              
     846 00000005 0006          LRETR     ; [CPU_ALU] 
     847                      ; return occurs ; [] 
     848                      .dwattr $C$DW$73, DW_AT_TI_end_file("../sources/dual_axis_servo_drive_main_cpu.c")
     849                      .dwattr $C$DW$73, DW_AT_TI_end_line(0x1f1)
     850                      .dwattr $C$DW$73, DW_AT_TI_end_column(0x01)
     851                      .dwendentry
     852                      .dwendtag $C$DW$73
     853              
     854 00000000               .sect   ".text:A0"
     855                      .clink
     856                      .global ||A0||
     857              
     858              $C$DW$75        .dwtag  DW_TAG_subprogram
     859                      .dwattr $C$DW$75, DW_AT_name("A0")
     860                      .dwattr $C$DW$75, DW_AT_low_pc(||A0||)
     861                      .dwattr $C$DW$75, DW_AT_high_pc(0x00)
     862                      .dwattr $C$DW$75, DW_AT_linkage_name("A0")
     863                      .dwattr $C$DW$75, DW_AT_external
     864                      .dwattr $C$DW$75, DW_AT_decl_file("../sources/dual_axis_servo_drive_main_cpu.c")
     865                      .dwattr $C$DW$75, DW_AT_decl_line(0x1c1)
TMS320C2000 Assembler PC v22.6.2 Fri Dec 19 11:01:59 2025

Copyright (c) 1996-2018 Texas Instruments Incorporated
dual_axis_servo_drive_main_cpu.asm                                   PAGE   17

     866                      .dwattr $C$DW$75, DW_AT_decl_column(0x06)
     867                      .dwattr $C$DW$75, DW_AT_TI_max_frame_size(-2)
     868                      .dwpsn  file "../sources/dual_axis_servo_drive_main_cpu.c",line 450,column 1,is_stmt,address ||A0||,i
     869              
     870                      .dwfde $C$DW$CIE, ||A0||
     871              
     872              ;***************************************************************
     873              ;* FNAME: A0                            FR SIZE:   0           *
     874              ;*                                                             *
     875              ;* FUNCTION ENVIRONMENT                                        *
     876              ;*                                                             *
     877              ;* FUNCTION PROPERTIES                                         *
     878              ;*                            0 Parameter,  0 Auto,  0 SOE     *
     879              ;***************************************************************
     880              
     881 00000000       ||A0||:
     882                      .dwcfi  cfa_offset, -2
     883                      .dwcfi  save_reg_to_mem, 26, 0
     884                      .dwpsn  file "C:/ti/C2000Ware_MotorControl_SDK_5_04_00_00/c2000ware/driverlib/f28002x/driverlib/cputi
     885 00000000 F5A9          MOV       AL,*(0:0x0c04)        ; [CPU_ALU] |397| 
         00000001 0C04 
     886 00000002 4FA9          TBIT      AL,#15                ; [CPU_ALU] |397| 
     887 00000003 6C11          B         ||$C$L2||,NTC         ; [CPU_ALU] |397| 
     888                      ; branchcc occurs ; [] |397| 
     889 00000004 761F!         MOVW      DP,#||A_Task_Ptr||    ; [CPU_ARAU] 
         00000005 0000 
     890                      .dwpsn  file "C:/ti/C2000Ware_MotorControl_SDK_5_04_00_00/c2000ware/driverlib/f28002x/driverlib/cputi
     891 00000006 F5A9          MOV       AL,*(0:0x0c04)        ; [CPU_ALU] |165| 
         00000007 0C04 
     892                      .dwpsn  file "../sources/dual_axis_servo_drive_main_cpu.c",line 457,column 9,is_stmt,isa 0
     893 00000008 C500!         MOVL      XAR7,@||A_Task_Ptr||  ; [CPU_ALU] |457| 
     894                      .dwpsn  file "C:/ti/C2000Ware_MotorControl_SDK_5_04_00_00/c2000ware/driverlib/f28002x/driverlib/cputi
     895 00000009 1AA9          OR        AL,#0x8000            ; [CPU_ALU] |165| 
         0000000a 8000 
     896 0000000b F4A9          MOV       *(0:0x0c04),AL        ; [CPU_ALU] |165| 
         0000000c 0C04 
     897                      .dwpsn  file "../sources/dual_axis_servo_drive_main_cpu.c",line 457,column 9,is_stmt,isa 0
     898              $C$DW$76        .dwtag  DW_TAG_TI_branch
     899                      .dwattr $C$DW$76, DW_AT_low_pc(0x00)
     900                      .dwattr $C$DW$76, DW_AT_TI_call
     901                      .dwattr $C$DW$76, DW_AT_TI_indirect
     902              
     903 0000000d 3E67          LCR       *XAR7                 ; [CPU_ALU] |457| 
     904                      ; call occurs [XAR7] ; [] |457| 
     905 0000000e 761F!         MOVW      DP,#||vTimer0||       ; [CPU_ARAU] 
         0000000f 0000 
     906                      .dwpsn  file "../sources/dual_axis_servo_drive_main_cpu.c",line 460,column 9,is_stmt,isa 0
     907 00000010 0A00!         INC       @||vTimer0||          ; [CPU_ALU] |460| 
     908 00000011 761F!         MOVW      DP,#||serialCommsTimer|| ; [CPU_ARAU] 
         00000012 0000 
     909                      .dwpsn  file "../sources/dual_axis_servo_drive_main_cpu.c",line 461,column 9,is_stmt,isa 0
     910 00000013 0A00!         INC       @||serialCommsTimer|| ; [CPU_ALU] |461| 
     911 00000014       ||$C$L2||:    
     912                      .dwpsn  file "../sources/dual_axis_servo_drive_main_cpu.c",line 464,column 5,is_stmt,isa 0
     913 00000014 8F00!         MOVL      XAR4,#||B0||          ; [CPU_ARAU] |464| 
TMS320C2000 Assembler PC v22.6.2 Fri Dec 19 11:01:59 2025

Copyright (c) 1996-2018 Texas Instruments Incorporated
dual_axis_servo_drive_main_cpu.asm                                   PAGE   18

         00000015 0000 
     914 00000016 761F!         MOVW      DP,#||Alpha_State_Ptr|| ; [CPU_ARAU] 
         00000017 0000 
     915 00000018 A800!         MOVL      @||Alpha_State_Ptr||,XAR4 ; [CPU_ALU] |464| 
     916              $C$DW$77        .dwtag  DW_TAG_TI_branch
     917                      .dwattr $C$DW$77, DW_AT_low_pc(0x00)
     918                      .dwattr $C$DW$77, DW_AT_TI_return
     919              
     920 00000019 0006          LRETR     ; [CPU_ALU] 
     921                      ; return occurs ; [] 
     922                      .dwattr $C$DW$75, DW_AT_TI_end_file("../sources/dual_axis_servo_drive_main_cpu.c")
     923                      .dwattr $C$DW$75, DW_AT_TI_end_line(0x1d1)
     924                      .dwattr $C$DW$75, DW_AT_TI_end_column(0x01)
     925                      .dwendentry
     926                      .dwendtag $C$DW$75
     927              
     928 00000000               .sect   ".text:B0"
     929                      .clink
     930                      .global ||B0||
     931              
     932              $C$DW$78        .dwtag  DW_TAG_subprogram
     933                      .dwattr $C$DW$78, DW_AT_name("B0")
     934                      .dwattr $C$DW$78, DW_AT_low_pc(||B0||)
     935                      .dwattr $C$DW$78, DW_AT_high_pc(0x00)
     936                      .dwattr $C$DW$78, DW_AT_linkage_name("B0")
     937                      .dwattr $C$DW$78, DW_AT_external
     938                      .dwattr $C$DW$78, DW_AT_decl_file("../sources/dual_axis_servo_drive_main_cpu.c")
     939                      .dwattr $C$DW$78, DW_AT_decl_line(0x1d3)
     940                      .dwattr $C$DW$78, DW_AT_decl_column(0x06)
     941                      .dwattr $C$DW$78, DW_AT_TI_max_frame_size(-2)
     942                      .dwpsn  file "../sources/dual_axis_servo_drive_main_cpu.c",line 468,column 1,is_stmt,address ||B0||,i
     943              
     944                      .dwfde $C$DW$CIE, ||B0||
     945              
     946              ;***************************************************************
     947              ;* FNAME: B0                            FR SIZE:   0           *
     948              ;*                                                             *
     949              ;* FUNCTION ENVIRONMENT                                        *
     950              ;*                                                             *
     951              ;* FUNCTION PROPERTIES                                         *
     952              ;*                            0 Parameter,  0 Auto,  0 SOE     *
     953              ;***************************************************************
     954              
     955 00000000       ||B0||:
     956                      .dwcfi  cfa_offset, -2
     957                      .dwcfi  save_reg_to_mem, 26, 0
     958                      .dwpsn  file "C:/ti/C2000Ware_MotorControl_SDK_5_04_00_00/c2000ware/driverlib/f28002x/driverlib/cputi
     959 00000000 F5A9          MOV       AL,*(0:0x0c0c)        ; [CPU_ALU] |397| 
         00000001 0C0C 
     960 00000002 4FA9          TBIT      AL,#15                ; [CPU_ALU] |397| 
     961 00000003 6C0E          B         ||$C$L3||,NTC         ; [CPU_ALU] |397| 
     962                      ; branchcc occurs ; [] |397| 
     963 00000004 761F!         MOVW      DP,#||B_Task_Ptr||    ; [CPU_ARAU] 
         00000005 0000 
     964                      .dwpsn  file "C:/ti/C2000Ware_MotorControl_SDK_5_04_00_00/c2000ware/driverlib/f28002x/driverlib/cputi
TMS320C2000 Assembler PC v22.6.2 Fri Dec 19 11:01:59 2025

Copyright (c) 1996-2018 Texas Instruments Incorporated
dual_axis_servo_drive_main_cpu.asm                                   PAGE   19

     965 00000006 F5A9          MOV       AL,*(0:0x0c0c)        ; [CPU_ALU] |165| 
         00000007 0C0C 
     966                      .dwpsn  file "../sources/dual_axis_servo_drive_main_cpu.c",line 475,column 9,is_stmt,isa 0
     967 00000008 C500!         MOVL      XAR7,@||B_Task_Ptr||  ; [CPU_ALU] |475| 
     968                      .dwpsn  file "C:/ti/C2000Ware_MotorControl_SDK_5_04_00_00/c2000ware/driverlib/f28002x/driverlib/cputi
     969 00000009 1AA9          OR        AL,#0x8000            ; [CPU_ALU] |165| 
         0000000a 8000 
     970 0000000b F4A9          MOV       *(0:0x0c0c),AL        ; [CPU_ALU] |165| 
         0000000c 0C0C 
     971                      .dwpsn  file "../sources/dual_axis_servo_drive_main_cpu.c",line 475,column 9,is_stmt,isa 0
     972              $C$DW$79        .dwtag  DW_TAG_TI_branch
     973                      .dwattr $C$DW$79, DW_AT_low_pc(0x00)
     974                      .dwattr $C$DW$79, DW_AT_TI_call
     975                      .dwattr $C$DW$79, DW_AT_TI_indirect
     976              
     977 0000000d 3E67          LCR       *XAR7                 ; [CPU_ALU] |475| 
     978                      ; call occurs [XAR7] ; [] |475| 
     979 0000000e 761F!         MOVW      DP,#||vTimer1||       ; [CPU_ARAU] 
         0000000f 0000 
     980                      .dwpsn  file "../sources/dual_axis_servo_drive_main_cpu.c",line 478,column 9,is_stmt,isa 0
     981 00000010 0A00!         INC       @||vTimer1||          ; [CPU_ALU] |478| 
     982 00000011       ||$C$L3||:    
     983                      .dwpsn  file "../sources/dual_axis_servo_drive_main_cpu.c",line 481,column 5,is_stmt,isa 0
     984 00000011 8F00!         MOVL      XAR4,#||A0||          ; [CPU_ARAU] |481| 
         00000012 0000 
     985 00000013 761F!         MOVW      DP,#||Alpha_State_Ptr|| ; [CPU_ARAU] 
         00000014 0000 
     986 00000015 A800!         MOVL      @||Alpha_State_Ptr||,XAR4 ; [CPU_ALU] |481| 
     987              $C$DW$80        .dwtag  DW_TAG_TI_branch
     988                      .dwattr $C$DW$80, DW_AT_low_pc(0x00)
     989                      .dwattr $C$DW$80, DW_AT_TI_return
     990              
     991 00000016 0006          LRETR     ; [CPU_ALU] 
     992                      ; return occurs ; [] 
     993                      .dwattr $C$DW$78, DW_AT_TI_end_file("../sources/dual_axis_servo_drive_main_cpu.c")
     994                      .dwattr $C$DW$78, DW_AT_TI_end_line(0x1e2)
     995                      .dwattr $C$DW$78, DW_AT_TI_end_column(0x01)
     996                      .dwendentry
     997                      .dwendtag $C$DW$78
     998              
     999 00000000               .sect   ".text:main"
    1000                      .clink
    1001                      .global ||main||
    1002              
    1003              $C$DW$81        .dwtag  DW_TAG_subprogram
    1004                      .dwattr $C$DW$81, DW_AT_name("main")
    1005                      .dwattr $C$DW$81, DW_AT_low_pc(||main||)
    1006                      .dwattr $C$DW$81, DW_AT_high_pc(0x00)
    1007                      .dwattr $C$DW$81, DW_AT_linkage_name("main")
    1008                      .dwattr $C$DW$81, DW_AT_external
    1009                      .dwattr $C$DW$81, DW_AT_decl_file("../sources/dual_axis_servo_drive_main_cpu.c")
    1010                      .dwattr $C$DW$81, DW_AT_decl_line(0xa2)
    1011                      .dwattr $C$DW$81, DW_AT_decl_column(0x06)
    1012                      .dwattr $C$DW$81, DW_AT_TI_max_frame_size(-4)
    1013                      .dwpsn  file "../sources/dual_axis_servo_drive_main_cpu.c",line 163,column 1,is_stmt,address ||main||
TMS320C2000 Assembler PC v22.6.2 Fri Dec 19 11:01:59 2025

Copyright (c) 1996-2018 Texas Instruments Incorporated
dual_axis_servo_drive_main_cpu.asm                                   PAGE   20

    1014              
    1015                      .dwfde $C$DW$CIE, ||main||
    1016              
    1017              ;***************************************************************
    1018              ;* FNAME: main                          FR SIZE:   2           *
    1019              ;*                                                             *
    1020              ;* FUNCTION ENVIRONMENT                                        *
    1021              ;*                                                             *
    1022              ;* FUNCTION PROPERTIES                                         *
    1023              ;*                            0 Parameter,  0 Auto,  2 SOE     *
    1024              ;***************************************************************
    1025              
    1026              ||main||:
    1027              ;* AR1   assigned to $O$K26
    1028              ;* AR1   assigned to $O$K26
    1029              ;* AR5   assigned to handle
    1030              $C$DW$82        .dwtag  DW_TAG_variable
    1031                      .dwattr $C$DW$82, DW_AT_name("handle")
    1032                      .dwattr $C$DW$82, DW_AT_type(*$C$DW$T$144)
    1033                      .dwattr $C$DW$82, DW_AT_location[DW_OP_reg14]
    1034              
    1035              ;* AR4   assigned to base
    1036              $C$DW$83        .dwtag  DW_TAG_variable
    1037                      .dwattr $C$DW$83, DW_AT_name("base")
    1038                      .dwattr $C$DW$83, DW_AT_type(*$C$DW$T$28)
    1039                      .dwattr $C$DW$83, DW_AT_location[DW_OP_reg12]
    1040              
    1041              ;* AL    assigned to base
    1042              $C$DW$84        .dwtag  DW_TAG_variable
    1043                      .dwattr $C$DW$84, DW_AT_name("base")
    1044                      .dwattr $C$DW$84, DW_AT_type(*$C$DW$T$28)
    1045                      .dwattr $C$DW$84, DW_AT_location[DW_OP_reg0]
    1046              
    1047              ;* AL    assigned to base
    1048              $C$DW$85        .dwtag  DW_TAG_variable
    1049                      .dwattr $C$DW$85, DW_AT_name("base")
    1050                      .dwattr $C$DW$85, DW_AT_type(*$C$DW$T$28)
    1051                      .dwattr $C$DW$85, DW_AT_location[DW_OP_reg0]
    1052              
    1053              ;* AR4   assigned to base
    1054              $C$DW$86        .dwtag  DW_TAG_variable
    1055                      .dwattr $C$DW$86, DW_AT_name("base")
    1056                      .dwattr $C$DW$86, DW_AT_type(*$C$DW$T$28)
    1057                      .dwattr $C$DW$86, DW_AT_location[DW_OP_reg12]
    1058              
    1059              ;* AR4   assigned to base
    1060              $C$DW$87        .dwtag  DW_TAG_variable
    1061                      .dwattr $C$DW$87, DW_AT_name("base")
    1062                      .dwattr $C$DW$87, DW_AT_type(*$C$DW$T$28)
    1063                      .dwattr $C$DW$87, DW_AT_location[DW_OP_reg12]
    1064              
    1065              ;* AR4   assigned to base
    1066              $C$DW$88        .dwtag  DW_TAG_variable
    1067                      .dwattr $C$DW$88, DW_AT_name("base")
    1068                      .dwattr $C$DW$88, DW_AT_type(*$C$DW$T$28)
TMS320C2000 Assembler PC v22.6.2 Fri Dec 19 11:01:59 2025

Copyright (c) 1996-2018 Texas Instruments Incorporated
dual_axis_servo_drive_main_cpu.asm                                   PAGE   21

    1069                      .dwattr $C$DW$88, DW_AT_location[DW_OP_reg12]
    1070              
    1071              ;* AR4   assigned to base
    1072              $C$DW$89        .dwtag  DW_TAG_variable
    1073                      .dwattr $C$DW$89, DW_AT_name("base")
    1074                      .dwattr $C$DW$89, DW_AT_type(*$C$DW$T$28)
    1075                      .dwattr $C$DW$89, DW_AT_location[DW_OP_reg12]
    1076              
    1077              ;* AR4   assigned to base
    1078              $C$DW$90        .dwtag  DW_TAG_variable
    1079                      .dwattr $C$DW$90, DW_AT_name("base")
    1080                      .dwattr $C$DW$90, DW_AT_type(*$C$DW$T$28)
    1081                      .dwattr $C$DW$90, DW_AT_location[DW_OP_reg12]
    1082              
    1083              ;* AR4   assigned to base
    1084              $C$DW$91        .dwtag  DW_TAG_variable
    1085                      .dwattr $C$DW$91, DW_AT_name("base")
    1086                      .dwattr $C$DW$91, DW_AT_type(*$C$DW$T$28)
    1087                      .dwattr $C$DW$91, DW_AT_location[DW_OP_reg12]
    1088              
    1089                      .dwcfi  cfa_offset, -2
    1090                      .dwcfi  save_reg_to_mem, 26, 0
    1091 00000000 761F!         MOVW      DP,#||test2||         ; [CPU_ARAU] 
         00000001 0000 
    1092                      .dwpsn  file "../sources/dual_axis_servo_drive_main_cpu.c",line 164,column 5,is_stmt,isa 0
    1093 00000002 E802          MOVIZ     R0H,#16840            ; [CPU_FPU] |164| 
         00000003 0E40 
    1094 00000004 B2BD          MOVL      *SP++,XAR1            ; [CPU_ALU] 
    1095                      .dwcfi  save_reg_to_mem, 7, 2
    1096                      .dwcfi  cfa_offset, -4
    1097                      .dwpsn  file "../sources/dual_axis_servo_drive_main_cpu.c",line 165,column 5,is_stmt,isa 0
    1098 00000005 56BF!         MOVB      @||test2||,#3,UNC     ; [CPU_ALU] |165| 
         00000006 0300 
    1099                      .dwpsn  file "../sources/dual_axis_servo_drive_main_cpu.c",line 164,column 5,is_stmt,isa 0
    1100 00000007 E203!         MOV32     @||test||,R0H         ; [CPU_FPU] |164| 
         00000008 0000 
    1101                      .dwpsn  file "../sources/dual_axis_servo_drive_main_cpu.c",line 167,column 5,is_stmt,isa 0
    1102              $C$DW$92        .dwtag  DW_TAG_TI_branch
    1103                      .dwattr $C$DW$92, DW_AT_low_pc(0x00)
    1104                      .dwattr $C$DW$92, DW_AT_name("Device_init")
    1105                      .dwattr $C$DW$92, DW_AT_TI_call
    1106              
    1107 00000009 7640!         LCR       #||Device_init||      ; [CPU_ALU] |167| 
         0000000a 0000 
    1108                      ; call occurs [#||Device_init||] ; [] |167| 
    1109                      .dwpsn  file "../sources/dual_axis_servo_drive_main_cpu.c",line 171,column 5,is_stmt,isa 0
    1110 0000000b 28A9          MOV       AL,#1528              ; [CPU_ALU] |171| 
         0000000c 05F8 
    1111 0000000d 8F00          MOVL      XAR4,#512             ; [CPU_ARAU] |171| 
         0000000e 0200 
    1112              $C$DW$93        .dwtag  DW_TAG_TI_branch
    1113                      .dwattr $C$DW$93, DW_AT_low_pc(0x00)
    1114                      .dwattr $C$DW$93, DW_AT_name("HAL_clearDataRAM")
    1115                      .dwattr $C$DW$93, DW_AT_TI_call
    1116              
TMS320C2000 Assembler PC v22.6.2 Fri Dec 19 11:01:59 2025

Copyright (c) 1996-2018 Texas Instruments Incorporated
dual_axis_servo_drive_main_cpu.asm                                   PAGE   22

    1117 0000000f 7640!         LCR       #||HAL_clearDataRAM|| ; [CPU_ALU] |171| 
         00000010 0000 
    1118                      ; call occurs [#||HAL_clearDataRAM||] ; [] |171| 
    1119                      .dwpsn  file "../sources/dual_axis_servo_drive_main_cpu.c",line 172,column 5,is_stmt,isa 0
    1120 00000011 9A00          MOVB      AL,#0                 ; [CPU_ALU] |172| 
    1121 00000012 8F00          MOVL      XAR4,#40960           ; [CPU_ARAU] |172| 
         00000013 A000 
    1122              $C$DW$94        .dwtag  DW_TAG_TI_branch
    1123                      .dwattr $C$DW$94, DW_AT_low_pc(0x00)
    1124                      .dwattr $C$DW$94, DW_AT_name("HAL_clearDataRAM")
    1125                      .dwattr $C$DW$94, DW_AT_TI_call
    1126              
    1127 00000014 7640!         LCR       #||HAL_clearDataRAM|| ; [CPU_ALU] |172| 
         00000015 0000 
    1128                      ; call occurs [#||HAL_clearDataRAM||] ; [] |172| 
    1129                      .dwpsn  file "../sources/dual_axis_servo_drive_main_cpu.c",line 173,column 5,is_stmt,isa 0
    1130 00000016 28A9          MOV       AL,#2040              ; [CPU_ALU] |173| 
         00000017 07F8 
    1131 00000018 8F00          MOVL      XAR4,#49152           ; [CPU_ARAU] |173| 
         00000019 C000 
    1132              $C$DW$95        .dwtag  DW_TAG_TI_branch
    1133                      .dwattr $C$DW$95, DW_AT_low_pc(0x00)
    1134                      .dwattr $C$DW$95, DW_AT_name("HAL_clearDataRAM")
    1135                      .dwattr $C$DW$95, DW_AT_TI_call
    1136              
    1137 0000001a 7640!         LCR       #||HAL_clearDataRAM|| ; [CPU_ALU] |173| 
         0000001b 0000 
    1138                      ; call occurs [#||HAL_clearDataRAM||] ; [] |173| 
    1139                      .dwpsn  file "../sources/dual_axis_servo_drive_main_cpu.c",line 176,column 5,is_stmt,isa 0
    1140 0000001c 0212          MOVB      ACC,#18               ; [CPU_ALU] |176| 
    1141 0000001d 8F00!         MOVL      XAR4,#||hal||         ; [CPU_ARAU] |176| 
         0000001e 0000 
    1142              $C$DW$96        .dwtag  DW_TAG_TI_branch
    1143                      .dwattr $C$DW$96, DW_AT_low_pc(0x00)
    1144                      .dwattr $C$DW$96, DW_AT_name("HAL_init")
    1145                      .dwattr $C$DW$96, DW_AT_TI_call
    1146              
    1147 0000001f 7640!         LCR       #||HAL_init||         ; [CPU_ALU] |176| 
         00000020 0000 
    1148                      ; call occurs [#||HAL_init||] ; [] |176| 
    1149 00000021 761F!         MOVW      DP,#||halHandle||     ; [CPU_ARAU] 
         00000022 0000 
    1150                      .dwpsn  file "../sources/dual_axis_servo_drive_main_cpu.c",line 179,column 5,is_stmt,isa 0
    1151 00000023 0212          MOVB      ACC,#18               ; [CPU_ALU] |179| 
    1152                      .dwpsn  file "../sources/dual_axis_servo_drive_main_cpu.c",line 176,column 5,is_stmt,isa 0
    1153 00000024 A800!         MOVL      @||halHandle||,XAR4   ; [CPU_ALU] |176| 
    1154                      .dwpsn  file "../sources/dual_axis_servo_drive_main_cpu.c",line 179,column 5,is_stmt,isa 0
    1155 00000025 8F00!         MOVL      XAR4,#||halMtr||      ; [CPU_ARAU] |179| 
         00000026 0000 
    1156              $C$DW$97        .dwtag  DW_TAG_TI_branch
    1157                      .dwattr $C$DW$97, DW_AT_low_pc(0x00)
    1158                      .dwattr $C$DW$97, DW_AT_name("HAL_MTR_init")
    1159                      .dwattr $C$DW$97, DW_AT_TI_call
    1160              
    1161 00000027 7640!         LCR       #||HAL_MTR_init||     ; [CPU_ALU] |179| 
TMS320C2000 Assembler PC v22.6.2 Fri Dec 19 11:01:59 2025

Copyright (c) 1996-2018 Texas Instruments Incorporated
dual_axis_servo_drive_main_cpu.asm                                   PAGE   23

         00000028 0000 
    1162                      ; call occurs [#||HAL_MTR_init||] ; [] |179| 
    1163 00000029 761F!         MOVW      DP,#||halMtrHandle||  ; [CPU_ARAU] 
         0000002a 0000 
    1164 0000002b A800!         MOVL      @||halMtrHandle||,XAR4 ; [CPU_ALU] |179| 
    1165 0000002c 761F!         MOVW      DP,#||halHandle||     ; [CPU_ARAU] 
         0000002d 0000 
    1166                      .dwpsn  file "../sources/dual_axis_servo_drive_main_cpu.c",line 187,column 5,is_stmt,isa 0
    1167 0000002e 8A00!         MOVL      XAR4,@||halHandle||   ; [CPU_ALU] |187| 
    1168              $C$DW$98        .dwtag  DW_TAG_TI_branch
    1169                      .dwattr $C$DW$98, DW_AT_low_pc(0x00)
    1170                      .dwattr $C$DW$98, DW_AT_name("HAL_setParams")
    1171                      .dwattr $C$DW$98, DW_AT_TI_call
    1172              
    1173 0000002f 7640!         LCR       #||HAL_setParams||    ; [CPU_ALU] |187| 
         00000030 0000 
    1174                      ; call occurs [#||HAL_setParams||] ; [] |187| 
    1175 00000031 761F!         MOVW      DP,#||halMtrHandle||  ; [CPU_ARAU] 
         00000032 0000 
    1176                      .dwpsn  file "../sources/dual_axis_servo_drive_main_cpu.c",line 190,column 5,is_stmt,isa 0
    1177 00000033 8A00!         MOVL      XAR4,@||halMtrHandle|| ; [CPU_ALU] |190| 
    1178              $C$DW$99        .dwtag  DW_TAG_TI_branch
    1179                      .dwattr $C$DW$99, DW_AT_low_pc(0x00)
    1180                      .dwattr $C$DW$99, DW_AT_name("HAL_setMotorParams")
    1181                      .dwattr $C$DW$99, DW_AT_TI_call
    1182              
    1183 00000034 7640!         LCR       #||HAL_setMotorParams|| ; [CPU_ALU] |190| 
         00000035 0000 
    1184                      ; call occurs [#||HAL_setMotorParams||] ; [] |190| 
    1185                      .dwpsn  file "C:\ti\C2000Ware_MotorControl_SDK_5_04_00_00\c2000ware\driverlib\f28002x\driverlib\sysct
    1186 00000036 7622          EALLOW    ; [CPU_ALU] |916| 
    1187                      .dwpsn  file "C:\ti\C2000Ware_MotorControl_SDK_5_04_00_00\c2000ware\driverlib\f28002x\driverlib\sysct
    1188 00000037 8F05          MOVL      XAR4,#381730          ; [CPU_ARAU] |921| 
         00000038 D322 
    1189 00000039 06C4          MOVL      ACC,*+XAR4[0]         ; [CPU_ALU] |921| 
    1190 0000003a 5104          OR        AH,#4                 ; [CPU_ALU] |921| 
    1191 0000003b 1EC4          MOVL      *+XAR4[0],ACC         ; [CPU_ALU] |921| 
    1192 0000003c 06C4          MOVL      ACC,*+XAR4[0]         ; [CPU_ALU] |921| 
    1193 0000003d 5104          OR        AH,#4                 ; [CPU_ALU] |921| 
    1194 0000003e 1EC4          MOVL      *+XAR4[0],ACC         ; [CPU_ALU] |921| 
    1195                      .dwpsn  file "C:\ti\C2000Ware_MotorControl_SDK_5_04_00_00\c2000ware\driverlib\f28002x\driverlib\sysct
    1196 0000003f 761A          EDIS      ; [CPU_ALU] |922| 
    1197                      .dwpsn  file "../sources/dual_axis_servo_drive_main_cpu.c",line 202,column 5,is_stmt,isa 0
    1198 00000040 8D40!         MOVL      XAR1,#||motorVars||   ; [CPU_ARAU] |202| 
         00000041 0000 
    1199 00000042 761F!         MOVW      DP,#||halMtrHandle||  ; [CPU_ARAU] 
         00000043 0000 
    1200 00000044 8300!         MOVL      XAR5,@||halMtrHandle|| ; [CPU_ALU] |202| 
    1201 00000045 8AA1          MOVL      XAR4,XAR1             ; [CPU_ALU] |202| 
    1202              $C$DW$100       .dwtag  DW_TAG_TI_branch
    1203                      .dwattr $C$DW$100, DW_AT_low_pc(0x00)
    1204                      .dwattr $C$DW$100, DW_AT_name("initMotorParameters")
    1205                      .dwattr $C$DW$100, DW_AT_TI_call
    1206              
    1207 00000046 7640!         LCR       #||initMotorParameters|| ; [CPU_ALU] |202| 
TMS320C2000 Assembler PC v22.6.2 Fri Dec 19 11:01:59 2025

Copyright (c) 1996-2018 Texas Instruments Incorporated
dual_axis_servo_drive_main_cpu.asm                                   PAGE   24

         00000047 0000 
    1208                      ; call occurs [#||initMotorParameters||] ; [] |202| 
    1209                      .dwpsn  file "../sources/dual_axis_servo_drive_main_cpu.c",line 208,column 5,is_stmt,isa 0
    1210 00000048 8AA1          MOVL      XAR4,XAR1             ; [CPU_ALU] |208| 
    1211              $C$DW$101       .dwtag  DW_TAG_TI_branch
    1212                      .dwattr $C$DW$101, DW_AT_low_pc(0x00)
    1213                      .dwattr $C$DW$101, DW_AT_name("initControlVars")
    1214                      .dwattr $C$DW$101, DW_AT_TI_call
    1215              
    1216 00000049 7640!         LCR       #||initControlVars||  ; [CPU_ALU] |208| 
         0000004a 0000 
    1217                      ; call occurs [#||initControlVars||] ; [] |208| 
    1218 0000004b 761F!         MOVW      DP,#||halMtrHandle||  ; [CPU_ARAU] 
         0000004c 0000 
    1219                      .dwpsn  file "../sources/dual_axis_servo_drive_main_cpu.c",line 214,column 5,is_stmt,isa 0
    1220 0000004d 8A00!         MOVL      XAR4,@||halMtrHandle|| ; [CPU_ALU] |214| 
    1221              $C$DW$102       .dwtag  DW_TAG_TI_branch
    1222                      .dwattr $C$DW$102, DW_AT_low_pc(0x00)
    1223                      .dwattr $C$DW$102, DW_AT_name("HAL_setupMotorFaultProtection")
    1224                      .dwattr $C$DW$102, DW_AT_TI_call
    1225              
    1226 0000004e 7640!         LCR       #||HAL_setupMotorFaultProtection|| ; [CPU_ALU] |214| 
         0000004f 0000 
    1227                      ; call occurs [#||HAL_setupMotorFaultProtection||] ; [] |214| 
    1228                      .dwpsn  file "../sources/dual_axis_servo_drive_main_cpu.c",line 230,column 5,is_stmt,isa 0
    1229 00000050 8AA1          MOVL      XAR4,XAR1             ; [CPU_ALU] |230| 
    1230              $C$DW$103       .dwtag  DW_TAG_TI_branch
    1231                      .dwattr $C$DW$103, DW_AT_low_pc(0x00)
    1232                      .dwattr $C$DW$103, DW_AT_name("resetControlVars")
    1233                      .dwattr $C$DW$103, DW_AT_TI_call
    1234              
    1235 00000051 7640!         LCR       #||resetControlVars|| ; [CPU_ALU] |230| 
         00000052 0000 
    1236                      ; call occurs [#||resetControlVars||] ; [] |230| 
    1237 00000053 761F!         MOVW      DP,#||halMtrHandle||  ; [CPU_ARAU] 
         00000054 0000 
    1238                      .dwpsn  file "C:/ti/C2000Ware_MotorControl_SDK_5_04_00_00/c2000ware/driverlib/f28002x/driverlib/epwm.
    1239 00000055 8A00!         MOVL      XAR4,@||halMtrHandle|| ; [CPU_ALU] |4727| 
    1240                      .dwpsn  file "..\sources\dual_axis_servo_drive_hal.h",line 263,column 1,is_stmt,isa 0
    1241 00000056 0202          MOVB      ACC,#2                ; [CPU_ALU] |263| 
    1242                      .dwpsn  file "C:/ti/C2000Ware_MotorControl_SDK_5_04_00_00/c2000ware/driverlib/f28002x/driverlib/epwm.
    1243 00000057 8AC4          MOVL      XAR4,*+XAR4[0]        ; [CPU_ALU] |4727| 
    1244                      .dwpsn  file "..\sources\dual_axis_servo_drive_hal.h",line 263,column 1,is_stmt,isa 0
    1245 00000058 0700!         ADDL      ACC,@||halMtrHandle|| ; [CPU_ALU] |263| 
    1246 00000059 83A9          MOVL      XAR5,ACC              ; [CPU_ALU] |263| 
    1247                      .dwpsn  file "C:/ti/C2000Ware_MotorControl_SDK_5_04_00_00/c2000ware/driverlib/f28002x/driverlib/epwm.
    1248 0000005a 7622          EALLOW    ; [CPU_ALU] |4737| 
    1249                      .dwpsn  file "C:/ti/C2000Ware_MotorControl_SDK_5_04_00_00/c2000ware/driverlib/f28002x/driverlib/epwm.
    1250 0000005b A8A9          MOVL      ACC,XAR4              ; [CPU_ALU] |4738| 
    1251 0000005c 0997          ADDB      ACC,#151              ; [CPU_ALU] |4738| 
    1252 0000005d 8AA9          MOVL      XAR4,ACC              ; [CPU_ALU] |4738| 
    1253 0000005e 1AC4          OR        *+XAR4[0],#0x000c     ; [CPU_ALU] |4738| 
         0000005f 000C 
    1254                      .dwpsn  file "C:/ti/C2000Ware_MotorControl_SDK_5_04_00_00/c2000ware/driverlib/f28002x/driverlib/epwm.
    1255 00000060 761A          EDIS      ; [CPU_ALU] |4739| 
TMS320C2000 Assembler PC v22.6.2 Fri Dec 19 11:01:59 2025

Copyright (c) 1996-2018 Texas Instruments Incorporated
dual_axis_servo_drive_main_cpu.asm                                   PAGE   25

    1256                      .dwpsn  file "C:/ti/C2000Ware_MotorControl_SDK_5_04_00_00/c2000ware/driverlib/f28002x/driverlib/epwm.
    1257 00000061 06C5          MOVL      ACC,*+XAR5[0]         ; [CPU_ALU] |4727| 
    1258                      .dwpsn  file "C:/ti/C2000Ware_MotorControl_SDK_5_04_00_00/c2000ware/driverlib/f28002x/driverlib/epwm.
    1259 00000062 7622          EALLOW    ; [CPU_ALU] |4737| 
    1260                      .dwpsn  file "C:/ti/C2000Ware_MotorControl_SDK_5_04_00_00/c2000ware/driverlib/f28002x/driverlib/epwm.
    1261 00000063 0997          ADDB      ACC,#151              ; [CPU_ALU] |4738| 
    1262 00000064 8AA9          MOVL      XAR4,ACC              ; [CPU_ALU] |4738| 
    1263 00000065 1AC4          OR        *+XAR4[0],#0x000c     ; [CPU_ALU] |4738| 
         00000066 000C 
    1264                      .dwpsn  file "C:/ti/C2000Ware_MotorControl_SDK_5_04_00_00/c2000ware/driverlib/f28002x/driverlib/epwm.
    1265 00000067 761A          EDIS      ; [CPU_ALU] |4739| 
    1266                      .dwpsn  file "C:/ti/C2000Ware_MotorControl_SDK_5_04_00_00/c2000ware/driverlib/f28002x/driverlib/epwm.
    1267 00000068 06D5          MOVL      ACC,*+XAR5[2]         ; [CPU_ALU] |4727| 
    1268                      .dwpsn  file "C:/ti/C2000Ware_MotorControl_SDK_5_04_00_00/c2000ware/driverlib/f28002x/driverlib/epwm.
    1269 00000069 7622          EALLOW    ; [CPU_ALU] |4737| 
    1270                      .dwpsn  file "C:/ti/C2000Ware_MotorControl_SDK_5_04_00_00/c2000ware/driverlib/f28002x/driverlib/epwm.
    1271 0000006a 0997          ADDB      ACC,#151              ; [CPU_ALU] |4738| 
    1272 0000006b 8AA9          MOVL      XAR4,ACC              ; [CPU_ALU] |4738| 
    1273 0000006c 1AC4          OR        *+XAR4[0],#0x000c     ; [CPU_ALU] |4738| 
         0000006d 000C 
    1274                      .dwpsn  file "C:/ti/C2000Ware_MotorControl_SDK_5_04_00_00/c2000ware/driverlib/f28002x/driverlib/epwm.
    1275 0000006e 761A          EDIS      ; [CPU_ALU] |4739| 
    1276                      .dwpsn  file "C:/ti/C2000Ware_MotorControl_SDK_5_04_00_00/c2000ware/driverlib/f28002x/driverlib/cmpss
    1277 0000006f 8AE5          MOVL      XAR4,*+XAR5[4]        ; [CPU_ALU] |757| 
    1278                      .dwpsn  file "C:/ti/C2000Ware_MotorControl_SDK_5_04_00_00/c2000ware/driverlib/f28002x/driverlib/cmpss
    1279 00000070 7622          EALLOW    ; [CPU_ALU] |766| 
    1280                      .dwpsn  file "C:/ti/C2000Ware_MotorControl_SDK_5_04_00_00/c2000ware/driverlib/f28002x/driverlib/cmpss
    1281 00000071 1ADC          OR        *+XAR4[3],#0x0002     ; [CPU_ALU] |768| 
         00000072 0002 
    1282                      .dwpsn  file "C:/ti/C2000Ware_MotorControl_SDK_5_04_00_00/c2000ware/driverlib/f28002x/driverlib/cmpss
    1283 00000073 761A          EDIS      ; [CPU_ALU] |770| 
    1284                      .dwpsn  file "C:/ti/C2000Ware_MotorControl_SDK_5_04_00_00/c2000ware/driverlib/f28002x/driverlib/cmpss
    1285 00000074 8AF5          MOVL      XAR4,*+XAR5[6]        ; [CPU_ALU] |757| 
    1286                      .dwpsn  file "C:/ti/C2000Ware_MotorControl_SDK_5_04_00_00/c2000ware/driverlib/f28002x/driverlib/cmpss
    1287 00000075 7622          EALLOW    ; [CPU_ALU] |766| 
    1288                      .dwpsn  file "C:/ti/C2000Ware_MotorControl_SDK_5_04_00_00/c2000ware/driverlib/f28002x/driverlib/cmpss
    1289 00000076 1ADC          OR        *+XAR4[3],#0x0002     ; [CPU_ALU] |768| 
         00000077 0002 
    1290                      .dwpsn  file "C:/ti/C2000Ware_MotorControl_SDK_5_04_00_00/c2000ware/driverlib/f28002x/driverlib/cmpss
    1291 00000078 761A          EDIS      ; [CPU_ALU] |770| 
    1292                      .dwpsn  file "C:/ti/C2000Ware_MotorControl_SDK_5_04_00_00/c2000ware/driverlib/f28002x/driverlib/cmpss
    1293 00000079 D008          MOVB      XAR0,#8               ; [CPU_ALU] |757| 
    1294 0000007a 8A95          MOVL      XAR4,*+XAR5[AR0]      ; [CPU_ALU] |757| 
    1295                      .dwpsn  file "C:/ti/C2000Ware_MotorControl_SDK_5_04_00_00/c2000ware/driverlib/f28002x/driverlib/cmpss
    1296 0000007b 7622          EALLOW    ; [CPU_ALU] |766| 
    1297                      .dwpsn  file "C:/ti/C2000Ware_MotorControl_SDK_5_04_00_00/c2000ware/driverlib/f28002x/driverlib/cmpss
    1298 0000007c 1ADC          OR        *+XAR4[3],#0x0002     ; [CPU_ALU] |768| 
         0000007d 0002 
    1299                      .dwpsn  file "C:/ti/C2000Ware_MotorControl_SDK_5_04_00_00/c2000ware/driverlib/f28002x/driverlib/cmpss
    1300 0000007e 761A          EDIS      ; [CPU_ALU] |770| 
    1301                      .dwpsn  file "C:/ti/C2000Ware_MotorControl_SDK_5_04_00_00/c2000ware/driverlib/f28002x/driverlib/cmpss
    1302 0000007f 8AE5          MOVL      XAR4,*+XAR5[4]        ; [CPU_ALU] |787| 
    1303                      .dwpsn  file "C:/ti/C2000Ware_MotorControl_SDK_5_04_00_00/c2000ware/driverlib/f28002x/driverlib/cmpss
    1304 00000080 7622          EALLOW    ; [CPU_ALU] |796| 
    1305                      .dwpsn  file "C:/ti/C2000Ware_MotorControl_SDK_5_04_00_00/c2000ware/driverlib/f28002x/driverlib/cmpss
TMS320C2000 Assembler PC v22.6.2 Fri Dec 19 11:01:59 2025

Copyright (c) 1996-2018 Texas Instruments Incorporated
dual_axis_servo_drive_main_cpu.asm                                   PAGE   26

    1306 00000081 1ADC          OR        *+XAR4[3],#0x0200     ; [CPU_ALU] |798| 
         00000082 0200 
    1307                      .dwpsn  file "C:/ti/C2000Ware_MotorControl_SDK_5_04_00_00/c2000ware/driverlib/f28002x/driverlib/cmpss
    1308 00000083 761A          EDIS      ; [CPU_ALU] |800| 
    1309                      .dwpsn  file "C:/ti/C2000Ware_MotorControl_SDK_5_04_00_00/c2000ware/driverlib/f28002x/driverlib/cmpss
    1310 00000084 8AF5          MOVL      XAR4,*+XAR5[6]        ; [CPU_ALU] |787| 
    1311                      .dwpsn  file "C:/ti/C2000Ware_MotorControl_SDK_5_04_00_00/c2000ware/driverlib/f28002x/driverlib/cmpss
    1312 00000085 7622          EALLOW    ; [CPU_ALU] |796| 
    1313                      .dwpsn  file "C:/ti/C2000Ware_MotorControl_SDK_5_04_00_00/c2000ware/driverlib/f28002x/driverlib/cmpss
    1314 00000086 1ADC          OR        *+XAR4[3],#0x0200     ; [CPU_ALU] |798| 
         00000087 0200 
    1315                      .dwpsn  file "C:/ti/C2000Ware_MotorControl_SDK_5_04_00_00/c2000ware/driverlib/f28002x/driverlib/cmpss
    1316 00000088 761A          EDIS      ; [CPU_ALU] |800| 
    1317                      .dwpsn  file "C:/ti/C2000Ware_MotorControl_SDK_5_04_00_00/c2000ware/driverlib/f28002x/driverlib/cmpss
    1318 00000089 D008          MOVB      XAR0,#8               ; [CPU_ALU] |787| 
    1319 0000008a 8A95          MOVL      XAR4,*+XAR5[AR0]      ; [CPU_ALU] |787| 
    1320                      .dwpsn  file "C:/ti/C2000Ware_MotorControl_SDK_5_04_00_00/c2000ware/driverlib/f28002x/driverlib/cmpss
    1321 0000008b 7622          EALLOW    ; [CPU_ALU] |796| 
    1322                      .dwpsn  file "C:/ti/C2000Ware_MotorControl_SDK_5_04_00_00/c2000ware/driverlib/f28002x/driverlib/cmpss
    1323 0000008c 1ADC          OR        *+XAR4[3],#0x0200     ; [CPU_ALU] |798| 
         0000008d 0200 
    1324                      .dwpsn  file "C:/ti/C2000Ware_MotorControl_SDK_5_04_00_00/c2000ware/driverlib/f28002x/driverlib/cmpss
    1325 0000008e 761A          EDIS      ; [CPU_ALU] |800| 
    1326 0000008f 761F!         MOVW      DP,#||led1Cnt||       ; [CPU_ARAU] 
         00000090 0000 
    1327                      .dwpsn  file "C:/ti/C2000Ware_MotorControl_SDK_5_04_00_00/c2000ware/driverlib/f28002x/driverlib/gpio.
    1328 00000091 0204          MOVB      ACC,#4                ; [CPU_ALU] |485| 
    1329                      .dwpsn  file "../sources/dual_axis_servo_drive_main_cpu.c",line 242,column 5,is_stmt,isa 0
    1330 00000092 2B00!         MOV       @||led1Cnt||,#0       ; [CPU_ALU] |242| 
    1331                      .dwpsn  file "../sources/dual_axis_servo_drive_main_cpu.c",line 243,column 5,is_stmt,isa 0
    1332 00000093 2B00!         MOV       @||led2Cnt||,#0       ; [CPU_ALU] |243| 
    1333                      .dwpsn  file "C:/ti/C2000Ware_MotorControl_SDK_5_04_00_00/c2000ware/driverlib/f28002x/driverlib/gpio.
    1334 00000094 BDA9          MOV32     *(0:0x7f0c),ACC       ; [CPU_FPU] |485| 
         00000095 7F0C 
    1335                      .dwpsn  file "../sources/dual_axis_servo_drive_main_cpu.c",line 284,column 11,is_stmt,isa 0
    1336              $C$DW$104       .dwtag  DW_TAG_TI_branch
    1337                      .dwattr $C$DW$104, DW_AT_low_pc(0x00)
    1338                      .dwattr $C$DW$104, DW_AT_name("FCL_getSwVersion")
    1339                      .dwattr $C$DW$104, DW_AT_TI_call
    1340              
    1341 00000096 7640!         LCR       #||FCL_getSwVersion|| ; [CPU_ALU] |284| 
         00000097 0000 
    1342                      ; call occurs [#||FCL_getSwVersion||] ; [] |284| 
    1343 00000098 1EA6          MOVL      XAR6,ACC              ; [CPU_ALU] |284| 
    1344 00000099 FF20          MOV       ACC,#513              ; [CPU_ALU] |284| 
         0000009a 0201 
    1345 0000009b 0FA6          CMPL      ACC,XAR6              ; [CPU_ALU] |284| 
    1346 0000009c 610B          B         ||$C$L5||,EQ          ; [CPU_ALU] |284| 
    1347                      ; branchcc occurs ; [] |284| 
    1348 0000009d       ||$C$L4||:    
    1349 0000009d 761F!         MOVW      DP,#||backTicker||    ; [CPU_ARAU] 
         0000009e 0000 
    1350                      .dwpsn  file "../sources/dual_axis_servo_drive_main_cpu.c",line 286,column 9,is_stmt,isa 0
    1351 0000009f 0A00!         INC       @||backTicker||       ; [CPU_ALU] |286| 
    1352                      .dwpsn  file "../sources/dual_axis_servo_drive_main_cpu.c",line 284,column 11,is_stmt,isa 0
TMS320C2000 Assembler PC v22.6.2 Fri Dec 19 11:01:59 2025

Copyright (c) 1996-2018 Texas Instruments Incorporated
dual_axis_servo_drive_main_cpu.asm                                   PAGE   27

    1353              $C$DW$105       .dwtag  DW_TAG_TI_branch
    1354                      .dwattr $C$DW$105, DW_AT_low_pc(0x00)
    1355                      .dwattr $C$DW$105, DW_AT_name("FCL_getSwVersion")
    1356                      .dwattr $C$DW$105, DW_AT_TI_call
    1357              
    1358 000000a0 7640!         LCR       #||FCL_getSwVersion|| ; [CPU_ALU] |284| 
         000000a1 0000 
    1359                      ; call occurs [#||FCL_getSwVersion||] ; [] |284| 
    1360 000000a2 1EA6          MOVL      XAR6,ACC              ; [CPU_ALU] |284| 
    1361 000000a3 FF20          MOV       ACC,#513              ; [CPU_ALU] |284| 
         000000a4 0201 
    1362 000000a5 0FA6          CMPL      ACC,XAR6              ; [CPU_ALU] |284| 
    1363 000000a6 60F7          B         ||$C$L4||,NEQ         ; [CPU_ALU] |284| 
    1364                      ; branchcc occurs ; [] |284| 
    1365 000000a7       ||$C$L5||:    
    1366 000000a7 761F!         MOVW      DP,#||enableFlag||    ; [CPU_ARAU] 
         000000a8 0000 
    1367                      .dwpsn  file "../sources/dual_axis_servo_drive_main_cpu.c",line 290,column 11,is_stmt,isa 0
    1368 000000a9 9200!         MOV       AL,@||enableFlag||    ; [CPU_ALU] |290| 
    1369 000000aa 6012          B         ||$C$L9||,NEQ         ; [CPU_ALU] |290| 
    1370                      ; branchcc occurs ; [] |290| 
    1371 000000ab       ||$C$L6||:    
    1372                      .dwpsn  file "../sources/dual_axis_servo_drive_main_cpu.c",line 293,column 9,is_stmt,isa 0
    1373 000000ab 9200!         MOV       AL,@||backTicker||    ; [CPU_ALU] |293| 
    1374 000000ac 600B          B         ||$C$L7||,NEQ         ; [CPU_ALU] |293| 
    1375                      ; branchcc occurs ; [] |293| 
    1376                      .dwpsn  file "../sources/dual_axis_servo_drive_main_cpu.c",line 295,column 13,is_stmt,isa 0
    1377 000000ad 56BF!         MOVB      @||enableFlag||,#1,UNC ; [CPU_ALU] |295| 
         000000ae 0100 
    1378 000000af 761F!         MOVW      DP,#||flagSyncRun||   ; [CPU_ARAU] 
         000000b0 0000 
    1379                      .dwpsn  file "../sources/dual_axis_servo_drive_main_cpu.c",line 297,column 13,is_stmt,isa 0
    1380 000000b1 2B00!         MOV       @||flagSyncRun||,#0   ; [CPU_ALU] |297| 
    1381 000000b2 761F!         MOVW      DP,#||ctrlState||     ; [CPU_ARAU] 
         000000b3 0000 
    1382                      .dwpsn  file "../sources/dual_axis_servo_drive_main_cpu.c",line 298,column 13,is_stmt,isa 0
    1383 000000b4 56BF!         MOVB      @||ctrlState||,#1,UNC ; [CPU_ALU] |298| 
         000000b5 0100 
    1384 000000b6 6F02          B         ||$C$L8||,UNC         ; [CPU_ALU] 
    1385                      ; branch occurs ; [] 
    1386 000000b7       ||$C$L7||:    
    1387                      .dwpsn  file "../sources/dual_axis_servo_drive_main_cpu.c",line 302,column 13,is_stmt,isa 0
    1388 000000b7 0B00!         DEC       @||backTicker||       ; [CPU_ALU] |302| 
    1389 000000b8       ||$C$L8||:    
    1390 000000b8 761F!         MOVW      DP,#||enableFlag||    ; [CPU_ARAU] 
         000000b9 0000 
    1391                      .dwpsn  file "../sources/dual_axis_servo_drive_main_cpu.c",line 290,column 11,is_stmt,isa 0
    1392 000000ba 9200!         MOV       AL,@||enableFlag||    ; [CPU_ALU] |290| 
    1393 000000bb 61F0          B         ||$C$L6||,EQ          ; [CPU_ALU] |290| 
    1394                      ; branchcc occurs ; [] |290| 
    1395 000000bc       ||$C$L9||:    
    1396                      .dwpsn  file "../sources/dual_axis_servo_drive_main_cpu.c",line 314,column 5,is_stmt,isa 0
    1397 000000bc 8F00!         MOVL      XAR4,#||B1||          ; [CPU_ARAU] |314| 
         000000bd 0000 
    1398                      .dwpsn  file "../sources/dual_axis_servo_drive_main_cpu.c",line 312,column 5,is_stmt,isa 0
TMS320C2000 Assembler PC v22.6.2 Fri Dec 19 11:01:59 2025

Copyright (c) 1996-2018 Texas Instruments Incorporated
dual_axis_servo_drive_main_cpu.asm                                   PAGE   28

    1399 000000be 7680!         MOVL      XAR6,#||A0||          ; [CPU_ARAU] |312| 
         000000bf 0000 
    1400                      .dwpsn  file "../sources/dual_axis_servo_drive_main_cpu.c",line 313,column 5,is_stmt,isa 0
    1401 000000c0 8F40!         MOVL      XAR5,#||A1||          ; [CPU_ARAU] |313| 
         000000c1 0000 
    1402                      .dwpsn  file "../sources/dual_axis_servo_drive_main_cpu.c",line 314,column 5,is_stmt,isa 0
    1403 000000c2 A800!         MOVL      @||B_Task_Ptr||,XAR4  ; [CPU_ALU] |314| 
    1404                      .dwpsn  file "../sources/dual_axis_servo_drive_main_cpu.c",line 312,column 5,is_stmt,isa 0
    1405 000000c3 C200!         MOVL      @||Alpha_State_Ptr||,XAR6 ; [CPU_ALU] |312| 
    1406                      .dwpsn  file "../sources/dual_axis_servo_drive_main_cpu.c",line 313,column 5,is_stmt,isa 0
    1407 000000c4 A000!         MOVL      @||A_Task_Ptr||,XAR5  ; [CPU_ALU] |313| 
    1408                      .dwpsn  file "../sources/dual_axis_servo_drive_main_cpu.c",line 340,column 5,is_stmt,isa 0
    1409 000000c5 8F00!         MOVL      XAR4,#||dlog_2ch1||   ; [CPU_ARAU] |340| 
         000000c6 0000 
    1410              $C$DW$106       .dwtag  DW_TAG_TI_branch
    1411                      .dwattr $C$DW$106, DW_AT_low_pc(0x00)
    1412                      .dwattr $C$DW$106, DW_AT_name("DLOG_2CH_F_init")
    1413                      .dwattr $C$DW$106, DW_AT_TI_call
    1414              
    1415 000000c7 7640!         LCR       #||DLOG_2CH_F_init||  ; [CPU_ALU] |340| 
         000000c8 0000 
    1416                      ; call occurs [#||DLOG_2CH_F_init||] ; [] |340| 
    1417 000000c9 761F!         MOVW      DP,#||dlog_2ch1||+15  ; [CPU_ARAU] 
         000000ca 0000 
    1418                      .dwpsn  file "../sources/dual_axis_servo_drive_main_cpu.c",line 350,column 5,is_stmt,isa 0
    1419 000000cb E801          MOVIZ     R0H,#15395            ; [CPU_FPU] |350| 
         000000cc E118 
    1420                      .dwpsn  file "../sources/dual_axis_servo_drive_main_cpu.c",line 342,column 5,is_stmt,isa 0
    1421 000000cd 76C0!         MOVL      XAR7,#||dlogCh1||     ; [CPU_ARAU] |342| 
         000000ce 0000 
    1422                      .dwpsn  file "../sources/dual_axis_servo_drive_main_cpu.c",line 343,column 5,is_stmt,isa 0
    1423 000000cf 7680!         MOVL      XAR6,#||dlogCh2||     ; [CPU_ARAU] |343| 
         000000d0 0000 
    1424                      .dwpsn  file "../sources/dual_axis_servo_drive_main_cpu.c",line 345,column 5,is_stmt,isa 0
    1425 000000d1 8F40!         MOVL      XAR5,#||DBUFF_4CH1||  ; [CPU_ARAU] |345| 
         000000d2 0000 
    1426                      .dwpsn  file "../sources/dual_axis_servo_drive_main_cpu.c",line 346,column 5,is_stmt,isa 0
    1427 000000d3 8F00!         MOVL      XAR4,#||DBUFF_4CH2||  ; [CPU_ARAU] |346| 
         000000d4 0000 
    1428                      .dwpsn  file "../sources/dual_axis_servo_drive_main_cpu.c",line 348,column 5,is_stmt,isa 0
    1429 000000d5 56BF!         MOVB      @$BLOCKED(||dlog_2ch1||)+15,#200,UNC ; [CPU_ALU] |348| 
         000000d6 C80F 
    1430                      .dwpsn  file "../sources/dual_axis_servo_drive_main_cpu.c",line 349,column 5,is_stmt,isa 0
    1431 000000d7 56BF!         MOVB      @$BLOCKED(||dlog_2ch1||)+13,#5,UNC ; [CPU_ALU] |349| 
         000000d8 050D 
    1432                      .dwpsn  file "../sources/dual_axis_servo_drive_main_cpu.c",line 351,column 5,is_stmt,isa 0
    1433 000000d9 56BF!         MOVB      @$BLOCKED(||dlog_2ch1||)+12,#2,UNC ; [CPU_ALU] |351| 
         000000da 020C 
    1434                      .dwpsn  file "../sources/dual_axis_servo_drive_main_cpu.c",line 350,column 5,is_stmt,isa 0
    1435 000000db E80E          MOVXI     R0H,#55050            ; [CPU_FPU] |350| 
         000000dc B850 
    1436                      .dwpsn  file "../sources/dual_axis_servo_drive_main_cpu.c",line 342,column 5,is_stmt,isa 0
    1437 000000dd C300!         MOVL      @$BLOCKED(||dlog_2ch1||),XAR7 ; [CPU_ALU] |342| 
    1438                      .dwpsn  file "../sources/dual_axis_servo_drive_main_cpu.c",line 343,column 5,is_stmt,isa 0
    1439 000000de C202!         MOVL      @$BLOCKED(||dlog_2ch1||)+2,XAR6 ; [CPU_ALU] |343| 
TMS320C2000 Assembler PC v22.6.2 Fri Dec 19 11:01:59 2025

Copyright (c) 1996-2018 Texas Instruments Incorporated
dual_axis_servo_drive_main_cpu.asm                                   PAGE   29

    1440                      .dwpsn  file "../sources/dual_axis_servo_drive_main_cpu.c",line 345,column 5,is_stmt,isa 0
    1441 000000df A004!         MOVL      @$BLOCKED(||dlog_2ch1||)+4,XAR5 ; [CPU_ALU] |345| 
    1442                      .dwpsn  file "../sources/dual_axis_servo_drive_main_cpu.c",line 346,column 5,is_stmt,isa 0
    1443 000000e0 A806!         MOVL      @$BLOCKED(||dlog_2ch1||)+6,XAR4 ; [CPU_ALU] |346| 
    1444                      .dwpsn  file "../sources/dual_axis_servo_drive_main_cpu.c",line 350,column 5,is_stmt,isa 0
    1445 000000e1 E203!         MOV32     @$BLOCKED(||dlog_2ch1||)+10,R0H ; [CPU_FPU] |350| 
         000000e2 000A 
    1446 000000e3 761F!         MOVW      DP,#||halMtrHandle||  ; [CPU_ARAU] 
         000000e4 0000 
    1447                      .dwpsn  file "../sources/dual_axis_servo_drive_main_cpu.c",line 395,column 5,is_stmt,isa 0
    1448 000000e5 8A00!         MOVL      XAR4,@||halMtrHandle|| ; [CPU_ALU] |395| 
    1449              $C$DW$107       .dwtag  DW_TAG_TI_branch
    1450                      .dwattr $C$DW$107, DW_AT_low_pc(0x00)
    1451                      .dwattr $C$DW$107, DW_AT_name("HAL_setupInterrupts")
    1452                      .dwattr $C$DW$107, DW_AT_TI_call
    1453              
    1454 000000e6 7640!         LCR       #||HAL_setupInterrupts|| ; [CPU_ALU] |395| 
         000000e7 0000 
    1455                      ; call occurs [#||HAL_setupInterrupts||] ; [] |395| 
    1456                      .dwpsn  file "../sources/dual_axis_servo_drive_main_cpu.c",line 401,column 5,is_stmt,isa 0
    1457 000000e8 8AA1          MOVL      XAR4,XAR1             ; [CPU_ALU] |401| 
    1458              $C$DW$108       .dwtag  DW_TAG_TI_branch
    1459                      .dwattr $C$DW$108, DW_AT_low_pc(0x00)
    1460                      .dwattr $C$DW$108, DW_AT_name("runOffsetsCalculation")
    1461                      .dwattr $C$DW$108, DW_AT_TI_call
    1462              
    1463 000000e9 7640!         LCR       #||runOffsetsCalculation|| ; [CPU_ALU] |401| 
         000000ea 0000 
    1464                      ; call occurs [#||runOffsetsCalculation||] ; [] |401| 
    1465 000000eb 761F!         MOVW      DP,#||halMtrHandle||  ; [CPU_ARAU] 
         000000ec 0000 
    1466                      .dwpsn  file "../sources/dual_axis_servo_drive_main_cpu.c",line 407,column 5,is_stmt,isa 0
    1467 000000ed 8A00!         MOVL      XAR4,@||halMtrHandle|| ; [CPU_ALU] |407| 
    1468              $C$DW$109       .dwtag  DW_TAG_TI_branch
    1469                      .dwattr $C$DW$109, DW_AT_low_pc(0x00)
    1470                      .dwattr $C$DW$109, DW_AT_name("HAL_enableInterrupts")
    1471                      .dwattr $C$DW$109, DW_AT_TI_call
    1472              
    1473 000000ee 7640!         LCR       #||HAL_enableInterrupts|| ; [CPU_ALU] |407| 
         000000ef 0000 
    1474                      ; call occurs [#||HAL_enableInterrupts||] ; [] |407| 
    1475                      .dwpsn  file "../sources/dual_axis_servo_drive_main_cpu.c",line 413,column 5,is_stmt,isa 0
    1476 000000f0 8D00          MOVL      XAR0,#453             ; [CPU_ALU] |413| 
         000000f1 01C5 
    1477 000000f2 56BF          MOVB      *+XAR1[AR0],#1,UNC    ; [CPU_ALU] |413| 
         000000f3 0191 
    1478 000000f4 2910   clrc INTM
    1479 000000f5 2920   clrc DBGM
    1480 000000f6       ||$C$L10||:    
    1481 000000f6 761F!         MOVW      DP,#||Alpha_State_Ptr|| ; [CPU_ARAU] 
         000000f7 0000 
    1482                      .dwpsn  file "../sources/dual_axis_servo_drive_main_cpu.c",line 429,column 9,is_stmt,isa 0
    1483 000000f8 C500!         MOVL      XAR7,@||Alpha_State_Ptr|| ; [CPU_ALU] |429| 
    1484 000000f9 FF69          SPM       #0                    ; [CPU_ALU] 
    1485              $C$DW$110       .dwtag  DW_TAG_TI_branch
TMS320C2000 Assembler PC v22.6.2 Fri Dec 19 11:01:59 2025

Copyright (c) 1996-2018 Texas Instruments Incorporated
dual_axis_servo_drive_main_cpu.asm                                   PAGE   30

    1486                      .dwattr $C$DW$110, DW_AT_low_pc(0x00)
    1487                      .dwattr $C$DW$110, DW_AT_TI_call
    1488                      .dwattr $C$DW$110, DW_AT_TI_indirect
    1489              
    1490 000000fa 3E67          LCR       *XAR7                 ; [CPU_ALU] |429| 
    1491                      ; call occurs [XAR7] ; [] |429| 
    1492                      .dwpsn  file "../sources/dual_axis_servo_drive_main_cpu.c",line 432,column 9,is_stmt,isa 0
    1493              $C$DW$111       .dwtag  DW_TAG_TI_branch
    1494                      .dwattr $C$DW$111, DW_AT_low_pc(0x00)
    1495                      .dwattr $C$DW$111, DW_AT_name("runControl")
    1496                      .dwattr $C$DW$111, DW_AT_TI_call
    1497              
    1498 000000fb 7640!         LCR       #||runControl||       ; [CPU_ALU] |432| 
         000000fc 0000 
    1499                      ; call occurs [#||runControl||] ; [] |432| 
    1500 000000fd 761F!         MOVW      DP,#||halMtrHandle||  ; [CPU_ARAU] 
         000000fe 0000 
    1501                      .dwpsn  file "../sources/dual_axis_servo_drive_main_cpu.c",line 435,column 9,is_stmt,isa 0
    1502 000000ff 8AA1          MOVL      XAR4,XAR1             ; [CPU_ALU] |435| 
    1503 00000100 8300!         MOVL      XAR5,@||halMtrHandle|| ; [CPU_ALU] |435| 
    1504              $C$DW$112       .dwtag  DW_TAG_TI_branch
    1505                      .dwattr $C$DW$112, DW_AT_low_pc(0x00)
    1506                      .dwattr $C$DW$112, DW_AT_name("runMotorControl")
    1507                      .dwattr $C$DW$112, DW_AT_TI_call
    1508              
    1509 00000101 7640!         LCR       #||runMotorControl||  ; [CPU_ALU] |435| 
         00000102 0000 
    1510                      ; call occurs [#||runMotorControl||] ; [] |435| 
    1511 00000103 761F!         MOVW      DP,#||backTicker||    ; [CPU_ARAU] 
         00000104 0000 
    1512                      .dwpsn  file "../sources/dual_axis_servo_drive_main_cpu.c",line 440,column 9,is_stmt,isa 0
    1513 00000105 0A00!         INC       @||backTicker||       ; [CPU_ALU] |440| 
    1514                      .dwpsn  file "../sources/dual_axis_servo_drive_main_cpu.c",line 441,column 5,is_stmt,isa 0
    1515 00000106 6FF0          B         ||$C$L10||,UNC        ; [CPU_ALU] |441| 
    1516                      ; branch occurs ; [] |441| 
    1517                      .dwattr $C$DW$81, DW_AT_TI_end_file("../sources/dual_axis_servo_drive_main_cpu.c")
    1518                      .dwattr $C$DW$81, DW_AT_TI_end_line(0x1ba)
    1519                      .dwattr $C$DW$81, DW_AT_TI_end_column(0x01)
    1520                      .dwendentry
    1521                      .dwendtag $C$DW$81
    1522              
    1523 00000000               .sect   ".text:__signbitl"
    1524                      .clink
    1525                      .global ||__signbitl||
    1526              
    1527              $C$DW$113       .dwtag  DW_TAG_subprogram
    1528                      .dwattr $C$DW$113, DW_AT_name("__signbitl")
    1529                      .dwattr $C$DW$113, DW_AT_low_pc(||__signbitl||)
    1530                      .dwattr $C$DW$113, DW_AT_high_pc(0x00)
    1531                      .dwattr $C$DW$113, DW_AT_linkage_name("__signbitl")
    1532                      .dwattr $C$DW$113, DW_AT_external
    1533                      .dwattr $C$DW$113, DW_AT_type(*$C$DW$T$10)
    1534                      .dwattr $C$DW$113, DW_AT_decl_file("C:/ti/ccs2031/ccs/tools/compiler/ti-cgt-c2000_22.6.2.LTS/include/
    1535                      .dwattr $C$DW$113, DW_AT_decl_line(0x16f)
    1536                      .dwattr $C$DW$113, DW_AT_decl_column(0x18)
TMS320C2000 Assembler PC v22.6.2 Fri Dec 19 11:01:59 2025

Copyright (c) 1996-2018 Texas Instruments Incorporated
dual_axis_servo_drive_main_cpu.asm                                   PAGE   31

    1537                      .dwattr $C$DW$113, DW_AT_TI_max_frame_size(-6)
    1538                      .dwpsn  file "C:/ti/ccs2031/ccs/tools/compiler/ti-cgt-c2000_22.6.2.LTS/include/_defs.h",line 368,colu
    1539              
    1540                      .dwfde $C$DW$CIE, ||__signbitl||
    1541              $C$DW$114       .dwtag  DW_TAG_formal_parameter
    1542                      .dwattr $C$DW$114, DW_AT_name("e")
    1543                      .dwattr $C$DW$114, DW_AT_type(*$C$DW$T$211)
    1544                      .dwattr $C$DW$114, DW_AT_location[DW_OP_reg12]
    1545              
    1546              
    1547              ;***************************************************************
    1548              ;* FNAME: __signbitl                    FR SIZE:   4           *
    1549              ;*                                                             *
    1550              ;* FUNCTION ENVIRONMENT                                        *
    1551              ;*                                                             *
    1552              ;* FUNCTION PROPERTIES                                         *
    1553              ;*                            4 Parameter,  0 Auto,  0 SOE     *
    1554              ;***************************************************************
    1555              
    1556              ||__signbitl||:
    1557              ;* AR4   assigned to e
    1558              $C$DW$115       .dwtag  DW_TAG_variable
    1559                      .dwattr $C$DW$115, DW_AT_name("e")
    1560                      .dwattr $C$DW$115, DW_AT_type(*$C$DW$T$212)
    1561                      .dwattr $C$DW$115, DW_AT_location[DW_OP_reg12]
    1562              
    1563                      .dwcfi  cfa_offset, -2
    1564                      .dwcfi  save_reg_to_mem, 26, 0
    1565 00000000 FE04          ADDB      SP,#4                 ; [CPU_ARAU] 
    1566                      .dwcfi  cfa_offset, -6
    1567                      .dwpsn  file "C:/ti/ccs2031/ccs/tools/compiler/ti-cgt-c2000_22.6.2.LTS/include/_defs.h",line 368,colu
    1568 00000001 0200          MOVB      ACC,#0                ; [CPU_ALU] |368| 
    1569 00000002 1E44          MOVL      *-SP[4],ACC           ; [CPU_ALU] |368| 
    1570 00000003 2B42          MOV       *-SP[2],#0            ; [CPU_ALU] |368| 
    1571 00000004 2B41          MOV       *-SP[1],#0            ; [CPU_ALU] |368| 
    1572 00000005 A3C4          MOVL      P,*+XAR4[0]           ; [CPU_ALU] |368| 
    1573 00000006 06D4          MOVL      ACC,*+XAR4[2]         ; [CPU_ALU] |368| 
    1574 00000007 18AB          AND       PL,#0                 ; [CPU_ALU] |368| 
         00000008 0000 
    1575 00000009 18AA          AND       PH,#0                 ; [CPU_ALU] |368| 
         0000000a 0000 
    1576 0000000b 9000          ANDB      AL,#0                 ; [CPU_ALU] |368| 
    1577 0000000c 18A8          AND       AH,#32768             ; [CPU_ALU] |368| 
         0000000d 8000 
    1578              $C$DW$116       .dwtag  DW_TAG_TI_branch
    1579                      .dwattr $C$DW$116, DW_AT_low_pc(0x00)
    1580                      .dwattr $C$DW$116, DW_AT_name("__c28xabi_cmpull")
    1581                      .dwattr $C$DW$116, DW_AT_TI_call
    1582              
    1583 0000000e 7640!         LCR       #||__c28xabi_cmpull|| ; [CPU_ALU] |368| 
         0000000f 0000 
    1584                      ; call occurs [#||__c28xabi_cmpull||] ; [] |368| 
    1585 00000010 9B00          MOVB      AH,#0                 ; [CPU_ALU] |368| 
    1586 00000011 5200          CMPB      AL,#0                 ; [CPU_ALU] |368| 
    1587 00000012 56B0          MOVB      AH,#1,NEQ             ; [CPU_ALU] |368| 
TMS320C2000 Assembler PC v22.6.2 Fri Dec 19 11:01:59 2025

Copyright (c) 1996-2018 Texas Instruments Incorporated
dual_axis_servo_drive_main_cpu.asm                                   PAGE   32

         00000013 01A8 
    1588 00000014 92A8          MOV       AL,AH                 ; [CPU_ALU] |368| 
    1589 00000015 FE84          SUBB      SP,#4                 ; [CPU_ARAU] 
    1590                      .dwcfi  cfa_offset, -2
    1591              $C$DW$117       .dwtag  DW_TAG_TI_branch
    1592                      .dwattr $C$DW$117, DW_AT_low_pc(0x00)
    1593                      .dwattr $C$DW$117, DW_AT_TI_return
    1594              
    1595 00000016 0006          LRETR     ; [CPU_ALU] 
    1596                      ; return occurs ; [] 
    1597                      .dwattr $C$DW$113, DW_AT_TI_end_file("C:/ti/ccs2031/ccs/tools/compiler/ti-cgt-c2000_22.6.2.LTS/includ
    1598                      .dwattr $C$DW$113, DW_AT_TI_end_line(0x170)
    1599                      .dwattr $C$DW$113, DW_AT_TI_end_column(0x2b)
    1600                      .dwendentry
    1601                      .dwendtag $C$DW$113
    1602              
    1603 00000000               .sect   ".text:__signbitf"
    1604                      .clink
    1605                      .global ||__signbitf||
    1606              
    1607              $C$DW$118       .dwtag  DW_TAG_subprogram
    1608                      .dwattr $C$DW$118, DW_AT_name("__signbitf")
    1609                      .dwattr $C$DW$118, DW_AT_low_pc(||__signbitf||)
    1610                      .dwattr $C$DW$118, DW_AT_high_pc(0x00)
    1611                      .dwattr $C$DW$118, DW_AT_linkage_name("__signbitf")
    1612                      .dwattr $C$DW$118, DW_AT_external
    1613                      .dwattr $C$DW$118, DW_AT_type(*$C$DW$T$10)
    1614                      .dwattr $C$DW$118, DW_AT_decl_file("C:/ti/ccs2031/ccs/tools/compiler/ti-cgt-c2000_22.6.2.LTS/include/
    1615                      .dwattr $C$DW$118, DW_AT_decl_line(0x16d)
    1616                      .dwattr $C$DW$118, DW_AT_decl_column(0x18)
    1617                      .dwattr $C$DW$118, DW_AT_TI_max_frame_size(-2)
    1618                      .dwpsn  file "C:/ti/ccs2031/ccs/tools/compiler/ti-cgt-c2000_22.6.2.LTS/include/_defs.h",line 366,colu
    1619              
    1620                      .dwfde $C$DW$CIE, ||__signbitf||
    1621              $C$DW$119       .dwtag  DW_TAG_formal_parameter
    1622                      .dwattr $C$DW$119, DW_AT_name("f")
    1623                      .dwattr $C$DW$119, DW_AT_type(*$C$DW$T$16)
    1624                      .dwattr $C$DW$119, DW_AT_location[DW_OP_regx 0x2b]
    1625              
    1626              
    1627              ;***************************************************************
    1628              ;* FNAME: __signbitf                    FR SIZE:   0           *
    1629              ;*                                                             *
    1630              ;* FUNCTION ENVIRONMENT                                        *
    1631              ;*                                                             *
    1632              ;* FUNCTION PROPERTIES                                         *
    1633              ;*                            0 Parameter,  0 Auto,  0 SOE     *
    1634              ;***************************************************************
    1635              
    1636              ||__signbitf||:
    1637              ;* R0    assigned to f
    1638              $C$DW$120       .dwtag  DW_TAG_variable
    1639                      .dwattr $C$DW$120, DW_AT_name("f")
    1640                      .dwattr $C$DW$120, DW_AT_type(*$C$DW$T$205)
    1641                      .dwattr $C$DW$120, DW_AT_location[DW_OP_regx 0x2b]
TMS320C2000 Assembler PC v22.6.2 Fri Dec 19 11:01:59 2025

Copyright (c) 1996-2018 Texas Instruments Incorporated
dual_axis_servo_drive_main_cpu.asm                                   PAGE   33

    1642              
    1643                      .dwcfi  cfa_offset, -2
    1644                      .dwcfi  save_reg_to_mem, 26, 0
    1645                      .dwpsn  file "C:/ti/ccs2031/ccs/tools/compiler/ti-cgt-c2000_22.6.2.LTS/include/_defs.h",line 366,colu
    1646 00000000 BFA9          MOV32     ACC,R0H               ; [CPU_FPU] |366| 
         00000001 0F12 
    1647 00000002 BE00          MOVB      XAR6,#0               ; [CPU_ALU] |366| 
    1648 00000003 9000          ANDB      AL,#0                 ; [CPU_ALU] |366| 
    1649 00000004 18A8          AND       AH,#32768             ; [CPU_ALU] |366| 
         00000005 8000 
    1650 00000006 FF58          TEST      ACC                   ; [CPU_ALU] |366| 
    1651 00000007 56B0          MOVB      XAR6,#1,NEQ           ; [CPU_ALU] |366| 
         00000008 01A6 
    1652 00000009 92A6          MOV       AL,AR6                ; [CPU_ALU] |366| 
    1653              $C$DW$121       .dwtag  DW_TAG_TI_branch
    1654                      .dwattr $C$DW$121, DW_AT_low_pc(0x00)
    1655                      .dwattr $C$DW$121, DW_AT_TI_return
    1656              
    1657 0000000a 0006          LRETR     ; [CPU_ALU] 
    1658                      ; return occurs ; [] 
    1659                      .dwattr $C$DW$118, DW_AT_TI_end_file("C:/ti/ccs2031/ccs/tools/compiler/ti-cgt-c2000_22.6.2.LTS/includ
    1660                      .dwattr $C$DW$118, DW_AT_TI_end_line(0x16e)
    1661                      .dwattr $C$DW$118, DW_AT_TI_end_column(0x29)
    1662                      .dwendentry
    1663                      .dwendtag $C$DW$118
    1664              
    1665 00000000               .sect   ".text:__signbit"
    1666                      .clink
    1667                      .global ||__signbit||
    1668              
    1669              $C$DW$122       .dwtag  DW_TAG_subprogram
    1670                      .dwattr $C$DW$122, DW_AT_name("__signbit")
    1671                      .dwattr $C$DW$122, DW_AT_low_pc(||__signbit||)
    1672                      .dwattr $C$DW$122, DW_AT_high_pc(0x00)
    1673                      .dwattr $C$DW$122, DW_AT_linkage_name("__signbit")
    1674                      .dwattr $C$DW$122, DW_AT_external
    1675                      .dwattr $C$DW$122, DW_AT_type(*$C$DW$T$10)
    1676                      .dwattr $C$DW$122, DW_AT_decl_file("C:/ti/ccs2031/ccs/tools/compiler/ti-cgt-c2000_22.6.2.LTS/include/
    1677                      .dwattr $C$DW$122, DW_AT_decl_line(0x16b)
    1678                      .dwattr $C$DW$122, DW_AT_decl_column(0x18)
    1679                      .dwattr $C$DW$122, DW_AT_TI_max_frame_size(-6)
    1680                      .dwpsn  file "C:/ti/ccs2031/ccs/tools/compiler/ti-cgt-c2000_22.6.2.LTS/include/_defs.h",line 364,colu
    1681              
    1682                      .dwfde $C$DW$CIE, ||__signbit||
    1683              $C$DW$123       .dwtag  DW_TAG_formal_parameter
    1684                      .dwattr $C$DW$123, DW_AT_name("d")
    1685                      .dwattr $C$DW$123, DW_AT_type(*$C$DW$T$208)
    1686                      .dwattr $C$DW$123, DW_AT_location[DW_OP_reg12]
    1687              
    1688              
    1689              ;***************************************************************
    1690              ;* FNAME: __signbit                     FR SIZE:   4           *
    1691              ;*                                                             *
    1692              ;* FUNCTION ENVIRONMENT                                        *
    1693              ;*                                                             *
TMS320C2000 Assembler PC v22.6.2 Fri Dec 19 11:01:59 2025

Copyright (c) 1996-2018 Texas Instruments Incorporated
dual_axis_servo_drive_main_cpu.asm                                   PAGE   34

    1694              ;* FUNCTION PROPERTIES                                         *
    1695              ;*                            4 Parameter,  0 Auto,  0 SOE     *
    1696              ;***************************************************************
    1697              
    1698              ||__signbit||:
    1699              ;* AR4   assigned to d
    1700              $C$DW$124       .dwtag  DW_TAG_variable
    1701                      .dwattr $C$DW$124, DW_AT_name("d")
    1702                      .dwattr $C$DW$124, DW_AT_type(*$C$DW$T$209)
    1703                      .dwattr $C$DW$124, DW_AT_location[DW_OP_reg12]
    1704              
    1705                      .dwcfi  cfa_offset, -2
    1706                      .dwcfi  save_reg_to_mem, 26, 0
    1707 00000000 FE04          ADDB      SP,#4                 ; [CPU_ARAU] 
    1708                      .dwcfi  cfa_offset, -6
    1709                      .dwpsn  file "C:/ti/ccs2031/ccs/tools/compiler/ti-cgt-c2000_22.6.2.LTS/include/_defs.h",line 364,colu
    1710 00000001 0200          MOVB      ACC,#0                ; [CPU_ALU] |364| 
    1711 00000002 1E44          MOVL      *-SP[4],ACC           ; [CPU_ALU] |364| 
    1712 00000003 2B42          MOV       *-SP[2],#0            ; [CPU_ALU] |364| 
    1713 00000004 2B41          MOV       *-SP[1],#0            ; [CPU_ALU] |364| 
    1714 00000005 A3C4          MOVL      P,*+XAR4[0]           ; [CPU_ALU] |364| 
    1715 00000006 06D4          MOVL      ACC,*+XAR4[2]         ; [CPU_ALU] |364| 
    1716 00000007 18AB          AND       PL,#0                 ; [CPU_ALU] |364| 
         00000008 0000 
    1717 00000009 18AA          AND       PH,#0                 ; [CPU_ALU] |364| 
         0000000a 0000 
    1718 0000000b 9000          ANDB      AL,#0                 ; [CPU_ALU] |364| 
    1719 0000000c 18A8          AND       AH,#32768             ; [CPU_ALU] |364| 
         0000000d 8000 
    1720              $C$DW$125       .dwtag  DW_TAG_TI_branch
    1721                      .dwattr $C$DW$125, DW_AT_low_pc(0x00)
    1722                      .dwattr $C$DW$125, DW_AT_name("__c28xabi_cmpull")
    1723                      .dwattr $C$DW$125, DW_AT_TI_call
    1724              
    1725 0000000e 7640!         LCR       #||__c28xabi_cmpull|| ; [CPU_ALU] |364| 
         0000000f 0000 
    1726                      ; call occurs [#||__c28xabi_cmpull||] ; [] |364| 
    1727 00000010 9B00          MOVB      AH,#0                 ; [CPU_ALU] |364| 
    1728 00000011 5200          CMPB      AL,#0                 ; [CPU_ALU] |364| 
    1729 00000012 56B0          MOVB      AH,#1,NEQ             ; [CPU_ALU] |364| 
         00000013 01A8 
    1730 00000014 92A8          MOV       AL,AH                 ; [CPU_ALU] |364| 
    1731 00000015 FE84          SUBB      SP,#4                 ; [CPU_ARAU] 
    1732                      .dwcfi  cfa_offset, -2
    1733              $C$DW$126       .dwtag  DW_TAG_TI_branch
    1734                      .dwattr $C$DW$126, DW_AT_low_pc(0x00)
    1735                      .dwattr $C$DW$126, DW_AT_TI_return
    1736              
    1737 00000016 0006          LRETR     ; [CPU_ALU] 
    1738                      ; return occurs ; [] 
    1739                      .dwattr $C$DW$122, DW_AT_TI_end_file("C:/ti/ccs2031/ccs/tools/compiler/ti-cgt-c2000_22.6.2.LTS/includ
    1740                      .dwattr $C$DW$122, DW_AT_TI_end_line(0x16c)
    1741                      .dwattr $C$DW$122, DW_AT_TI_end_column(0x2a)
    1742                      .dwendentry
    1743                      .dwendtag $C$DW$122
TMS320C2000 Assembler PC v22.6.2 Fri Dec 19 11:01:59 2025

Copyright (c) 1996-2018 Texas Instruments Incorporated
dual_axis_servo_drive_main_cpu.asm                                   PAGE   35

    1744              
    1745 00000000               .sect   ".text:__relaxed_sqrtf"
    1746                      .clink
    1747                      .global ||__relaxed_sqrtf||
    1748              
    1749              $C$DW$127       .dwtag  DW_TAG_subprogram
    1750                      .dwattr $C$DW$127, DW_AT_name("__relaxed_sqrtf")
    1751                      .dwattr $C$DW$127, DW_AT_low_pc(||__relaxed_sqrtf||)
    1752                      .dwattr $C$DW$127, DW_AT_high_pc(0x00)
    1753                      .dwattr $C$DW$127, DW_AT_linkage_name("__relaxed_sqrtf")
    1754                      .dwattr $C$DW$127, DW_AT_external
    1755                      .dwattr $C$DW$127, DW_AT_type(*$C$DW$T$16)
    1756                      .dwattr $C$DW$127, DW_AT_decl_file("C:/ti/ccs2031/ccs/tools/compiler/ti-cgt-c2000_22.6.2.LTS/include/
    1757                      .dwattr $C$DW$127, DW_AT_decl_line(0x103)
    1758                      .dwattr $C$DW$127, DW_AT_decl_column(0x10)
    1759                      .dwattr $C$DW$127, DW_AT_TI_max_frame_size(-2)
    1760                      .dwpsn  file "C:/ti/ccs2031/ccs/tools/compiler/ti-cgt-c2000_22.6.2.LTS/include/math.h",line 260,colum
    1761              
    1762                      .dwfde $C$DW$CIE, ||__relaxed_sqrtf||
    1763              $C$DW$128       .dwtag  DW_TAG_formal_parameter
    1764                      .dwattr $C$DW$128, DW_AT_name("x")
    1765                      .dwattr $C$DW$128, DW_AT_type(*$C$DW$T$16)
    1766                      .dwattr $C$DW$128, DW_AT_location[DW_OP_regx 0x2b]
    1767              
    1768              
    1769              ;***************************************************************
    1770              ;* FNAME: __relaxed_sqrtf               FR SIZE:   0           *
    1771              ;*                                                             *
    1772              ;* FUNCTION ENVIRONMENT                                        *
    1773              ;*                                                             *
    1774              ;* FUNCTION PROPERTIES                                         *
    1775              ;*                            0 Parameter,  0 Auto,  0 SOE     *
    1776              ;***************************************************************
    1777              
    1778              ||__relaxed_sqrtf||:
    1779              ;* R0    assigned to x
    1780              $C$DW$129       .dwtag  DW_TAG_variable
    1781                      .dwattr $C$DW$129, DW_AT_name("x")
    1782                      .dwattr $C$DW$129, DW_AT_type(*$C$DW$T$205)
    1783                      .dwattr $C$DW$129, DW_AT_location[DW_OP_regx 0x2b]
    1784              
    1785                      .dwcfi  cfa_offset, -2
    1786                      .dwcfi  save_reg_to_mem, 26, 0
    1787                      .dwpsn  file "C:/ti/ccs2031/ccs/tools/compiler/ti-cgt-c2000_22.6.2.LTS/include/math.h",line 261,colum
    1788 00000000 E277          SQRTF32   R0H,R0H               ; [CPU_FPU] |261| 
         00000001 0000 
    1789 00000002 7700          NOP       ; [CPU_ALU] 
    1790 00000003 7700          NOP       ; [CPU_ALU] 
    1791 00000004 7700          NOP       ; [CPU_ALU] 
    1792              $C$DW$130       .dwtag  DW_TAG_TI_branch
    1793                      .dwattr $C$DW$130, DW_AT_low_pc(0x00)
    1794                      .dwattr $C$DW$130, DW_AT_TI_return
    1795              
    1796 00000005 0006          LRETR     ; [CPU_ALU] 
    1797                      ; return occurs ; [] 
TMS320C2000 Assembler PC v22.6.2 Fri Dec 19 11:01:59 2025

Copyright (c) 1996-2018 Texas Instruments Incorporated
dual_axis_servo_drive_main_cpu.asm                                   PAGE   36

    1798                      .dwattr $C$DW$127, DW_AT_TI_end_file("C:/ti/ccs2031/ccs/tools/compiler/ti-cgt-c2000_22.6.2.LTS/includ
    1799                      .dwattr $C$DW$127, DW_AT_TI_end_line(0x106)
    1800                      .dwattr $C$DW$127, DW_AT_TI_end_column(0x01)
    1801                      .dwendentry
    1802                      .dwendtag $C$DW$127
    1803              
    1804 00000000               .sect   ".text:__relaxed_sinf"
    1805                      .clink
    1806                      .global ||__relaxed_sinf||
    1807              
    1808              $C$DW$131       .dwtag  DW_TAG_subprogram
    1809                      .dwattr $C$DW$131, DW_AT_name("__relaxed_sinf")
    1810                      .dwattr $C$DW$131, DW_AT_low_pc(||__relaxed_sinf||)
    1811                      .dwattr $C$DW$131, DW_AT_high_pc(0x00)
    1812                      .dwattr $C$DW$131, DW_AT_linkage_name("__relaxed_sinf")
    1813                      .dwattr $C$DW$131, DW_AT_external
    1814                      .dwattr $C$DW$131, DW_AT_type(*$C$DW$T$16)
    1815                      .dwattr $C$DW$131, DW_AT_decl_file("C:/ti/ccs2031/ccs/tools/compiler/ti-cgt-c2000_22.6.2.LTS/include/
    1816                      .dwattr $C$DW$131, DW_AT_decl_line(0x108)
    1817                      .dwattr $C$DW$131, DW_AT_decl_column(0x10)
    1818                      .dwattr $C$DW$131, DW_AT_TI_max_frame_size(-2)
    1819                      .dwpsn  file "C:/ti/ccs2031/ccs/tools/compiler/ti-cgt-c2000_22.6.2.LTS/include/math.h",line 265,colum
    1820              
    1821                      .dwfde $C$DW$CIE, ||__relaxed_sinf||
    1822              $C$DW$132       .dwtag  DW_TAG_formal_parameter
    1823                      .dwattr $C$DW$132, DW_AT_name("x")
    1824                      .dwattr $C$DW$132, DW_AT_type(*$C$DW$T$16)
    1825                      .dwattr $C$DW$132, DW_AT_location[DW_OP_regx 0x2b]
    1826              
    1827              
    1828              ;***************************************************************
    1829              ;* FNAME: __relaxed_sinf                FR SIZE:   0           *
    1830              ;*                                                             *
    1831              ;* FUNCTION ENVIRONMENT                                        *
    1832              ;*                                                             *
    1833              ;* FUNCTION PROPERTIES                                         *
    1834              ;*                            0 Parameter,  0 Auto,  0 SOE     *
    1835              ;***************************************************************
    1836              
    1837              ||__relaxed_sinf||:
    1838              ;* R0    assigned to x
    1839              $C$DW$133       .dwtag  DW_TAG_variable
    1840                      .dwattr $C$DW$133, DW_AT_name("x")
    1841                      .dwattr $C$DW$133, DW_AT_type(*$C$DW$T$205)
    1842                      .dwattr $C$DW$133, DW_AT_location[DW_OP_regx 0x2b]
    1843              
    1844                      .dwcfi  cfa_offset, -2
    1845                      .dwcfi  save_reg_to_mem, 26, 0
    1846                      .dwpsn  file "C:/ti/ccs2031/ccs/tools/compiler/ti-cgt-c2000_22.6.2.LTS/include/math.h",line 266,colum
    1847 00000000 E271          DIV2PIF32 R0H,R0H               ; [CPU_FPU] |266| 
         00000001 0000 
    1848 00000002 7700          NOP       ; [CPU_ALU] 
    1849 00000003 E278          SINPUF32  R0H,R0H               ; [CPU_FPU] |266| 
         00000004 0000 
    1850 00000005 7700          NOP       ; [CPU_ALU] 
TMS320C2000 Assembler PC v22.6.2 Fri Dec 19 11:01:59 2025

Copyright (c) 1996-2018 Texas Instruments Incorporated
dual_axis_servo_drive_main_cpu.asm                                   PAGE   37

    1851 00000006 7700          NOP       ; [CPU_ALU] 
    1852              $C$DW$134       .dwtag  DW_TAG_TI_branch
    1853                      .dwattr $C$DW$134, DW_AT_low_pc(0x00)
    1854                      .dwattr $C$DW$134, DW_AT_TI_return
    1855              
    1856 00000007 0006          LRETR     ; [CPU_ALU] 
    1857                      ; return occurs ; [] 
    1858                      .dwattr $C$DW$131, DW_AT_TI_end_file("C:/ti/ccs2031/ccs/tools/compiler/ti-cgt-c2000_22.6.2.LTS/includ
    1859                      .dwattr $C$DW$131, DW_AT_TI_end_line(0x10b)
    1860                      .dwattr $C$DW$131, DW_AT_TI_end_column(0x01)
    1861                      .dwendentry
    1862                      .dwendtag $C$DW$131
    1863              
    1864 00000000               .sect   ".text:__relaxed_powf"
    1865                      .clink
    1866                      .global ||__relaxed_powf||
    1867              
    1868              $C$DW$135       .dwtag  DW_TAG_subprogram
    1869                      .dwattr $C$DW$135, DW_AT_name("__relaxed_powf")
    1870                      .dwattr $C$DW$135, DW_AT_low_pc(||__relaxed_powf||)
    1871                      .dwattr $C$DW$135, DW_AT_high_pc(0x00)
    1872                      .dwattr $C$DW$135, DW_AT_linkage_name("__relaxed_powf")
    1873                      .dwattr $C$DW$135, DW_AT_external
    1874                      .dwattr $C$DW$135, DW_AT_type(*$C$DW$T$16)
    1875                      .dwattr $C$DW$135, DW_AT_decl_file("C:/ti/ccs2031/ccs/tools/compiler/ti-cgt-c2000_22.6.2.LTS/include/
    1876                      .dwattr $C$DW$135, DW_AT_decl_line(0x13b)
    1877                      .dwattr $C$DW$135, DW_AT_decl_column(0x10)
    1878                      .dwattr $C$DW$135, DW_AT_TI_max_frame_size(-4)
    1879                      .dwpsn  file "C:/ti/ccs2031/ccs/tools/compiler/ti-cgt-c2000_22.6.2.LTS/include/math.h",line 316,colum
    1880              
    1881                      .dwfde $C$DW$CIE, ||__relaxed_powf||
    1882              $C$DW$136       .dwtag  DW_TAG_formal_parameter
    1883                      .dwattr $C$DW$136, DW_AT_name("x")
    1884                      .dwattr $C$DW$136, DW_AT_type(*$C$DW$T$16)
    1885                      .dwattr $C$DW$136, DW_AT_location[DW_OP_regx 0x2b]
    1886              
    1887              $C$DW$137       .dwtag  DW_TAG_formal_parameter
    1888                      .dwattr $C$DW$137, DW_AT_name("y")
    1889                      .dwattr $C$DW$137, DW_AT_type(*$C$DW$T$16)
    1890                      .dwattr $C$DW$137, DW_AT_location[DW_OP_regx 0x2f]
    1891              
    1892              
    1893              ;***************************************************************
    1894              ;* FNAME: __relaxed_powf                FR SIZE:   2           *
    1895              ;*                                                             *
    1896              ;* FUNCTION ENVIRONMENT                                        *
    1897              ;*                                                             *
    1898              ;* FUNCTION PROPERTIES                                         *
    1899              ;*                            2 Parameter,  0 Auto,  0 SOE     *
    1900              ;***************************************************************
    1901              
    1902              ||__relaxed_powf||:
    1903              ;* R1    assigned to $O$C2
    1904              ;* R0    assigned to $O$K4
    1905              ;* R0    assigned to $O$R1
TMS320C2000 Assembler PC v22.6.2 Fri Dec 19 11:01:59 2025

Copyright (c) 1996-2018 Texas Instruments Incorporated
dual_axis_servo_drive_main_cpu.asm                                   PAGE   38

    1906              ;* R0    assigned to x
    1907              $C$DW$138       .dwtag  DW_TAG_variable
    1908                      .dwattr $C$DW$138, DW_AT_name("x")
    1909                      .dwattr $C$DW$138, DW_AT_type(*$C$DW$T$205)
    1910                      .dwattr $C$DW$138, DW_AT_location[DW_OP_regx 0x2b]
    1911              
    1912              ;* R1    assigned to y
    1913              $C$DW$139       .dwtag  DW_TAG_variable
    1914                      .dwattr $C$DW$139, DW_AT_name("y")
    1915                      .dwattr $C$DW$139, DW_AT_type(*$C$DW$T$205)
    1916                      .dwattr $C$DW$139, DW_AT_location[DW_OP_regx 0x2f]
    1917              
    1918              ;* R0    assigned to iexp2f
    1919              $C$DW$140       .dwtag  DW_TAG_variable
    1920                      .dwattr $C$DW$140, DW_AT_name("iexp2f")
    1921                      .dwattr $C$DW$140, DW_AT_type(*$C$DW$T$16)
    1922                      .dwattr $C$DW$140, DW_AT_location[DW_OP_regx 0x2b]
    1923              
    1924                      .dwcfi  cfa_offset, -2
    1925                      .dwcfi  save_reg_to_mem, 26, 0
    1926 00000000 FE02          ADDB      SP,#2                 ; [CPU_ARAU] 
    1927                      .dwcfi  cfa_offset, -4
    1928                      .dwpsn  file "C:/ti/ccs2031/ccs/tools/compiler/ti-cgt-c2000_22.6.2.LTS/include/math.h",line 298,colum
    1929 00000001 E272          LOG2F32   R0H,R0H               ; [CPU_FPU] |298| 
         00000002 0000 
    1930 00000003 7700          NOP       ; [CPU_ALU] 
    1931 00000004 7700          NOP       ; [CPU_ALU] 
    1932 00000005 7700          NOP       ; [CPU_ALU] 
    1933 00000006 E700          MPYF32    R1H,R1H,R0H           ; [CPU_FPU] |298| 
         00000007 0009 
    1934 00000008 7700          NOP       ; [CPU_ALU] 
    1935                      .dwpsn  file "C:/ti/ccs2031/ccs/tools/compiler/ti-cgt-c2000_22.6.2.LTS/include/math.h",line 299,colum
    1936 00000009 E5A1          CMPF32    R1H,#0                ; [CPU_FPU] |299| 
    1937 0000000a AD14          MOVST0    ZF, NF                ; [CPU_FPU] |299| 
    1938                      .dwpsn  file "C:/ti/ccs2031/ccs/tools/compiler/ti-cgt-c2000_22.6.2.LTS/include/math.h",line 298,colum
    1939 0000000b E273          IEXP2F32  R0H,R1H               ; [CPU_FPU] |298| 
         0000000c 0008 
    1940                      .dwpsn  file "C:/ti/ccs2031/ccs/tools/compiler/ti-cgt-c2000_22.6.2.LTS/include/math.h",line 299,colum
    1941 0000000d 6507          B         ||$C$L11||,LEQ        ; [CPU_ALU] |299| 
    1942                      ; branchcc occurs ; [] |299| 
    1943 0000000e E801          MOVIZ     R1H,#16256            ; [CPU_FPU] |299| 
         0000000f FC01 
    1944 00000010 E274          DIVF32    R0H,R1H,R0H           ; [CPU_FPU] |299| 
         00000011 0008 
    1945 00000012 7700          NOP       ; [CPU_ALU] 
    1946 00000013 7700          NOP       ; [CPU_ALU] 
    1947 00000014       ||$C$L11||:    
    1948 00000014 FE82          SUBB      SP,#2                 ; [CPU_ARAU] 
    1949                      .dwcfi  cfa_offset, -2
    1950              $C$DW$141       .dwtag  DW_TAG_TI_branch
    1951                      .dwattr $C$DW$141, DW_AT_low_pc(0x00)
    1952                      .dwattr $C$DW$141, DW_AT_TI_return
    1953              
    1954 00000015 0006          LRETR     ; [CPU_ALU] 
    1955                      ; return occurs ; [] 
TMS320C2000 Assembler PC v22.6.2 Fri Dec 19 11:01:59 2025

Copyright (c) 1996-2018 Texas Instruments Incorporated
dual_axis_servo_drive_main_cpu.asm                                   PAGE   39

    1956                      .dwattr $C$DW$135, DW_AT_TI_end_file("C:/ti/ccs2031/ccs/tools/compiler/ti-cgt-c2000_22.6.2.LTS/includ
    1957                      .dwattr $C$DW$135, DW_AT_TI_end_line(0x141)
    1958                      .dwattr $C$DW$135, DW_AT_TI_end_column(0x01)
    1959                      .dwendentry
    1960                      .dwendtag $C$DW$135
    1961              
    1962 00000000               .sect   ".text:__relaxed_logf"
    1963                      .clink
    1964                      .global ||__relaxed_logf||
    1965              
    1966              $C$DW$142       .dwtag  DW_TAG_subprogram
    1967                      .dwattr $C$DW$142, DW_AT_name("__relaxed_logf")
    1968                      .dwattr $C$DW$142, DW_AT_low_pc(||__relaxed_logf||)
    1969                      .dwattr $C$DW$142, DW_AT_high_pc(0x00)
    1970                      .dwattr $C$DW$142, DW_AT_linkage_name("__relaxed_logf")
    1971                      .dwattr $C$DW$142, DW_AT_external
    1972                      .dwattr $C$DW$142, DW_AT_type(*$C$DW$T$16)
    1973                      .dwattr $C$DW$142, DW_AT_decl_file("C:/ti/ccs2031/ccs/tools/compiler/ti-cgt-c2000_22.6.2.LTS/include/
    1974                      .dwattr $C$DW$142, DW_AT_decl_line(0x135)
    1975                      .dwattr $C$DW$142, DW_AT_decl_column(0x10)
    1976                      .dwattr $C$DW$142, DW_AT_TI_max_frame_size(-2)
    1977                      .dwpsn  file "C:/ti/ccs2031/ccs/tools/compiler/ti-cgt-c2000_22.6.2.LTS/include/math.h",line 310,colum
    1978              
    1979                      .dwfde $C$DW$CIE, ||__relaxed_logf||
    1980              $C$DW$143       .dwtag  DW_TAG_formal_parameter
    1981                      .dwattr $C$DW$143, DW_AT_name("x")
    1982                      .dwattr $C$DW$143, DW_AT_type(*$C$DW$T$16)
    1983                      .dwattr $C$DW$143, DW_AT_location[DW_OP_regx 0x2b]
    1984              
    1985              
    1986              ;***************************************************************
    1987              ;* FNAME: __relaxed_logf                FR SIZE:   0           *
    1988              ;*                                                             *
    1989              ;* FUNCTION ENVIRONMENT                                        *
    1990              ;*                                                             *
    1991              ;* FUNCTION PROPERTIES                                         *
    1992              ;*                            0 Parameter,  0 Auto,  0 SOE     *
    1993              ;***************************************************************
    1994              
    1995              ||__relaxed_logf||:
    1996              ;* R0    assigned to x
    1997              $C$DW$144       .dwtag  DW_TAG_variable
    1998                      .dwattr $C$DW$144, DW_AT_name("x")
    1999                      .dwattr $C$DW$144, DW_AT_type(*$C$DW$T$205)
    2000                      .dwattr $C$DW$144, DW_AT_location[DW_OP_regx 0x2b]
    2001              
    2002                      .dwcfi  cfa_offset, -2
    2003                      .dwcfi  save_reg_to_mem, 26, 0
    2004                      .dwpsn  file "C:/ti/ccs2031/ccs/tools/compiler/ti-cgt-c2000_22.6.2.LTS/include/math.h",line 312,colum
    2005 00000000 E272          LOG2F32   R1H,R0H               ; [CPU_FPU] |312| 
         00000001 0001 
    2006 00000002 7700          NOP       ; [CPU_ALU] 
    2007 00000003 E801          MOVIZ     R0H,#16177            ; [CPU_FPU] |312| 
         00000004 F988 
    2008 00000005 E80B          MOVXI     R0H,#29205            ; [CPU_FPU] |312| 
TMS320C2000 Assembler PC v22.6.2 Fri Dec 19 11:01:59 2025

Copyright (c) 1996-2018 Texas Instruments Incorporated
dual_axis_servo_drive_main_cpu.asm                                   PAGE   40

         00000006 90A8 
    2009 00000007 E700          MPYF32    R0H,R0H,R1H           ; [CPU_FPU] |312| 
         00000008 0040 
    2010              $C$DW$145       .dwtag  DW_TAG_TI_branch
    2011                      .dwattr $C$DW$145, DW_AT_low_pc(0x00)
    2012                      .dwattr $C$DW$145, DW_AT_TI_return
    2013              
    2014 00000009 0006          LRETR     ; [CPU_ALU] 
    2015                      ; return occurs ; [] 
    2016                      .dwattr $C$DW$142, DW_AT_TI_end_file("C:/ti/ccs2031/ccs/tools/compiler/ti-cgt-c2000_22.6.2.LTS/includ
    2017                      .dwattr $C$DW$142, DW_AT_TI_end_line(0x139)
    2018                      .dwattr $C$DW$142, DW_AT_TI_end_column(0x01)
    2019                      .dwendentry
    2020                      .dwendtag $C$DW$142
    2021              
    2022 00000000               .sect   ".text:__relaxed_log2f"
    2023                      .clink
    2024                      .global ||__relaxed_log2f||
    2025              
    2026              $C$DW$146       .dwtag  DW_TAG_subprogram
    2027                      .dwattr $C$DW$146, DW_AT_name("__relaxed_log2f")
    2028                      .dwattr $C$DW$146, DW_AT_low_pc(||__relaxed_log2f||)
    2029                      .dwattr $C$DW$146, DW_AT_high_pc(0x00)
    2030                      .dwattr $C$DW$146, DW_AT_linkage_name("__relaxed_log2f")
    2031                      .dwattr $C$DW$146, DW_AT_external
    2032                      .dwattr $C$DW$146, DW_AT_type(*$C$DW$T$16)
    2033                      .dwattr $C$DW$146, DW_AT_decl_file("C:/ti/ccs2031/ccs/tools/compiler/ti-cgt-c2000_22.6.2.LTS/include/
    2034                      .dwattr $C$DW$146, DW_AT_decl_line(0x123)
    2035                      .dwattr $C$DW$146, DW_AT_decl_column(0x10)
    2036                      .dwattr $C$DW$146, DW_AT_TI_max_frame_size(-2)
    2037                      .dwpsn  file "C:/ti/ccs2031/ccs/tools/compiler/ti-cgt-c2000_22.6.2.LTS/include/math.h",line 292,colum
    2038              
    2039                      .dwfde $C$DW$CIE, ||__relaxed_log2f||
    2040              $C$DW$147       .dwtag  DW_TAG_formal_parameter
    2041                      .dwattr $C$DW$147, DW_AT_name("x")
    2042                      .dwattr $C$DW$147, DW_AT_type(*$C$DW$T$16)
    2043                      .dwattr $C$DW$147, DW_AT_location[DW_OP_regx 0x2b]
    2044              
    2045              
    2046              ;***************************************************************
    2047              ;* FNAME: __relaxed_log2f               FR SIZE:   0           *
    2048              ;*                                                             *
    2049              ;* FUNCTION ENVIRONMENT                                        *
    2050              ;*                                                             *
    2051              ;* FUNCTION PROPERTIES                                         *
    2052              ;*                            0 Parameter,  0 Auto,  0 SOE     *
    2053              ;***************************************************************
    2054              
    2055              ||__relaxed_log2f||:
    2056              ;* R0    assigned to x
    2057              $C$DW$148       .dwtag  DW_TAG_variable
    2058                      .dwattr $C$DW$148, DW_AT_name("x")
    2059                      .dwattr $C$DW$148, DW_AT_type(*$C$DW$T$205)
    2060                      .dwattr $C$DW$148, DW_AT_location[DW_OP_regx 0x2b]
    2061              
TMS320C2000 Assembler PC v22.6.2 Fri Dec 19 11:01:59 2025

Copyright (c) 1996-2018 Texas Instruments Incorporated
dual_axis_servo_drive_main_cpu.asm                                   PAGE   41

    2062                      .dwcfi  cfa_offset, -2
    2063                      .dwcfi  save_reg_to_mem, 26, 0
    2064                      .dwpsn  file "C:/ti/ccs2031/ccs/tools/compiler/ti-cgt-c2000_22.6.2.LTS/include/math.h",line 293,colum
    2065 00000000 E272          LOG2F32   R0H,R0H               ; [CPU_FPU] |293| 
         00000001 0000 
    2066 00000002 7700          NOP       ; [CPU_ALU] 
    2067 00000003 7700          NOP       ; [CPU_ALU] 
    2068              $C$DW$149       .dwtag  DW_TAG_TI_branch
    2069                      .dwattr $C$DW$149, DW_AT_low_pc(0x00)
    2070                      .dwattr $C$DW$149, DW_AT_TI_return
    2071              
    2072 00000004 0006          LRETR     ; [CPU_ALU] 
    2073                      ; return occurs ; [] 
    2074                      .dwattr $C$DW$146, DW_AT_TI_end_file("C:/ti/ccs2031/ccs/tools/compiler/ti-cgt-c2000_22.6.2.LTS/includ
    2075                      .dwattr $C$DW$146, DW_AT_TI_end_line(0x126)
    2076                      .dwattr $C$DW$146, DW_AT_TI_end_column(0x01)
    2077                      .dwendentry
    2078                      .dwendtag $C$DW$146
    2079              
    2080 00000000               .sect   ".text:__relaxed_fmodf"
    2081                      .clink
    2082                      .global ||__relaxed_fmodf||
    2083              
    2084              $C$DW$150       .dwtag  DW_TAG_subprogram
    2085                      .dwattr $C$DW$150, DW_AT_name("__relaxed_fmodf")
    2086                      .dwattr $C$DW$150, DW_AT_low_pc(||__relaxed_fmodf||)
    2087                      .dwattr $C$DW$150, DW_AT_high_pc(0x00)
    2088                      .dwattr $C$DW$150, DW_AT_linkage_name("__relaxed_fmodf")
    2089                      .dwattr $C$DW$150, DW_AT_external
    2090                      .dwattr $C$DW$150, DW_AT_type(*$C$DW$T$16)
    2091                      .dwattr $C$DW$150, DW_AT_decl_file("C:/ti/ccs2031/ccs/tools/compiler/ti-cgt-c2000_22.6.2.LTS/include/
    2092                      .dwattr $C$DW$150, DW_AT_decl_line(0x11c)
    2093                      .dwattr $C$DW$150, DW_AT_decl_column(0x10)
    2094                      .dwattr $C$DW$150, DW_AT_TI_max_frame_size(-2)
    2095                      .dwpsn  file "C:/ti/ccs2031/ccs/tools/compiler/ti-cgt-c2000_22.6.2.LTS/include/math.h",line 285,colum
    2096              
    2097                      .dwfde $C$DW$CIE, ||__relaxed_fmodf||
    2098              $C$DW$151       .dwtag  DW_TAG_formal_parameter
    2099                      .dwattr $C$DW$151, DW_AT_name("y")
    2100                      .dwattr $C$DW$151, DW_AT_type(*$C$DW$T$16)
    2101                      .dwattr $C$DW$151, DW_AT_location[DW_OP_regx 0x2b]
    2102              
    2103              $C$DW$152       .dwtag  DW_TAG_formal_parameter
    2104                      .dwattr $C$DW$152, DW_AT_name("x")
    2105                      .dwattr $C$DW$152, DW_AT_type(*$C$DW$T$16)
    2106                      .dwattr $C$DW$152, DW_AT_location[DW_OP_regx 0x2f]
    2107              
    2108              
    2109              ;***************************************************************
    2110              ;* FNAME: __relaxed_fmodf               FR SIZE:   0           *
    2111              ;*                                                             *
    2112              ;* FUNCTION ENVIRONMENT                                        *
    2113              ;*                                                             *
    2114              ;* FUNCTION PROPERTIES                                         *
    2115              ;*                            0 Parameter,  0 Auto,  0 SOE     *
TMS320C2000 Assembler PC v22.6.2 Fri Dec 19 11:01:59 2025

Copyright (c) 1996-2018 Texas Instruments Incorporated
dual_axis_servo_drive_main_cpu.asm                                   PAGE   42

    2116              ;***************************************************************
    2117              
    2118              ||__relaxed_fmodf||:
    2119              ;* R0    assigned to y
    2120              $C$DW$153       .dwtag  DW_TAG_variable
    2121                      .dwattr $C$DW$153, DW_AT_name("y")
    2122                      .dwattr $C$DW$153, DW_AT_type(*$C$DW$T$205)
    2123                      .dwattr $C$DW$153, DW_AT_location[DW_OP_regx 0x2b]
    2124              
    2125              ;* R1    assigned to x
    2126              $C$DW$154       .dwtag  DW_TAG_variable
    2127                      .dwattr $C$DW$154, DW_AT_name("x")
    2128                      .dwattr $C$DW$154, DW_AT_type(*$C$DW$T$205)
    2129                      .dwattr $C$DW$154, DW_AT_location[DW_OP_regx 0x2f]
    2130              
    2131                      .dwcfi  cfa_offset, -2
    2132                      .dwcfi  save_reg_to_mem, 26, 0
    2133                      .dwpsn  file "C:/ti/ccs2031/ccs/tools/compiler/ti-cgt-c2000_22.6.2.LTS/include/math.h",line 286,colum
    2134 00000000 E274          DIVF32    R2H,R0H,R1H           ; [CPU_FPU] |286| 
         00000001 0042 
    2135 00000002 7700          NOP       ; [CPU_ALU] 
    2136 00000003 7700          NOP       ; [CPU_ALU] 
    2137 00000004 7700          NOP       ; [CPU_ALU] 
    2138 00000005 7700          NOP       ; [CPU_ALU] 
    2139 00000006 E688          F32TOI32  R2H,R2H               ; [CPU_FPU] |286| 
         00000007 0012 
    2140 00000008 7700          NOP       ; [CPU_ALU] 
    2141 00000009 E689          I32TOF32  R2H,R2H               ; [CPU_FPU] |286| 
         0000000a 0012 
    2142 0000000b 7700          NOP       ; [CPU_ALU] 
    2143 0000000c E700          MPYF32    R1H,R1H,R2H           ; [CPU_FPU] |286| 
         0000000d 0089 
    2144 0000000e 7700          NOP       ; [CPU_ALU] 
    2145 0000000f E720          SUBF32    R0H,R0H,R1H           ; [CPU_FPU] |286| 
         00000010 0040 
    2146              $C$DW$155       .dwtag  DW_TAG_TI_branch
    2147                      .dwattr $C$DW$155, DW_AT_low_pc(0x00)
    2148                      .dwattr $C$DW$155, DW_AT_TI_return
    2149              
    2150 00000011 0006          LRETR     ; [CPU_ALU] 
    2151                      ; return occurs ; [] 
    2152                      .dwattr $C$DW$150, DW_AT_TI_end_file("C:/ti/ccs2031/ccs/tools/compiler/ti-cgt-c2000_22.6.2.LTS/includ
    2153                      .dwattr $C$DW$150, DW_AT_TI_end_line(0x11f)
    2154                      .dwattr $C$DW$150, DW_AT_TI_end_column(0x01)
    2155                      .dwendentry
    2156                      .dwendtag $C$DW$150
    2157              
    2158 00000000               .sect   ".text:__relaxed_fminf"
    2159                      .clink
    2160                      .global ||__relaxed_fminf||
    2161              
    2162              $C$DW$156       .dwtag  DW_TAG_subprogram
    2163                      .dwattr $C$DW$156, DW_AT_name("__relaxed_fminf")
    2164                      .dwattr $C$DW$156, DW_AT_low_pc(||__relaxed_fminf||)
    2165                      .dwattr $C$DW$156, DW_AT_high_pc(0x00)
TMS320C2000 Assembler PC v22.6.2 Fri Dec 19 11:01:59 2025

Copyright (c) 1996-2018 Texas Instruments Incorporated
dual_axis_servo_drive_main_cpu.asm                                   PAGE   43

    2166                      .dwattr $C$DW$156, DW_AT_linkage_name("__relaxed_fminf")
    2167                      .dwattr $C$DW$156, DW_AT_external
    2168                      .dwattr $C$DW$156, DW_AT_type(*$C$DW$T$16)
    2169                      .dwattr $C$DW$156, DW_AT_decl_file("C:/ti/ccs2031/ccs/tools/compiler/ti-cgt-c2000_22.6.2.LTS/include/
    2170                      .dwattr $C$DW$156, DW_AT_decl_line(0xee)
    2171                      .dwattr $C$DW$156, DW_AT_decl_column(0x10)
    2172                      .dwattr $C$DW$156, DW_AT_TI_max_frame_size(-2)
    2173                      .dwpsn  file "C:/ti/ccs2031/ccs/tools/compiler/ti-cgt-c2000_22.6.2.LTS/include/math.h",line 239,colum
    2174              
    2175                      .dwfde $C$DW$CIE, ||__relaxed_fminf||
    2176              $C$DW$157       .dwtag  DW_TAG_formal_parameter
    2177                      .dwattr $C$DW$157, DW_AT_name("x")
    2178                      .dwattr $C$DW$157, DW_AT_type(*$C$DW$T$16)
    2179                      .dwattr $C$DW$157, DW_AT_location[DW_OP_regx 0x2b]
    2180              
    2181              $C$DW$158       .dwtag  DW_TAG_formal_parameter
    2182                      .dwattr $C$DW$158, DW_AT_name("y")
    2183                      .dwattr $C$DW$158, DW_AT_type(*$C$DW$T$16)
    2184                      .dwattr $C$DW$158, DW_AT_location[DW_OP_regx 0x2f]
    2185              
    2186              
    2187              ;***************************************************************
    2188              ;* FNAME: __relaxed_fminf               FR SIZE:   0           *
    2189              ;*                                                             *
    2190              ;* FUNCTION ENVIRONMENT                                        *
    2191              ;*                                                             *
    2192              ;* FUNCTION PROPERTIES                                         *
    2193              ;*                            0 Parameter,  0 Auto,  0 SOE     *
    2194              ;***************************************************************
    2195              
    2196              ||__relaxed_fminf||:
    2197              ;* R1    assigned to y
    2198              $C$DW$159       .dwtag  DW_TAG_variable
    2199                      .dwattr $C$DW$159, DW_AT_name("y")
    2200                      .dwattr $C$DW$159, DW_AT_type(*$C$DW$T$205)
    2201                      .dwattr $C$DW$159, DW_AT_location[DW_OP_regx 0x2f]
    2202              
    2203                      .dwcfi  cfa_offset, -2
    2204                      .dwcfi  save_reg_to_mem, 26, 0
    2205                      .dwpsn  file "C:/ti/ccs2031/ccs/tools/compiler/ti-cgt-c2000_22.6.2.LTS/include/math.h",line 240,colum
    2206 00000000 E697          MINF32    R0H,R1H               ; [CPU_FPU] |240| 
         00000001 0008 
    2207              $C$DW$160       .dwtag  DW_TAG_TI_branch
    2208                      .dwattr $C$DW$160, DW_AT_low_pc(0x00)
    2209                      .dwattr $C$DW$160, DW_AT_TI_return
    2210              
    2211 00000002 0006          LRETR     ; [CPU_ALU] 
    2212                      ; return occurs ; [] 
    2213                      .dwattr $C$DW$156, DW_AT_TI_end_file("C:/ti/ccs2031/ccs/tools/compiler/ti-cgt-c2000_22.6.2.LTS/includ
    2214                      .dwattr $C$DW$156, DW_AT_TI_end_line(0xf1)
    2215                      .dwattr $C$DW$156, DW_AT_TI_end_column(0x01)
    2216                      .dwendentry
    2217                      .dwendtag $C$DW$156
    2218              
    2219 00000000               .sect   ".text:__relaxed_fmaxf"
TMS320C2000 Assembler PC v22.6.2 Fri Dec 19 11:01:59 2025

Copyright (c) 1996-2018 Texas Instruments Incorporated
dual_axis_servo_drive_main_cpu.asm                                   PAGE   44

    2220                      .clink
    2221                      .global ||__relaxed_fmaxf||
    2222              
    2223              $C$DW$161       .dwtag  DW_TAG_subprogram
    2224                      .dwattr $C$DW$161, DW_AT_name("__relaxed_fmaxf")
    2225                      .dwattr $C$DW$161, DW_AT_low_pc(||__relaxed_fmaxf||)
    2226                      .dwattr $C$DW$161, DW_AT_high_pc(0x00)
    2227                      .dwattr $C$DW$161, DW_AT_linkage_name("__relaxed_fmaxf")
    2228                      .dwattr $C$DW$161, DW_AT_external
    2229                      .dwattr $C$DW$161, DW_AT_type(*$C$DW$T$16)
    2230                      .dwattr $C$DW$161, DW_AT_decl_file("C:/ti/ccs2031/ccs/tools/compiler/ti-cgt-c2000_22.6.2.LTS/include/
    2231                      .dwattr $C$DW$161, DW_AT_decl_line(0xe8)
    2232                      .dwattr $C$DW$161, DW_AT_decl_column(0x10)
    2233                      .dwattr $C$DW$161, DW_AT_TI_max_frame_size(-2)
    2234                      .dwpsn  file "C:/ti/ccs2031/ccs/tools/compiler/ti-cgt-c2000_22.6.2.LTS/include/math.h",line 233,colum
    2235              
    2236                      .dwfde $C$DW$CIE, ||__relaxed_fmaxf||
    2237              $C$DW$162       .dwtag  DW_TAG_formal_parameter
    2238                      .dwattr $C$DW$162, DW_AT_name("x")
    2239                      .dwattr $C$DW$162, DW_AT_type(*$C$DW$T$16)
    2240                      .dwattr $C$DW$162, DW_AT_location[DW_OP_regx 0x2b]
    2241              
    2242              $C$DW$163       .dwtag  DW_TAG_formal_parameter
    2243                      .dwattr $C$DW$163, DW_AT_name("y")
    2244                      .dwattr $C$DW$163, DW_AT_type(*$C$DW$T$16)
    2245                      .dwattr $C$DW$163, DW_AT_location[DW_OP_regx 0x2f]
    2246              
    2247              
    2248              ;***************************************************************
    2249              ;* FNAME: __relaxed_fmaxf               FR SIZE:   0           *
    2250              ;*                                                             *
    2251              ;* FUNCTION ENVIRONMENT                                        *
    2252              ;*                                                             *
    2253              ;* FUNCTION PROPERTIES                                         *
    2254              ;*                            0 Parameter,  0 Auto,  0 SOE     *
    2255              ;***************************************************************
    2256              
    2257              ||__relaxed_fmaxf||:
    2258              ;* R1    assigned to y
    2259              $C$DW$164       .dwtag  DW_TAG_variable
    2260                      .dwattr $C$DW$164, DW_AT_name("y")
    2261                      .dwattr $C$DW$164, DW_AT_type(*$C$DW$T$205)
    2262                      .dwattr $C$DW$164, DW_AT_location[DW_OP_regx 0x2f]
    2263              
    2264                      .dwcfi  cfa_offset, -2
    2265                      .dwcfi  save_reg_to_mem, 26, 0
    2266                      .dwpsn  file "C:/ti/ccs2031/ccs/tools/compiler/ti-cgt-c2000_22.6.2.LTS/include/math.h",line 234,colum
    2267 00000000 E696          MAXF32    R0H,R1H               ; [CPU_FPU] |234| 
         00000001 0008 
    2268              $C$DW$165       .dwtag  DW_TAG_TI_branch
    2269                      .dwattr $C$DW$165, DW_AT_low_pc(0x00)
    2270                      .dwattr $C$DW$165, DW_AT_TI_return
    2271              
    2272 00000002 0006          LRETR     ; [CPU_ALU] 
    2273                      ; return occurs ; [] 
TMS320C2000 Assembler PC v22.6.2 Fri Dec 19 11:01:59 2025

Copyright (c) 1996-2018 Texas Instruments Incorporated
dual_axis_servo_drive_main_cpu.asm                                   PAGE   45

    2274                      .dwattr $C$DW$161, DW_AT_TI_end_file("C:/ti/ccs2031/ccs/tools/compiler/ti-cgt-c2000_22.6.2.LTS/includ
    2275                      .dwattr $C$DW$161, DW_AT_TI_end_line(0xeb)
    2276                      .dwattr $C$DW$161, DW_AT_TI_end_column(0x01)
    2277                      .dwendentry
    2278                      .dwendtag $C$DW$161
    2279              
    2280 00000000               .sect   ".text:__relaxed_expf"
    2281                      .clink
    2282                      .global ||__relaxed_expf||
    2283              
    2284              $C$DW$166       .dwtag  DW_TAG_subprogram
    2285                      .dwattr $C$DW$166, DW_AT_name("__relaxed_expf")
    2286                      .dwattr $C$DW$166, DW_AT_low_pc(||__relaxed_expf||)
    2287                      .dwattr $C$DW$166, DW_AT_high_pc(0x00)
    2288                      .dwattr $C$DW$166, DW_AT_linkage_name("__relaxed_expf")
    2289                      .dwattr $C$DW$166, DW_AT_external
    2290                      .dwattr $C$DW$166, DW_AT_type(*$C$DW$T$16)
    2291                      .dwattr $C$DW$166, DW_AT_decl_file("C:/ti/ccs2031/ccs/tools/compiler/ti-cgt-c2000_22.6.2.LTS/include/
    2292                      .dwattr $C$DW$166, DW_AT_decl_line(0x12f)
    2293                      .dwattr $C$DW$166, DW_AT_decl_column(0x10)
    2294                      .dwattr $C$DW$166, DW_AT_TI_max_frame_size(-4)
    2295                      .dwpsn  file "C:/ti/ccs2031/ccs/tools/compiler/ti-cgt-c2000_22.6.2.LTS/include/math.h",line 304,colum
    2296              
    2297                      .dwfde $C$DW$CIE, ||__relaxed_expf||
    2298              $C$DW$167       .dwtag  DW_TAG_formal_parameter
    2299                      .dwattr $C$DW$167, DW_AT_name("x")
    2300                      .dwattr $C$DW$167, DW_AT_type(*$C$DW$T$16)
    2301                      .dwattr $C$DW$167, DW_AT_location[DW_OP_regx 0x2b]
    2302              
    2303              
    2304              ;***************************************************************
    2305              ;* FNAME: __relaxed_expf                FR SIZE:   2           *
    2306              ;*                                                             *
    2307              ;* FUNCTION ENVIRONMENT                                        *
    2308              ;*                                                             *
    2309              ;* FUNCTION PROPERTIES                                         *
    2310              ;*                            2 Parameter,  0 Auto,  0 SOE     *
    2311              ;***************************************************************
    2312              
    2313              ||__relaxed_expf||:
    2314              ;* R1    assigned to $O$C2
    2315              ;* R0    assigned to $O$K3
    2316              ;* R0    assigned to $O$R1
    2317              ;* R0    assigned to x
    2318              $C$DW$168       .dwtag  DW_TAG_variable
    2319                      .dwattr $C$DW$168, DW_AT_name("x")
    2320                      .dwattr $C$DW$168, DW_AT_type(*$C$DW$T$205)
    2321                      .dwattr $C$DW$168, DW_AT_location[DW_OP_regx 0x2b]
    2322              
    2323              ;* R0    assigned to iexp2f
    2324              $C$DW$169       .dwtag  DW_TAG_variable
    2325                      .dwattr $C$DW$169, DW_AT_name("iexp2f")
    2326                      .dwattr $C$DW$169, DW_AT_type(*$C$DW$T$16)
    2327                      .dwattr $C$DW$169, DW_AT_location[DW_OP_regx 0x2b]
    2328              
TMS320C2000 Assembler PC v22.6.2 Fri Dec 19 11:01:59 2025

Copyright (c) 1996-2018 Texas Instruments Incorporated
dual_axis_servo_drive_main_cpu.asm                                   PAGE   46

    2329                      .dwcfi  cfa_offset, -2
    2330                      .dwcfi  save_reg_to_mem, 26, 0
    2331 00000000 FE02          ADDB      SP,#2                 ; [CPU_ARAU] 
    2332                      .dwcfi  cfa_offset, -4
    2333                      .dwpsn  file "C:/ti/ccs2031/ccs/tools/compiler/ti-cgt-c2000_22.6.2.LTS/include/math.h",line 298,colum
    2334 00000001 E801          MOVIZ     R1H,#16312            ; [CPU_FPU] |298| 
         00000002 FDC1 
    2335 00000003 E80D          MOVXI     R1H,#43537            ; [CPU_FPU] |298| 
         00000004 5089 
    2336 00000005 E700          MPYF32    R1H,R1H,R0H           ; [CPU_FPU] |298| 
         00000006 0009 
    2337 00000007 7700          NOP       ; [CPU_ALU] 
    2338                      .dwpsn  file "C:/ti/ccs2031/ccs/tools/compiler/ti-cgt-c2000_22.6.2.LTS/include/math.h",line 299,colum
    2339 00000008 E5A1          CMPF32    R1H,#0                ; [CPU_FPU] |299| 
    2340 00000009 AD14          MOVST0    ZF, NF                ; [CPU_FPU] |299| 
    2341                      .dwpsn  file "C:/ti/ccs2031/ccs/tools/compiler/ti-cgt-c2000_22.6.2.LTS/include/math.h",line 298,colum
    2342 0000000a E273          IEXP2F32  R0H,R1H               ; [CPU_FPU] |298| 
         0000000b 0008 
    2343                      .dwpsn  file "C:/ti/ccs2031/ccs/tools/compiler/ti-cgt-c2000_22.6.2.LTS/include/math.h",line 299,colum
    2344 0000000c 6507          B         ||$C$L12||,LEQ        ; [CPU_ALU] |299| 
    2345                      ; branchcc occurs ; [] |299| 
    2346 0000000d E801          MOVIZ     R1H,#16256            ; [CPU_FPU] |299| 
         0000000e FC01 
    2347 0000000f E274          DIVF32    R0H,R1H,R0H           ; [CPU_FPU] |299| 
         00000010 0008 
    2348 00000011 7700          NOP       ; [CPU_ALU] 
    2349 00000012 7700          NOP       ; [CPU_ALU] 
    2350 00000013       ||$C$L12||:    
    2351 00000013 FE82          SUBB      SP,#2                 ; [CPU_ARAU] 
    2352                      .dwcfi  cfa_offset, -2
    2353              $C$DW$170       .dwtag  DW_TAG_TI_branch
    2354                      .dwattr $C$DW$170, DW_AT_low_pc(0x00)
    2355                      .dwattr $C$DW$170, DW_AT_TI_return
    2356              
    2357 00000014 0006          LRETR     ; [CPU_ALU] 
    2358                      ; return occurs ; [] 
    2359                      .dwattr $C$DW$166, DW_AT_TI_end_file("C:/ti/ccs2031/ccs/tools/compiler/ti-cgt-c2000_22.6.2.LTS/includ
    2360                      .dwattr $C$DW$166, DW_AT_TI_end_line(0x133)
    2361                      .dwattr $C$DW$166, DW_AT_TI_end_column(0x01)
    2362                      .dwendentry
    2363                      .dwendtag $C$DW$166
    2364              
    2365 00000000               .sect   ".text:__relaxed_cosf"
    2366                      .clink
    2367                      .global ||__relaxed_cosf||
    2368              
    2369              $C$DW$171       .dwtag  DW_TAG_subprogram
    2370                      .dwattr $C$DW$171, DW_AT_name("__relaxed_cosf")
    2371                      .dwattr $C$DW$171, DW_AT_low_pc(||__relaxed_cosf||)
    2372                      .dwattr $C$DW$171, DW_AT_high_pc(0x00)
    2373                      .dwattr $C$DW$171, DW_AT_linkage_name("__relaxed_cosf")
    2374                      .dwattr $C$DW$171, DW_AT_external
    2375                      .dwattr $C$DW$171, DW_AT_type(*$C$DW$T$16)
    2376                      .dwattr $C$DW$171, DW_AT_decl_file("C:/ti/ccs2031/ccs/tools/compiler/ti-cgt-c2000_22.6.2.LTS/include/
    2377                      .dwattr $C$DW$171, DW_AT_decl_line(0x10d)
TMS320C2000 Assembler PC v22.6.2 Fri Dec 19 11:01:59 2025

Copyright (c) 1996-2018 Texas Instruments Incorporated
dual_axis_servo_drive_main_cpu.asm                                   PAGE   47

    2378                      .dwattr $C$DW$171, DW_AT_decl_column(0x10)
    2379                      .dwattr $C$DW$171, DW_AT_TI_max_frame_size(-2)
    2380                      .dwpsn  file "C:/ti/ccs2031/ccs/tools/compiler/ti-cgt-c2000_22.6.2.LTS/include/math.h",line 270,colum
    2381              
    2382                      .dwfde $C$DW$CIE, ||__relaxed_cosf||
    2383              $C$DW$172       .dwtag  DW_TAG_formal_parameter
    2384                      .dwattr $C$DW$172, DW_AT_name("x")
    2385                      .dwattr $C$DW$172, DW_AT_type(*$C$DW$T$16)
    2386                      .dwattr $C$DW$172, DW_AT_location[DW_OP_regx 0x2b]
    2387              
    2388              
    2389              ;***************************************************************
    2390              ;* FNAME: __relaxed_cosf                FR SIZE:   0           *
    2391              ;*                                                             *
    2392              ;* FUNCTION ENVIRONMENT                                        *
    2393              ;*                                                             *
    2394              ;* FUNCTION PROPERTIES                                         *
    2395              ;*                            0 Parameter,  0 Auto,  0 SOE     *
    2396              ;***************************************************************
    2397              
    2398              ||__relaxed_cosf||:
    2399              ;* R0    assigned to x
    2400              $C$DW$173       .dwtag  DW_TAG_variable
    2401                      .dwattr $C$DW$173, DW_AT_name("x")
    2402                      .dwattr $C$DW$173, DW_AT_type(*$C$DW$T$205)
    2403                      .dwattr $C$DW$173, DW_AT_location[DW_OP_regx 0x2b]
    2404              
    2405                      .dwcfi  cfa_offset, -2
    2406                      .dwcfi  save_reg_to_mem, 26, 0
    2407                      .dwpsn  file "C:/ti/ccs2031/ccs/tools/compiler/ti-cgt-c2000_22.6.2.LTS/include/math.h",line 271,colum
    2408 00000000 E271          DIV2PIF32 R0H,R0H               ; [CPU_FPU] |271| 
         00000001 0000 
    2409 00000002 7700          NOP       ; [CPU_ALU] 
    2410 00000003 E279          COSPUF32  R0H,R0H               ; [CPU_FPU] |271| 
         00000004 0000 
    2411 00000005 7700          NOP       ; [CPU_ALU] 
    2412 00000006 7700          NOP       ; [CPU_ALU] 
    2413              $C$DW$174       .dwtag  DW_TAG_TI_branch
    2414                      .dwattr $C$DW$174, DW_AT_low_pc(0x00)
    2415                      .dwattr $C$DW$174, DW_AT_TI_return
    2416              
    2417 00000007 0006          LRETR     ; [CPU_ALU] 
    2418                      ; return occurs ; [] 
    2419                      .dwattr $C$DW$171, DW_AT_TI_end_file("C:/ti/ccs2031/ccs/tools/compiler/ti-cgt-c2000_22.6.2.LTS/includ
    2420                      .dwattr $C$DW$171, DW_AT_TI_end_line(0x110)
    2421                      .dwattr $C$DW$171, DW_AT_TI_end_column(0x01)
    2422                      .dwendentry
    2423                      .dwendtag $C$DW$171
    2424              
    2425 00000000               .sect   ".text:__relaxed_atanf"
    2426                      .clink
    2427                      .global ||__relaxed_atanf||
    2428              
    2429              $C$DW$175       .dwtag  DW_TAG_subprogram
    2430                      .dwattr $C$DW$175, DW_AT_name("__relaxed_atanf")
TMS320C2000 Assembler PC v22.6.2 Fri Dec 19 11:01:59 2025

Copyright (c) 1996-2018 Texas Instruments Incorporated
dual_axis_servo_drive_main_cpu.asm                                   PAGE   48

    2431                      .dwattr $C$DW$175, DW_AT_low_pc(||__relaxed_atanf||)
    2432                      .dwattr $C$DW$175, DW_AT_high_pc(0x00)
    2433                      .dwattr $C$DW$175, DW_AT_linkage_name("__relaxed_atanf")
    2434                      .dwattr $C$DW$175, DW_AT_external
    2435                      .dwattr $C$DW$175, DW_AT_type(*$C$DW$T$16)
    2436                      .dwattr $C$DW$175, DW_AT_decl_file("C:/ti/ccs2031/ccs/tools/compiler/ti-cgt-c2000_22.6.2.LTS/include/
    2437                      .dwattr $C$DW$175, DW_AT_decl_line(0x112)
    2438                      .dwattr $C$DW$175, DW_AT_decl_column(0x10)
    2439                      .dwattr $C$DW$175, DW_AT_TI_max_frame_size(-2)
    2440                      .dwpsn  file "C:/ti/ccs2031/ccs/tools/compiler/ti-cgt-c2000_22.6.2.LTS/include/math.h",line 275,colum
    2441              
    2442                      .dwfde $C$DW$CIE, ||__relaxed_atanf||
    2443              $C$DW$176       .dwtag  DW_TAG_formal_parameter
    2444                      .dwattr $C$DW$176, DW_AT_name("x")
    2445                      .dwattr $C$DW$176, DW_AT_type(*$C$DW$T$16)
    2446                      .dwattr $C$DW$176, DW_AT_location[DW_OP_regx 0x2b]
    2447              
    2448              
    2449              ;***************************************************************
    2450              ;* FNAME: __relaxed_atanf               FR SIZE:   0           *
    2451              ;*                                                             *
    2452              ;* FUNCTION ENVIRONMENT                                        *
    2453              ;*                                                             *
    2454              ;* FUNCTION PROPERTIES                                         *
    2455              ;*                            0 Parameter,  0 Auto,  0 SOE     *
    2456              ;***************************************************************
    2457              
    2458              ||__relaxed_atanf||:
    2459              ;* R0    assigned to x
    2460              $C$DW$177       .dwtag  DW_TAG_variable
    2461                      .dwattr $C$DW$177, DW_AT_name("x")
    2462                      .dwattr $C$DW$177, DW_AT_type(*$C$DW$T$205)
    2463                      .dwattr $C$DW$177, DW_AT_location[DW_OP_regx 0x2b]
    2464              
    2465                      .dwcfi  cfa_offset, -2
    2466                      .dwcfi  save_reg_to_mem, 26, 0
    2467                      .dwpsn  file "C:/ti/ccs2031/ccs/tools/compiler/ti-cgt-c2000_22.6.2.LTS/include/math.h",line 276,colum
    2468 00000000 E801          MOVIZ     R1H,#16256            ; [CPU_FPU] |276| 
         00000001 FC01 
    2469 00000002 E27C          QUADF32   R1H,R0H,R0H,R1H       ; [CPU_FPU] |276| 
         00000003 0201 
    2470 00000004 7700          NOP       ; [CPU_ALU] 
    2471 00000005 7700          NOP       ; [CPU_ALU] 
    2472 00000006 7700          NOP       ; [CPU_ALU] 
    2473 00000007 7700          NOP       ; [CPU_ALU] 
    2474 00000008 E27A          ATANPUF32 R0H,R0H               ; [CPU_FPU] |276| 
         00000009 0000 
    2475 0000000a 7700          NOP       ; [CPU_ALU] 
    2476 0000000b 7700          NOP       ; [CPU_ALU] 
    2477 0000000c 7700          NOP       ; [CPU_ALU] 
    2478 0000000d E710          ADDF32    R0H,R0H,R1H           ; [CPU_FPU] |276| 
         0000000e 0040 
    2479 0000000f 7700          NOP       ; [CPU_ALU] 
    2480 00000010 7700          NOP       ; [CPU_ALU] 
    2481 00000011 E270          MPY2PIF32 R0H,R0H               ; [CPU_FPU] |276| 
TMS320C2000 Assembler PC v22.6.2 Fri Dec 19 11:01:59 2025

Copyright (c) 1996-2018 Texas Instruments Incorporated
dual_axis_servo_drive_main_cpu.asm                                   PAGE   49

         00000012 0000 
    2482 00000013 7700          NOP       ; [CPU_ALU] 
    2483              $C$DW$178       .dwtag  DW_TAG_TI_branch
    2484                      .dwattr $C$DW$178, DW_AT_low_pc(0x00)
    2485                      .dwattr $C$DW$178, DW_AT_TI_return
    2486              
    2487 00000014 0006          LRETR     ; [CPU_ALU] 
    2488                      ; return occurs ; [] 
    2489                      .dwattr $C$DW$175, DW_AT_TI_end_file("C:/ti/ccs2031/ccs/tools/compiler/ti-cgt-c2000_22.6.2.LTS/includ
    2490                      .dwattr $C$DW$175, DW_AT_TI_end_line(0x115)
    2491                      .dwattr $C$DW$175, DW_AT_TI_end_column(0x01)
    2492                      .dwendentry
    2493                      .dwendtag $C$DW$175
    2494              
    2495 00000000               .sect   ".text:__relaxed_atan2f"
    2496                      .clink
    2497                      .global ||__relaxed_atan2f||
    2498              
    2499              $C$DW$179       .dwtag  DW_TAG_subprogram
    2500                      .dwattr $C$DW$179, DW_AT_name("__relaxed_atan2f")
    2501                      .dwattr $C$DW$179, DW_AT_low_pc(||__relaxed_atan2f||)
    2502                      .dwattr $C$DW$179, DW_AT_high_pc(0x00)
    2503                      .dwattr $C$DW$179, DW_AT_linkage_name("__relaxed_atan2f")
    2504                      .dwattr $C$DW$179, DW_AT_external
    2505                      .dwattr $C$DW$179, DW_AT_type(*$C$DW$T$16)
    2506                      .dwattr $C$DW$179, DW_AT_decl_file("C:/ti/ccs2031/ccs/tools/compiler/ti-cgt-c2000_22.6.2.LTS/include/
    2507                      .dwattr $C$DW$179, DW_AT_decl_line(0x117)
    2508                      .dwattr $C$DW$179, DW_AT_decl_column(0x10)
    2509                      .dwattr $C$DW$179, DW_AT_TI_max_frame_size(-2)
    2510                      .dwpsn  file "C:/ti/ccs2031/ccs/tools/compiler/ti-cgt-c2000_22.6.2.LTS/include/math.h",line 280,colum
    2511              
    2512                      .dwfde $C$DW$CIE, ||__relaxed_atan2f||
    2513              $C$DW$180       .dwtag  DW_TAG_formal_parameter
    2514                      .dwattr $C$DW$180, DW_AT_name("y")
    2515                      .dwattr $C$DW$180, DW_AT_type(*$C$DW$T$16)
    2516                      .dwattr $C$DW$180, DW_AT_location[DW_OP_regx 0x2b]
    2517              
    2518              $C$DW$181       .dwtag  DW_TAG_formal_parameter
    2519                      .dwattr $C$DW$181, DW_AT_name("x")
    2520                      .dwattr $C$DW$181, DW_AT_type(*$C$DW$T$16)
    2521                      .dwattr $C$DW$181, DW_AT_location[DW_OP_regx 0x2f]
    2522              
    2523              
    2524              ;***************************************************************
    2525              ;* FNAME: __relaxed_atan2f              FR SIZE:   0           *
    2526              ;*                                                             *
    2527              ;* FUNCTION ENVIRONMENT                                        *
    2528              ;*                                                             *
    2529              ;* FUNCTION PROPERTIES                                         *
    2530              ;*                            0 Parameter,  0 Auto,  0 SOE     *
    2531              ;***************************************************************
    2532              
    2533              ||__relaxed_atan2f||:
    2534              ;* R0    assigned to y
    2535              $C$DW$182       .dwtag  DW_TAG_variable
TMS320C2000 Assembler PC v22.6.2 Fri Dec 19 11:01:59 2025

Copyright (c) 1996-2018 Texas Instruments Incorporated
dual_axis_servo_drive_main_cpu.asm                                   PAGE   50

    2536                      .dwattr $C$DW$182, DW_AT_name("y")
    2537                      .dwattr $C$DW$182, DW_AT_type(*$C$DW$T$205)
    2538                      .dwattr $C$DW$182, DW_AT_location[DW_OP_regx 0x2b]
    2539              
    2540              ;* R1    assigned to x
    2541              $C$DW$183       .dwtag  DW_TAG_variable
    2542                      .dwattr $C$DW$183, DW_AT_name("x")
    2543                      .dwattr $C$DW$183, DW_AT_type(*$C$DW$T$205)
    2544                      .dwattr $C$DW$183, DW_AT_location[DW_OP_regx 0x2f]
    2545              
    2546                      .dwcfi  cfa_offset, -2
    2547                      .dwcfi  save_reg_to_mem, 26, 0
    2548                      .dwpsn  file "C:/ti/ccs2031/ccs/tools/compiler/ti-cgt-c2000_22.6.2.LTS/include/math.h",line 281,colum
    2549 00000000 E27C          QUADF32   R1H,R0H,R0H,R1H       ; [CPU_FPU] |281| 
         00000001 0201 
    2550 00000002 7700          NOP       ; [CPU_ALU] 
    2551 00000003 7700          NOP       ; [CPU_ALU] 
    2552 00000004 7700          NOP       ; [CPU_ALU] 
    2553 00000005 7700          NOP       ; [CPU_ALU] 
    2554 00000006 E27A          ATANPUF32 R0H,R0H               ; [CPU_FPU] |281| 
         00000007 0000 
    2555 00000008 7700          NOP       ; [CPU_ALU] 
    2556 00000009 7700          NOP       ; [CPU_ALU] 
    2557 0000000a 7700          NOP       ; [CPU_ALU] 
    2558 0000000b E710          ADDF32    R0H,R0H,R1H           ; [CPU_FPU] |281| 
         0000000c 0040 
    2559 0000000d 7700          NOP       ; [CPU_ALU] 
    2560 0000000e 7700          NOP       ; [CPU_ALU] 
    2561 0000000f E270          MPY2PIF32 R0H,R0H               ; [CPU_FPU] |281| 
         00000010 0000 
    2562 00000011 7700          NOP       ; [CPU_ALU] 
    2563              $C$DW$184       .dwtag  DW_TAG_TI_branch
    2564                      .dwattr $C$DW$184, DW_AT_low_pc(0x00)
    2565                      .dwattr $C$DW$184, DW_AT_TI_return
    2566              
    2567 00000012 0006          LRETR     ; [CPU_ALU] 
    2568                      ; return occurs ; [] 
    2569                      .dwattr $C$DW$179, DW_AT_TI_end_file("C:/ti/ccs2031/ccs/tools/compiler/ti-cgt-c2000_22.6.2.LTS/includ
    2570                      .dwattr $C$DW$179, DW_AT_TI_end_line(0x11a)
    2571                      .dwattr $C$DW$179, DW_AT_TI_end_column(0x01)
    2572                      .dwendentry
    2573                      .dwendtag $C$DW$179
    2574              
    2575 00000000               .sect   ".text:__isnormall"
    2576                      .clink
    2577                      .global ||__isnormall||
    2578              
    2579              $C$DW$185       .dwtag  DW_TAG_subprogram
    2580                      .dwattr $C$DW$185, DW_AT_name("__isnormall")
    2581                      .dwattr $C$DW$185, DW_AT_low_pc(||__isnormall||)
    2582                      .dwattr $C$DW$185, DW_AT_high_pc(0x00)
    2583                      .dwattr $C$DW$185, DW_AT_linkage_name("__isnormall")
    2584                      .dwattr $C$DW$185, DW_AT_external
    2585                      .dwattr $C$DW$185, DW_AT_type(*$C$DW$T$10)
    2586                      .dwattr $C$DW$185, DW_AT_decl_file("C:/ti/ccs2031/ccs/tools/compiler/ti-cgt-c2000_22.6.2.LTS/include/
TMS320C2000 Assembler PC v22.6.2 Fri Dec 19 11:01:59 2025

Copyright (c) 1996-2018 Texas Instruments Incorporated
dual_axis_servo_drive_main_cpu.asm                                   PAGE   51

    2587                      .dwattr $C$DW$185, DW_AT_decl_line(0x167)
    2588                      .dwattr $C$DW$185, DW_AT_decl_column(0x18)
    2589                      .dwattr $C$DW$185, DW_AT_TI_max_frame_size(-6)
    2590                      .dwpsn  file "C:/ti/ccs2031/ccs/tools/compiler/ti-cgt-c2000_22.6.2.LTS/include/_defs.h",line 360,colu
    2591              
    2592                      .dwfde $C$DW$CIE, ||__isnormall||
    2593              $C$DW$186       .dwtag  DW_TAG_formal_parameter
    2594                      .dwattr $C$DW$186, DW_AT_name("e")
    2595                      .dwattr $C$DW$186, DW_AT_type(*$C$DW$T$211)
    2596                      .dwattr $C$DW$186, DW_AT_location[DW_OP_reg12]
    2597              
    2598              
    2599              ;***************************************************************
    2600              ;* FNAME: __isnormall                   FR SIZE:   4           *
    2601              ;*                                                             *
    2602              ;* FUNCTION ENVIRONMENT                                        *
    2603              ;*                                                             *
    2604              ;* FUNCTION PROPERTIES                                         *
    2605              ;*                            4 Parameter,  0 Auto,  0 SOE     *
    2606              ;***************************************************************
    2607              
    2608              ||__isnormall||:
    2609              ;* AR5   assigned to $O$C2
    2610              ;* AR6   assigned to $O$S1
    2611              ;* AR4   assigned to e
    2612              $C$DW$187       .dwtag  DW_TAG_variable
    2613                      .dwattr $C$DW$187, DW_AT_name("e")
    2614                      .dwattr $C$DW$187, DW_AT_type(*$C$DW$T$212)
    2615                      .dwattr $C$DW$187, DW_AT_location[DW_OP_reg12]
    2616              
    2617                      .dwcfi  cfa_offset, -2
    2618                      .dwcfi  save_reg_to_mem, 26, 0
    2619 00000000 FE04          ADDB      SP,#4                 ; [CPU_ARAU] 
    2620                      .dwcfi  cfa_offset, -6
    2621                      .dwpsn  file "C:/ti/ccs2031/ccs/tools/compiler/ti-cgt-c2000_22.6.2.LTS/include/_defs.h",line 360,colu
    2622 00000001 83C4          MOVL      XAR5,*+XAR4[0]        ; [CPU_ALU] |360| 
    2623 00000002 8AD4          MOVL      XAR4,*+XAR4[2]        ; [CPU_ALU] |360| 
    2624 00000003 BE00          MOVB      XAR6,#0               ; [CPU_ALU] |360| 
    2625 00000004 28AC          MOV       T,#52                 ; [CPU_ALU] |360| 
         00000005 0034 
    2626 00000006 A0AB          MOVL      P,XAR5                ; [CPU_ALU] |360| 
    2627 00000007 A8A9          MOVL      ACC,XAR4              ; [CPU_ALU] |360| 
    2628 00000008 C244          MOVL      *-SP[4],XAR6          ; [CPU_ALU] |360| 
    2629 00000009 2B42          MOV       *-SP[2],#0            ; [CPU_ALU] |360| 
    2630 0000000a 565B          LSR64     ACC:P,T               ; [CPU_ALU] |360| 
    2631 0000000b 2B41          MOV       *-SP[1],#0            ; [CPU_FPU] |360| 
    2632 0000000c 9000          ANDB      AL,#0                 ; [CPU_ALU] |360| 
    2633 0000000d 9100          ANDB      AH,#0                 ; [CPU_ALU] |360| 
    2634 0000000e 18AB          AND       PL,#2047              ; [CPU_ALU] |360| 
         0000000f 07FF 
    2635 00000010 18AA          AND       PH,#0                 ; [CPU_ALU] |360| 
         00000011 0000 
    2636              $C$DW$188       .dwtag  DW_TAG_TI_branch
    2637                      .dwattr $C$DW$188, DW_AT_low_pc(0x00)
    2638                      .dwattr $C$DW$188, DW_AT_name("__c28xabi_cmpull")
TMS320C2000 Assembler PC v22.6.2 Fri Dec 19 11:01:59 2025

Copyright (c) 1996-2018 Texas Instruments Incorporated
dual_axis_servo_drive_main_cpu.asm                                   PAGE   52

    2639                      .dwattr $C$DW$188, DW_AT_TI_call
    2640              
    2641 00000012 7640!         LCR       #||__c28xabi_cmpull|| ; [CPU_ALU] |360| 
         00000013 0000 
    2642                      ; call occurs [#||__c28xabi_cmpull||] ; [] |360| 
    2643 00000014 BE00          MOVB      XAR6,#0               ; [CPU_ALU] |360| 
    2644 00000015 5200          CMPB      AL,#0                 ; [CPU_ALU] |360| 
    2645 00000016 610E          B         ||$C$L13||,EQ         ; [CPU_ALU] |360| 
    2646                      ; branchcc occurs ; [] |360| 
    2647 00000017 A0AB          MOVL      P,XAR5                ; [CPU_ALU] |360| 
    2648 00000018 A8A9          MOVL      ACC,XAR4              ; [CPU_ALU] |360| 
    2649 00000019 28AC          MOV       T,#48                 ; [CPU_ALU] |360| 
         0000001a 0030 
    2650 0000001b 565B          LSR64     ACC:P,T               ; [CPU_ALU] |360| 
    2651 0000001c 18AB          AND       PL,#0x7ff0            ; [CPU_ALU] |360| 
         0000001d 7FF0 
    2652 0000001e 80AB          MOVZ      AR7,PL                ; [CPU_ALU] |360| 
    2653 0000001f FF20          MOV       ACC,#32752            ; [CPU_ALU] |360| 
         00000020 7FF0 
    2654 00000021 0FA7          CMPL      ACC,XAR7              ; [CPU_ALU] |360| 
    2655 00000022 56B0          MOVB      XAR6,#1,NEQ           ; [CPU_ALU] |360| 
         00000023 01A6 
    2656 00000024       ||$C$L13||:    
    2657 00000024 FE84          SUBB      SP,#4                 ; [CPU_ARAU] 
    2658                      .dwcfi  cfa_offset, -2
    2659 00000025 92A6          MOV       AL,AR6                ; [CPU_ALU] |360| 
    2660              $C$DW$189       .dwtag  DW_TAG_TI_branch
    2661                      .dwattr $C$DW$189, DW_AT_low_pc(0x00)
    2662                      .dwattr $C$DW$189, DW_AT_TI_return
    2663              
    2664 00000026 0006          LRETR     ; [CPU_ALU] 
    2665                      ; return occurs ; [] 
    2666                      .dwattr $C$DW$185, DW_AT_TI_end_file("C:/ti/ccs2031/ccs/tools/compiler/ti-cgt-c2000_22.6.2.LTS/includ
    2667                      .dwattr $C$DW$185, DW_AT_TI_end_line(0x169)
    2668                      .dwattr $C$DW$185, DW_AT_TI_end_column(0x31)
    2669                      .dwendentry
    2670                      .dwendtag $C$DW$185
    2671              
    2672 00000000               .sect   ".text:__isnormalf"
    2673                      .clink
    2674                      .global ||__isnormalf||
    2675              
    2676              $C$DW$190       .dwtag  DW_TAG_subprogram
    2677                      .dwattr $C$DW$190, DW_AT_name("__isnormalf")
    2678                      .dwattr $C$DW$190, DW_AT_low_pc(||__isnormalf||)
    2679                      .dwattr $C$DW$190, DW_AT_high_pc(0x00)
    2680                      .dwattr $C$DW$190, DW_AT_linkage_name("__isnormalf")
    2681                      .dwattr $C$DW$190, DW_AT_external
    2682                      .dwattr $C$DW$190, DW_AT_type(*$C$DW$T$10)
    2683                      .dwattr $C$DW$190, DW_AT_decl_file("C:/ti/ccs2031/ccs/tools/compiler/ti-cgt-c2000_22.6.2.LTS/include/
    2684                      .dwattr $C$DW$190, DW_AT_decl_line(0x163)
    2685                      .dwattr $C$DW$190, DW_AT_decl_column(0x18)
    2686                      .dwattr $C$DW$190, DW_AT_TI_max_frame_size(-2)
    2687                      .dwpsn  file "C:/ti/ccs2031/ccs/tools/compiler/ti-cgt-c2000_22.6.2.LTS/include/_defs.h",line 356,colu
    2688              
TMS320C2000 Assembler PC v22.6.2 Fri Dec 19 11:01:59 2025

Copyright (c) 1996-2018 Texas Instruments Incorporated
dual_axis_servo_drive_main_cpu.asm                                   PAGE   53

    2689                      .dwfde $C$DW$CIE, ||__isnormalf||
    2690              $C$DW$191       .dwtag  DW_TAG_formal_parameter
    2691                      .dwattr $C$DW$191, DW_AT_name("f")
    2692                      .dwattr $C$DW$191, DW_AT_type(*$C$DW$T$16)
    2693                      .dwattr $C$DW$191, DW_AT_location[DW_OP_regx 0x2b]
    2694              
    2695              
    2696              ;***************************************************************
    2697              ;* FNAME: __isnormalf                   FR SIZE:   0           *
    2698              ;*                                                             *
    2699              ;* FUNCTION ENVIRONMENT                                        *
    2700              ;*                                                             *
    2701              ;* FUNCTION PROPERTIES                                         *
    2702              ;*                            0 Parameter,  0 Auto,  0 SOE     *
    2703              ;***************************************************************
    2704              
    2705              ||__isnormalf||:
    2706              ;* PL    assigned to $O$K3
    2707              ;* AR6   assigned to $O$S1
    2708              ;* R0    assigned to f
    2709              $C$DW$192       .dwtag  DW_TAG_variable
    2710                      .dwattr $C$DW$192, DW_AT_name("f")
    2711                      .dwattr $C$DW$192, DW_AT_type(*$C$DW$T$205)
    2712                      .dwattr $C$DW$192, DW_AT_location[DW_OP_regx 0x2b]
    2713              
    2714                      .dwcfi  cfa_offset, -2
    2715                      .dwcfi  save_reg_to_mem, 26, 0
    2716                      .dwpsn  file "C:/ti/ccs2031/ccs/tools/compiler/ti-cgt-c2000_22.6.2.LTS/include/_defs.h",line 356,colu
    2717 00000000 BFAB          MOV32     P,R0H                 ; [CPU_FPU] |356| 
         00000001 0F12 
    2718 00000002 28AC          MOV       T,#23                 ; [CPU_ALU] |356| 
         00000003 0017 
    2719 00000004 A9A9          MOVL      ACC,P                 ; [CPU_ALU] |356| 
    2720 00000005 BE00          MOVB      XAR6,#0               ; [CPU_ALU] |356| 
    2721 00000006 5622          LSRL      ACC,T                 ; [CPU_ALU] |356| 
    2722 00000007 90FF          ANDB      AL,#0xff              ; [CPU_ALU] |356| 
    2723 00000008 6109          B         ||$C$L14||,EQ         ; [CPU_ALU] |356| 
    2724                      ; branchcc occurs ; [] |356| 
    2725 00000009 CCAA          AND       AL,PH,#0x7f80         ; [CPU_ALU] |356| 
         0000000a 7F80 
    2726 0000000b 80A9          MOVZ      AR7,AL                ; [CPU_ALU] |356| 
    2727 0000000c FF20          MOV       ACC,#32640            ; [CPU_ALU] |356| 
         0000000d 7F80 
    2728 0000000e 0FA7          CMPL      ACC,XAR7              ; [CPU_ALU] |356| 
    2729 0000000f 56B0          MOVB      XAR6,#1,NEQ           ; [CPU_ALU] |356| 
         00000010 01A6 
    2730 00000011       ||$C$L14||:    
    2731 00000011 92A6          MOV       AL,AR6                ; [CPU_ALU] |356| 
    2732              $C$DW$193       .dwtag  DW_TAG_TI_branch
    2733                      .dwattr $C$DW$193, DW_AT_low_pc(0x00)
    2734                      .dwattr $C$DW$193, DW_AT_TI_return
    2735              
    2736 00000012 0006          LRETR     ; [CPU_ALU] 
    2737                      ; return occurs ; [] 
    2738                      .dwattr $C$DW$190, DW_AT_TI_end_file("C:/ti/ccs2031/ccs/tools/compiler/ti-cgt-c2000_22.6.2.LTS/includ
TMS320C2000 Assembler PC v22.6.2 Fri Dec 19 11:01:59 2025

Copyright (c) 1996-2018 Texas Instruments Incorporated
dual_axis_servo_drive_main_cpu.asm                                   PAGE   54

    2739                      .dwattr $C$DW$190, DW_AT_TI_end_line(0x165)
    2740                      .dwattr $C$DW$190, DW_AT_TI_end_column(0x2f)
    2741                      .dwendentry
    2742                      .dwendtag $C$DW$190
    2743              
    2744 00000000               .sect   ".text:__isnormal"
    2745                      .clink
    2746                      .global ||__isnormal||
    2747              
    2748              $C$DW$194       .dwtag  DW_TAG_subprogram
    2749                      .dwattr $C$DW$194, DW_AT_name("__isnormal")
    2750                      .dwattr $C$DW$194, DW_AT_low_pc(||__isnormal||)
    2751                      .dwattr $C$DW$194, DW_AT_high_pc(0x00)
    2752                      .dwattr $C$DW$194, DW_AT_linkage_name("__isnormal")
    2753                      .dwattr $C$DW$194, DW_AT_external
    2754                      .dwattr $C$DW$194, DW_AT_type(*$C$DW$T$10)
    2755                      .dwattr $C$DW$194, DW_AT_decl_file("C:/ti/ccs2031/ccs/tools/compiler/ti-cgt-c2000_22.6.2.LTS/include/
    2756                      .dwattr $C$DW$194, DW_AT_decl_line(0x15f)
    2757                      .dwattr $C$DW$194, DW_AT_decl_column(0x18)
    2758                      .dwattr $C$DW$194, DW_AT_TI_max_frame_size(-6)
    2759                      .dwpsn  file "C:/ti/ccs2031/ccs/tools/compiler/ti-cgt-c2000_22.6.2.LTS/include/_defs.h",line 352,colu
    2760              
    2761                      .dwfde $C$DW$CIE, ||__isnormal||
    2762              $C$DW$195       .dwtag  DW_TAG_formal_parameter
    2763                      .dwattr $C$DW$195, DW_AT_name("d")
    2764                      .dwattr $C$DW$195, DW_AT_type(*$C$DW$T$208)
    2765                      .dwattr $C$DW$195, DW_AT_location[DW_OP_reg12]
    2766              
    2767              
    2768              ;***************************************************************
    2769              ;* FNAME: __isnormal                    FR SIZE:   4           *
    2770              ;*                                                             *
    2771              ;* FUNCTION ENVIRONMENT                                        *
    2772              ;*                                                             *
    2773              ;* FUNCTION PROPERTIES                                         *
    2774              ;*                            4 Parameter,  0 Auto,  0 SOE     *
    2775              ;***************************************************************
    2776              
    2777              ||__isnormal||:
    2778              ;* AR5   assigned to $O$C2
    2779              ;* AR6   assigned to $O$S1
    2780              ;* AR4   assigned to d
    2781              $C$DW$196       .dwtag  DW_TAG_variable
    2782                      .dwattr $C$DW$196, DW_AT_name("d")
    2783                      .dwattr $C$DW$196, DW_AT_type(*$C$DW$T$209)
    2784                      .dwattr $C$DW$196, DW_AT_location[DW_OP_reg12]
    2785              
    2786                      .dwcfi  cfa_offset, -2
    2787                      .dwcfi  save_reg_to_mem, 26, 0
    2788 00000000 FE04          ADDB      SP,#4                 ; [CPU_ARAU] 
    2789                      .dwcfi  cfa_offset, -6
    2790                      .dwpsn  file "C:/ti/ccs2031/ccs/tools/compiler/ti-cgt-c2000_22.6.2.LTS/include/_defs.h",line 352,colu
    2791 00000001 83C4          MOVL      XAR5,*+XAR4[0]        ; [CPU_ALU] |352| 
    2792 00000002 8AD4          MOVL      XAR4,*+XAR4[2]        ; [CPU_ALU] |352| 
    2793 00000003 BE00          MOVB      XAR6,#0               ; [CPU_ALU] |352| 
TMS320C2000 Assembler PC v22.6.2 Fri Dec 19 11:01:59 2025

Copyright (c) 1996-2018 Texas Instruments Incorporated
dual_axis_servo_drive_main_cpu.asm                                   PAGE   55

    2794 00000004 28AC          MOV       T,#52                 ; [CPU_ALU] |352| 
         00000005 0034 
    2795 00000006 A0AB          MOVL      P,XAR5                ; [CPU_ALU] |352| 
    2796 00000007 A8A9          MOVL      ACC,XAR4              ; [CPU_ALU] |352| 
    2797 00000008 C244          MOVL      *-SP[4],XAR6          ; [CPU_ALU] |352| 
    2798 00000009 2B42          MOV       *-SP[2],#0            ; [CPU_ALU] |352| 
    2799 0000000a 565B          LSR64     ACC:P,T               ; [CPU_ALU] |352| 
    2800 0000000b 2B41          MOV       *-SP[1],#0            ; [CPU_FPU] |352| 
    2801 0000000c 9000          ANDB      AL,#0                 ; [CPU_ALU] |352| 
    2802 0000000d 9100          ANDB      AH,#0                 ; [CPU_ALU] |352| 
    2803 0000000e 18AB          AND       PL,#2047              ; [CPU_ALU] |352| 
         0000000f 07FF 
    2804 00000010 18AA          AND       PH,#0                 ; [CPU_ALU] |352| 
         00000011 0000 
    2805              $C$DW$197       .dwtag  DW_TAG_TI_branch
    2806                      .dwattr $C$DW$197, DW_AT_low_pc(0x00)
    2807                      .dwattr $C$DW$197, DW_AT_name("__c28xabi_cmpull")
    2808                      .dwattr $C$DW$197, DW_AT_TI_call
    2809              
    2810 00000012 7640!         LCR       #||__c28xabi_cmpull|| ; [CPU_ALU] |352| 
         00000013 0000 
    2811                      ; call occurs [#||__c28xabi_cmpull||] ; [] |352| 
    2812 00000014 BE00          MOVB      XAR6,#0               ; [CPU_ALU] |352| 
    2813 00000015 5200          CMPB      AL,#0                 ; [CPU_ALU] |352| 
    2814 00000016 610E          B         ||$C$L15||,EQ         ; [CPU_ALU] |352| 
    2815                      ; branchcc occurs ; [] |352| 
    2816 00000017 A0AB          MOVL      P,XAR5                ; [CPU_ALU] |352| 
    2817 00000018 A8A9          MOVL      ACC,XAR4              ; [CPU_ALU] |352| 
    2818 00000019 28AC          MOV       T,#48                 ; [CPU_ALU] |352| 
         0000001a 0030 
    2819 0000001b 565B          LSR64     ACC:P,T               ; [CPU_ALU] |352| 
    2820 0000001c 18AB          AND       PL,#0x7ff0            ; [CPU_ALU] |352| 
         0000001d 7FF0 
    2821 0000001e 80AB          MOVZ      AR7,PL                ; [CPU_ALU] |352| 
    2822 0000001f FF20          MOV       ACC,#32752            ; [CPU_ALU] |352| 
         00000020 7FF0 
    2823 00000021 0FA7          CMPL      ACC,XAR7              ; [CPU_ALU] |352| 
    2824 00000022 56B0          MOVB      XAR6,#1,NEQ           ; [CPU_ALU] |352| 
         00000023 01A6 
    2825 00000024       ||$C$L15||:    
    2826 00000024 FE84          SUBB      SP,#4                 ; [CPU_ARAU] 
    2827                      .dwcfi  cfa_offset, -2
    2828 00000025 92A6          MOV       AL,AR6                ; [CPU_ALU] |352| 
    2829              $C$DW$198       .dwtag  DW_TAG_TI_branch
    2830                      .dwattr $C$DW$198, DW_AT_low_pc(0x00)
    2831                      .dwattr $C$DW$198, DW_AT_TI_return
    2832              
    2833 00000026 0006          LRETR     ; [CPU_ALU] 
    2834                      ; return occurs ; [] 
    2835                      .dwattr $C$DW$194, DW_AT_TI_end_file("C:/ti/ccs2031/ccs/tools/compiler/ti-cgt-c2000_22.6.2.LTS/includ
    2836                      .dwattr $C$DW$194, DW_AT_TI_end_line(0x161)
    2837                      .dwattr $C$DW$194, DW_AT_TI_end_column(0x30)
    2838                      .dwendentry
    2839                      .dwendtag $C$DW$194
    2840              
TMS320C2000 Assembler PC v22.6.2 Fri Dec 19 11:01:59 2025

Copyright (c) 1996-2018 Texas Instruments Incorporated
dual_axis_servo_drive_main_cpu.asm                                   PAGE   56

    2841 00000000               .sect   ".text:__isnanl"
    2842                      .clink
    2843                      .global ||__isnanl||
    2844              
    2845              $C$DW$199       .dwtag  DW_TAG_subprogram
    2846                      .dwattr $C$DW$199, DW_AT_name("__isnanl")
    2847                      .dwattr $C$DW$199, DW_AT_low_pc(||__isnanl||)
    2848                      .dwattr $C$DW$199, DW_AT_high_pc(0x00)
    2849                      .dwattr $C$DW$199, DW_AT_linkage_name("__isnanl")
    2850                      .dwattr $C$DW$199, DW_AT_external
    2851                      .dwattr $C$DW$199, DW_AT_type(*$C$DW$T$10)
    2852                      .dwattr $C$DW$199, DW_AT_decl_file("C:/ti/ccs2031/ccs/tools/compiler/ti-cgt-c2000_22.6.2.LTS/include/
    2853                      .dwattr $C$DW$199, DW_AT_decl_line(0x15b)
    2854                      .dwattr $C$DW$199, DW_AT_decl_column(0x18)
    2855                      .dwattr $C$DW$199, DW_AT_TI_max_frame_size(-6)
    2856                      .dwpsn  file "C:/ti/ccs2031/ccs/tools/compiler/ti-cgt-c2000_22.6.2.LTS/include/_defs.h",line 348,colu
    2857              
    2858                      .dwfde $C$DW$CIE, ||__isnanl||
    2859              $C$DW$200       .dwtag  DW_TAG_formal_parameter
    2860                      .dwattr $C$DW$200, DW_AT_name("e")
    2861                      .dwattr $C$DW$200, DW_AT_type(*$C$DW$T$211)
    2862                      .dwattr $C$DW$200, DW_AT_location[DW_OP_reg12]
    2863              
    2864              
    2865              ;***************************************************************
    2866              ;* FNAME: __isnanl                      FR SIZE:   4           *
    2867              ;*                                                             *
    2868              ;* FUNCTION ENVIRONMENT                                        *
    2869              ;*                                                             *
    2870              ;* FUNCTION PROPERTIES                                         *
    2871              ;*                            4 Parameter,  0 Auto,  0 SOE     *
    2872              ;***************************************************************
    2873              
    2874              ||__isnanl||:
    2875              ;* AR7   assigned to $O$C2
    2876              ;* AR4   assigned to $O$S1
    2877              ;* AR4   assigned to e
    2878              $C$DW$201       .dwtag  DW_TAG_variable
    2879                      .dwattr $C$DW$201, DW_AT_name("e")
    2880                      .dwattr $C$DW$201, DW_AT_type(*$C$DW$T$212)
    2881                      .dwattr $C$DW$201, DW_AT_location[DW_OP_reg12]
    2882              
    2883                      .dwcfi  cfa_offset, -2
    2884                      .dwcfi  save_reg_to_mem, 26, 0
    2885 00000000 FE04          ADDB      SP,#4                 ; [CPU_ARAU] 
    2886                      .dwcfi  cfa_offset, -6
    2887                      .dwpsn  file "C:/ti/ccs2031/ccs/tools/compiler/ti-cgt-c2000_22.6.2.LTS/include/_defs.h",line 348,colu
    2888 00000001 C5C4          MOVL      XAR7,*+XAR4[0]        ; [CPU_ALU] |348| 
    2889 00000002 06D4          MOVL      ACC,*+XAR4[2]         ; [CPU_ALU] |348| 
    2890 00000003 28AC          MOV       T,#48                 ; [CPU_ALU] |348| 
         00000004 0030 
    2891 00000005 1EA6          MOVL      XAR6,ACC              ; [CPU_ALU] |348| 
    2892 00000006 A3A7          MOVL      P,XAR7                ; [CPU_ALU] |348| 
    2893 00000007 D400          MOVB      XAR4,#0               ; [CPU_ALU] |348| 
    2894 00000008 565B          LSR64     ACC:P,T               ; [CPU_ALU] |348| 
TMS320C2000 Assembler PC v22.6.2 Fri Dec 19 11:01:59 2025

Copyright (c) 1996-2018 Texas Instruments Incorporated
dual_axis_servo_drive_main_cpu.asm                                   PAGE   57

    2895 00000009 2BAA          MOV       PH,#0                 ; [CPU_ALU] |348| 
    2896 0000000a 18AB          AND       PL,#0x7ff0            ; [CPU_ALU] |348| 
         0000000b 7FF0 
    2897 0000000c FF20          MOV       ACC,#32752            ; [CPU_ALU] |348| 
         0000000d 7FF0 
    2898 0000000e 0FAB          CMPL      ACC,P                 ; [CPU_ALU] |348| 
    2899 0000000f 6013          B         ||$C$L16||,NEQ        ; [CPU_ALU] |348| 
    2900                      ; branchcc occurs ; [] |348| 
    2901 00000010 06A6          MOVL      ACC,XAR6              ; [CPU_ALU] |348| 
    2902 00000011 A3A7          MOVL      P,XAR7                ; [CPU_ALU] |348| 
    2903 00000012 BE00          MOVB      XAR6,#0               ; [CPU_ALU] |348| 
    2904 00000013 18A9          AND       AL,#65535             ; [CPU_ALU] |348| 
         00000014 FFFF 
    2905 00000015 910F          ANDB      AH,#15                ; [CPU_ALU] |348| 
    2906 00000016 18AB          AND       PL,#65535             ; [CPU_ALU] |348| 
         00000017 FFFF 
    2907 00000018 18AA          AND       PH,#65535             ; [CPU_ALU] |348| 
         00000019 FFFF 
    2908 0000001a C244          MOVL      *-SP[4],XAR6          ; [CPU_FPU] |348| 
    2909 0000001b 2B42          MOV       *-SP[2],#0            ; [CPU_FPU] |348| 
    2910 0000001c 2B41          MOV       *-SP[1],#0            ; [CPU_FPU] |348| 
    2911              $C$DW$202       .dwtag  DW_TAG_TI_branch
    2912                      .dwattr $C$DW$202, DW_AT_low_pc(0x00)
    2913                      .dwattr $C$DW$202, DW_AT_name("__c28xabi_cmpull")
    2914                      .dwattr $C$DW$202, DW_AT_TI_call
    2915              
    2916 0000001d 7640!         LCR       #||__c28xabi_cmpull|| ; [CPU_ALU] |348| 
         0000001e 0000 
    2917                      ; call occurs [#||__c28xabi_cmpull||] ; [] |348| 
    2918 0000001f 5200          CMPB      AL,#0                 ; [CPU_ALU] |348| 
    2919 00000020 56B0          MOVB      XAR4,#1,NEQ           ; [CPU_ALU] |348| 
         00000021 01A4 
    2920 00000022       ||$C$L16||:    
    2921 00000022 FE84          SUBB      SP,#4                 ; [CPU_ARAU] 
    2922                      .dwcfi  cfa_offset, -2
    2923 00000023 92A4          MOV       AL,AR4                ; [CPU_ALU] |348| 
    2924              $C$DW$203       .dwtag  DW_TAG_TI_branch
    2925                      .dwattr $C$DW$203, DW_AT_low_pc(0x00)
    2926                      .dwattr $C$DW$203, DW_AT_TI_return
    2927              
    2928 00000024 0006          LRETR     ; [CPU_ALU] 
    2929                      ; return occurs ; [] 
    2930                      .dwattr $C$DW$199, DW_AT_TI_end_file("C:/ti/ccs2031/ccs/tools/compiler/ti-cgt-c2000_22.6.2.LTS/includ
    2931                      .dwattr $C$DW$199, DW_AT_TI_end_line(0x15d)
    2932                      .dwattr $C$DW$199, DW_AT_TI_end_column(0x30)
    2933                      .dwendentry
    2934                      .dwendtag $C$DW$199
    2935              
    2936 00000000               .sect   ".text:__isnanf"
    2937                      .clink
    2938                      .global ||__isnanf||
    2939              
    2940              $C$DW$204       .dwtag  DW_TAG_subprogram
    2941                      .dwattr $C$DW$204, DW_AT_name("__isnanf")
    2942                      .dwattr $C$DW$204, DW_AT_low_pc(||__isnanf||)
TMS320C2000 Assembler PC v22.6.2 Fri Dec 19 11:01:59 2025

Copyright (c) 1996-2018 Texas Instruments Incorporated
dual_axis_servo_drive_main_cpu.asm                                   PAGE   58

    2943                      .dwattr $C$DW$204, DW_AT_high_pc(0x00)
    2944                      .dwattr $C$DW$204, DW_AT_linkage_name("__isnanf")
    2945                      .dwattr $C$DW$204, DW_AT_external
    2946                      .dwattr $C$DW$204, DW_AT_type(*$C$DW$T$10)
    2947                      .dwattr $C$DW$204, DW_AT_decl_file("C:/ti/ccs2031/ccs/tools/compiler/ti-cgt-c2000_22.6.2.LTS/include/
    2948                      .dwattr $C$DW$204, DW_AT_decl_line(0x158)
    2949                      .dwattr $C$DW$204, DW_AT_decl_column(0x18)
    2950                      .dwattr $C$DW$204, DW_AT_TI_max_frame_size(-2)
    2951                      .dwpsn  file "C:/ti/ccs2031/ccs/tools/compiler/ti-cgt-c2000_22.6.2.LTS/include/_defs.h",line 345,colu
    2952              
    2953                      .dwfde $C$DW$CIE, ||__isnanf||
    2954              $C$DW$205       .dwtag  DW_TAG_formal_parameter
    2955                      .dwattr $C$DW$205, DW_AT_name("f")
    2956                      .dwattr $C$DW$205, DW_AT_type(*$C$DW$T$16)
    2957                      .dwattr $C$DW$205, DW_AT_location[DW_OP_regx 0x2b]
    2958              
    2959              
    2960              ;***************************************************************
    2961              ;* FNAME: __isnanf                      FR SIZE:   0           *
    2962              ;*                                                             *
    2963              ;* FUNCTION ENVIRONMENT                                        *
    2964              ;*                                                             *
    2965              ;* FUNCTION PROPERTIES                                         *
    2966              ;*                            0 Parameter,  0 Auto,  0 SOE     *
    2967              ;***************************************************************
    2968              
    2969              ||__isnanf||:
    2970              ;* PL    assigned to $O$K3
    2971              ;* AR6   assigned to $O$S1
    2972              ;* R0    assigned to f
    2973              $C$DW$206       .dwtag  DW_TAG_variable
    2974                      .dwattr $C$DW$206, DW_AT_name("f")
    2975                      .dwattr $C$DW$206, DW_AT_type(*$C$DW$T$205)
    2976                      .dwattr $C$DW$206, DW_AT_location[DW_OP_regx 0x2b]
    2977              
    2978                      .dwcfi  cfa_offset, -2
    2979                      .dwcfi  save_reg_to_mem, 26, 0
    2980                      .dwpsn  file "C:/ti/ccs2031/ccs/tools/compiler/ti-cgt-c2000_22.6.2.LTS/include/_defs.h",line 345,colu
    2981 00000000 BFAB          MOV32     P,R0H                 ; [CPU_FPU] |345| 
         00000001 0F12 
    2982 00000002 CCAA          AND       AL,PH,#0x7f80         ; [CPU_ALU] |345| 
         00000003 7F80 
    2983 00000004 80A9          MOVZ      AR7,AL                ; [CPU_ALU] |345| 
    2984 00000005 BE00          MOVB      XAR6,#0               ; [CPU_ALU] |345| 
    2985 00000006 FF20          MOV       ACC,#32640            ; [CPU_ALU] |345| 
         00000007 7F80 
    2986 00000008 0FA7          CMPL      ACC,XAR7              ; [CPU_ALU] |345| 
    2987 00000009 6006          B         ||$C$L17||,NEQ        ; [CPU_ALU] |345| 
    2988                      ; branchcc occurs ; [] |345| 
    2989 0000000a A9A9          MOVL      ACC,P                 ; [CPU_ALU] |345| 
    2990 0000000b 917F          ANDB      AH,#127               ; [CPU_ALU] |345| 
    2991 0000000c FF58          TEST      ACC                   ; [CPU_ALU] |345| 
    2992 0000000d 56B0          MOVB      XAR6,#1,NEQ           ; [CPU_ALU] |345| 
         0000000e 01A6 
    2993 0000000f       ||$C$L17||:    
TMS320C2000 Assembler PC v22.6.2 Fri Dec 19 11:01:59 2025

Copyright (c) 1996-2018 Texas Instruments Incorporated
dual_axis_servo_drive_main_cpu.asm                                   PAGE   59

    2994 0000000f 92A6          MOV       AL,AR6                ; [CPU_ALU] |345| 
    2995              $C$DW$207       .dwtag  DW_TAG_TI_branch
    2996                      .dwattr $C$DW$207, DW_AT_low_pc(0x00)
    2997                      .dwattr $C$DW$207, DW_AT_TI_return
    2998              
    2999 00000010 0006          LRETR     ; [CPU_ALU] 
    3000                      ; return occurs ; [] 
    3001                      .dwattr $C$DW$204, DW_AT_TI_end_file("C:/ti/ccs2031/ccs/tools/compiler/ti-cgt-c2000_22.6.2.LTS/includ
    3002                      .dwattr $C$DW$204, DW_AT_TI_end_line(0x15a)
    3003                      .dwattr $C$DW$204, DW_AT_TI_end_column(0x2e)
    3004                      .dwendentry
    3005                      .dwendtag $C$DW$204
    3006              
    3007 00000000               .sect   ".text:__isnan"
    3008                      .clink
    3009                      .global ||__isnan||
    3010              
    3011              $C$DW$208       .dwtag  DW_TAG_subprogram
    3012                      .dwattr $C$DW$208, DW_AT_name("__isnan")
    3013                      .dwattr $C$DW$208, DW_AT_low_pc(||__isnan||)
    3014                      .dwattr $C$DW$208, DW_AT_high_pc(0x00)
    3015                      .dwattr $C$DW$208, DW_AT_linkage_name("__isnan")
    3016                      .dwattr $C$DW$208, DW_AT_external
    3017                      .dwattr $C$DW$208, DW_AT_type(*$C$DW$T$10)
    3018                      .dwattr $C$DW$208, DW_AT_decl_file("C:/ti/ccs2031/ccs/tools/compiler/ti-cgt-c2000_22.6.2.LTS/include/
    3019                      .dwattr $C$DW$208, DW_AT_decl_line(0x155)
    3020                      .dwattr $C$DW$208, DW_AT_decl_column(0x18)
    3021                      .dwattr $C$DW$208, DW_AT_TI_max_frame_size(-6)
    3022                      .dwpsn  file "C:/ti/ccs2031/ccs/tools/compiler/ti-cgt-c2000_22.6.2.LTS/include/_defs.h",line 342,colu
    3023              
    3024                      .dwfde $C$DW$CIE, ||__isnan||
    3025              $C$DW$209       .dwtag  DW_TAG_formal_parameter
    3026                      .dwattr $C$DW$209, DW_AT_name("d")
    3027                      .dwattr $C$DW$209, DW_AT_type(*$C$DW$T$208)
    3028                      .dwattr $C$DW$209, DW_AT_location[DW_OP_reg12]
    3029              
    3030              
    3031              ;***************************************************************
    3032              ;* FNAME: __isnan                       FR SIZE:   4           *
    3033              ;*                                                             *
    3034              ;* FUNCTION ENVIRONMENT                                        *
    3035              ;*                                                             *
    3036              ;* FUNCTION PROPERTIES                                         *
    3037              ;*                            4 Parameter,  0 Auto,  0 SOE     *
    3038              ;***************************************************************
    3039              
    3040              ||__isnan||:
    3041              ;* AR7   assigned to $O$C2
    3042              ;* AR4   assigned to $O$S1
    3043              ;* AR4   assigned to d
    3044              $C$DW$210       .dwtag  DW_TAG_variable
    3045                      .dwattr $C$DW$210, DW_AT_name("d")
    3046                      .dwattr $C$DW$210, DW_AT_type(*$C$DW$T$209)
    3047                      .dwattr $C$DW$210, DW_AT_location[DW_OP_reg12]
    3048              
TMS320C2000 Assembler PC v22.6.2 Fri Dec 19 11:01:59 2025

Copyright (c) 1996-2018 Texas Instruments Incorporated
dual_axis_servo_drive_main_cpu.asm                                   PAGE   60

    3049                      .dwcfi  cfa_offset, -2
    3050                      .dwcfi  save_reg_to_mem, 26, 0
    3051 00000000 FE04          ADDB      SP,#4                 ; [CPU_ARAU] 
    3052                      .dwcfi  cfa_offset, -6
    3053                      .dwpsn  file "C:/ti/ccs2031/ccs/tools/compiler/ti-cgt-c2000_22.6.2.LTS/include/_defs.h",line 342,colu
    3054 00000001 C5C4          MOVL      XAR7,*+XAR4[0]        ; [CPU_ALU] |342| 
    3055 00000002 06D4          MOVL      ACC,*+XAR4[2]         ; [CPU_ALU] |342| 
    3056 00000003 28AC          MOV       T,#48                 ; [CPU_ALU] |342| 
         00000004 0030 
    3057 00000005 1EA6          MOVL      XAR6,ACC              ; [CPU_ALU] |342| 
    3058 00000006 A3A7          MOVL      P,XAR7                ; [CPU_ALU] |342| 
    3059 00000007 D400          MOVB      XAR4,#0               ; [CPU_ALU] |342| 
    3060 00000008 565B          LSR64     ACC:P,T               ; [CPU_ALU] |342| 
    3061 00000009 2BAA          MOV       PH,#0                 ; [CPU_ALU] |342| 
    3062 0000000a 18AB          AND       PL,#0x7ff0            ; [CPU_ALU] |342| 
         0000000b 7FF0 
    3063 0000000c FF20          MOV       ACC,#32752            ; [CPU_ALU] |342| 
         0000000d 7FF0 
    3064 0000000e 0FAB          CMPL      ACC,P                 ; [CPU_ALU] |342| 
    3065 0000000f 6013          B         ||$C$L18||,NEQ        ; [CPU_ALU] |342| 
    3066                      ; branchcc occurs ; [] |342| 
    3067 00000010 06A6          MOVL      ACC,XAR6              ; [CPU_ALU] |342| 
    3068 00000011 A3A7          MOVL      P,XAR7                ; [CPU_ALU] |342| 
    3069 00000012 BE00          MOVB      XAR6,#0               ; [CPU_ALU] |342| 
    3070 00000013 18A9          AND       AL,#65535             ; [CPU_ALU] |342| 
         00000014 FFFF 
    3071 00000015 910F          ANDB      AH,#15                ; [CPU_ALU] |342| 
    3072 00000016 18AB          AND       PL,#65535             ; [CPU_ALU] |342| 
         00000017 FFFF 
    3073 00000018 18AA          AND       PH,#65535             ; [CPU_ALU] |342| 
         00000019 FFFF 
    3074 0000001a C244          MOVL      *-SP[4],XAR6          ; [CPU_FPU] |342| 
    3075 0000001b 2B42          MOV       *-SP[2],#0            ; [CPU_FPU] |342| 
    3076 0000001c 2B41          MOV       *-SP[1],#0            ; [CPU_FPU] |342| 
    3077              $C$DW$211       .dwtag  DW_TAG_TI_branch
    3078                      .dwattr $C$DW$211, DW_AT_low_pc(0x00)
    3079                      .dwattr $C$DW$211, DW_AT_name("__c28xabi_cmpull")
    3080                      .dwattr $C$DW$211, DW_AT_TI_call
    3081              
    3082 0000001d 7640!         LCR       #||__c28xabi_cmpull|| ; [CPU_ALU] |342| 
         0000001e 0000 
    3083                      ; call occurs [#||__c28xabi_cmpull||] ; [] |342| 
    3084 0000001f 5200          CMPB      AL,#0                 ; [CPU_ALU] |342| 
    3085 00000020 56B0          MOVB      XAR4,#1,NEQ           ; [CPU_ALU] |342| 
         00000021 01A4 
    3086 00000022       ||$C$L18||:    
    3087 00000022 FE84          SUBB      SP,#4                 ; [CPU_ARAU] 
    3088                      .dwcfi  cfa_offset, -2
    3089 00000023 92A4          MOV       AL,AR4                ; [CPU_ALU] |342| 
    3090              $C$DW$212       .dwtag  DW_TAG_TI_branch
    3091                      .dwattr $C$DW$212, DW_AT_low_pc(0x00)
    3092                      .dwattr $C$DW$212, DW_AT_TI_return
    3093              
    3094 00000024 0006          LRETR     ; [CPU_ALU] 
    3095                      ; return occurs ; [] 
TMS320C2000 Assembler PC v22.6.2 Fri Dec 19 11:01:59 2025

Copyright (c) 1996-2018 Texas Instruments Incorporated
dual_axis_servo_drive_main_cpu.asm                                   PAGE   61

    3096                      .dwattr $C$DW$208, DW_AT_TI_end_file("C:/ti/ccs2031/ccs/tools/compiler/ti-cgt-c2000_22.6.2.LTS/includ
    3097                      .dwattr $C$DW$208, DW_AT_TI_end_line(0x157)
    3098                      .dwattr $C$DW$208, DW_AT_TI_end_column(0x2f)
    3099                      .dwendentry
    3100                      .dwendtag $C$DW$208
    3101              
    3102 00000000               .sect   ".text:__isinfl"
    3103                      .clink
    3104                      .global ||__isinfl||
    3105              
    3106              $C$DW$213       .dwtag  DW_TAG_subprogram
    3107                      .dwattr $C$DW$213, DW_AT_name("__isinfl")
    3108                      .dwattr $C$DW$213, DW_AT_low_pc(||__isinfl||)
    3109                      .dwattr $C$DW$213, DW_AT_high_pc(0x00)
    3110                      .dwattr $C$DW$213, DW_AT_linkage_name("__isinfl")
    3111                      .dwattr $C$DW$213, DW_AT_external
    3112                      .dwattr $C$DW$213, DW_AT_type(*$C$DW$T$10)
    3113                      .dwattr $C$DW$213, DW_AT_decl_file("C:/ti/ccs2031/ccs/tools/compiler/ti-cgt-c2000_22.6.2.LTS/include/
    3114                      .dwattr $C$DW$213, DW_AT_decl_line(0x17a)
    3115                      .dwattr $C$DW$213, DW_AT_decl_column(0x18)
    3116                      .dwattr $C$DW$213, DW_AT_TI_max_frame_size(-6)
    3117                      .dwpsn  file "C:/ti/ccs2031/ccs/tools/compiler/ti-cgt-c2000_22.6.2.LTS/include/_defs.h",line 379,colu
    3118              
    3119                      .dwfde $C$DW$CIE, ||__isinfl||
    3120              $C$DW$214       .dwtag  DW_TAG_formal_parameter
    3121                      .dwattr $C$DW$214, DW_AT_name("e")
    3122                      .dwattr $C$DW$214, DW_AT_type(*$C$DW$T$211)
    3123                      .dwattr $C$DW$214, DW_AT_location[DW_OP_reg12]
    3124              
    3125              
    3126              ;***************************************************************
    3127              ;* FNAME: __isinfl                      FR SIZE:   4           *
    3128              ;*                                                             *
    3129              ;* FUNCTION ENVIRONMENT                                        *
    3130              ;*                                                             *
    3131              ;* FUNCTION PROPERTIES                                         *
    3132              ;*                            4 Parameter,  0 Auto,  0 SOE     *
    3133              ;***************************************************************
    3134              
    3135              ||__isinfl||:
    3136              ;* AR7   assigned to $O$C2
    3137              ;* AR4   assigned to $O$S1
    3138              ;* AR4   assigned to e
    3139              $C$DW$215       .dwtag  DW_TAG_variable
    3140                      .dwattr $C$DW$215, DW_AT_name("e")
    3141                      .dwattr $C$DW$215, DW_AT_type(*$C$DW$T$212)
    3142                      .dwattr $C$DW$215, DW_AT_location[DW_OP_reg12]
    3143              
    3144                      .dwcfi  cfa_offset, -2
    3145                      .dwcfi  save_reg_to_mem, 26, 0
    3146 00000000 FE04          ADDB      SP,#4                 ; [CPU_ARAU] 
    3147                      .dwcfi  cfa_offset, -6
    3148                      .dwpsn  file "C:/ti/ccs2031/ccs/tools/compiler/ti-cgt-c2000_22.6.2.LTS/include/_defs.h",line 379,colu
    3149 00000001 C5C4          MOVL      XAR7,*+XAR4[0]        ; [CPU_ALU] |379| 
    3150 00000002 06D4          MOVL      ACC,*+XAR4[2]         ; [CPU_ALU] |379| 
TMS320C2000 Assembler PC v22.6.2 Fri Dec 19 11:01:59 2025

Copyright (c) 1996-2018 Texas Instruments Incorporated
dual_axis_servo_drive_main_cpu.asm                                   PAGE   62

    3151 00000003 28AC          MOV       T,#48                 ; [CPU_ALU] |379| 
         00000004 0030 
    3152 00000005 1EA6          MOVL      XAR6,ACC              ; [CPU_ALU] |379| 
    3153 00000006 A3A7          MOVL      P,XAR7                ; [CPU_ALU] |379| 
    3154 00000007 D400          MOVB      XAR4,#0               ; [CPU_ALU] |379| 
    3155 00000008 565B          LSR64     ACC:P,T               ; [CPU_ALU] |379| 
    3156 00000009 2BAA          MOV       PH,#0                 ; [CPU_ALU] |379| 
    3157 0000000a 18AB          AND       PL,#0x7ff0            ; [CPU_ALU] |379| 
         0000000b 7FF0 
    3158 0000000c FF20          MOV       ACC,#32752            ; [CPU_ALU] |379| 
         0000000d 7FF0 
    3159 0000000e 0FAB          CMPL      ACC,P                 ; [CPU_ALU] |379| 
    3160 0000000f 6013          B         ||$C$L19||,NEQ        ; [CPU_ALU] |379| 
    3161                      ; branchcc occurs ; [] |379| 
    3162 00000010 06A6          MOVL      ACC,XAR6              ; [CPU_ALU] |379| 
    3163 00000011 A3A7          MOVL      P,XAR7                ; [CPU_ALU] |379| 
    3164 00000012 BE00          MOVB      XAR6,#0               ; [CPU_ALU] |379| 
    3165 00000013 18A9          AND       AL,#65535             ; [CPU_ALU] |379| 
         00000014 FFFF 
    3166 00000015 910F          ANDB      AH,#15                ; [CPU_ALU] |379| 
    3167 00000016 18AB          AND       PL,#65535             ; [CPU_ALU] |379| 
         00000017 FFFF 
    3168 00000018 18AA          AND       PH,#65535             ; [CPU_ALU] |379| 
         00000019 FFFF 
    3169 0000001a C244          MOVL      *-SP[4],XAR6          ; [CPU_FPU] |379| 
    3170 0000001b 2B42          MOV       *-SP[2],#0            ; [CPU_FPU] |379| 
    3171 0000001c 2B41          MOV       *-SP[1],#0            ; [CPU_FPU] |379| 
    3172              $C$DW$216       .dwtag  DW_TAG_TI_branch
    3173                      .dwattr $C$DW$216, DW_AT_low_pc(0x00)
    3174                      .dwattr $C$DW$216, DW_AT_name("__c28xabi_cmpull")
    3175                      .dwattr $C$DW$216, DW_AT_TI_call
    3176              
    3177 0000001d 7640!         LCR       #||__c28xabi_cmpull|| ; [CPU_ALU] |379| 
         0000001e 0000 
    3178                      ; call occurs [#||__c28xabi_cmpull||] ; [] |379| 
    3179 0000001f 5200          CMPB      AL,#0                 ; [CPU_ALU] |379| 
    3180 00000020 56B1          MOVB      XAR4,#1,EQ            ; [CPU_ALU] |379| 
         00000021 01A4 
    3181 00000022       ||$C$L19||:    
    3182 00000022 FE84          SUBB      SP,#4                 ; [CPU_ARAU] 
    3183                      .dwcfi  cfa_offset, -2
    3184 00000023 92A4          MOV       AL,AR4                ; [CPU_ALU] |379| 
    3185              $C$DW$217       .dwtag  DW_TAG_TI_branch
    3186                      .dwattr $C$DW$217, DW_AT_low_pc(0x00)
    3187                      .dwattr $C$DW$217, DW_AT_TI_return
    3188              
    3189 00000024 0006          LRETR     ; [CPU_ALU] 
    3190                      ; return occurs ; [] 
    3191                      .dwattr $C$DW$213, DW_AT_TI_end_file("C:/ti/ccs2031/ccs/tools/compiler/ti-cgt-c2000_22.6.2.LTS/includ
    3192                      .dwattr $C$DW$213, DW_AT_TI_end_line(0x17b)
    3193                      .dwattr $C$DW$213, DW_AT_TI_end_column(0x4c)
    3194                      .dwendentry
    3195                      .dwendtag $C$DW$213
    3196              
    3197 00000000               .sect   ".text:__isinff"
TMS320C2000 Assembler PC v22.6.2 Fri Dec 19 11:01:59 2025

Copyright (c) 1996-2018 Texas Instruments Incorporated
dual_axis_servo_drive_main_cpu.asm                                   PAGE   63

    3198                      .clink
    3199                      .global ||__isinff||
    3200              
    3201              $C$DW$218       .dwtag  DW_TAG_subprogram
    3202                      .dwattr $C$DW$218, DW_AT_name("__isinff")
    3203                      .dwattr $C$DW$218, DW_AT_low_pc(||__isinff||)
    3204                      .dwattr $C$DW$218, DW_AT_high_pc(0x00)
    3205                      .dwattr $C$DW$218, DW_AT_linkage_name("__isinff")
    3206                      .dwattr $C$DW$218, DW_AT_external
    3207                      .dwattr $C$DW$218, DW_AT_type(*$C$DW$T$10)
    3208                      .dwattr $C$DW$218, DW_AT_decl_file("C:/ti/ccs2031/ccs/tools/compiler/ti-cgt-c2000_22.6.2.LTS/include/
    3209                      .dwattr $C$DW$218, DW_AT_decl_line(0x176)
    3210                      .dwattr $C$DW$218, DW_AT_decl_column(0x18)
    3211                      .dwattr $C$DW$218, DW_AT_TI_max_frame_size(-2)
    3212                      .dwpsn  file "C:/ti/ccs2031/ccs/tools/compiler/ti-cgt-c2000_22.6.2.LTS/include/_defs.h",line 375,colu
    3213              
    3214                      .dwfde $C$DW$CIE, ||__isinff||
    3215              $C$DW$219       .dwtag  DW_TAG_formal_parameter
    3216                      .dwattr $C$DW$219, DW_AT_name("f")
    3217                      .dwattr $C$DW$219, DW_AT_type(*$C$DW$T$16)
    3218                      .dwattr $C$DW$219, DW_AT_location[DW_OP_regx 0x2b]
    3219              
    3220              
    3221              ;***************************************************************
    3222              ;* FNAME: __isinff                      FR SIZE:   0           *
    3223              ;*                                                             *
    3224              ;* FUNCTION ENVIRONMENT                                        *
    3225              ;*                                                             *
    3226              ;* FUNCTION PROPERTIES                                         *
    3227              ;*                            0 Parameter,  0 Auto,  0 SOE     *
    3228              ;***************************************************************
    3229              
    3230              ||__isinff||:
    3231              ;* PL    assigned to $O$K3
    3232              ;* AR6   assigned to $O$S1
    3233              ;* R0    assigned to f
    3234              $C$DW$220       .dwtag  DW_TAG_variable
    3235                      .dwattr $C$DW$220, DW_AT_name("f")
    3236                      .dwattr $C$DW$220, DW_AT_type(*$C$DW$T$205)
    3237                      .dwattr $C$DW$220, DW_AT_location[DW_OP_regx 0x2b]
    3238              
    3239                      .dwcfi  cfa_offset, -2
    3240                      .dwcfi  save_reg_to_mem, 26, 0
    3241                      .dwpsn  file "C:/ti/ccs2031/ccs/tools/compiler/ti-cgt-c2000_22.6.2.LTS/include/_defs.h",line 375,colu
    3242 00000000 BFAB          MOV32     P,R0H                 ; [CPU_FPU] |375| 
         00000001 0F12 
    3243 00000002 CCAA          AND       AL,PH,#0x7f80         ; [CPU_ALU] |375| 
         00000003 7F80 
    3244 00000004 80A9          MOVZ      AR7,AL                ; [CPU_ALU] |375| 
    3245 00000005 BE00          MOVB      XAR6,#0               ; [CPU_ALU] |375| 
    3246 00000006 FF20          MOV       ACC,#32640            ; [CPU_ALU] |375| 
         00000007 7F80 
    3247 00000008 0FA7          CMPL      ACC,XAR7              ; [CPU_ALU] |375| 
    3248 00000009 6006          B         ||$C$L20||,NEQ        ; [CPU_ALU] |375| 
    3249                      ; branchcc occurs ; [] |375| 
TMS320C2000 Assembler PC v22.6.2 Fri Dec 19 11:01:59 2025

Copyright (c) 1996-2018 Texas Instruments Incorporated
dual_axis_servo_drive_main_cpu.asm                                   PAGE   64

    3250 0000000a A9A9          MOVL      ACC,P                 ; [CPU_ALU] |375| 
    3251 0000000b 917F          ANDB      AH,#127               ; [CPU_ALU] |375| 
    3252 0000000c FF58          TEST      ACC                   ; [CPU_ALU] |375| 
    3253 0000000d 56B1          MOVB      XAR6,#1,EQ            ; [CPU_ALU] |375| 
         0000000e 01A6 
    3254 0000000f       ||$C$L20||:    
    3255 0000000f 92A6          MOV       AL,AR6                ; [CPU_ALU] |375| 
    3256              $C$DW$221       .dwtag  DW_TAG_TI_branch
    3257                      .dwattr $C$DW$221, DW_AT_low_pc(0x00)
    3258                      .dwattr $C$DW$221, DW_AT_TI_return
    3259              
    3260 00000010 0006          LRETR     ; [CPU_ALU] 
    3261                      ; return occurs ; [] 
    3262                      .dwattr $C$DW$218, DW_AT_TI_end_file("C:/ti/ccs2031/ccs/tools/compiler/ti-cgt-c2000_22.6.2.LTS/includ
    3263                      .dwattr $C$DW$218, DW_AT_TI_end_line(0x177)
    3264                      .dwattr $C$DW$218, DW_AT_TI_end_column(0x48)
    3265                      .dwendentry
    3266                      .dwendtag $C$DW$218
    3267              
    3268 00000000               .sect   ".text:__isinf"
    3269                      .clink
    3270                      .global ||__isinf||
    3271              
    3272              $C$DW$222       .dwtag  DW_TAG_subprogram
    3273                      .dwattr $C$DW$222, DW_AT_name("__isinf")
    3274                      .dwattr $C$DW$222, DW_AT_low_pc(||__isinf||)
    3275                      .dwattr $C$DW$222, DW_AT_high_pc(0x00)
    3276                      .dwattr $C$DW$222, DW_AT_linkage_name("__isinf")
    3277                      .dwattr $C$DW$222, DW_AT_external
    3278                      .dwattr $C$DW$222, DW_AT_type(*$C$DW$T$10)
    3279                      .dwattr $C$DW$222, DW_AT_decl_file("C:/ti/ccs2031/ccs/tools/compiler/ti-cgt-c2000_22.6.2.LTS/include/
    3280                      .dwattr $C$DW$222, DW_AT_decl_line(0x178)
    3281                      .dwattr $C$DW$222, DW_AT_decl_column(0x18)
    3282                      .dwattr $C$DW$222, DW_AT_TI_max_frame_size(-6)
    3283                      .dwpsn  file "C:/ti/ccs2031/ccs/tools/compiler/ti-cgt-c2000_22.6.2.LTS/include/_defs.h",line 377,colu
    3284              
    3285                      .dwfde $C$DW$CIE, ||__isinf||
    3286              $C$DW$223       .dwtag  DW_TAG_formal_parameter
    3287                      .dwattr $C$DW$223, DW_AT_name("d")
    3288                      .dwattr $C$DW$223, DW_AT_type(*$C$DW$T$208)
    3289                      .dwattr $C$DW$223, DW_AT_location[DW_OP_reg12]
    3290              
    3291              
    3292              ;***************************************************************
    3293              ;* FNAME: __isinf                       FR SIZE:   4           *
    3294              ;*                                                             *
    3295              ;* FUNCTION ENVIRONMENT                                        *
    3296              ;*                                                             *
    3297              ;* FUNCTION PROPERTIES                                         *
    3298              ;*                            4 Parameter,  0 Auto,  0 SOE     *
    3299              ;***************************************************************
    3300              
    3301              ||__isinf||:
    3302              ;* AR7   assigned to $O$C2
    3303              ;* AR4   assigned to $O$S1
TMS320C2000 Assembler PC v22.6.2 Fri Dec 19 11:01:59 2025

Copyright (c) 1996-2018 Texas Instruments Incorporated
dual_axis_servo_drive_main_cpu.asm                                   PAGE   65

    3304              ;* AR4   assigned to d
    3305              $C$DW$224       .dwtag  DW_TAG_variable
    3306                      .dwattr $C$DW$224, DW_AT_name("d")
    3307                      .dwattr $C$DW$224, DW_AT_type(*$C$DW$T$209)
    3308                      .dwattr $C$DW$224, DW_AT_location[DW_OP_reg12]
    3309              
    3310                      .dwcfi  cfa_offset, -2
    3311                      .dwcfi  save_reg_to_mem, 26, 0
    3312 00000000 FE04          ADDB      SP,#4                 ; [CPU_ARAU] 
    3313                      .dwcfi  cfa_offset, -6
    3314                      .dwpsn  file "C:/ti/ccs2031/ccs/tools/compiler/ti-cgt-c2000_22.6.2.LTS/include/_defs.h",line 377,colu
    3315 00000001 C5C4          MOVL      XAR7,*+XAR4[0]        ; [CPU_ALU] |377| 
    3316 00000002 06D4          MOVL      ACC,*+XAR4[2]         ; [CPU_ALU] |377| 
    3317 00000003 28AC          MOV       T,#48                 ; [CPU_ALU] |377| 
         00000004 0030 
    3318 00000005 1EA6          MOVL      XAR6,ACC              ; [CPU_ALU] |377| 
    3319 00000006 A3A7          MOVL      P,XAR7                ; [CPU_ALU] |377| 
    3320 00000007 D400          MOVB      XAR4,#0               ; [CPU_ALU] |377| 
    3321 00000008 565B          LSR64     ACC:P,T               ; [CPU_ALU] |377| 
    3322 00000009 2BAA          MOV       PH,#0                 ; [CPU_ALU] |377| 
    3323 0000000a 18AB          AND       PL,#0x7ff0            ; [CPU_ALU] |377| 
         0000000b 7FF0 
