TMS320C2000 Assembler PC v22.6.2 Wed Dec 10 14:45:02 2025

Copyright (c) 1996-2018 Texas Instruments Incorporated
dual_axis_servo_drive_hal.asm                                        PAGE    1

       1              ;***************************************************************
       2              ;* TMS320C2000 G3 C/C++ Codegen                               PC v22.6.2.LTS *
       3              ;* Date/Time created: Wed Dec 10 14:45:01 2025                 *
       4              ;***************************************************************
       5                      .compiler_opts --abi=eabi --diag_wrap=off --float_support=fpu32 --hll_source=on --idiv_support=idiv0 
       6                      .asg    XAR2, FP
       7              
       8              $C$DW$CU        .dwtag  DW_TAG_compile_unit
       9                      .dwattr $C$DW$CU, DW_AT_name("../sources/dual_axis_servo_drive_hal.c")
      10                      .dwattr $C$DW$CU, DW_AT_producer("TI TMS320C2000 G3 C/C++ Codegen PC v22.6.2.LTS Copyright (c) 1996-2
      11                      .dwattr $C$DW$CU, DW_AT_TI_version(0x01)
      12                      .dwattr $C$DW$CU, DW_AT_comp_dir("C:\Users\Teddy\Documents\GitHub\2512_TI_DSP_BLDC_MotorControlSDK\1.
      13              
      14              $C$DW$1 .dwtag  DW_TAG_subprogram
      15                      .dwattr $C$DW$1, DW_AT_name("Interrupt_enable")
      16                      .dwattr $C$DW$1, DW_AT_linkage_name("Interrupt_enable")
      17                      .dwattr $C$DW$1, DW_AT_declaration
      18                      .dwattr $C$DW$1, DW_AT_external
      19                      .dwattr $C$DW$1, DW_AT_decl_file("C:\ti\C2000Ware_MotorControl_SDK_5_04_00_00\c2000ware\driverlib\f28
      20                      .dwattr $C$DW$1, DW_AT_decl_line(0x1c7)
      21                      .dwattr $C$DW$1, DW_AT_decl_column(0x01)
      22              $C$DW$2 .dwtag  DW_TAG_formal_parameter
      23                      .dwattr $C$DW$2, DW_AT_type(*$C$DW$T$28)
      24              
      25                      .dwendtag $C$DW$1
      26              
      27              
      28              $C$DW$3 .dwtag  DW_TAG_subprogram
      29                      .dwattr $C$DW$3, DW_AT_name("Device_initGPIO")
      30                      .dwattr $C$DW$3, DW_AT_linkage_name("Device_initGPIO")
      31                      .dwattr $C$DW$3, DW_AT_declaration
      32                      .dwattr $C$DW$3, DW_AT_external
      33                      .dwattr $C$DW$3, DW_AT_decl_file("C:/ti/C2000Ware_MotorControl_SDK_5_04_00_00/c2000ware/device_suppor
      34                      .dwattr $C$DW$3, DW_AT_decl_line(0x1aa)
      35                      .dwattr $C$DW$3, DW_AT_decl_column(0x0d)
      36                      .dwendtag $C$DW$3
      37              
      38              
      39              $C$DW$4 .dwtag  DW_TAG_subprogram
      40                      .dwattr $C$DW$4, DW_AT_name("Interrupt_initModule")
      41                      .dwattr $C$DW$4, DW_AT_linkage_name("Interrupt_initModule")
      42                      .dwattr $C$DW$4, DW_AT_declaration
      43                      .dwattr $C$DW$4, DW_AT_external
      44                      .dwattr $C$DW$4, DW_AT_decl_file("C:\ti\C2000Ware_MotorControl_SDK_5_04_00_00\c2000ware\driverlib\f28
      45                      .dwattr $C$DW$4, DW_AT_decl_line(0x1a9)
      46                      .dwattr $C$DW$4, DW_AT_decl_column(0x01)
      47                      .dwendtag $C$DW$4
      48              
      49              
      50              $C$DW$5 .dwtag  DW_TAG_subprogram
      51                      .dwattr $C$DW$5, DW_AT_name("Interrupt_initVectorTable")
      52                      .dwattr $C$DW$5, DW_AT_linkage_name("Interrupt_initVectorTable")
      53                      .dwattr $C$DW$5, DW_AT_declaration
      54                      .dwattr $C$DW$5, DW_AT_external
      55                      .dwattr $C$DW$5, DW_AT_decl_file("C:\ti\C2000Ware_MotorControl_SDK_5_04_00_00\c2000ware\driverlib\f28
TMS320C2000 Assembler PC v22.6.2 Wed Dec 10 14:45:02 2025

Copyright (c) 1996-2018 Texas Instruments Incorporated
dual_axis_servo_drive_hal.asm                                        PAGE    2

      56                      .dwattr $C$DW$5, DW_AT_decl_line(0x1b4)
      57                      .dwattr $C$DW$5, DW_AT_decl_column(0x01)
      58                      .dwendtag $C$DW$5
      59              
      60              
      61              $C$DW$6 .dwtag  DW_TAG_subprogram
      62                      .dwattr $C$DW$6, DW_AT_name("SysCtl_delay")
      63                      .dwattr $C$DW$6, DW_AT_linkage_name("SysCtl_delay")
      64                      .dwattr $C$DW$6, DW_AT_declaration
      65                      .dwattr $C$DW$6, DW_AT_external
      66                      .dwattr $C$DW$6, DW_AT_decl_file("C:\ti\C2000Ware_MotorControl_SDK_5_04_00_00\c2000ware\driverlib\f28
      67                      .dwattr $C$DW$6, DW_AT_decl_line(0xcd7)
      68                      .dwattr $C$DW$6, DW_AT_decl_column(0x01)
      69              $C$DW$7 .dwtag  DW_TAG_formal_parameter
      70                      .dwattr $C$DW$7, DW_AT_type(*$C$DW$T$28)
      71              
      72                      .dwendtag $C$DW$6
      73              
      74              
      75              $C$DW$8 .dwtag  DW_TAG_subprogram
      76                      .dwattr $C$DW$8, DW_AT_name("ADC_setVREF")
      77                      .dwattr $C$DW$8, DW_AT_linkage_name("ADC_setVREF")
      78                      .dwattr $C$DW$8, DW_AT_declaration
      79                      .dwattr $C$DW$8, DW_AT_external
      80                      .dwattr $C$DW$8, DW_AT_decl_file("C:/ti/C2000Ware_MotorControl_SDK_5_04_00_00/c2000ware/driverlib/f28
      81                      .dwattr $C$DW$8, DW_AT_decl_line(0x7ee)
      82                      .dwattr $C$DW$8, DW_AT_decl_column(0x01)
      83              $C$DW$9 .dwtag  DW_TAG_formal_parameter
      84                      .dwattr $C$DW$9, DW_AT_type(*$C$DW$T$28)
      85              
      86              $C$DW$10        .dwtag  DW_TAG_formal_parameter
      87                      .dwattr $C$DW$10, DW_AT_type(*$C$DW$T$53)
      88              
      89              $C$DW$11        .dwtag  DW_TAG_formal_parameter
      90                      .dwattr $C$DW$11, DW_AT_type(*$C$DW$T$55)
      91              
      92                      .dwendtag $C$DW$8
      93              
      94              
      95              $C$DW$12        .dwtag  DW_TAG_subprogram
      96                      .dwattr $C$DW$12, DW_AT_name("CMPSS_configFilterHigh")
      97                      .dwattr $C$DW$12, DW_AT_linkage_name("CMPSS_configFilterHigh")
      98                      .dwattr $C$DW$12, DW_AT_declaration
      99                      .dwattr $C$DW$12, DW_AT_external
     100                      .dwattr $C$DW$12, DW_AT_decl_file("C:/ti/C2000Ware_MotorControl_SDK_5_04_00_00/c2000ware/driverlib/f2
     101                      .dwattr $C$DW$12, DW_AT_decl_line(0x4ff)
     102                      .dwattr $C$DW$12, DW_AT_decl_column(0x01)
     103              $C$DW$13        .dwtag  DW_TAG_formal_parameter
     104                      .dwattr $C$DW$13, DW_AT_type(*$C$DW$T$28)
     105              
     106              $C$DW$14        .dwtag  DW_TAG_formal_parameter
     107                      .dwattr $C$DW$14, DW_AT_type(*$C$DW$T$172)
     108              
     109              $C$DW$15        .dwtag  DW_TAG_formal_parameter
     110                      .dwattr $C$DW$15, DW_AT_type(*$C$DW$T$172)
TMS320C2000 Assembler PC v22.6.2 Wed Dec 10 14:45:02 2025

Copyright (c) 1996-2018 Texas Instruments Incorporated
dual_axis_servo_drive_hal.asm                                        PAGE    3

     111              
     112              $C$DW$16        .dwtag  DW_TAG_formal_parameter
     113                      .dwattr $C$DW$16, DW_AT_type(*$C$DW$T$172)
     114              
     115                      .dwendtag $C$DW$12
     116              
     117              
     118              $C$DW$17        .dwtag  DW_TAG_subprogram
     119                      .dwattr $C$DW$17, DW_AT_name("CMPSS_configFilterLow")
     120                      .dwattr $C$DW$17, DW_AT_linkage_name("CMPSS_configFilterLow")
     121                      .dwattr $C$DW$17, DW_AT_declaration
     122                      .dwattr $C$DW$17, DW_AT_external
     123                      .dwattr $C$DW$17, DW_AT_decl_file("C:/ti/C2000Ware_MotorControl_SDK_5_04_00_00/c2000ware/driverlib/f2
     124                      .dwattr $C$DW$17, DW_AT_decl_line(0x52f)
     125                      .dwattr $C$DW$17, DW_AT_decl_column(0x01)
     126              $C$DW$18        .dwtag  DW_TAG_formal_parameter
     127                      .dwattr $C$DW$18, DW_AT_type(*$C$DW$T$28)
     128              
     129              $C$DW$19        .dwtag  DW_TAG_formal_parameter
     130                      .dwattr $C$DW$19, DW_AT_type(*$C$DW$T$172)
     131              
     132              $C$DW$20        .dwtag  DW_TAG_formal_parameter
     133                      .dwattr $C$DW$20, DW_AT_type(*$C$DW$T$172)
     134              
     135              $C$DW$21        .dwtag  DW_TAG_formal_parameter
     136                      .dwattr $C$DW$21, DW_AT_type(*$C$DW$T$172)
     137              
     138                      .dwendtag $C$DW$17
     139              
     140              
     141              $C$DW$22        .dwtag  DW_TAG_subprogram
     142                      .dwattr $C$DW$22, DW_AT_name("motor1ControlISR")
     143                      .dwattr $C$DW$22, DW_AT_linkage_name("motor1ControlISR")
     144                      .dwattr $C$DW$22, DW_AT_declaration
     145                      .dwattr $C$DW$22, DW_AT_external
     146                      .dwattr $C$DW$22, DW_AT_decl_file("../sources/dual_axis_servo_drive_hal.c")
     147                      .dwattr $C$DW$22, DW_AT_decl_line(0x4b)
     148                      .dwattr $C$DW$22, DW_AT_decl_column(0x19)
     149                      .dwendtag $C$DW$22
     150              
     151              
     152              $C$DW$23        .dwtag  DW_TAG_subprogram
     153                      .dwattr $C$DW$23, DW_AT_name("motor2ControlISR")
     154                      .dwattr $C$DW$23, DW_AT_linkage_name("motor2ControlISR")
     155                      .dwattr $C$DW$23, DW_AT_declaration
     156                      .dwattr $C$DW$23, DW_AT_external
     157                      .dwattr $C$DW$23, DW_AT_decl_file("../sources/dual_axis_servo_drive_hal.c")
     158                      .dwattr $C$DW$23, DW_AT_decl_line(0x4c)
     159                      .dwattr $C$DW$23, DW_AT_decl_column(0x19)
     160                      .dwendtag $C$DW$23
     161              
     162              
     163              $C$DW$24        .dwtag  DW_TAG_subprogram
     164                      .dwattr $C$DW$24, DW_AT_name("CPUTimer_setEmulationMode")
     165                      .dwattr $C$DW$24, DW_AT_linkage_name("CPUTimer_setEmulationMode")
TMS320C2000 Assembler PC v22.6.2 Wed Dec 10 14:45:02 2025

Copyright (c) 1996-2018 Texas Instruments Incorporated
dual_axis_servo_drive_hal.asm                                        PAGE    4

     166                      .dwattr $C$DW$24, DW_AT_declaration
     167                      .dwattr $C$DW$24, DW_AT_external
     168                      .dwattr $C$DW$24, DW_AT_decl_file("C:/ti/C2000Ware_MotorControl_SDK_5_04_00_00/c2000ware/driverlib/f2
     169                      .dwattr $C$DW$24, DW_AT_decl_line(0x1e3)
     170                      .dwattr $C$DW$24, DW_AT_decl_column(0x0d)
     171              $C$DW$25        .dwtag  DW_TAG_formal_parameter
     172                      .dwattr $C$DW$25, DW_AT_type(*$C$DW$T$28)
     173              
     174              $C$DW$26        .dwtag  DW_TAG_formal_parameter
     175                      .dwattr $C$DW$26, DW_AT_type(*$C$DW$T$67)
     176              
     177                      .dwendtag $C$DW$24
     178              
     179              
     180              $C$DW$27        .dwtag  DW_TAG_subprogram
     181                      .dwattr $C$DW$27, DW_AT_name("GPIO_setPinConfig")
     182                      .dwattr $C$DW$27, DW_AT_linkage_name("GPIO_setPinConfig")
     183                      .dwattr $C$DW$27, DW_AT_declaration
     184                      .dwattr $C$DW$27, DW_AT_external
     185                      .dwattr $C$DW$27, DW_AT_decl_file("C:/ti/C2000Ware_MotorControl_SDK_5_04_00_00/c2000ware/driverlib/f2
     186                      .dwattr $C$DW$27, DW_AT_decl_line(0x420)
     187                      .dwattr $C$DW$27, DW_AT_decl_column(0x01)
     188              $C$DW$28        .dwtag  DW_TAG_formal_parameter
     189                      .dwattr $C$DW$28, DW_AT_type(*$C$DW$T$28)
     190              
     191                      .dwendtag $C$DW$27
     192              
     193              
     194              $C$DW$29        .dwtag  DW_TAG_subprogram
     195                      .dwattr $C$DW$29, DW_AT_name("GPIO_setDirectionMode")
     196                      .dwattr $C$DW$29, DW_AT_linkage_name("GPIO_setDirectionMode")
     197                      .dwattr $C$DW$29, DW_AT_declaration
     198                      .dwattr $C$DW$29, DW_AT_external
     199                      .dwattr $C$DW$29, DW_AT_decl_file("C:/ti/C2000Ware_MotorControl_SDK_5_04_00_00/c2000ware/driverlib/f2
     200                      .dwattr $C$DW$29, DW_AT_decl_line(0x356)
     201                      .dwattr $C$DW$29, DW_AT_decl_column(0x01)
     202              $C$DW$30        .dwtag  DW_TAG_formal_parameter
     203                      .dwattr $C$DW$30, DW_AT_type(*$C$DW$T$28)
     204              
     205              $C$DW$31        .dwtag  DW_TAG_formal_parameter
     206                      .dwattr $C$DW$31, DW_AT_type(*$C$DW$T$125)
     207              
     208                      .dwendtag $C$DW$29
     209              
     210              
     211              $C$DW$32        .dwtag  DW_TAG_subprogram
     212                      .dwattr $C$DW$32, DW_AT_name("GPIO_setPadConfig")
     213                      .dwattr $C$DW$32, DW_AT_linkage_name("GPIO_setPadConfig")
     214                      .dwattr $C$DW$32, DW_AT_declaration
     215                      .dwattr $C$DW$32, DW_AT_external
     216                      .dwattr $C$DW$32, DW_AT_decl_file("C:/ti/C2000Ware_MotorControl_SDK_5_04_00_00/c2000ware/driverlib/f2
     217                      .dwattr $C$DW$32, DW_AT_decl_line(0x39f)
     218                      .dwattr $C$DW$32, DW_AT_decl_column(0x01)
     219              $C$DW$33        .dwtag  DW_TAG_formal_parameter
     220                      .dwattr $C$DW$33, DW_AT_type(*$C$DW$T$28)
TMS320C2000 Assembler PC v22.6.2 Wed Dec 10 14:45:02 2025

Copyright (c) 1996-2018 Texas Instruments Incorporated
dual_axis_servo_drive_hal.asm                                        PAGE    5

     221              
     222              $C$DW$34        .dwtag  DW_TAG_formal_parameter
     223                      .dwattr $C$DW$34, DW_AT_type(*$C$DW$T$28)
     224              
     225                      .dwendtag $C$DW$32
     226              
     227              
     228              $C$DW$35        .dwtag  DW_TAG_subprogram
     229                      .dwattr $C$DW$35, DW_AT_name("GPIO_setQualificationMode")
     230                      .dwattr $C$DW$35, DW_AT_linkage_name("GPIO_setQualificationMode")
     231                      .dwattr $C$DW$35, DW_AT_declaration
     232                      .dwattr $C$DW$35, DW_AT_external
     233                      .dwattr $C$DW$35, DW_AT_decl_file("C:/ti/C2000Ware_MotorControl_SDK_5_04_00_00/c2000ware/driverlib/f2
     234                      .dwattr $C$DW$35, DW_AT_decl_line(0x3c6)
     235                      .dwattr $C$DW$35, DW_AT_decl_column(0x01)
     236              $C$DW$36        .dwtag  DW_TAG_formal_parameter
     237                      .dwattr $C$DW$36, DW_AT_type(*$C$DW$T$28)
     238              
     239              $C$DW$37        .dwtag  DW_TAG_formal_parameter
     240                      .dwattr $C$DW$37, DW_AT_type(*$C$DW$T$127)
     241              
     242                      .dwendtag $C$DW$35
     243              
     244              
     245              $C$DW$38        .dwtag  DW_TAG_subprogram
     246                      .dwattr $C$DW$38, DW_AT_name("GPIO_setQualificationPeriod")
     247                      .dwattr $C$DW$38, DW_AT_linkage_name("GPIO_setQualificationPeriod")
     248                      .dwattr $C$DW$38, DW_AT_declaration
     249                      .dwattr $C$DW$38, DW_AT_external
     250                      .dwattr $C$DW$38, DW_AT_decl_file("C:/ti/C2000Ware_MotorControl_SDK_5_04_00_00/c2000ware/driverlib/f2
     251                      .dwattr $C$DW$38, DW_AT_decl_line(0x3ed)
     252                      .dwattr $C$DW$38, DW_AT_decl_column(0x01)
     253              $C$DW$39        .dwtag  DW_TAG_formal_parameter
     254                      .dwattr $C$DW$39, DW_AT_type(*$C$DW$T$28)
     255              
     256              $C$DW$40        .dwtag  DW_TAG_formal_parameter
     257                      .dwattr $C$DW$40, DW_AT_type(*$C$DW$T$28)
     258              
     259                      .dwendtag $C$DW$38
     260              
     261              
     262              $C$DW$41        .dwtag  DW_TAG_subprogram
     263                      .dwattr $C$DW$41, DW_AT_name("XBAR_setEPWMMuxConfig")
     264                      .dwattr $C$DW$41, DW_AT_linkage_name("XBAR_setEPWMMuxConfig")
     265                      .dwattr $C$DW$41, DW_AT_declaration
     266                      .dwattr $C$DW$41, DW_AT_external
     267                      .dwattr $C$DW$41, DW_AT_decl_file("C:\ti\C2000Ware_MotorControl_SDK_5_04_00_00\c2000ware\driverlib\f2
     268                      .dwattr $C$DW$41, DW_AT_decl_line(0x4b3)
     269                      .dwattr $C$DW$41, DW_AT_decl_column(0x01)
     270              $C$DW$42        .dwtag  DW_TAG_formal_parameter
     271                      .dwattr $C$DW$42, DW_AT_type(*$C$DW$T$119)
     272              
     273              $C$DW$43        .dwtag  DW_TAG_formal_parameter
     274                      .dwattr $C$DW$43, DW_AT_type(*$C$DW$T$123)
     275              
TMS320C2000 Assembler PC v22.6.2 Wed Dec 10 14:45:02 2025

Copyright (c) 1996-2018 Texas Instruments Incorporated
dual_axis_servo_drive_hal.asm                                        PAGE    6

     276                      .dwendtag $C$DW$41
     277              
     278                      .global ||hlt||
     279 00000000               .data
     280                      .align  1
     281                      .elfsym ||hlt||,SYM_SIZE(1),SYM_BLOCKED(1)
     282 00000000       ||hlt||:
     283 00000000 7FFF          .bits           0x7fff,16
     284                                      ; hlt @ 0
     285              
     286              $C$DW$44        .dwtag  DW_TAG_variable
     287                      .dwattr $C$DW$44, DW_AT_name("hlt")
     288                      .dwattr $C$DW$44, DW_AT_linkage_name("hlt")
     289                      .dwattr $C$DW$44, DW_AT_location[DW_OP_addr ||hlt||]
     290                      .dwattr $C$DW$44, DW_AT_type(*$C$DW$T$172)
     291                      .dwattr $C$DW$44, DW_AT_external
     292                      .dwattr $C$DW$44, DW_AT_decl_file("../sources/dual_axis_servo_drive_hal.c")
     293                      .dwattr $C$DW$44, DW_AT_decl_line(0x3a)
     294                      .dwattr $C$DW$44, DW_AT_decl_column(0x0a)
     295              
     296                      .global ||llt||
     297 00000001               .data
     298                      .align  1
     299                      .elfsym ||llt||,SYM_SIZE(1),SYM_BLOCKED(1)
     300 00000001       ||llt||:
     301 00000001 0000          .bits           0,16
     302                                      ; llt @ 0
     303              
     304              $C$DW$45        .dwtag  DW_TAG_variable
     305                      .dwattr $C$DW$45, DW_AT_name("llt")
     306                      .dwattr $C$DW$45, DW_AT_linkage_name("llt")
     307                      .dwattr $C$DW$45, DW_AT_location[DW_OP_addr ||llt||]
     308                      .dwattr $C$DW$45, DW_AT_type(*$C$DW$T$172)
     309                      .dwattr $C$DW$45, DW_AT_external
     310                      .dwattr $C$DW$45, DW_AT_decl_file("../sources/dual_axis_servo_drive_hal.c")
     311                      .dwattr $C$DW$45, DW_AT_decl_line(0x3b)
     312                      .dwattr $C$DW$45, DW_AT_decl_column(0x0a)
     313              
     314              
     315              $C$DW$46        .dwtag  DW_TAG_subprogram
     316                      .dwattr $C$DW$46, DW_AT_name("__eallow")
     317                      .dwattr $C$DW$46, DW_AT_linkage_name("__eallow")
     318                      .dwattr $C$DW$46, DW_AT_declaration
     319                      .dwattr $C$DW$46, DW_AT_external
     320                      .dwendtag $C$DW$46
     321              
     322              
     323              $C$DW$47        .dwtag  DW_TAG_subprogram
     324                      .dwattr $C$DW$47, DW_AT_name("__edis")
     325                      .dwattr $C$DW$47, DW_AT_linkage_name("__edis")
     326                      .dwattr $C$DW$47, DW_AT_declaration
     327                      .dwattr $C$DW$47, DW_AT_external
     328                      .dwendtag $C$DW$47
     329              
     330              $C$DW$48        .dwtag  DW_TAG_variable
TMS320C2000 Assembler PC v22.6.2 Wed Dec 10 14:45:02 2025

Copyright (c) 1996-2018 Texas Instruments Incorporated
dual_axis_servo_drive_hal.asm                                        PAGE    7

     331                      .dwattr $C$DW$48, DW_AT_name("halMtr")
     332                      .dwattr $C$DW$48, DW_AT_linkage_name("halMtr")
     333                      .dwattr $C$DW$48, DW_AT_type(*$C$DW$T$139)
     334                      .dwattr $C$DW$48, DW_AT_declaration
     335                      .dwattr $C$DW$48, DW_AT_external
     336                      .dwattr $C$DW$48, DW_AT_decl_file("C:/ti/C2000Ware_MotorControl_SDK_5_04_00_00/solutions/boostxl_3phg
     337                      .dwattr $C$DW$48, DW_AT_decl_line(0xc8)
     338                      .dwattr $C$DW$48, DW_AT_decl_column(0x17)
     339              
     340                      .sblock ".data"
     341              ;       C:\ti\ccs2031\ccs\tools\compiler\ti-cgt-c2000_22.6.2.LTS\bin\opt2000.exe C:\\Users\\Teddy\\AppData\\L
     342              ;       C:\ti\ccs2031\ccs\tools\compiler\ti-cgt-c2000_22.6.2.LTS\bin\acia2000.exe -@C:\\Users\\Teddy\\AppData
     343 00000000               .sect   ".text:__signbitl"
     344                      .clink
     345                      .global ||__signbitl||
     346              
     347              $C$DW$49        .dwtag  DW_TAG_subprogram
     348                      .dwattr $C$DW$49, DW_AT_name("__signbitl")
     349                      .dwattr $C$DW$49, DW_AT_low_pc(||__signbitl||)
     350                      .dwattr $C$DW$49, DW_AT_high_pc(0x00)
     351                      .dwattr $C$DW$49, DW_AT_linkage_name("__signbitl")
     352                      .dwattr $C$DW$49, DW_AT_external
     353                      .dwattr $C$DW$49, DW_AT_type(*$C$DW$T$10)
     354                      .dwattr $C$DW$49, DW_AT_decl_file("C:/ti/ccs2031/ccs/tools/compiler/ti-cgt-c2000_22.6.2.LTS/include/_
     355                      .dwattr $C$DW$49, DW_AT_decl_line(0x16f)
     356                      .dwattr $C$DW$49, DW_AT_decl_column(0x18)
     357                      .dwattr $C$DW$49, DW_AT_TI_max_frame_size(-6)
     358                      .dwpsn  file "C:/ti/ccs2031/ccs/tools/compiler/ti-cgt-c2000_22.6.2.LTS/include/_defs.h",line 368,colu
     359              
     360                      .dwfde $C$DW$CIE, ||__signbitl||
     361              $C$DW$50        .dwtag  DW_TAG_formal_parameter
     362                      .dwattr $C$DW$50, DW_AT_name("e")
     363                      .dwattr $C$DW$50, DW_AT_type(*$C$DW$T$249)
     364                      .dwattr $C$DW$50, DW_AT_location[DW_OP_reg12]
     365              
     366              
     367              ;***************************************************************
     368              ;* FNAME: __signbitl                    FR SIZE:   4           *
     369              ;*                                                             *
     370              ;* FUNCTION ENVIRONMENT                                        *
     371              ;*                                                             *
     372              ;* FUNCTION PROPERTIES                                         *
     373              ;*                            4 Parameter,  0 Auto,  0 SOE     *
     374              ;***************************************************************
     375              
     376              ||__signbitl||:
     377              ;* AR4   assigned to e
     378              $C$DW$51        .dwtag  DW_TAG_variable
     379                      .dwattr $C$DW$51, DW_AT_name("e")
     380                      .dwattr $C$DW$51, DW_AT_type(*$C$DW$T$250)
     381                      .dwattr $C$DW$51, DW_AT_location[DW_OP_reg12]
     382              
     383                      .dwcfi  cfa_offset, -2
     384                      .dwcfi  save_reg_to_mem, 26, 0
     385 00000000 FE04          ADDB      SP,#4                 ; [CPU_ARAU] 
TMS320C2000 Assembler PC v22.6.2 Wed Dec 10 14:45:02 2025

Copyright (c) 1996-2018 Texas Instruments Incorporated
dual_axis_servo_drive_hal.asm                                        PAGE    8

     386                      .dwcfi  cfa_offset, -6
     387                      .dwpsn  file "C:/ti/ccs2031/ccs/tools/compiler/ti-cgt-c2000_22.6.2.LTS/include/_defs.h",line 368,colu
     388 00000001 0200          MOVB      ACC,#0                ; [CPU_ALU] |368| 
     389 00000002 1E44          MOVL      *-SP[4],ACC           ; [CPU_ALU] |368| 
     390 00000003 2B42          MOV       *-SP[2],#0            ; [CPU_ALU] |368| 
     391 00000004 2B41          MOV       *-SP[1],#0            ; [CPU_ALU] |368| 
     392 00000005 A3C4          MOVL      P,*+XAR4[0]           ; [CPU_ALU] |368| 
     393 00000006 06D4          MOVL      ACC,*+XAR4[2]         ; [CPU_ALU] |368| 
     394 00000007 18AB          AND       PL,#0                 ; [CPU_ALU] |368| 
         00000008 0000 
     395 00000009 18AA          AND       PH,#0                 ; [CPU_ALU] |368| 
         0000000a 0000 
     396 0000000b 9000          ANDB      AL,#0                 ; [CPU_ALU] |368| 
     397 0000000c 18A8          AND       AH,#32768             ; [CPU_ALU] |368| 
         0000000d 8000 
     398              $C$DW$52        .dwtag  DW_TAG_TI_branch
     399                      .dwattr $C$DW$52, DW_AT_low_pc(0x00)
     400                      .dwattr $C$DW$52, DW_AT_name("__c28xabi_cmpull")
     401                      .dwattr $C$DW$52, DW_AT_TI_call
     402              
     403 0000000e 7640!         LCR       #||__c28xabi_cmpull|| ; [CPU_ALU] |368| 
         0000000f 0000 
     404                      ; call occurs [#||__c28xabi_cmpull||] ; [] |368| 
     405 00000010 9B00          MOVB      AH,#0                 ; [CPU_ALU] |368| 
     406 00000011 5200          CMPB      AL,#0                 ; [CPU_ALU] |368| 
     407 00000012 56B0          MOVB      AH,#1,NEQ             ; [CPU_ALU] |368| 
         00000013 01A8 
     408 00000014 92A8          MOV       AL,AH                 ; [CPU_ALU] |368| 
     409 00000015 FE84          SUBB      SP,#4                 ; [CPU_ARAU] 
     410                      .dwcfi  cfa_offset, -2
     411              $C$DW$53        .dwtag  DW_TAG_TI_branch
     412                      .dwattr $C$DW$53, DW_AT_low_pc(0x00)
     413                      .dwattr $C$DW$53, DW_AT_TI_return
     414              
     415 00000016 0006          LRETR     ; [CPU_ALU] 
     416                      ; return occurs ; [] 
     417                      .dwattr $C$DW$49, DW_AT_TI_end_file("C:/ti/ccs2031/ccs/tools/compiler/ti-cgt-c2000_22.6.2.LTS/include
     418                      .dwattr $C$DW$49, DW_AT_TI_end_line(0x170)
     419                      .dwattr $C$DW$49, DW_AT_TI_end_column(0x2b)
     420                      .dwendentry
     421                      .dwendtag $C$DW$49
     422              
     423 00000000               .sect   ".text:__signbitf"
     424                      .clink
     425                      .global ||__signbitf||
     426              
     427              $C$DW$54        .dwtag  DW_TAG_subprogram
     428                      .dwattr $C$DW$54, DW_AT_name("__signbitf")
     429                      .dwattr $C$DW$54, DW_AT_low_pc(||__signbitf||)
     430                      .dwattr $C$DW$54, DW_AT_high_pc(0x00)
     431                      .dwattr $C$DW$54, DW_AT_linkage_name("__signbitf")
     432                      .dwattr $C$DW$54, DW_AT_external
     433                      .dwattr $C$DW$54, DW_AT_type(*$C$DW$T$10)
     434                      .dwattr $C$DW$54, DW_AT_decl_file("C:/ti/ccs2031/ccs/tools/compiler/ti-cgt-c2000_22.6.2.LTS/include/_
     435                      .dwattr $C$DW$54, DW_AT_decl_line(0x16d)
TMS320C2000 Assembler PC v22.6.2 Wed Dec 10 14:45:02 2025

Copyright (c) 1996-2018 Texas Instruments Incorporated
dual_axis_servo_drive_hal.asm                                        PAGE    9

     436                      .dwattr $C$DW$54, DW_AT_decl_column(0x18)
     437                      .dwattr $C$DW$54, DW_AT_TI_max_frame_size(-2)
     438                      .dwpsn  file "C:/ti/ccs2031/ccs/tools/compiler/ti-cgt-c2000_22.6.2.LTS/include/_defs.h",line 366,colu
     439              
     440                      .dwfde $C$DW$CIE, ||__signbitf||
     441              $C$DW$55        .dwtag  DW_TAG_formal_parameter
     442                      .dwattr $C$DW$55, DW_AT_name("f")
     443                      .dwattr $C$DW$55, DW_AT_type(*$C$DW$T$16)
     444                      .dwattr $C$DW$55, DW_AT_location[DW_OP_regx 0x2b]
     445              
     446              
     447              ;***************************************************************
     448              ;* FNAME: __signbitf                    FR SIZE:   0           *
     449              ;*                                                             *
     450              ;* FUNCTION ENVIRONMENT                                        *
     451              ;*                                                             *
     452              ;* FUNCTION PROPERTIES                                         *
     453              ;*                            0 Parameter,  0 Auto,  0 SOE     *
     454              ;***************************************************************
     455              
     456              ||__signbitf||:
     457              ;* R0    assigned to f
     458              $C$DW$56        .dwtag  DW_TAG_variable
     459                      .dwattr $C$DW$56, DW_AT_name("f")
     460                      .dwattr $C$DW$56, DW_AT_type(*$C$DW$T$245)
     461                      .dwattr $C$DW$56, DW_AT_location[DW_OP_regx 0x2b]
     462              
     463                      .dwcfi  cfa_offset, -2
     464                      .dwcfi  save_reg_to_mem, 26, 0
     465                      .dwpsn  file "C:/ti/ccs2031/ccs/tools/compiler/ti-cgt-c2000_22.6.2.LTS/include/_defs.h",line 366,colu
     466 00000000 BFA9          MOV32     ACC,R0H               ; [CPU_FPU] |366| 
         00000001 0F12 
     467 00000002 BE00          MOVB      XAR6,#0               ; [CPU_ALU] |366| 
     468 00000003 9000          ANDB      AL,#0                 ; [CPU_ALU] |366| 
     469 00000004 18A8          AND       AH,#32768             ; [CPU_ALU] |366| 
         00000005 8000 
     470 00000006 FF58          TEST      ACC                   ; [CPU_ALU] |366| 
     471 00000007 56B0          MOVB      XAR6,#1,NEQ           ; [CPU_ALU] |366| 
         00000008 01A6 
     472 00000009 92A6          MOV       AL,AR6                ; [CPU_ALU] |366| 
     473              $C$DW$57        .dwtag  DW_TAG_TI_branch
     474                      .dwattr $C$DW$57, DW_AT_low_pc(0x00)
     475                      .dwattr $C$DW$57, DW_AT_TI_return
     476              
     477 0000000a 0006          LRETR     ; [CPU_ALU] 
     478                      ; return occurs ; [] 
     479                      .dwattr $C$DW$54, DW_AT_TI_end_file("C:/ti/ccs2031/ccs/tools/compiler/ti-cgt-c2000_22.6.2.LTS/include
     480                      .dwattr $C$DW$54, DW_AT_TI_end_line(0x16e)
     481                      .dwattr $C$DW$54, DW_AT_TI_end_column(0x29)
     482                      .dwendentry
     483                      .dwendtag $C$DW$54
     484              
     485 00000000               .sect   ".text:__signbit"
     486                      .clink
     487                      .global ||__signbit||
TMS320C2000 Assembler PC v22.6.2 Wed Dec 10 14:45:02 2025

Copyright (c) 1996-2018 Texas Instruments Incorporated
dual_axis_servo_drive_hal.asm                                        PAGE   10

     488              
     489              $C$DW$58        .dwtag  DW_TAG_subprogram
     490                      .dwattr $C$DW$58, DW_AT_name("__signbit")
     491                      .dwattr $C$DW$58, DW_AT_low_pc(||__signbit||)
     492                      .dwattr $C$DW$58, DW_AT_high_pc(0x00)
     493                      .dwattr $C$DW$58, DW_AT_linkage_name("__signbit")
     494                      .dwattr $C$DW$58, DW_AT_external
     495                      .dwattr $C$DW$58, DW_AT_type(*$C$DW$T$10)
     496                      .dwattr $C$DW$58, DW_AT_decl_file("C:/ti/ccs2031/ccs/tools/compiler/ti-cgt-c2000_22.6.2.LTS/include/_
     497                      .dwattr $C$DW$58, DW_AT_decl_line(0x16b)
     498                      .dwattr $C$DW$58, DW_AT_decl_column(0x18)
     499                      .dwattr $C$DW$58, DW_AT_TI_max_frame_size(-6)
     500                      .dwpsn  file "C:/ti/ccs2031/ccs/tools/compiler/ti-cgt-c2000_22.6.2.LTS/include/_defs.h",line 364,colu
     501              
     502                      .dwfde $C$DW$CIE, ||__signbit||
     503              $C$DW$59        .dwtag  DW_TAG_formal_parameter
     504                      .dwattr $C$DW$59, DW_AT_name("d")
     505                      .dwattr $C$DW$59, DW_AT_type(*$C$DW$T$246)
     506                      .dwattr $C$DW$59, DW_AT_location[DW_OP_reg12]
     507              
     508              
     509              ;***************************************************************
     510              ;* FNAME: __signbit                     FR SIZE:   4           *
     511              ;*                                                             *
     512              ;* FUNCTION ENVIRONMENT                                        *
     513              ;*                                                             *
     514              ;* FUNCTION PROPERTIES                                         *
     515              ;*                            4 Parameter,  0 Auto,  0 SOE     *
     516              ;***************************************************************
     517              
     518              ||__signbit||:
     519              ;* AR4   assigned to d
     520              $C$DW$60        .dwtag  DW_TAG_variable
     521                      .dwattr $C$DW$60, DW_AT_name("d")
     522                      .dwattr $C$DW$60, DW_AT_type(*$C$DW$T$247)
     523                      .dwattr $C$DW$60, DW_AT_location[DW_OP_reg12]
     524              
     525                      .dwcfi  cfa_offset, -2
     526                      .dwcfi  save_reg_to_mem, 26, 0
     527 00000000 FE04          ADDB      SP,#4                 ; [CPU_ARAU] 
     528                      .dwcfi  cfa_offset, -6
     529                      .dwpsn  file "C:/ti/ccs2031/ccs/tools/compiler/ti-cgt-c2000_22.6.2.LTS/include/_defs.h",line 364,colu
     530 00000001 0200          MOVB      ACC,#0                ; [CPU_ALU] |364| 
     531 00000002 1E44          MOVL      *-SP[4],ACC           ; [CPU_ALU] |364| 
     532 00000003 2B42          MOV       *-SP[2],#0            ; [CPU_ALU] |364| 
     533 00000004 2B41          MOV       *-SP[1],#0            ; [CPU_ALU] |364| 
     534 00000005 A3C4          MOVL      P,*+XAR4[0]           ; [CPU_ALU] |364| 
     535 00000006 06D4          MOVL      ACC,*+XAR4[2]         ; [CPU_ALU] |364| 
     536 00000007 18AB          AND       PL,#0                 ; [CPU_ALU] |364| 
         00000008 0000 
     537 00000009 18AA          AND       PH,#0                 ; [CPU_ALU] |364| 
         0000000a 0000 
     538 0000000b 9000          ANDB      AL,#0                 ; [CPU_ALU] |364| 
     539 0000000c 18A8          AND       AH,#32768             ; [CPU_ALU] |364| 
         0000000d 8000 
TMS320C2000 Assembler PC v22.6.2 Wed Dec 10 14:45:02 2025

Copyright (c) 1996-2018 Texas Instruments Incorporated
dual_axis_servo_drive_hal.asm                                        PAGE   11

     540              $C$DW$61        .dwtag  DW_TAG_TI_branch
     541                      .dwattr $C$DW$61, DW_AT_low_pc(0x00)
     542                      .dwattr $C$DW$61, DW_AT_name("__c28xabi_cmpull")
     543                      .dwattr $C$DW$61, DW_AT_TI_call
     544              
     545 0000000e 7640!         LCR       #||__c28xabi_cmpull|| ; [CPU_ALU] |364| 
         0000000f 0000 
     546                      ; call occurs [#||__c28xabi_cmpull||] ; [] |364| 
     547 00000010 9B00          MOVB      AH,#0                 ; [CPU_ALU] |364| 
     548 00000011 5200          CMPB      AL,#0                 ; [CPU_ALU] |364| 
     549 00000012 56B0          MOVB      AH,#1,NEQ             ; [CPU_ALU] |364| 
         00000013 01A8 
     550 00000014 92A8          MOV       AL,AH                 ; [CPU_ALU] |364| 
     551 00000015 FE84          SUBB      SP,#4                 ; [CPU_ARAU] 
     552                      .dwcfi  cfa_offset, -2
     553              $C$DW$62        .dwtag  DW_TAG_TI_branch
     554                      .dwattr $C$DW$62, DW_AT_low_pc(0x00)
     555                      .dwattr $C$DW$62, DW_AT_TI_return
     556              
     557 00000016 0006          LRETR     ; [CPU_ALU] 
     558                      ; return occurs ; [] 
     559                      .dwattr $C$DW$58, DW_AT_TI_end_file("C:/ti/ccs2031/ccs/tools/compiler/ti-cgt-c2000_22.6.2.LTS/include
     560                      .dwattr $C$DW$58, DW_AT_TI_end_line(0x16c)
     561                      .dwattr $C$DW$58, DW_AT_TI_end_column(0x2a)
     562                      .dwendentry
     563                      .dwendtag $C$DW$58
     564              
     565 00000000               .sect   ".text:__relaxed_sqrtf"
     566                      .clink
     567                      .global ||__relaxed_sqrtf||
     568              
     569              $C$DW$63        .dwtag  DW_TAG_subprogram
     570                      .dwattr $C$DW$63, DW_AT_name("__relaxed_sqrtf")
     571                      .dwattr $C$DW$63, DW_AT_low_pc(||__relaxed_sqrtf||)
     572                      .dwattr $C$DW$63, DW_AT_high_pc(0x00)
     573                      .dwattr $C$DW$63, DW_AT_linkage_name("__relaxed_sqrtf")
     574                      .dwattr $C$DW$63, DW_AT_external
     575                      .dwattr $C$DW$63, DW_AT_type(*$C$DW$T$16)
     576                      .dwattr $C$DW$63, DW_AT_decl_file("C:/ti/ccs2031/ccs/tools/compiler/ti-cgt-c2000_22.6.2.LTS/include/m
     577                      .dwattr $C$DW$63, DW_AT_decl_line(0x103)
     578                      .dwattr $C$DW$63, DW_AT_decl_column(0x10)
     579                      .dwattr $C$DW$63, DW_AT_TI_max_frame_size(-2)
     580                      .dwpsn  file "C:/ti/ccs2031/ccs/tools/compiler/ti-cgt-c2000_22.6.2.LTS/include/math.h",line 260,colum
     581              
     582                      .dwfde $C$DW$CIE, ||__relaxed_sqrtf||
     583              $C$DW$64        .dwtag  DW_TAG_formal_parameter
     584                      .dwattr $C$DW$64, DW_AT_name("x")
     585                      .dwattr $C$DW$64, DW_AT_type(*$C$DW$T$16)
     586                      .dwattr $C$DW$64, DW_AT_location[DW_OP_regx 0x2b]
     587              
     588              
     589              ;***************************************************************
     590              ;* FNAME: __relaxed_sqrtf               FR SIZE:   0           *
     591              ;*                                                             *
     592              ;* FUNCTION ENVIRONMENT                                        *
TMS320C2000 Assembler PC v22.6.2 Wed Dec 10 14:45:02 2025

Copyright (c) 1996-2018 Texas Instruments Incorporated
dual_axis_servo_drive_hal.asm                                        PAGE   12

     593              ;*                                                             *
     594              ;* FUNCTION PROPERTIES                                         *
     595              ;*                            0 Parameter,  0 Auto,  0 SOE     *
     596              ;***************************************************************
     597              
     598              ||__relaxed_sqrtf||:
     599              ;* R0    assigned to x
     600              $C$DW$65        .dwtag  DW_TAG_variable
     601                      .dwattr $C$DW$65, DW_AT_name("x")
     602                      .dwattr $C$DW$65, DW_AT_type(*$C$DW$T$245)
     603                      .dwattr $C$DW$65, DW_AT_location[DW_OP_regx 0x2b]
     604              
     605                      .dwcfi  cfa_offset, -2
     606                      .dwcfi  save_reg_to_mem, 26, 0
     607                      .dwpsn  file "C:/ti/ccs2031/ccs/tools/compiler/ti-cgt-c2000_22.6.2.LTS/include/math.h",line 261,colum
     608 00000000 E277          SQRTF32   R0H,R0H               ; [CPU_FPU] |261| 
         00000001 0000 
     609 00000002 7700          NOP       ; [CPU_ALU] 
     610 00000003 7700          NOP       ; [CPU_ALU] 
     611 00000004 7700          NOP       ; [CPU_ALU] 
     612              $C$DW$66        .dwtag  DW_TAG_TI_branch
     613                      .dwattr $C$DW$66, DW_AT_low_pc(0x00)
     614                      .dwattr $C$DW$66, DW_AT_TI_return
     615              
     616 00000005 0006          LRETR     ; [CPU_ALU] 
     617                      ; return occurs ; [] 
     618                      .dwattr $C$DW$63, DW_AT_TI_end_file("C:/ti/ccs2031/ccs/tools/compiler/ti-cgt-c2000_22.6.2.LTS/include
     619                      .dwattr $C$DW$63, DW_AT_TI_end_line(0x106)
     620                      .dwattr $C$DW$63, DW_AT_TI_end_column(0x01)
     621                      .dwendentry
     622                      .dwendtag $C$DW$63
     623              
     624 00000000               .sect   ".text:__relaxed_sinf"
     625                      .clink
     626                      .global ||__relaxed_sinf||
     627              
     628              $C$DW$67        .dwtag  DW_TAG_subprogram
     629                      .dwattr $C$DW$67, DW_AT_name("__relaxed_sinf")
     630                      .dwattr $C$DW$67, DW_AT_low_pc(||__relaxed_sinf||)
     631                      .dwattr $C$DW$67, DW_AT_high_pc(0x00)
     632                      .dwattr $C$DW$67, DW_AT_linkage_name("__relaxed_sinf")
     633                      .dwattr $C$DW$67, DW_AT_external
     634                      .dwattr $C$DW$67, DW_AT_type(*$C$DW$T$16)
     635                      .dwattr $C$DW$67, DW_AT_decl_file("C:/ti/ccs2031/ccs/tools/compiler/ti-cgt-c2000_22.6.2.LTS/include/m
     636                      .dwattr $C$DW$67, DW_AT_decl_line(0x108)
     637                      .dwattr $C$DW$67, DW_AT_decl_column(0x10)
     638                      .dwattr $C$DW$67, DW_AT_TI_max_frame_size(-2)
     639                      .dwpsn  file "C:/ti/ccs2031/ccs/tools/compiler/ti-cgt-c2000_22.6.2.LTS/include/math.h",line 265,colum
     640              
     641                      .dwfde $C$DW$CIE, ||__relaxed_sinf||
     642              $C$DW$68        .dwtag  DW_TAG_formal_parameter
     643                      .dwattr $C$DW$68, DW_AT_name("x")
     644                      .dwattr $C$DW$68, DW_AT_type(*$C$DW$T$16)
     645                      .dwattr $C$DW$68, DW_AT_location[DW_OP_regx 0x2b]
     646              
TMS320C2000 Assembler PC v22.6.2 Wed Dec 10 14:45:02 2025

Copyright (c) 1996-2018 Texas Instruments Incorporated
dual_axis_servo_drive_hal.asm                                        PAGE   13

     647              
     648              ;***************************************************************
     649              ;* FNAME: __relaxed_sinf                FR SIZE:   0           *
     650              ;*                                                             *
     651              ;* FUNCTION ENVIRONMENT                                        *
     652              ;*                                                             *
     653              ;* FUNCTION PROPERTIES                                         *
     654              ;*                            0 Parameter,  0 Auto,  0 SOE     *
     655              ;***************************************************************
     656              
     657              ||__relaxed_sinf||:
     658              ;* R0    assigned to x
     659              $C$DW$69        .dwtag  DW_TAG_variable
     660                      .dwattr $C$DW$69, DW_AT_name("x")
     661                      .dwattr $C$DW$69, DW_AT_type(*$C$DW$T$245)
     662                      .dwattr $C$DW$69, DW_AT_location[DW_OP_regx 0x2b]
     663              
     664                      .dwcfi  cfa_offset, -2
     665                      .dwcfi  save_reg_to_mem, 26, 0
     666                      .dwpsn  file "C:/ti/ccs2031/ccs/tools/compiler/ti-cgt-c2000_22.6.2.LTS/include/math.h",line 266,colum
     667 00000000 E271          DIV2PIF32 R0H,R0H               ; [CPU_FPU] |266| 
         00000001 0000 
     668 00000002 7700          NOP       ; [CPU_ALU] 
     669 00000003 E278          SINPUF32  R0H,R0H               ; [CPU_FPU] |266| 
         00000004 0000 
     670 00000005 7700          NOP       ; [CPU_ALU] 
     671 00000006 7700          NOP       ; [CPU_ALU] 
     672              $C$DW$70        .dwtag  DW_TAG_TI_branch
     673                      .dwattr $C$DW$70, DW_AT_low_pc(0x00)
     674                      .dwattr $C$DW$70, DW_AT_TI_return
     675              
     676 00000007 0006          LRETR     ; [CPU_ALU] 
     677                      ; return occurs ; [] 
     678                      .dwattr $C$DW$67, DW_AT_TI_end_file("C:/ti/ccs2031/ccs/tools/compiler/ti-cgt-c2000_22.6.2.LTS/include
     679                      .dwattr $C$DW$67, DW_AT_TI_end_line(0x10b)
     680                      .dwattr $C$DW$67, DW_AT_TI_end_column(0x01)
     681                      .dwendentry
     682                      .dwendtag $C$DW$67
     683              
     684 00000000               .sect   ".text:__relaxed_powf"
     685                      .clink
     686                      .global ||__relaxed_powf||
     687              
     688              $C$DW$71        .dwtag  DW_TAG_subprogram
     689                      .dwattr $C$DW$71, DW_AT_name("__relaxed_powf")
     690                      .dwattr $C$DW$71, DW_AT_low_pc(||__relaxed_powf||)
     691                      .dwattr $C$DW$71, DW_AT_high_pc(0x00)
     692                      .dwattr $C$DW$71, DW_AT_linkage_name("__relaxed_powf")
     693                      .dwattr $C$DW$71, DW_AT_external
     694                      .dwattr $C$DW$71, DW_AT_type(*$C$DW$T$16)
     695                      .dwattr $C$DW$71, DW_AT_decl_file("C:/ti/ccs2031/ccs/tools/compiler/ti-cgt-c2000_22.6.2.LTS/include/m
     696                      .dwattr $C$DW$71, DW_AT_decl_line(0x13b)
     697                      .dwattr $C$DW$71, DW_AT_decl_column(0x10)
     698                      .dwattr $C$DW$71, DW_AT_TI_max_frame_size(-4)
     699                      .dwpsn  file "C:/ti/ccs2031/ccs/tools/compiler/ti-cgt-c2000_22.6.2.LTS/include/math.h",line 316,colum
TMS320C2000 Assembler PC v22.6.2 Wed Dec 10 14:45:02 2025

Copyright (c) 1996-2018 Texas Instruments Incorporated
dual_axis_servo_drive_hal.asm                                        PAGE   14

     700              
     701                      .dwfde $C$DW$CIE, ||__relaxed_powf||
     702              $C$DW$72        .dwtag  DW_TAG_formal_parameter
     703                      .dwattr $C$DW$72, DW_AT_name("x")
     704                      .dwattr $C$DW$72, DW_AT_type(*$C$DW$T$16)
     705                      .dwattr $C$DW$72, DW_AT_location[DW_OP_regx 0x2b]
     706              
     707              $C$DW$73        .dwtag  DW_TAG_formal_parameter
     708                      .dwattr $C$DW$73, DW_AT_name("y")
     709                      .dwattr $C$DW$73, DW_AT_type(*$C$DW$T$16)
     710                      .dwattr $C$DW$73, DW_AT_location[DW_OP_regx 0x2f]
     711              
     712              
     713              ;***************************************************************
     714              ;* FNAME: __relaxed_powf                FR SIZE:   2           *
     715              ;*                                                             *
     716              ;* FUNCTION ENVIRONMENT                                        *
     717              ;*                                                             *
     718              ;* FUNCTION PROPERTIES                                         *
     719              ;*                            2 Parameter,  0 Auto,  0 SOE     *
     720              ;***************************************************************
     721              
     722              ||__relaxed_powf||:
     723              ;* R1    assigned to $O$C2
     724              ;* R0    assigned to $O$K4
     725              ;* R0    assigned to $O$R1
     726              ;* R0    assigned to x
     727              $C$DW$74        .dwtag  DW_TAG_variable
     728                      .dwattr $C$DW$74, DW_AT_name("x")
     729                      .dwattr $C$DW$74, DW_AT_type(*$C$DW$T$245)
     730                      .dwattr $C$DW$74, DW_AT_location[DW_OP_regx 0x2b]
     731              
     732              ;* R1    assigned to y
     733              $C$DW$75        .dwtag  DW_TAG_variable
     734                      .dwattr $C$DW$75, DW_AT_name("y")
     735                      .dwattr $C$DW$75, DW_AT_type(*$C$DW$T$245)
     736                      .dwattr $C$DW$75, DW_AT_location[DW_OP_regx 0x2f]
     737              
     738              ;* R0    assigned to iexp2f
     739              $C$DW$76        .dwtag  DW_TAG_variable
     740                      .dwattr $C$DW$76, DW_AT_name("iexp2f")
     741                      .dwattr $C$DW$76, DW_AT_type(*$C$DW$T$16)
     742                      .dwattr $C$DW$76, DW_AT_location[DW_OP_regx 0x2b]
     743              
     744                      .dwcfi  cfa_offset, -2
     745                      .dwcfi  save_reg_to_mem, 26, 0
     746 00000000 FE02          ADDB      SP,#2                 ; [CPU_ARAU] 
     747                      .dwcfi  cfa_offset, -4
     748                      .dwpsn  file "C:/ti/ccs2031/ccs/tools/compiler/ti-cgt-c2000_22.6.2.LTS/include/math.h",line 298,colum
     749 00000001 E272          LOG2F32   R0H,R0H               ; [CPU_FPU] |298| 
         00000002 0000 
     750 00000003 7700          NOP       ; [CPU_ALU] 
     751 00000004 7700          NOP       ; [CPU_ALU] 
     752 00000005 7700          NOP       ; [CPU_ALU] 
     753 00000006 E700          MPYF32    R1H,R1H,R0H           ; [CPU_FPU] |298| 
TMS320C2000 Assembler PC v22.6.2 Wed Dec 10 14:45:02 2025

Copyright (c) 1996-2018 Texas Instruments Incorporated
dual_axis_servo_drive_hal.asm                                        PAGE   15

         00000007 0009 
     754 00000008 7700          NOP       ; [CPU_ALU] 
     755                      .dwpsn  file "C:/ti/ccs2031/ccs/tools/compiler/ti-cgt-c2000_22.6.2.LTS/include/math.h",line 299,colum
     756 00000009 E5A1          CMPF32    R1H,#0                ; [CPU_FPU] |299| 
     757 0000000a AD14          MOVST0    ZF, NF                ; [CPU_FPU] |299| 
     758                      .dwpsn  file "C:/ti/ccs2031/ccs/tools/compiler/ti-cgt-c2000_22.6.2.LTS/include/math.h",line 298,colum
     759 0000000b E273          IEXP2F32  R0H,R1H               ; [CPU_FPU] |298| 
         0000000c 0008 
     760                      .dwpsn  file "C:/ti/ccs2031/ccs/tools/compiler/ti-cgt-c2000_22.6.2.LTS/include/math.h",line 299,colum
     761 0000000d 6507          B         ||$C$L1||,LEQ         ; [CPU_ALU] |299| 
     762                      ; branchcc occurs ; [] |299| 
     763 0000000e E801          MOVIZ     R1H,#16256            ; [CPU_FPU] |299| 
         0000000f FC01 
     764 00000010 E274          DIVF32    R0H,R1H,R0H           ; [CPU_FPU] |299| 
         00000011 0008 
     765 00000012 7700          NOP       ; [CPU_ALU] 
     766 00000013 7700          NOP       ; [CPU_ALU] 
     767 00000014       ||$C$L1||:    
     768 00000014 FE82          SUBB      SP,#2                 ; [CPU_ARAU] 
     769                      .dwcfi  cfa_offset, -2
     770              $C$DW$77        .dwtag  DW_TAG_TI_branch
     771                      .dwattr $C$DW$77, DW_AT_low_pc(0x00)
     772                      .dwattr $C$DW$77, DW_AT_TI_return
     773              
     774 00000015 0006          LRETR     ; [CPU_ALU] 
     775                      ; return occurs ; [] 
     776                      .dwattr $C$DW$71, DW_AT_TI_end_file("C:/ti/ccs2031/ccs/tools/compiler/ti-cgt-c2000_22.6.2.LTS/include
     777                      .dwattr $C$DW$71, DW_AT_TI_end_line(0x141)
     778                      .dwattr $C$DW$71, DW_AT_TI_end_column(0x01)
     779                      .dwendentry
     780                      .dwendtag $C$DW$71
     781              
     782 00000000               .sect   ".text:__relaxed_logf"
     783                      .clink
     784                      .global ||__relaxed_logf||
     785              
     786              $C$DW$78        .dwtag  DW_TAG_subprogram
     787                      .dwattr $C$DW$78, DW_AT_name("__relaxed_logf")
     788                      .dwattr $C$DW$78, DW_AT_low_pc(||__relaxed_logf||)
     789                      .dwattr $C$DW$78, DW_AT_high_pc(0x00)
     790                      .dwattr $C$DW$78, DW_AT_linkage_name("__relaxed_logf")
     791                      .dwattr $C$DW$78, DW_AT_external
     792                      .dwattr $C$DW$78, DW_AT_type(*$C$DW$T$16)
     793                      .dwattr $C$DW$78, DW_AT_decl_file("C:/ti/ccs2031/ccs/tools/compiler/ti-cgt-c2000_22.6.2.LTS/include/m
     794                      .dwattr $C$DW$78, DW_AT_decl_line(0x135)
     795                      .dwattr $C$DW$78, DW_AT_decl_column(0x10)
     796                      .dwattr $C$DW$78, DW_AT_TI_max_frame_size(-2)
     797                      .dwpsn  file "C:/ti/ccs2031/ccs/tools/compiler/ti-cgt-c2000_22.6.2.LTS/include/math.h",line 310,colum
     798              
     799                      .dwfde $C$DW$CIE, ||__relaxed_logf||
     800              $C$DW$79        .dwtag  DW_TAG_formal_parameter
     801                      .dwattr $C$DW$79, DW_AT_name("x")
     802                      .dwattr $C$DW$79, DW_AT_type(*$C$DW$T$16)
     803                      .dwattr $C$DW$79, DW_AT_location[DW_OP_regx 0x2b]
     804              
TMS320C2000 Assembler PC v22.6.2 Wed Dec 10 14:45:02 2025

Copyright (c) 1996-2018 Texas Instruments Incorporated
dual_axis_servo_drive_hal.asm                                        PAGE   16

     805              
     806              ;***************************************************************
     807              ;* FNAME: __relaxed_logf                FR SIZE:   0           *
     808              ;*                                                             *
     809              ;* FUNCTION ENVIRONMENT                                        *
     810              ;*                                                             *
     811              ;* FUNCTION PROPERTIES                                         *
     812              ;*                            0 Parameter,  0 Auto,  0 SOE     *
     813              ;***************************************************************
     814              
     815              ||__relaxed_logf||:
     816              ;* R0    assigned to x
     817              $C$DW$80        .dwtag  DW_TAG_variable
     818                      .dwattr $C$DW$80, DW_AT_name("x")
     819                      .dwattr $C$DW$80, DW_AT_type(*$C$DW$T$245)
     820                      .dwattr $C$DW$80, DW_AT_location[DW_OP_regx 0x2b]
     821              
     822                      .dwcfi  cfa_offset, -2
     823                      .dwcfi  save_reg_to_mem, 26, 0
     824                      .dwpsn  file "C:/ti/ccs2031/ccs/tools/compiler/ti-cgt-c2000_22.6.2.LTS/include/math.h",line 312,colum
     825 00000000 E272          LOG2F32   R1H,R0H               ; [CPU_FPU] |312| 
         00000001 0001 
     826 00000002 7700          NOP       ; [CPU_ALU] 
     827 00000003 E801          MOVIZ     R0H,#16177            ; [CPU_FPU] |312| 
         00000004 F988 
     828 00000005 E80B          MOVXI     R0H,#29205            ; [CPU_FPU] |312| 
         00000006 90A8 
     829 00000007 E700          MPYF32    R0H,R0H,R1H           ; [CPU_FPU] |312| 
         00000008 0040 
     830              $C$DW$81        .dwtag  DW_TAG_TI_branch
     831                      .dwattr $C$DW$81, DW_AT_low_pc(0x00)
     832                      .dwattr $C$DW$81, DW_AT_TI_return
     833              
     834 00000009 0006          LRETR     ; [CPU_ALU] 
     835                      ; return occurs ; [] 
     836                      .dwattr $C$DW$78, DW_AT_TI_end_file("C:/ti/ccs2031/ccs/tools/compiler/ti-cgt-c2000_22.6.2.LTS/include
     837                      .dwattr $C$DW$78, DW_AT_TI_end_line(0x139)
     838                      .dwattr $C$DW$78, DW_AT_TI_end_column(0x01)
     839                      .dwendentry
     840                      .dwendtag $C$DW$78
     841              
     842 00000000               .sect   ".text:__relaxed_log2f"
     843                      .clink
     844                      .global ||__relaxed_log2f||
     845              
     846              $C$DW$82        .dwtag  DW_TAG_subprogram
     847                      .dwattr $C$DW$82, DW_AT_name("__relaxed_log2f")
     848                      .dwattr $C$DW$82, DW_AT_low_pc(||__relaxed_log2f||)
     849                      .dwattr $C$DW$82, DW_AT_high_pc(0x00)
     850                      .dwattr $C$DW$82, DW_AT_linkage_name("__relaxed_log2f")
     851                      .dwattr $C$DW$82, DW_AT_external
     852                      .dwattr $C$DW$82, DW_AT_type(*$C$DW$T$16)
     853                      .dwattr $C$DW$82, DW_AT_decl_file("C:/ti/ccs2031/ccs/tools/compiler/ti-cgt-c2000_22.6.2.LTS/include/m
     854                      .dwattr $C$DW$82, DW_AT_decl_line(0x123)
     855                      .dwattr $C$DW$82, DW_AT_decl_column(0x10)
TMS320C2000 Assembler PC v22.6.2 Wed Dec 10 14:45:02 2025

Copyright (c) 1996-2018 Texas Instruments Incorporated
dual_axis_servo_drive_hal.asm                                        PAGE   17

     856                      .dwattr $C$DW$82, DW_AT_TI_max_frame_size(-2)
     857                      .dwpsn  file "C:/ti/ccs2031/ccs/tools/compiler/ti-cgt-c2000_22.6.2.LTS/include/math.h",line 292,colum
     858              
     859                      .dwfde $C$DW$CIE, ||__relaxed_log2f||
     860              $C$DW$83        .dwtag  DW_TAG_formal_parameter
     861                      .dwattr $C$DW$83, DW_AT_name("x")
     862                      .dwattr $C$DW$83, DW_AT_type(*$C$DW$T$16)
     863                      .dwattr $C$DW$83, DW_AT_location[DW_OP_regx 0x2b]
     864              
     865              
     866              ;***************************************************************
     867              ;* FNAME: __relaxed_log2f               FR SIZE:   0           *
     868              ;*                                                             *
     869              ;* FUNCTION ENVIRONMENT                                        *
     870              ;*                                                             *
     871              ;* FUNCTION PROPERTIES                                         *
     872              ;*                            0 Parameter,  0 Auto,  0 SOE     *
     873              ;***************************************************************
     874              
     875              ||__relaxed_log2f||:
     876              ;* R0    assigned to x
     877              $C$DW$84        .dwtag  DW_TAG_variable
     878                      .dwattr $C$DW$84, DW_AT_name("x")
     879                      .dwattr $C$DW$84, DW_AT_type(*$C$DW$T$245)
     880                      .dwattr $C$DW$84, DW_AT_location[DW_OP_regx 0x2b]
     881              
     882                      .dwcfi  cfa_offset, -2
     883                      .dwcfi  save_reg_to_mem, 26, 0
     884                      .dwpsn  file "C:/ti/ccs2031/ccs/tools/compiler/ti-cgt-c2000_22.6.2.LTS/include/math.h",line 293,colum
     885 00000000 E272          LOG2F32   R0H,R0H               ; [CPU_FPU] |293| 
         00000001 0000 
     886 00000002 7700          NOP       ; [CPU_ALU] 
     887 00000003 7700          NOP       ; [CPU_ALU] 
     888              $C$DW$85        .dwtag  DW_TAG_TI_branch
     889                      .dwattr $C$DW$85, DW_AT_low_pc(0x00)
     890                      .dwattr $C$DW$85, DW_AT_TI_return
     891              
     892 00000004 0006          LRETR     ; [CPU_ALU] 
     893                      ; return occurs ; [] 
     894                      .dwattr $C$DW$82, DW_AT_TI_end_file("C:/ti/ccs2031/ccs/tools/compiler/ti-cgt-c2000_22.6.2.LTS/include
     895                      .dwattr $C$DW$82, DW_AT_TI_end_line(0x126)
     896                      .dwattr $C$DW$82, DW_AT_TI_end_column(0x01)
     897                      .dwendentry
     898                      .dwendtag $C$DW$82
     899              
     900 00000000               .sect   ".text:__relaxed_fmodf"
     901                      .clink
     902                      .global ||__relaxed_fmodf||
     903              
     904              $C$DW$86        .dwtag  DW_TAG_subprogram
     905                      .dwattr $C$DW$86, DW_AT_name("__relaxed_fmodf")
     906                      .dwattr $C$DW$86, DW_AT_low_pc(||__relaxed_fmodf||)
     907                      .dwattr $C$DW$86, DW_AT_high_pc(0x00)
     908                      .dwattr $C$DW$86, DW_AT_linkage_name("__relaxed_fmodf")
     909                      .dwattr $C$DW$86, DW_AT_external
TMS320C2000 Assembler PC v22.6.2 Wed Dec 10 14:45:02 2025

Copyright (c) 1996-2018 Texas Instruments Incorporated
dual_axis_servo_drive_hal.asm                                        PAGE   18

     910                      .dwattr $C$DW$86, DW_AT_type(*$C$DW$T$16)
     911                      .dwattr $C$DW$86, DW_AT_decl_file("C:/ti/ccs2031/ccs/tools/compiler/ti-cgt-c2000_22.6.2.LTS/include/m
     912                      .dwattr $C$DW$86, DW_AT_decl_line(0x11c)
     913                      .dwattr $C$DW$86, DW_AT_decl_column(0x10)
     914                      .dwattr $C$DW$86, DW_AT_TI_max_frame_size(-2)
     915                      .dwpsn  file "C:/ti/ccs2031/ccs/tools/compiler/ti-cgt-c2000_22.6.2.LTS/include/math.h",line 285,colum
     916              
     917                      .dwfde $C$DW$CIE, ||__relaxed_fmodf||
     918              $C$DW$87        .dwtag  DW_TAG_formal_parameter
     919                      .dwattr $C$DW$87, DW_AT_name("y")
     920                      .dwattr $C$DW$87, DW_AT_type(*$C$DW$T$16)
     921                      .dwattr $C$DW$87, DW_AT_location[DW_OP_regx 0x2b]
     922              
     923              $C$DW$88        .dwtag  DW_TAG_formal_parameter
     924                      .dwattr $C$DW$88, DW_AT_name("x")
     925                      .dwattr $C$DW$88, DW_AT_type(*$C$DW$T$16)
     926                      .dwattr $C$DW$88, DW_AT_location[DW_OP_regx 0x2f]
     927              
     928              
     929              ;***************************************************************
     930              ;* FNAME: __relaxed_fmodf               FR SIZE:   0           *
     931              ;*                                                             *
     932              ;* FUNCTION ENVIRONMENT                                        *
     933              ;*                                                             *
     934              ;* FUNCTION PROPERTIES                                         *
     935              ;*                            0 Parameter,  0 Auto,  0 SOE     *
     936              ;***************************************************************
     937              
     938              ||__relaxed_fmodf||:
     939              ;* R0    assigned to y
     940              $C$DW$89        .dwtag  DW_TAG_variable
     941                      .dwattr $C$DW$89, DW_AT_name("y")
     942                      .dwattr $C$DW$89, DW_AT_type(*$C$DW$T$245)
     943                      .dwattr $C$DW$89, DW_AT_location[DW_OP_regx 0x2b]
     944              
     945              ;* R1    assigned to x
     946              $C$DW$90        .dwtag  DW_TAG_variable
     947                      .dwattr $C$DW$90, DW_AT_name("x")
     948                      .dwattr $C$DW$90, DW_AT_type(*$C$DW$T$245)
     949                      .dwattr $C$DW$90, DW_AT_location[DW_OP_regx 0x2f]
     950              
     951                      .dwcfi  cfa_offset, -2
     952                      .dwcfi  save_reg_to_mem, 26, 0
     953                      .dwpsn  file "C:/ti/ccs2031/ccs/tools/compiler/ti-cgt-c2000_22.6.2.LTS/include/math.h",line 286,colum
     954 00000000 E274          DIVF32    R2H,R0H,R1H           ; [CPU_FPU] |286| 
         00000001 0042 
     955 00000002 7700          NOP       ; [CPU_ALU] 
     956 00000003 7700          NOP       ; [CPU_ALU] 
     957 00000004 7700          NOP       ; [CPU_ALU] 
     958 00000005 7700          NOP       ; [CPU_ALU] 
     959 00000006 E688          F32TOI32  R2H,R2H               ; [CPU_FPU] |286| 
         00000007 0012 
     960 00000008 7700          NOP       ; [CPU_ALU] 
     961 00000009 E689          I32TOF32  R2H,R2H               ; [CPU_FPU] |286| 
         0000000a 0012 
TMS320C2000 Assembler PC v22.6.2 Wed Dec 10 14:45:02 2025

Copyright (c) 1996-2018 Texas Instruments Incorporated
dual_axis_servo_drive_hal.asm                                        PAGE   19

     962 0000000b 7700          NOP       ; [CPU_ALU] 
     963 0000000c E700          MPYF32    R1H,R1H,R2H           ; [CPU_FPU] |286| 
         0000000d 0089 
     964 0000000e 7700          NOP       ; [CPU_ALU] 
     965 0000000f E720          SUBF32    R0H,R0H,R1H           ; [CPU_FPU] |286| 
         00000010 0040 
     966              $C$DW$91        .dwtag  DW_TAG_TI_branch
     967                      .dwattr $C$DW$91, DW_AT_low_pc(0x00)
     968                      .dwattr $C$DW$91, DW_AT_TI_return
     969              
     970 00000011 0006          LRETR     ; [CPU_ALU] 
     971                      ; return occurs ; [] 
     972                      .dwattr $C$DW$86, DW_AT_TI_end_file("C:/ti/ccs2031/ccs/tools/compiler/ti-cgt-c2000_22.6.2.LTS/include
     973                      .dwattr $C$DW$86, DW_AT_TI_end_line(0x11f)
     974                      .dwattr $C$DW$86, DW_AT_TI_end_column(0x01)
     975                      .dwendentry
     976                      .dwendtag $C$DW$86
     977              
     978 00000000               .sect   ".text:__relaxed_fminf"
     979                      .clink
     980                      .global ||__relaxed_fminf||
     981              
     982              $C$DW$92        .dwtag  DW_TAG_subprogram
     983                      .dwattr $C$DW$92, DW_AT_name("__relaxed_fminf")
     984                      .dwattr $C$DW$92, DW_AT_low_pc(||__relaxed_fminf||)
     985                      .dwattr $C$DW$92, DW_AT_high_pc(0x00)
     986                      .dwattr $C$DW$92, DW_AT_linkage_name("__relaxed_fminf")
     987                      .dwattr $C$DW$92, DW_AT_external
     988                      .dwattr $C$DW$92, DW_AT_type(*$C$DW$T$16)
     989                      .dwattr $C$DW$92, DW_AT_decl_file("C:/ti/ccs2031/ccs/tools/compiler/ti-cgt-c2000_22.6.2.LTS/include/m
     990                      .dwattr $C$DW$92, DW_AT_decl_line(0xee)
     991                      .dwattr $C$DW$92, DW_AT_decl_column(0x10)
     992                      .dwattr $C$DW$92, DW_AT_TI_max_frame_size(-2)
     993                      .dwpsn  file "C:/ti/ccs2031/ccs/tools/compiler/ti-cgt-c2000_22.6.2.LTS/include/math.h",line 239,colum
     994              
     995                      .dwfde $C$DW$CIE, ||__relaxed_fminf||
     996              $C$DW$93        .dwtag  DW_TAG_formal_parameter
     997                      .dwattr $C$DW$93, DW_AT_name("x")
     998                      .dwattr $C$DW$93, DW_AT_type(*$C$DW$T$16)
     999                      .dwattr $C$DW$93, DW_AT_location[DW_OP_regx 0x2b]
    1000              
    1001              $C$DW$94        .dwtag  DW_TAG_formal_parameter
    1002                      .dwattr $C$DW$94, DW_AT_name("y")
    1003                      .dwattr $C$DW$94, DW_AT_type(*$C$DW$T$16)
    1004                      .dwattr $C$DW$94, DW_AT_location[DW_OP_regx 0x2f]
    1005              
    1006              
    1007              ;***************************************************************
    1008              ;* FNAME: __relaxed_fminf               FR SIZE:   0           *
    1009              ;*                                                             *
    1010              ;* FUNCTION ENVIRONMENT                                        *
    1011              ;*                                                             *
    1012              ;* FUNCTION PROPERTIES                                         *
    1013              ;*                            0 Parameter,  0 Auto,  0 SOE     *
    1014              ;***************************************************************
TMS320C2000 Assembler PC v22.6.2 Wed Dec 10 14:45:02 2025

Copyright (c) 1996-2018 Texas Instruments Incorporated
dual_axis_servo_drive_hal.asm                                        PAGE   20

    1015              
    1016              ||__relaxed_fminf||:
    1017              ;* R1    assigned to y
    1018              $C$DW$95        .dwtag  DW_TAG_variable
    1019                      .dwattr $C$DW$95, DW_AT_name("y")
    1020                      .dwattr $C$DW$95, DW_AT_type(*$C$DW$T$245)
    1021                      .dwattr $C$DW$95, DW_AT_location[DW_OP_regx 0x2f]
    1022              
    1023                      .dwcfi  cfa_offset, -2
    1024                      .dwcfi  save_reg_to_mem, 26, 0
    1025                      .dwpsn  file "C:/ti/ccs2031/ccs/tools/compiler/ti-cgt-c2000_22.6.2.LTS/include/math.h",line 240,colum
    1026 00000000 E697          MINF32    R0H,R1H               ; [CPU_FPU] |240| 
         00000001 0008 
    1027              $C$DW$96        .dwtag  DW_TAG_TI_branch
    1028                      .dwattr $C$DW$96, DW_AT_low_pc(0x00)
    1029                      .dwattr $C$DW$96, DW_AT_TI_return
    1030              
    1031 00000002 0006          LRETR     ; [CPU_ALU] 
    1032                      ; return occurs ; [] 
    1033                      .dwattr $C$DW$92, DW_AT_TI_end_file("C:/ti/ccs2031/ccs/tools/compiler/ti-cgt-c2000_22.6.2.LTS/include
    1034                      .dwattr $C$DW$92, DW_AT_TI_end_line(0xf1)
    1035                      .dwattr $C$DW$92, DW_AT_TI_end_column(0x01)
    1036                      .dwendentry
    1037                      .dwendtag $C$DW$92
    1038              
    1039 00000000               .sect   ".text:__relaxed_fmaxf"
    1040                      .clink
    1041                      .global ||__relaxed_fmaxf||
    1042              
    1043              $C$DW$97        .dwtag  DW_TAG_subprogram
    1044                      .dwattr $C$DW$97, DW_AT_name("__relaxed_fmaxf")
    1045                      .dwattr $C$DW$97, DW_AT_low_pc(||__relaxed_fmaxf||)
    1046                      .dwattr $C$DW$97, DW_AT_high_pc(0x00)
    1047                      .dwattr $C$DW$97, DW_AT_linkage_name("__relaxed_fmaxf")
    1048                      .dwattr $C$DW$97, DW_AT_external
    1049                      .dwattr $C$DW$97, DW_AT_type(*$C$DW$T$16)
    1050                      .dwattr $C$DW$97, DW_AT_decl_file("C:/ti/ccs2031/ccs/tools/compiler/ti-cgt-c2000_22.6.2.LTS/include/m
    1051                      .dwattr $C$DW$97, DW_AT_decl_line(0xe8)
    1052                      .dwattr $C$DW$97, DW_AT_decl_column(0x10)
    1053                      .dwattr $C$DW$97, DW_AT_TI_max_frame_size(-2)
    1054                      .dwpsn  file "C:/ti/ccs2031/ccs/tools/compiler/ti-cgt-c2000_22.6.2.LTS/include/math.h",line 233,colum
    1055              
    1056                      .dwfde $C$DW$CIE, ||__relaxed_fmaxf||
    1057              $C$DW$98        .dwtag  DW_TAG_formal_parameter
    1058                      .dwattr $C$DW$98, DW_AT_name("x")
    1059                      .dwattr $C$DW$98, DW_AT_type(*$C$DW$T$16)
    1060                      .dwattr $C$DW$98, DW_AT_location[DW_OP_regx 0x2b]
    1061              
    1062              $C$DW$99        .dwtag  DW_TAG_formal_parameter
    1063                      .dwattr $C$DW$99, DW_AT_name("y")
    1064                      .dwattr $C$DW$99, DW_AT_type(*$C$DW$T$16)
    1065                      .dwattr $C$DW$99, DW_AT_location[DW_OP_regx 0x2f]
    1066              
    1067              
    1068              ;***************************************************************
TMS320C2000 Assembler PC v22.6.2 Wed Dec 10 14:45:02 2025

Copyright (c) 1996-2018 Texas Instruments Incorporated
dual_axis_servo_drive_hal.asm                                        PAGE   21

    1069              ;* FNAME: __relaxed_fmaxf               FR SIZE:   0           *
    1070              ;*                                                             *
    1071              ;* FUNCTION ENVIRONMENT                                        *
    1072              ;*                                                             *
    1073              ;* FUNCTION PROPERTIES                                         *
    1074              ;*                            0 Parameter,  0 Auto,  0 SOE     *
    1075              ;***************************************************************
    1076              
    1077              ||__relaxed_fmaxf||:
    1078              ;* R1    assigned to y
    1079              $C$DW$100       .dwtag  DW_TAG_variable
    1080                      .dwattr $C$DW$100, DW_AT_name("y")
    1081                      .dwattr $C$DW$100, DW_AT_type(*$C$DW$T$245)
    1082                      .dwattr $C$DW$100, DW_AT_location[DW_OP_regx 0x2f]
    1083              
    1084                      .dwcfi  cfa_offset, -2
    1085                      .dwcfi  save_reg_to_mem, 26, 0
    1086                      .dwpsn  file "C:/ti/ccs2031/ccs/tools/compiler/ti-cgt-c2000_22.6.2.LTS/include/math.h",line 234,colum
    1087 00000000 E696          MAXF32    R0H,R1H               ; [CPU_FPU] |234| 
         00000001 0008 
    1088              $C$DW$101       .dwtag  DW_TAG_TI_branch
    1089                      .dwattr $C$DW$101, DW_AT_low_pc(0x00)
    1090                      .dwattr $C$DW$101, DW_AT_TI_return
    1091              
    1092 00000002 0006          LRETR     ; [CPU_ALU] 
    1093                      ; return occurs ; [] 
    1094                      .dwattr $C$DW$97, DW_AT_TI_end_file("C:/ti/ccs2031/ccs/tools/compiler/ti-cgt-c2000_22.6.2.LTS/include
    1095                      .dwattr $C$DW$97, DW_AT_TI_end_line(0xeb)
    1096                      .dwattr $C$DW$97, DW_AT_TI_end_column(0x01)
    1097                      .dwendentry
    1098                      .dwendtag $C$DW$97
    1099              
    1100 00000000               .sect   ".text:__relaxed_expf"
    1101                      .clink
    1102                      .global ||__relaxed_expf||
    1103              
    1104              $C$DW$102       .dwtag  DW_TAG_subprogram
    1105                      .dwattr $C$DW$102, DW_AT_name("__relaxed_expf")
    1106                      .dwattr $C$DW$102, DW_AT_low_pc(||__relaxed_expf||)
    1107                      .dwattr $C$DW$102, DW_AT_high_pc(0x00)
    1108                      .dwattr $C$DW$102, DW_AT_linkage_name("__relaxed_expf")
    1109                      .dwattr $C$DW$102, DW_AT_external
    1110                      .dwattr $C$DW$102, DW_AT_type(*$C$DW$T$16)
    1111                      .dwattr $C$DW$102, DW_AT_decl_file("C:/ti/ccs2031/ccs/tools/compiler/ti-cgt-c2000_22.6.2.LTS/include/
    1112                      .dwattr $C$DW$102, DW_AT_decl_line(0x12f)
    1113                      .dwattr $C$DW$102, DW_AT_decl_column(0x10)
    1114                      .dwattr $C$DW$102, DW_AT_TI_max_frame_size(-4)
    1115                      .dwpsn  file "C:/ti/ccs2031/ccs/tools/compiler/ti-cgt-c2000_22.6.2.LTS/include/math.h",line 304,colum
    1116              
    1117                      .dwfde $C$DW$CIE, ||__relaxed_expf||
    1118              $C$DW$103       .dwtag  DW_TAG_formal_parameter
    1119                      .dwattr $C$DW$103, DW_AT_name("x")
    1120                      .dwattr $C$DW$103, DW_AT_type(*$C$DW$T$16)
    1121                      .dwattr $C$DW$103, DW_AT_location[DW_OP_regx 0x2b]
    1122              
TMS320C2000 Assembler PC v22.6.2 Wed Dec 10 14:45:02 2025

Copyright (c) 1996-2018 Texas Instruments Incorporated
dual_axis_servo_drive_hal.asm                                        PAGE   22

    1123              
    1124              ;***************************************************************
    1125              ;* FNAME: __relaxed_expf                FR SIZE:   2           *
    1126              ;*                                                             *
    1127              ;* FUNCTION ENVIRONMENT                                        *
    1128              ;*                                                             *
    1129              ;* FUNCTION PROPERTIES                                         *
    1130              ;*                            2 Parameter,  0 Auto,  0 SOE     *
    1131              ;***************************************************************
    1132              
    1133              ||__relaxed_expf||:
    1134              ;* R1    assigned to $O$C2
    1135              ;* R0    assigned to $O$K3
    1136              ;* R0    assigned to $O$R1
    1137              ;* R0    assigned to x
    1138              $C$DW$104       .dwtag  DW_TAG_variable
    1139                      .dwattr $C$DW$104, DW_AT_name("x")
    1140                      .dwattr $C$DW$104, DW_AT_type(*$C$DW$T$245)
    1141                      .dwattr $C$DW$104, DW_AT_location[DW_OP_regx 0x2b]
    1142              
    1143              ;* R0    assigned to iexp2f
    1144              $C$DW$105       .dwtag  DW_TAG_variable
    1145                      .dwattr $C$DW$105, DW_AT_name("iexp2f")
    1146                      .dwattr $C$DW$105, DW_AT_type(*$C$DW$T$16)
    1147                      .dwattr $C$DW$105, DW_AT_location[DW_OP_regx 0x2b]
    1148              
    1149                      .dwcfi  cfa_offset, -2
    1150                      .dwcfi  save_reg_to_mem, 26, 0
    1151 00000000 FE02          ADDB      SP,#2                 ; [CPU_ARAU] 
    1152                      .dwcfi  cfa_offset, -4
    1153                      .dwpsn  file "C:/ti/ccs2031/ccs/tools/compiler/ti-cgt-c2000_22.6.2.LTS/include/math.h",line 298,colum
    1154 00000001 E801          MOVIZ     R1H,#16312            ; [CPU_FPU] |298| 
         00000002 FDC1 
    1155 00000003 E80D          MOVXI     R1H,#43537            ; [CPU_FPU] |298| 
         00000004 5089 
    1156 00000005 E700          MPYF32    R1H,R1H,R0H           ; [CPU_FPU] |298| 
         00000006 0009 
    1157 00000007 7700          NOP       ; [CPU_ALU] 
    1158                      .dwpsn  file "C:/ti/ccs2031/ccs/tools/compiler/ti-cgt-c2000_22.6.2.LTS/include/math.h",line 299,colum
    1159 00000008 E5A1          CMPF32    R1H,#0                ; [CPU_FPU] |299| 
    1160 00000009 AD14          MOVST0    ZF, NF                ; [CPU_FPU] |299| 
    1161                      .dwpsn  file "C:/ti/ccs2031/ccs/tools/compiler/ti-cgt-c2000_22.6.2.LTS/include/math.h",line 298,colum
    1162 0000000a E273          IEXP2F32  R0H,R1H               ; [CPU_FPU] |298| 
         0000000b 0008 
    1163                      .dwpsn  file "C:/ti/ccs2031/ccs/tools/compiler/ti-cgt-c2000_22.6.2.LTS/include/math.h",line 299,colum
    1164 0000000c 6507          B         ||$C$L2||,LEQ         ; [CPU_ALU] |299| 
    1165                      ; branchcc occurs ; [] |299| 
    1166 0000000d E801          MOVIZ     R1H,#16256            ; [CPU_FPU] |299| 
         0000000e FC01 
    1167 0000000f E274          DIVF32    R0H,R1H,R0H           ; [CPU_FPU] |299| 
         00000010 0008 
    1168 00000011 7700          NOP       ; [CPU_ALU] 
    1169 00000012 7700          NOP       ; [CPU_ALU] 
    1170 00000013       ||$C$L2||:    
    1171 00000013 FE82          SUBB      SP,#2                 ; [CPU_ARAU] 
TMS320C2000 Assembler PC v22.6.2 Wed Dec 10 14:45:02 2025

Copyright (c) 1996-2018 Texas Instruments Incorporated
dual_axis_servo_drive_hal.asm                                        PAGE   23

    1172                      .dwcfi  cfa_offset, -2
    1173              $C$DW$106       .dwtag  DW_TAG_TI_branch
    1174                      .dwattr $C$DW$106, DW_AT_low_pc(0x00)
    1175                      .dwattr $C$DW$106, DW_AT_TI_return
    1176              
    1177 00000014 0006          LRETR     ; [CPU_ALU] 
    1178                      ; return occurs ; [] 
    1179                      .dwattr $C$DW$102, DW_AT_TI_end_file("C:/ti/ccs2031/ccs/tools/compiler/ti-cgt-c2000_22.6.2.LTS/includ
    1180                      .dwattr $C$DW$102, DW_AT_TI_end_line(0x133)
    1181                      .dwattr $C$DW$102, DW_AT_TI_end_column(0x01)
    1182                      .dwendentry
    1183                      .dwendtag $C$DW$102
    1184              
    1185 00000000               .sect   ".text:__relaxed_cosf"
    1186                      .clink
    1187                      .global ||__relaxed_cosf||
    1188              
    1189              $C$DW$107       .dwtag  DW_TAG_subprogram
    1190                      .dwattr $C$DW$107, DW_AT_name("__relaxed_cosf")
    1191                      .dwattr $C$DW$107, DW_AT_low_pc(||__relaxed_cosf||)
    1192                      .dwattr $C$DW$107, DW_AT_high_pc(0x00)
    1193                      .dwattr $C$DW$107, DW_AT_linkage_name("__relaxed_cosf")
    1194                      .dwattr $C$DW$107, DW_AT_external
    1195                      .dwattr $C$DW$107, DW_AT_type(*$C$DW$T$16)
    1196                      .dwattr $C$DW$107, DW_AT_decl_file("C:/ti/ccs2031/ccs/tools/compiler/ti-cgt-c2000_22.6.2.LTS/include/
    1197                      .dwattr $C$DW$107, DW_AT_decl_line(0x10d)
    1198                      .dwattr $C$DW$107, DW_AT_decl_column(0x10)
    1199                      .dwattr $C$DW$107, DW_AT_TI_max_frame_size(-2)
    1200                      .dwpsn  file "C:/ti/ccs2031/ccs/tools/compiler/ti-cgt-c2000_22.6.2.LTS/include/math.h",line 270,colum
    1201              
    1202                      .dwfde $C$DW$CIE, ||__relaxed_cosf||
    1203              $C$DW$108       .dwtag  DW_TAG_formal_parameter
    1204                      .dwattr $C$DW$108, DW_AT_name("x")
    1205                      .dwattr $C$DW$108, DW_AT_type(*$C$DW$T$16)
    1206                      .dwattr $C$DW$108, DW_AT_location[DW_OP_regx 0x2b]
    1207              
    1208              
    1209              ;***************************************************************
    1210              ;* FNAME: __relaxed_cosf                FR SIZE:   0           *
    1211              ;*                                                             *
    1212              ;* FUNCTION ENVIRONMENT                                        *
    1213              ;*                                                             *
    1214              ;* FUNCTION PROPERTIES                                         *
    1215              ;*                            0 Parameter,  0 Auto,  0 SOE     *
    1216              ;***************************************************************
    1217              
    1218              ||__relaxed_cosf||:
    1219              ;* R0    assigned to x
    1220              $C$DW$109       .dwtag  DW_TAG_variable
    1221                      .dwattr $C$DW$109, DW_AT_name("x")
    1222                      .dwattr $C$DW$109, DW_AT_type(*$C$DW$T$245)
    1223                      .dwattr $C$DW$109, DW_AT_location[DW_OP_regx 0x2b]
    1224              
    1225                      .dwcfi  cfa_offset, -2
    1226                      .dwcfi  save_reg_to_mem, 26, 0
TMS320C2000 Assembler PC v22.6.2 Wed Dec 10 14:45:02 2025

Copyright (c) 1996-2018 Texas Instruments Incorporated
dual_axis_servo_drive_hal.asm                                        PAGE   24

    1227                      .dwpsn  file "C:/ti/ccs2031/ccs/tools/compiler/ti-cgt-c2000_22.6.2.LTS/include/math.h",line 271,colum
    1228 00000000 E271          DIV2PIF32 R0H,R0H               ; [CPU_FPU] |271| 
         00000001 0000 
    1229 00000002 7700          NOP       ; [CPU_ALU] 
    1230 00000003 E279          COSPUF32  R0H,R0H               ; [CPU_FPU] |271| 
         00000004 0000 
    1231 00000005 7700          NOP       ; [CPU_ALU] 
    1232 00000006 7700          NOP       ; [CPU_ALU] 
    1233              $C$DW$110       .dwtag  DW_TAG_TI_branch
    1234                      .dwattr $C$DW$110, DW_AT_low_pc(0x00)
    1235                      .dwattr $C$DW$110, DW_AT_TI_return
    1236              
    1237 00000007 0006          LRETR     ; [CPU_ALU] 
    1238                      ; return occurs ; [] 
    1239                      .dwattr $C$DW$107, DW_AT_TI_end_file("C:/ti/ccs2031/ccs/tools/compiler/ti-cgt-c2000_22.6.2.LTS/includ
    1240                      .dwattr $C$DW$107, DW_AT_TI_end_line(0x110)
    1241                      .dwattr $C$DW$107, DW_AT_TI_end_column(0x01)
    1242                      .dwendentry
    1243                      .dwendtag $C$DW$107
    1244              
    1245 00000000               .sect   ".text:__relaxed_atanf"
    1246                      .clink
    1247                      .global ||__relaxed_atanf||
    1248              
    1249              $C$DW$111       .dwtag  DW_TAG_subprogram
    1250                      .dwattr $C$DW$111, DW_AT_name("__relaxed_atanf")
    1251                      .dwattr $C$DW$111, DW_AT_low_pc(||__relaxed_atanf||)
    1252                      .dwattr $C$DW$111, DW_AT_high_pc(0x00)
    1253                      .dwattr $C$DW$111, DW_AT_linkage_name("__relaxed_atanf")
    1254                      .dwattr $C$DW$111, DW_AT_external
    1255                      .dwattr $C$DW$111, DW_AT_type(*$C$DW$T$16)
    1256                      .dwattr $C$DW$111, DW_AT_decl_file("C:/ti/ccs2031/ccs/tools/compiler/ti-cgt-c2000_22.6.2.LTS/include/
    1257                      .dwattr $C$DW$111, DW_AT_decl_line(0x112)
    1258                      .dwattr $C$DW$111, DW_AT_decl_column(0x10)
    1259                      .dwattr $C$DW$111, DW_AT_TI_max_frame_size(-2)
    1260                      .dwpsn  file "C:/ti/ccs2031/ccs/tools/compiler/ti-cgt-c2000_22.6.2.LTS/include/math.h",line 275,colum
    1261              
    1262                      .dwfde $C$DW$CIE, ||__relaxed_atanf||
    1263              $C$DW$112       .dwtag  DW_TAG_formal_parameter
    1264                      .dwattr $C$DW$112, DW_AT_name("x")
    1265                      .dwattr $C$DW$112, DW_AT_type(*$C$DW$T$16)
    1266                      .dwattr $C$DW$112, DW_AT_location[DW_OP_regx 0x2b]
    1267              
    1268              
    1269              ;***************************************************************
    1270              ;* FNAME: __relaxed_atanf               FR SIZE:   0           *
    1271              ;*                                                             *
    1272              ;* FUNCTION ENVIRONMENT                                        *
    1273              ;*                                                             *
    1274              ;* FUNCTION PROPERTIES                                         *
    1275              ;*                            0 Parameter,  0 Auto,  0 SOE     *
    1276              ;***************************************************************
    1277              
    1278              ||__relaxed_atanf||:
    1279              ;* R0    assigned to x
TMS320C2000 Assembler PC v22.6.2 Wed Dec 10 14:45:02 2025

Copyright (c) 1996-2018 Texas Instruments Incorporated
dual_axis_servo_drive_hal.asm                                        PAGE   25

    1280              $C$DW$113       .dwtag  DW_TAG_variable
    1281                      .dwattr $C$DW$113, DW_AT_name("x")
    1282                      .dwattr $C$DW$113, DW_AT_type(*$C$DW$T$245)
    1283                      .dwattr $C$DW$113, DW_AT_location[DW_OP_regx 0x2b]
    1284              
    1285                      .dwcfi  cfa_offset, -2
    1286                      .dwcfi  save_reg_to_mem, 26, 0
    1287                      .dwpsn  file "C:/ti/ccs2031/ccs/tools/compiler/ti-cgt-c2000_22.6.2.LTS/include/math.h",line 276,colum
    1288 00000000 E801          MOVIZ     R1H,#16256            ; [CPU_FPU] |276| 
         00000001 FC01 
    1289 00000002 E27C          QUADF32   R1H,R0H,R0H,R1H       ; [CPU_FPU] |276| 
         00000003 0201 
    1290 00000004 7700          NOP       ; [CPU_ALU] 
    1291 00000005 7700          NOP       ; [CPU_ALU] 
    1292 00000006 7700          NOP       ; [CPU_ALU] 
    1293 00000007 7700          NOP       ; [CPU_ALU] 
    1294 00000008 E27A          ATANPUF32 R0H,R0H               ; [CPU_FPU] |276| 
         00000009 0000 
    1295 0000000a 7700          NOP       ; [CPU_ALU] 
    1296 0000000b 7700          NOP       ; [CPU_ALU] 
    1297 0000000c 7700          NOP       ; [CPU_ALU] 
    1298 0000000d E710          ADDF32    R0H,R0H,R1H           ; [CPU_FPU] |276| 
         0000000e 0040 
    1299 0000000f 7700          NOP       ; [CPU_ALU] 
    1300 00000010 7700          NOP       ; [CPU_ALU] 
    1301 00000011 E270          MPY2PIF32 R0H,R0H               ; [CPU_FPU] |276| 
         00000012 0000 
    1302 00000013 7700          NOP       ; [CPU_ALU] 
    1303              $C$DW$114       .dwtag  DW_TAG_TI_branch
    1304                      .dwattr $C$DW$114, DW_AT_low_pc(0x00)
    1305                      .dwattr $C$DW$114, DW_AT_TI_return
    1306              
    1307 00000014 0006          LRETR     ; [CPU_ALU] 
    1308                      ; return occurs ; [] 
    1309                      .dwattr $C$DW$111, DW_AT_TI_end_file("C:/ti/ccs2031/ccs/tools/compiler/ti-cgt-c2000_22.6.2.LTS/includ
    1310                      .dwattr $C$DW$111, DW_AT_TI_end_line(0x115)
    1311                      .dwattr $C$DW$111, DW_AT_TI_end_column(0x01)
    1312                      .dwendentry
    1313                      .dwendtag $C$DW$111
    1314              
    1315 00000000               .sect   ".text:__relaxed_atan2f"
    1316                      .clink
    1317                      .global ||__relaxed_atan2f||
    1318              
    1319              $C$DW$115       .dwtag  DW_TAG_subprogram
    1320                      .dwattr $C$DW$115, DW_AT_name("__relaxed_atan2f")
    1321                      .dwattr $C$DW$115, DW_AT_low_pc(||__relaxed_atan2f||)
    1322                      .dwattr $C$DW$115, DW_AT_high_pc(0x00)
    1323                      .dwattr $C$DW$115, DW_AT_linkage_name("__relaxed_atan2f")
    1324                      .dwattr $C$DW$115, DW_AT_external
    1325                      .dwattr $C$DW$115, DW_AT_type(*$C$DW$T$16)
    1326                      .dwattr $C$DW$115, DW_AT_decl_file("C:/ti/ccs2031/ccs/tools/compiler/ti-cgt-c2000_22.6.2.LTS/include/
    1327                      .dwattr $C$DW$115, DW_AT_decl_line(0x117)
    1328                      .dwattr $C$DW$115, DW_AT_decl_column(0x10)
    1329                      .dwattr $C$DW$115, DW_AT_TI_max_frame_size(-2)
TMS320C2000 Assembler PC v22.6.2 Wed Dec 10 14:45:02 2025

Copyright (c) 1996-2018 Texas Instruments Incorporated
dual_axis_servo_drive_hal.asm                                        PAGE   26

    1330                      .dwpsn  file "C:/ti/ccs2031/ccs/tools/compiler/ti-cgt-c2000_22.6.2.LTS/include/math.h",line 280,colum
    1331              
    1332                      .dwfde $C$DW$CIE, ||__relaxed_atan2f||
    1333              $C$DW$116       .dwtag  DW_TAG_formal_parameter
    1334                      .dwattr $C$DW$116, DW_AT_name("y")
    1335                      .dwattr $C$DW$116, DW_AT_type(*$C$DW$T$16)
    1336                      .dwattr $C$DW$116, DW_AT_location[DW_OP_regx 0x2b]
    1337              
    1338              $C$DW$117       .dwtag  DW_TAG_formal_parameter
    1339                      .dwattr $C$DW$117, DW_AT_name("x")
    1340                      .dwattr $C$DW$117, DW_AT_type(*$C$DW$T$16)
    1341                      .dwattr $C$DW$117, DW_AT_location[DW_OP_regx 0x2f]
    1342              
    1343              
    1344              ;***************************************************************
    1345              ;* FNAME: __relaxed_atan2f              FR SIZE:   0           *
    1346              ;*                                                             *
    1347              ;* FUNCTION ENVIRONMENT                                        *
    1348              ;*                                                             *
    1349              ;* FUNCTION PROPERTIES                                         *
    1350              ;*                            0 Parameter,  0 Auto,  0 SOE     *
    1351              ;***************************************************************
    1352              
    1353              ||__relaxed_atan2f||:
    1354              ;* R0    assigned to y
    1355              $C$DW$118       .dwtag  DW_TAG_variable
    1356                      .dwattr $C$DW$118, DW_AT_name("y")
    1357                      .dwattr $C$DW$118, DW_AT_type(*$C$DW$T$245)
    1358                      .dwattr $C$DW$118, DW_AT_location[DW_OP_regx 0x2b]
    1359              
    1360              ;* R1    assigned to x
    1361              $C$DW$119       .dwtag  DW_TAG_variable
    1362                      .dwattr $C$DW$119, DW_AT_name("x")
    1363                      .dwattr $C$DW$119, DW_AT_type(*$C$DW$T$245)
    1364                      .dwattr $C$DW$119, DW_AT_location[DW_OP_regx 0x2f]
    1365              
    1366                      .dwcfi  cfa_offset, -2
    1367                      .dwcfi  save_reg_to_mem, 26, 0
    1368                      .dwpsn  file "C:/ti/ccs2031/ccs/tools/compiler/ti-cgt-c2000_22.6.2.LTS/include/math.h",line 281,colum
    1369 00000000 E27C          QUADF32   R1H,R0H,R0H,R1H       ; [CPU_FPU] |281| 
         00000001 0201 
    1370 00000002 7700          NOP       ; [CPU_ALU] 
    1371 00000003 7700          NOP       ; [CPU_ALU] 
    1372 00000004 7700          NOP       ; [CPU_ALU] 
    1373 00000005 7700          NOP       ; [CPU_ALU] 
    1374 00000006 E27A          ATANPUF32 R0H,R0H               ; [CPU_FPU] |281| 
         00000007 0000 
    1375 00000008 7700          NOP       ; [CPU_ALU] 
    1376 00000009 7700          NOP       ; [CPU_ALU] 
    1377 0000000a 7700          NOP       ; [CPU_ALU] 
    1378 0000000b E710          ADDF32    R0H,R0H,R1H           ; [CPU_FPU] |281| 
         0000000c 0040 
    1379 0000000d 7700          NOP       ; [CPU_ALU] 
    1380 0000000e 7700          NOP       ; [CPU_ALU] 
    1381 0000000f E270          MPY2PIF32 R0H,R0H               ; [CPU_FPU] |281| 
TMS320C2000 Assembler PC v22.6.2 Wed Dec 10 14:45:02 2025

Copyright (c) 1996-2018 Texas Instruments Incorporated
dual_axis_servo_drive_hal.asm                                        PAGE   27

         00000010 0000 
    1382 00000011 7700          NOP       ; [CPU_ALU] 
    1383              $C$DW$120       .dwtag  DW_TAG_TI_branch
    1384                      .dwattr $C$DW$120, DW_AT_low_pc(0x00)
    1385                      .dwattr $C$DW$120, DW_AT_TI_return
    1386              
    1387 00000012 0006          LRETR     ; [CPU_ALU] 
    1388                      ; return occurs ; [] 
    1389                      .dwattr $C$DW$115, DW_AT_TI_end_file("C:/ti/ccs2031/ccs/tools/compiler/ti-cgt-c2000_22.6.2.LTS/includ
    1390                      .dwattr $C$DW$115, DW_AT_TI_end_line(0x11a)
    1391                      .dwattr $C$DW$115, DW_AT_TI_end_column(0x01)
    1392                      .dwendentry
    1393                      .dwendtag $C$DW$115
    1394              
    1395 00000000               .sect   ".text:__isnormall"
    1396                      .clink
    1397                      .global ||__isnormall||
    1398              
    1399              $C$DW$121       .dwtag  DW_TAG_subprogram
    1400                      .dwattr $C$DW$121, DW_AT_name("__isnormall")
    1401                      .dwattr $C$DW$121, DW_AT_low_pc(||__isnormall||)
    1402                      .dwattr $C$DW$121, DW_AT_high_pc(0x00)
    1403                      .dwattr $C$DW$121, DW_AT_linkage_name("__isnormall")
    1404                      .dwattr $C$DW$121, DW_AT_external
    1405                      .dwattr $C$DW$121, DW_AT_type(*$C$DW$T$10)
    1406                      .dwattr $C$DW$121, DW_AT_decl_file("C:/ti/ccs2031/ccs/tools/compiler/ti-cgt-c2000_22.6.2.LTS/include/
    1407                      .dwattr $C$DW$121, DW_AT_decl_line(0x167)
    1408                      .dwattr $C$DW$121, DW_AT_decl_column(0x18)
    1409                      .dwattr $C$DW$121, DW_AT_TI_max_frame_size(-6)
    1410                      .dwpsn  file "C:/ti/ccs2031/ccs/tools/compiler/ti-cgt-c2000_22.6.2.LTS/include/_defs.h",line 360,colu
    1411              
    1412                      .dwfde $C$DW$CIE, ||__isnormall||
    1413              $C$DW$122       .dwtag  DW_TAG_formal_parameter
    1414                      .dwattr $C$DW$122, DW_AT_name("e")
    1415                      .dwattr $C$DW$122, DW_AT_type(*$C$DW$T$249)
    1416                      .dwattr $C$DW$122, DW_AT_location[DW_OP_reg12]
    1417              
    1418              
    1419              ;***************************************************************
    1420              ;* FNAME: __isnormall                   FR SIZE:   4           *
    1421              ;*                                                             *
    1422              ;* FUNCTION ENVIRONMENT                                        *
    1423              ;*                                                             *
    1424              ;* FUNCTION PROPERTIES                                         *
    1425              ;*                            4 Parameter,  0 Auto,  0 SOE     *
    1426              ;***************************************************************
    1427              
    1428              ||__isnormall||:
    1429              ;* AR5   assigned to $O$C2
    1430              ;* AR6   assigned to $O$S1
    1431              ;* AR4   assigned to e
    1432              $C$DW$123       .dwtag  DW_TAG_variable
    1433                      .dwattr $C$DW$123, DW_AT_name("e")
    1434                      .dwattr $C$DW$123, DW_AT_type(*$C$DW$T$250)
    1435                      .dwattr $C$DW$123, DW_AT_location[DW_OP_reg12]
TMS320C2000 Assembler PC v22.6.2 Wed Dec 10 14:45:02 2025

Copyright (c) 1996-2018 Texas Instruments Incorporated
dual_axis_servo_drive_hal.asm                                        PAGE   28

    1436              
    1437                      .dwcfi  cfa_offset, -2
    1438                      .dwcfi  save_reg_to_mem, 26, 0
    1439 00000000 FE04          ADDB      SP,#4                 ; [CPU_ARAU] 
    1440                      .dwcfi  cfa_offset, -6
    1441                      .dwpsn  file "C:/ti/ccs2031/ccs/tools/compiler/ti-cgt-c2000_22.6.2.LTS/include/_defs.h",line 360,colu
    1442 00000001 83C4          MOVL      XAR5,*+XAR4[0]        ; [CPU_ALU] |360| 
    1443 00000002 8AD4          MOVL      XAR4,*+XAR4[2]        ; [CPU_ALU] |360| 
    1444 00000003 BE00          MOVB      XAR6,#0               ; [CPU_ALU] |360| 
    1445 00000004 28AC          MOV       T,#52                 ; [CPU_ALU] |360| 
         00000005 0034 
    1446 00000006 A0AB          MOVL      P,XAR5                ; [CPU_ALU] |360| 
    1447 00000007 A8A9          MOVL      ACC,XAR4              ; [CPU_ALU] |360| 
    1448 00000008 C244          MOVL      *-SP[4],XAR6          ; [CPU_ALU] |360| 
    1449 00000009 2B42          MOV       *-SP[2],#0            ; [CPU_ALU] |360| 
    1450 0000000a 565B          LSR64     ACC:P,T               ; [CPU_ALU] |360| 
    1451 0000000b 2B41          MOV       *-SP[1],#0            ; [CPU_FPU] |360| 
    1452 0000000c 9000          ANDB      AL,#0                 ; [CPU_ALU] |360| 
    1453 0000000d 9100          ANDB      AH,#0                 ; [CPU_ALU] |360| 
    1454 0000000e 18AB          AND       PL,#2047              ; [CPU_ALU] |360| 
         0000000f 07FF 
    1455 00000010 18AA          AND       PH,#0                 ; [CPU_ALU] |360| 
         00000011 0000 
    1456              $C$DW$124       .dwtag  DW_TAG_TI_branch
    1457                      .dwattr $C$DW$124, DW_AT_low_pc(0x00)
    1458                      .dwattr $C$DW$124, DW_AT_name("__c28xabi_cmpull")
    1459                      .dwattr $C$DW$124, DW_AT_TI_call
    1460              
    1461 00000012 7640!         LCR       #||__c28xabi_cmpull|| ; [CPU_ALU] |360| 
         00000013 0000 
    1462                      ; call occurs [#||__c28xabi_cmpull||] ; [] |360| 
    1463 00000014 BE00          MOVB      XAR6,#0               ; [CPU_ALU] |360| 
    1464 00000015 5200          CMPB      AL,#0                 ; [CPU_ALU] |360| 
    1465 00000016 610E          B         ||$C$L3||,EQ          ; [CPU_ALU] |360| 
    1466                      ; branchcc occurs ; [] |360| 
    1467 00000017 A0AB          MOVL      P,XAR5                ; [CPU_ALU] |360| 
    1468 00000018 A8A9          MOVL      ACC,XAR4              ; [CPU_ALU] |360| 
    1469 00000019 28AC          MOV       T,#48                 ; [CPU_ALU] |360| 
         0000001a 0030 
    1470 0000001b 565B          LSR64     ACC:P,T               ; [CPU_ALU] |360| 
    1471 0000001c 18AB          AND       PL,#0x7ff0            ; [CPU_ALU] |360| 
         0000001d 7FF0 
    1472 0000001e 80AB          MOVZ      AR7,PL                ; [CPU_ALU] |360| 
    1473 0000001f FF20          MOV       ACC,#32752            ; [CPU_ALU] |360| 
         00000020 7FF0 
    1474 00000021 0FA7          CMPL      ACC,XAR7              ; [CPU_ALU] |360| 
    1475 00000022 56B0          MOVB      XAR6,#1,NEQ           ; [CPU_ALU] |360| 
         00000023 01A6 
    1476 00000024       ||$C$L3||:    
    1477 00000024 FE84          SUBB      SP,#4                 ; [CPU_ARAU] 
    1478                      .dwcfi  cfa_offset, -2
    1479 00000025 92A6          MOV       AL,AR6                ; [CPU_ALU] |360| 
    1480              $C$DW$125       .dwtag  DW_TAG_TI_branch
    1481                      .dwattr $C$DW$125, DW_AT_low_pc(0x00)
    1482                      .dwattr $C$DW$125, DW_AT_TI_return
TMS320C2000 Assembler PC v22.6.2 Wed Dec 10 14:45:02 2025

Copyright (c) 1996-2018 Texas Instruments Incorporated
dual_axis_servo_drive_hal.asm                                        PAGE   29

    1483              
    1484 00000026 0006          LRETR     ; [CPU_ALU] 
    1485                      ; return occurs ; [] 
    1486                      .dwattr $C$DW$121, DW_AT_TI_end_file("C:/ti/ccs2031/ccs/tools/compiler/ti-cgt-c2000_22.6.2.LTS/includ
    1487                      .dwattr $C$DW$121, DW_AT_TI_end_line(0x169)
    1488                      .dwattr $C$DW$121, DW_AT_TI_end_column(0x31)
    1489                      .dwendentry
    1490                      .dwendtag $C$DW$121
    1491              
    1492 00000000               .sect   ".text:__isnormalf"
    1493                      .clink
    1494                      .global ||__isnormalf||
    1495              
    1496              $C$DW$126       .dwtag  DW_TAG_subprogram
    1497                      .dwattr $C$DW$126, DW_AT_name("__isnormalf")
    1498                      .dwattr $C$DW$126, DW_AT_low_pc(||__isnormalf||)
    1499                      .dwattr $C$DW$126, DW_AT_high_pc(0x00)
    1500                      .dwattr $C$DW$126, DW_AT_linkage_name("__isnormalf")
    1501                      .dwattr $C$DW$126, DW_AT_external
    1502                      .dwattr $C$DW$126, DW_AT_type(*$C$DW$T$10)
    1503                      .dwattr $C$DW$126, DW_AT_decl_file("C:/ti/ccs2031/ccs/tools/compiler/ti-cgt-c2000_22.6.2.LTS/include/
    1504                      .dwattr $C$DW$126, DW_AT_decl_line(0x163)
    1505                      .dwattr $C$DW$126, DW_AT_decl_column(0x18)
    1506                      .dwattr $C$DW$126, DW_AT_TI_max_frame_size(-2)
    1507                      .dwpsn  file "C:/ti/ccs2031/ccs/tools/compiler/ti-cgt-c2000_22.6.2.LTS/include/_defs.h",line 356,colu
    1508              
    1509                      .dwfde $C$DW$CIE, ||__isnormalf||
    1510              $C$DW$127       .dwtag  DW_TAG_formal_parameter
    1511                      .dwattr $C$DW$127, DW_AT_name("f")
    1512                      .dwattr $C$DW$127, DW_AT_type(*$C$DW$T$16)
    1513                      .dwattr $C$DW$127, DW_AT_location[DW_OP_regx 0x2b]
    1514              
    1515              
    1516              ;***************************************************************
    1517              ;* FNAME: __isnormalf                   FR SIZE:   0           *
    1518              ;*                                                             *
    1519              ;* FUNCTION ENVIRONMENT                                        *
    1520              ;*                                                             *
    1521              ;* FUNCTION PROPERTIES                                         *
    1522              ;*                            0 Parameter,  0 Auto,  0 SOE     *
    1523              ;***************************************************************
    1524              
    1525              ||__isnormalf||:
    1526              ;* PL    assigned to $O$K3
    1527              ;* AR6   assigned to $O$S1
    1528              ;* R0    assigned to f
    1529              $C$DW$128       .dwtag  DW_TAG_variable
    1530                      .dwattr $C$DW$128, DW_AT_name("f")
    1531                      .dwattr $C$DW$128, DW_AT_type(*$C$DW$T$245)
    1532                      .dwattr $C$DW$128, DW_AT_location[DW_OP_regx 0x2b]
    1533              
    1534                      .dwcfi  cfa_offset, -2
    1535                      .dwcfi  save_reg_to_mem, 26, 0
    1536                      .dwpsn  file "C:/ti/ccs2031/ccs/tools/compiler/ti-cgt-c2000_22.6.2.LTS/include/_defs.h",line 356,colu
    1537 00000000 BFAB          MOV32     P,R0H                 ; [CPU_FPU] |356| 
TMS320C2000 Assembler PC v22.6.2 Wed Dec 10 14:45:02 2025

Copyright (c) 1996-2018 Texas Instruments Incorporated
dual_axis_servo_drive_hal.asm                                        PAGE   30

         00000001 0F12 
    1538 00000002 28AC          MOV       T,#23                 ; [CPU_ALU] |356| 
         00000003 0017 
    1539 00000004 A9A9          MOVL      ACC,P                 ; [CPU_ALU] |356| 
    1540 00000005 BE00          MOVB      XAR6,#0               ; [CPU_ALU] |356| 
    1541 00000006 5622          LSRL      ACC,T                 ; [CPU_ALU] |356| 
    1542 00000007 90FF          ANDB      AL,#0xff              ; [CPU_ALU] |356| 
    1543 00000008 6109          B         ||$C$L4||,EQ          ; [CPU_ALU] |356| 
    1544                      ; branchcc occurs ; [] |356| 
    1545 00000009 CCAA          AND       AL,PH,#0x7f80         ; [CPU_ALU] |356| 
         0000000a 7F80 
    1546 0000000b 80A9          MOVZ      AR7,AL                ; [CPU_ALU] |356| 
    1547 0000000c FF20          MOV       ACC,#32640            ; [CPU_ALU] |356| 
         0000000d 7F80 
    1548 0000000e 0FA7          CMPL      ACC,XAR7              ; [CPU_ALU] |356| 
    1549 0000000f 56B0          MOVB      XAR6,#1,NEQ           ; [CPU_ALU] |356| 
         00000010 01A6 
    1550 00000011       ||$C$L4||:    
    1551 00000011 92A6          MOV       AL,AR6                ; [CPU_ALU] |356| 
    1552              $C$DW$129       .dwtag  DW_TAG_TI_branch
    1553                      .dwattr $C$DW$129, DW_AT_low_pc(0x00)
    1554                      .dwattr $C$DW$129, DW_AT_TI_return
    1555              
    1556 00000012 0006          LRETR     ; [CPU_ALU] 
    1557                      ; return occurs ; [] 
    1558                      .dwattr $C$DW$126, DW_AT_TI_end_file("C:/ti/ccs2031/ccs/tools/compiler/ti-cgt-c2000_22.6.2.LTS/includ
    1559                      .dwattr $C$DW$126, DW_AT_TI_end_line(0x165)
    1560                      .dwattr $C$DW$126, DW_AT_TI_end_column(0x2f)
    1561                      .dwendentry
    1562                      .dwendtag $C$DW$126
    1563              
    1564 00000000               .sect   ".text:__isnormal"
    1565                      .clink
    1566                      .global ||__isnormal||
    1567              
    1568              $C$DW$130       .dwtag  DW_TAG_subprogram
    1569                      .dwattr $C$DW$130, DW_AT_name("__isnormal")
    1570                      .dwattr $C$DW$130, DW_AT_low_pc(||__isnormal||)
    1571                      .dwattr $C$DW$130, DW_AT_high_pc(0x00)
    1572                      .dwattr $C$DW$130, DW_AT_linkage_name("__isnormal")
    1573                      .dwattr $C$DW$130, DW_AT_external
    1574                      .dwattr $C$DW$130, DW_AT_type(*$C$DW$T$10)
    1575                      .dwattr $C$DW$130, DW_AT_decl_file("C:/ti/ccs2031/ccs/tools/compiler/ti-cgt-c2000_22.6.2.LTS/include/
    1576                      .dwattr $C$DW$130, DW_AT_decl_line(0x15f)
    1577                      .dwattr $C$DW$130, DW_AT_decl_column(0x18)
    1578                      .dwattr $C$DW$130, DW_AT_TI_max_frame_size(-6)
    1579                      .dwpsn  file "C:/ti/ccs2031/ccs/tools/compiler/ti-cgt-c2000_22.6.2.LTS/include/_defs.h",line 352,colu
    1580              
    1581                      .dwfde $C$DW$CIE, ||__isnormal||
    1582              $C$DW$131       .dwtag  DW_TAG_formal_parameter
    1583                      .dwattr $C$DW$131, DW_AT_name("d")
    1584                      .dwattr $C$DW$131, DW_AT_type(*$C$DW$T$246)
    1585                      .dwattr $C$DW$131, DW_AT_location[DW_OP_reg12]
    1586              
    1587              
TMS320C2000 Assembler PC v22.6.2 Wed Dec 10 14:45:02 2025

Copyright (c) 1996-2018 Texas Instruments Incorporated
dual_axis_servo_drive_hal.asm                                        PAGE   31

    1588              ;***************************************************************
    1589              ;* FNAME: __isnormal                    FR SIZE:   4           *
    1590              ;*                                                             *
    1591              ;* FUNCTION ENVIRONMENT                                        *
    1592              ;*                                                             *
    1593              ;* FUNCTION PROPERTIES                                         *
    1594              ;*                            4 Parameter,  0 Auto,  0 SOE     *
    1595              ;***************************************************************
    1596              
    1597              ||__isnormal||:
    1598              ;* AR5   assigned to $O$C2
    1599              ;* AR6   assigned to $O$S1
    1600              ;* AR4   assigned to d
    1601              $C$DW$132       .dwtag  DW_TAG_variable
    1602                      .dwattr $C$DW$132, DW_AT_name("d")
    1603                      .dwattr $C$DW$132, DW_AT_type(*$C$DW$T$247)
    1604                      .dwattr $C$DW$132, DW_AT_location[DW_OP_reg12]
    1605              
    1606                      .dwcfi  cfa_offset, -2
    1607                      .dwcfi  save_reg_to_mem, 26, 0
    1608 00000000 FE04          ADDB      SP,#4                 ; [CPU_ARAU] 
    1609                      .dwcfi  cfa_offset, -6
    1610                      .dwpsn  file "C:/ti/ccs2031/ccs/tools/compiler/ti-cgt-c2000_22.6.2.LTS/include/_defs.h",line 352,colu
    1611 00000001 83C4          MOVL      XAR5,*+XAR4[0]        ; [CPU_ALU] |352| 
    1612 00000002 8AD4          MOVL      XAR4,*+XAR4[2]        ; [CPU_ALU] |352| 
    1613 00000003 BE00          MOVB      XAR6,#0               ; [CPU_ALU] |352| 
    1614 00000004 28AC          MOV       T,#52                 ; [CPU_ALU] |352| 
         00000005 0034 
    1615 00000006 A0AB          MOVL      P,XAR5                ; [CPU_ALU] |352| 
    1616 00000007 A8A9          MOVL      ACC,XAR4              ; [CPU_ALU] |352| 
    1617 00000008 C244          MOVL      *-SP[4],XAR6          ; [CPU_ALU] |352| 
    1618 00000009 2B42          MOV       *-SP[2],#0            ; [CPU_ALU] |352| 
    1619 0000000a 565B          LSR64     ACC:P,T               ; [CPU_ALU] |352| 
    1620 0000000b 2B41          MOV       *-SP[1],#0            ; [CPU_FPU] |352| 
    1621 0000000c 9000          ANDB      AL,#0                 ; [CPU_ALU] |352| 
    1622 0000000d 9100          ANDB      AH,#0                 ; [CPU_ALU] |352| 
    1623 0000000e 18AB          AND       PL,#2047              ; [CPU_ALU] |352| 
         0000000f 07FF 
    1624 00000010 18AA          AND       PH,#0                 ; [CPU_ALU] |352| 
         00000011 0000 
    1625              $C$DW$133       .dwtag  DW_TAG_TI_branch
    1626                      .dwattr $C$DW$133, DW_AT_low_pc(0x00)
    1627                      .dwattr $C$DW$133, DW_AT_name("__c28xabi_cmpull")
    1628                      .dwattr $C$DW$133, DW_AT_TI_call
    1629              
    1630 00000012 7640!         LCR       #||__c28xabi_cmpull|| ; [CPU_ALU] |352| 
         00000013 0000 
    1631                      ; call occurs [#||__c28xabi_cmpull||] ; [] |352| 
    1632 00000014 BE00          MOVB      XAR6,#0               ; [CPU_ALU] |352| 
    1633 00000015 5200          CMPB      AL,#0                 ; [CPU_ALU] |352| 
    1634 00000016 610E          B         ||$C$L5||,EQ          ; [CPU_ALU] |352| 
    1635                      ; branchcc occurs ; [] |352| 
    1636 00000017 A0AB          MOVL      P,XAR5                ; [CPU_ALU] |352| 
    1637 00000018 A8A9          MOVL      ACC,XAR4              ; [CPU_ALU] |352| 
    1638 00000019 28AC          MOV       T,#48                 ; [CPU_ALU] |352| 
TMS320C2000 Assembler PC v22.6.2 Wed Dec 10 14:45:02 2025

Copyright (c) 1996-2018 Texas Instruments Incorporated
dual_axis_servo_drive_hal.asm                                        PAGE   32

         0000001a 0030 
    1639 0000001b 565B          LSR64     ACC:P,T               ; [CPU_ALU] |352| 
    1640 0000001c 18AB          AND       PL,#0x7ff0            ; [CPU_ALU] |352| 
         0000001d 7FF0 
    1641 0000001e 80AB          MOVZ      AR7,PL                ; [CPU_ALU] |352| 
    1642 0000001f FF20          MOV       ACC,#32752            ; [CPU_ALU] |352| 
         00000020 7FF0 
    1643 00000021 0FA7          CMPL      ACC,XAR7              ; [CPU_ALU] |352| 
    1644 00000022 56B0          MOVB      XAR6,#1,NEQ           ; [CPU_ALU] |352| 
         00000023 01A6 
    1645 00000024       ||$C$L5||:    
    1646 00000024 FE84          SUBB      SP,#4                 ; [CPU_ARAU] 
    1647                      .dwcfi  cfa_offset, -2
    1648 00000025 92A6          MOV       AL,AR6                ; [CPU_ALU] |352| 
    1649              $C$DW$134       .dwtag  DW_TAG_TI_branch
    1650                      .dwattr $C$DW$134, DW_AT_low_pc(0x00)
    1651                      .dwattr $C$DW$134, DW_AT_TI_return
    1652              
    1653 00000026 0006          LRETR     ; [CPU_ALU] 
    1654                      ; return occurs ; [] 
    1655                      .dwattr $C$DW$130, DW_AT_TI_end_file("C:/ti/ccs2031/ccs/tools/compiler/ti-cgt-c2000_22.6.2.LTS/includ
    1656                      .dwattr $C$DW$130, DW_AT_TI_end_line(0x161)
    1657                      .dwattr $C$DW$130, DW_AT_TI_end_column(0x30)
    1658                      .dwendentry
    1659                      .dwendtag $C$DW$130
    1660              
    1661 00000000               .sect   ".text:__isnanl"
    1662                      .clink
    1663                      .global ||__isnanl||
    1664              
    1665              $C$DW$135       .dwtag  DW_TAG_subprogram
    1666                      .dwattr $C$DW$135, DW_AT_name("__isnanl")
    1667                      .dwattr $C$DW$135, DW_AT_low_pc(||__isnanl||)
    1668                      .dwattr $C$DW$135, DW_AT_high_pc(0x00)
    1669                      .dwattr $C$DW$135, DW_AT_linkage_name("__isnanl")
    1670                      .dwattr $C$DW$135, DW_AT_external
    1671                      .dwattr $C$DW$135, DW_AT_type(*$C$DW$T$10)
    1672                      .dwattr $C$DW$135, DW_AT_decl_file("C:/ti/ccs2031/ccs/tools/compiler/ti-cgt-c2000_22.6.2.LTS/include/
    1673                      .dwattr $C$DW$135, DW_AT_decl_line(0x15b)
    1674                      .dwattr $C$DW$135, DW_AT_decl_column(0x18)
    1675                      .dwattr $C$DW$135, DW_AT_TI_max_frame_size(-6)
    1676                      .dwpsn  file "C:/ti/ccs2031/ccs/tools/compiler/ti-cgt-c2000_22.6.2.LTS/include/_defs.h",line 348,colu
    1677              
    1678                      .dwfde $C$DW$CIE, ||__isnanl||
    1679              $C$DW$136       .dwtag  DW_TAG_formal_parameter
    1680                      .dwattr $C$DW$136, DW_AT_name("e")
    1681                      .dwattr $C$DW$136, DW_AT_type(*$C$DW$T$249)
    1682                      .dwattr $C$DW$136, DW_AT_location[DW_OP_reg12]
    1683              
    1684              
    1685              ;***************************************************************
    1686              ;* FNAME: __isnanl                      FR SIZE:   4           *
    1687              ;*                                                             *
    1688              ;* FUNCTION ENVIRONMENT                                        *
    1689              ;*                                                             *
TMS320C2000 Assembler PC v22.6.2 Wed Dec 10 14:45:02 2025

Copyright (c) 1996-2018 Texas Instruments Incorporated
dual_axis_servo_drive_hal.asm                                        PAGE   33

    1690              ;* FUNCTION PROPERTIES                                         *
    1691              ;*                            4 Parameter,  0 Auto,  0 SOE     *
    1692              ;***************************************************************
    1693              
    1694              ||__isnanl||:
    1695              ;* AR7   assigned to $O$C2
    1696              ;* AR4   assigned to $O$S1
    1697              ;* AR4   assigned to e
    1698              $C$DW$137       .dwtag  DW_TAG_variable
    1699                      .dwattr $C$DW$137, DW_AT_name("e")
    1700                      .dwattr $C$DW$137, DW_AT_type(*$C$DW$T$250)
    1701                      .dwattr $C$DW$137, DW_AT_location[DW_OP_reg12]
    1702              
    1703                      .dwcfi  cfa_offset, -2
    1704                      .dwcfi  save_reg_to_mem, 26, 0
    1705 00000000 FE04          ADDB      SP,#4                 ; [CPU_ARAU] 
    1706                      .dwcfi  cfa_offset, -6
    1707                      .dwpsn  file "C:/ti/ccs2031/ccs/tools/compiler/ti-cgt-c2000_22.6.2.LTS/include/_defs.h",line 348,colu
    1708 00000001 C5C4          MOVL      XAR7,*+XAR4[0]        ; [CPU_ALU] |348| 
    1709 00000002 06D4          MOVL      ACC,*+XAR4[2]         ; [CPU_ALU] |348| 
    1710 00000003 28AC          MOV       T,#48                 ; [CPU_ALU] |348| 
         00000004 0030 
    1711 00000005 1EA6          MOVL      XAR6,ACC              ; [CPU_ALU] |348| 
    1712 00000006 A3A7          MOVL      P,XAR7                ; [CPU_ALU] |348| 
    1713 00000007 D400          MOVB      XAR4,#0               ; [CPU_ALU] |348| 
    1714 00000008 565B          LSR64     ACC:P,T               ; [CPU_ALU] |348| 
    1715 00000009 2BAA          MOV       PH,#0                 ; [CPU_ALU] |348| 
    1716 0000000a 18AB          AND       PL,#0x7ff0            ; [CPU_ALU] |348| 
         0000000b 7FF0 
    1717 0000000c FF20          MOV       ACC,#32752            ; [CPU_ALU] |348| 
         0000000d 7FF0 
    1718 0000000e 0FAB          CMPL      ACC,P                 ; [CPU_ALU] |348| 
    1719 0000000f 6013          B         ||$C$L6||,NEQ         ; [CPU_ALU] |348| 
    1720                      ; branchcc occurs ; [] |348| 
    1721 00000010 06A6          MOVL      ACC,XAR6              ; [CPU_ALU] |348| 
    1722 00000011 A3A7          MOVL      P,XAR7                ; [CPU_ALU] |348| 
    1723 00000012 BE00          MOVB      XAR6,#0               ; [CPU_ALU] |348| 
    1724 00000013 18A9          AND       AL,#65535             ; [CPU_ALU] |348| 
         00000014 FFFF 
    1725 00000015 910F          ANDB      AH,#15                ; [CPU_ALU] |348| 
    1726 00000016 18AB          AND       PL,#65535             ; [CPU_ALU] |348| 
         00000017 FFFF 
    1727 00000018 18AA          AND       PH,#65535             ; [CPU_ALU] |348| 
         00000019 FFFF 
    1728 0000001a C244          MOVL      *-SP[4],XAR6          ; [CPU_FPU] |348| 
    1729 0000001b 2B42          MOV       *-SP[2],#0            ; [CPU_FPU] |348| 
    1730 0000001c 2B41          MOV       *-SP[1],#0            ; [CPU_FPU] |348| 
    1731              $C$DW$138       .dwtag  DW_TAG_TI_branch
    1732                      .dwattr $C$DW$138, DW_AT_low_pc(0x00)
    1733                      .dwattr $C$DW$138, DW_AT_name("__c28xabi_cmpull")
    1734                      .dwattr $C$DW$138, DW_AT_TI_call
    1735              
    1736 0000001d 7640!         LCR       #||__c28xabi_cmpull|| ; [CPU_ALU] |348| 
         0000001e 0000 
    1737                      ; call occurs [#||__c28xabi_cmpull||] ; [] |348| 
TMS320C2000 Assembler PC v22.6.2 Wed Dec 10 14:45:02 2025

Copyright (c) 1996-2018 Texas Instruments Incorporated
dual_axis_servo_drive_hal.asm                                        PAGE   34

    1738 0000001f 5200          CMPB      AL,#0                 ; [CPU_ALU] |348| 
    1739 00000020 56B0          MOVB      XAR4,#1,NEQ           ; [CPU_ALU] |348| 
         00000021 01A4 
    1740 00000022       ||$C$L6||:    
    1741 00000022 FE84          SUBB      SP,#4                 ; [CPU_ARAU] 
    1742                      .dwcfi  cfa_offset, -2
    1743 00000023 92A4          MOV       AL,AR4                ; [CPU_ALU] |348| 
    1744              $C$DW$139       .dwtag  DW_TAG_TI_branch
    1745                      .dwattr $C$DW$139, DW_AT_low_pc(0x00)
    1746                      .dwattr $C$DW$139, DW_AT_TI_return
    1747              
    1748 00000024 0006          LRETR     ; [CPU_ALU] 
    1749                      ; return occurs ; [] 
    1750                      .dwattr $C$DW$135, DW_AT_TI_end_file("C:/ti/ccs2031/ccs/tools/compiler/ti-cgt-c2000_22.6.2.LTS/includ
    1751                      .dwattr $C$DW$135, DW_AT_TI_end_line(0x15d)
    1752                      .dwattr $C$DW$135, DW_AT_TI_end_column(0x30)
    1753                      .dwendentry
    1754                      .dwendtag $C$DW$135
    1755              
    1756 00000000               .sect   ".text:__isnanf"
    1757                      .clink
    1758                      .global ||__isnanf||
    1759              
    1760              $C$DW$140       .dwtag  DW_TAG_subprogram
    1761                      .dwattr $C$DW$140, DW_AT_name("__isnanf")
    1762                      .dwattr $C$DW$140, DW_AT_low_pc(||__isnanf||)
    1763                      .dwattr $C$DW$140, DW_AT_high_pc(0x00)
    1764                      .dwattr $C$DW$140, DW_AT_linkage_name("__isnanf")
    1765                      .dwattr $C$DW$140, DW_AT_external
    1766                      .dwattr $C$DW$140, DW_AT_type(*$C$DW$T$10)
    1767                      .dwattr $C$DW$140, DW_AT_decl_file("C:/ti/ccs2031/ccs/tools/compiler/ti-cgt-c2000_22.6.2.LTS/include/
    1768                      .dwattr $C$DW$140, DW_AT_decl_line(0x158)
    1769                      .dwattr $C$DW$140, DW_AT_decl_column(0x18)
    1770                      .dwattr $C$DW$140, DW_AT_TI_max_frame_size(-2)
    1771                      .dwpsn  file "C:/ti/ccs2031/ccs/tools/compiler/ti-cgt-c2000_22.6.2.LTS/include/_defs.h",line 345,colu
    1772              
    1773                      .dwfde $C$DW$CIE, ||__isnanf||
    1774              $C$DW$141       .dwtag  DW_TAG_formal_parameter
    1775                      .dwattr $C$DW$141, DW_AT_name("f")
    1776                      .dwattr $C$DW$141, DW_AT_type(*$C$DW$T$16)
    1777                      .dwattr $C$DW$141, DW_AT_location[DW_OP_regx 0x2b]
    1778              
    1779              
    1780              ;***************************************************************
    1781              ;* FNAME: __isnanf                      FR SIZE:   0           *
    1782              ;*                                                             *
    1783              ;* FUNCTION ENVIRONMENT                                        *
    1784              ;*                                                             *
    1785              ;* FUNCTION PROPERTIES                                         *
    1786              ;*                            0 Parameter,  0 Auto,  0 SOE     *
    1787              ;***************************************************************
    1788              
    1789              ||__isnanf||:
    1790              ;* PL    assigned to $O$K3
    1791              ;* AR6   assigned to $O$S1
TMS320C2000 Assembler PC v22.6.2 Wed Dec 10 14:45:02 2025

Copyright (c) 1996-2018 Texas Instruments Incorporated
dual_axis_servo_drive_hal.asm                                        PAGE   35

    1792              ;* R0    assigned to f
    1793              $C$DW$142       .dwtag  DW_TAG_variable
    1794                      .dwattr $C$DW$142, DW_AT_name("f")
    1795                      .dwattr $C$DW$142, DW_AT_type(*$C$DW$T$245)
    1796                      .dwattr $C$DW$142, DW_AT_location[DW_OP_regx 0x2b]
    1797              
    1798                      .dwcfi  cfa_offset, -2
    1799                      .dwcfi  save_reg_to_mem, 26, 0
    1800                      .dwpsn  file "C:/ti/ccs2031/ccs/tools/compiler/ti-cgt-c2000_22.6.2.LTS/include/_defs.h",line 345,colu
    1801 00000000 BFAB          MOV32     P,R0H                 ; [CPU_FPU] |345| 
         00000001 0F12 
    1802 00000002 CCAA          AND       AL,PH,#0x7f80         ; [CPU_ALU] |345| 
         00000003 7F80 
    1803 00000004 80A9          MOVZ      AR7,AL                ; [CPU_ALU] |345| 
    1804 00000005 BE00          MOVB      XAR6,#0               ; [CPU_ALU] |345| 
    1805 00000006 FF20          MOV       ACC,#32640            ; [CPU_ALU] |345| 
         00000007 7F80 
    1806 00000008 0FA7          CMPL      ACC,XAR7              ; [CPU_ALU] |345| 
    1807 00000009 6006          B         ||$C$L7||,NEQ         ; [CPU_ALU] |345| 
    1808                      ; branchcc occurs ; [] |345| 
    1809 0000000a A9A9          MOVL      ACC,P                 ; [CPU_ALU] |345| 
    1810 0000000b 917F          ANDB      AH,#127               ; [CPU_ALU] |345| 
    1811 0000000c FF58          TEST      ACC                   ; [CPU_ALU] |345| 
    1812 0000000d 56B0          MOVB      XAR6,#1,NEQ           ; [CPU_ALU] |345| 
         0000000e 01A6 
    1813 0000000f       ||$C$L7||:    
    1814 0000000f 92A6          MOV       AL,AR6                ; [CPU_ALU] |345| 
    1815              $C$DW$143       .dwtag  DW_TAG_TI_branch
    1816                      .dwattr $C$DW$143, DW_AT_low_pc(0x00)
    1817                      .dwattr $C$DW$143, DW_AT_TI_return
    1818              
    1819 00000010 0006          LRETR     ; [CPU_ALU] 
    1820                      ; return occurs ; [] 
    1821                      .dwattr $C$DW$140, DW_AT_TI_end_file("C:/ti/ccs2031/ccs/tools/compiler/ti-cgt-c2000_22.6.2.LTS/includ
    1822                      .dwattr $C$DW$140, DW_AT_TI_end_line(0x15a)
    1823                      .dwattr $C$DW$140, DW_AT_TI_end_column(0x2e)
    1824                      .dwendentry
    1825                      .dwendtag $C$DW$140
    1826              
    1827 00000000               .sect   ".text:__isnan"
    1828                      .clink
    1829                      .global ||__isnan||
    1830              
    1831              $C$DW$144       .dwtag  DW_TAG_subprogram
    1832                      .dwattr $C$DW$144, DW_AT_name("__isnan")
    1833                      .dwattr $C$DW$144, DW_AT_low_pc(||__isnan||)
    1834                      .dwattr $C$DW$144, DW_AT_high_pc(0x00)
    1835                      .dwattr $C$DW$144, DW_AT_linkage_name("__isnan")
    1836                      .dwattr $C$DW$144, DW_AT_external
    1837                      .dwattr $C$DW$144, DW_AT_type(*$C$DW$T$10)
    1838                      .dwattr $C$DW$144, DW_AT_decl_file("C:/ti/ccs2031/ccs/tools/compiler/ti-cgt-c2000_22.6.2.LTS/include/
    1839                      .dwattr $C$DW$144, DW_AT_decl_line(0x155)
    1840                      .dwattr $C$DW$144, DW_AT_decl_column(0x18)
    1841                      .dwattr $C$DW$144, DW_AT_TI_max_frame_size(-6)
    1842                      .dwpsn  file "C:/ti/ccs2031/ccs/tools/compiler/ti-cgt-c2000_22.6.2.LTS/include/_defs.h",line 342,colu
TMS320C2000 Assembler PC v22.6.2 Wed Dec 10 14:45:02 2025

Copyright (c) 1996-2018 Texas Instruments Incorporated
dual_axis_servo_drive_hal.asm                                        PAGE   36

    1843              
    1844                      .dwfde $C$DW$CIE, ||__isnan||
    1845              $C$DW$145       .dwtag  DW_TAG_formal_parameter
    1846                      .dwattr $C$DW$145, DW_AT_name("d")
    1847                      .dwattr $C$DW$145, DW_AT_type(*$C$DW$T$246)
    1848                      .dwattr $C$DW$145, DW_AT_location[DW_OP_reg12]
    1849              
    1850              
    1851              ;***************************************************************
    1852              ;* FNAME: __isnan                       FR SIZE:   4           *
    1853              ;*                                                             *
    1854              ;* FUNCTION ENVIRONMENT                                        *
    1855              ;*                                                             *
    1856              ;* FUNCTION PROPERTIES                                         *
    1857              ;*                            4 Parameter,  0 Auto,  0 SOE     *
    1858              ;***************************************************************
    1859              
    1860              ||__isnan||:
    1861              ;* AR7   assigned to $O$C2
    1862              ;* AR4   assigned to $O$S1
    1863              ;* AR4   assigned to d
    1864              $C$DW$146       .dwtag  DW_TAG_variable
    1865                      .dwattr $C$DW$146, DW_AT_name("d")
    1866                      .dwattr $C$DW$146, DW_AT_type(*$C$DW$T$247)
    1867                      .dwattr $C$DW$146, DW_AT_location[DW_OP_reg12]
    1868              
    1869                      .dwcfi  cfa_offset, -2
    1870                      .dwcfi  save_reg_to_mem, 26, 0
    1871 00000000 FE04          ADDB      SP,#4                 ; [CPU_ARAU] 
    1872                      .dwcfi  cfa_offset, -6
    1873                      .dwpsn  file "C:/ti/ccs2031/ccs/tools/compiler/ti-cgt-c2000_22.6.2.LTS/include/_defs.h",line 342,colu
    1874 00000001 C5C4          MOVL      XAR7,*+XAR4[0]        ; [CPU_ALU] |342| 
    1875 00000002 06D4          MOVL      ACC,*+XAR4[2]         ; [CPU_ALU] |342| 
    1876 00000003 28AC          MOV       T,#48                 ; [CPU_ALU] |342| 
         00000004 0030 
    1877 00000005 1EA6          MOVL      XAR6,ACC              ; [CPU_ALU] |342| 
    1878 00000006 A3A7          MOVL      P,XAR7                ; [CPU_ALU] |342| 
    1879 00000007 D400          MOVB      XAR4,#0               ; [CPU_ALU] |342| 
    1880 00000008 565B          LSR64     ACC:P,T               ; [CPU_ALU] |342| 
    1881 00000009 2BAA          MOV       PH,#0                 ; [CPU_ALU] |342| 
    1882 0000000a 18AB          AND       PL,#0x7ff0            ; [CPU_ALU] |342| 
         0000000b 7FF0 
    1883 0000000c FF20          MOV       ACC,#32752            ; [CPU_ALU] |342| 
         0000000d 7FF0 
    1884 0000000e 0FAB          CMPL      ACC,P                 ; [CPU_ALU] |342| 
    1885 0000000f 6013          B         ||$C$L8||,NEQ         ; [CPU_ALU] |342| 
    1886                      ; branchcc occurs ; [] |342| 
    1887 00000010 06A6          MOVL      ACC,XAR6              ; [CPU_ALU] |342| 
    1888 00000011 A3A7          MOVL      P,XAR7                ; [CPU_ALU] |342| 
    1889 00000012 BE00          MOVB      XAR6,#0               ; [CPU_ALU] |342| 
    1890 00000013 18A9          AND       AL,#65535             ; [CPU_ALU] |342| 
         00000014 FFFF 
    1891 00000015 910F          ANDB      AH,#15                ; [CPU_ALU] |342| 
    1892 00000016 18AB          AND       PL,#65535             ; [CPU_ALU] |342| 
         00000017 FFFF 
TMS320C2000 Assembler PC v22.6.2 Wed Dec 10 14:45:02 2025

Copyright (c) 1996-2018 Texas Instruments Incorporated
dual_axis_servo_drive_hal.asm                                        PAGE   37

    1893 00000018 18AA          AND       PH,#65535             ; [CPU_ALU] |342| 
         00000019 FFFF 
    1894 0000001a C244          MOVL      *-SP[4],XAR6          ; [CPU_FPU] |342| 
    1895 0000001b 2B42          MOV       *-SP[2],#0            ; [CPU_FPU] |342| 
    1896 0000001c 2B41          MOV       *-SP[1],#0            ; [CPU_FPU] |342| 
    1897              $C$DW$147       .dwtag  DW_TAG_TI_branch
    1898                      .dwattr $C$DW$147, DW_AT_low_pc(0x00)
    1899                      .dwattr $C$DW$147, DW_AT_name("__c28xabi_cmpull")
    1900                      .dwattr $C$DW$147, DW_AT_TI_call
    1901              
    1902 0000001d 7640!         LCR       #||__c28xabi_cmpull|| ; [CPU_ALU] |342| 
         0000001e 0000 
    1903                      ; call occurs [#||__c28xabi_cmpull||] ; [] |342| 
    1904 0000001f 5200          CMPB      AL,#0                 ; [CPU_ALU] |342| 
    1905 00000020 56B0          MOVB      XAR4,#1,NEQ           ; [CPU_ALU] |342| 
         00000021 01A4 
    1906 00000022       ||$C$L8||:    
    1907 00000022 FE84          SUBB      SP,#4                 ; [CPU_ARAU] 
    1908                      .dwcfi  cfa_offset, -2
    1909 00000023 92A4          MOV       AL,AR4                ; [CPU_ALU] |342| 
    1910              $C$DW$148       .dwtag  DW_TAG_TI_branch
    1911                      .dwattr $C$DW$148, DW_AT_low_pc(0x00)
    1912                      .dwattr $C$DW$148, DW_AT_TI_return
    1913              
    1914 00000024 0006          LRETR     ; [CPU_ALU] 
    1915                      ; return occurs ; [] 
    1916                      .dwattr $C$DW$144, DW_AT_TI_end_file("C:/ti/ccs2031/ccs/tools/compiler/ti-cgt-c2000_22.6.2.LTS/includ
    1917                      .dwattr $C$DW$144, DW_AT_TI_end_line(0x157)
    1918                      .dwattr $C$DW$144, DW_AT_TI_end_column(0x2f)
    1919                      .dwendentry
    1920                      .dwendtag $C$DW$144
    1921              
    1922 00000000               .sect   ".text:__isinfl"
    1923                      .clink
    1924                      .global ||__isinfl||
    1925              
    1926              $C$DW$149       .dwtag  DW_TAG_subprogram
    1927                      .dwattr $C$DW$149, DW_AT_name("__isinfl")
    1928                      .dwattr $C$DW$149, DW_AT_low_pc(||__isinfl||)
    1929                      .dwattr $C$DW$149, DW_AT_high_pc(0x00)
    1930                      .dwattr $C$DW$149, DW_AT_linkage_name("__isinfl")
    1931                      .dwattr $C$DW$149, DW_AT_external
    1932                      .dwattr $C$DW$149, DW_AT_type(*$C$DW$T$10)
    1933                      .dwattr $C$DW$149, DW_AT_decl_file("C:/ti/ccs2031/ccs/tools/compiler/ti-cgt-c2000_22.6.2.LTS/include/
    1934                      .dwattr $C$DW$149, DW_AT_decl_line(0x17a)
    1935                      .dwattr $C$DW$149, DW_AT_decl_column(0x18)
    1936                      .dwattr $C$DW$149, DW_AT_TI_max_frame_size(-6)
    1937                      .dwpsn  file "C:/ti/ccs2031/ccs/tools/compiler/ti-cgt-c2000_22.6.2.LTS/include/_defs.h",line 379,colu
    1938              
    1939                      .dwfde $C$DW$CIE, ||__isinfl||
    1940              $C$DW$150       .dwtag  DW_TAG_formal_parameter
    1941                      .dwattr $C$DW$150, DW_AT_name("e")
    1942                      .dwattr $C$DW$150, DW_AT_type(*$C$DW$T$249)
    1943                      .dwattr $C$DW$150, DW_AT_location[DW_OP_reg12]
    1944              
TMS320C2000 Assembler PC v22.6.2 Wed Dec 10 14:45:02 2025

Copyright (c) 1996-2018 Texas Instruments Incorporated
dual_axis_servo_drive_hal.asm                                        PAGE   38

    1945              
    1946              ;***************************************************************
    1947              ;* FNAME: __isinfl                      FR SIZE:   4           *
    1948              ;*                                                             *
    1949              ;* FUNCTION ENVIRONMENT                                        *
    1950              ;*                                                             *
    1951              ;* FUNCTION PROPERTIES                                         *
    1952              ;*                            4 Parameter,  0 Auto,  0 SOE     *
    1953              ;***************************************************************
    1954              
    1955              ||__isinfl||:
    1956              ;* AR7   assigned to $O$C2
    1957              ;* AR4   assigned to $O$S1
    1958              ;* AR4   assigned to e
    1959              $C$DW$151       .dwtag  DW_TAG_variable
    1960                      .dwattr $C$DW$151, DW_AT_name("e")
    1961                      .dwattr $C$DW$151, DW_AT_type(*$C$DW$T$250)
    1962                      .dwattr $C$DW$151, DW_AT_location[DW_OP_reg12]
    1963              
    1964                      .dwcfi  cfa_offset, -2
    1965                      .dwcfi  save_reg_to_mem, 26, 0
    1966 00000000 FE04          ADDB      SP,#4                 ; [CPU_ARAU] 
    1967                      .dwcfi  cfa_offset, -6
    1968                      .dwpsn  file "C:/ti/ccs2031/ccs/tools/compiler/ti-cgt-c2000_22.6.2.LTS/include/_defs.h",line 379,colu
    1969 00000001 C5C4          MOVL      XAR7,*+XAR4[0]        ; [CPU_ALU] |379| 
    1970 00000002 06D4          MOVL      ACC,*+XAR4[2]         ; [CPU_ALU] |379| 
    1971 00000003 28AC          MOV       T,#48                 ; [CPU_ALU] |379| 
         00000004 0030 
    1972 00000005 1EA6          MOVL      XAR6,ACC              ; [CPU_ALU] |379| 
    1973 00000006 A3A7          MOVL      P,XAR7                ; [CPU_ALU] |379| 
    1974 00000007 D400          MOVB      XAR4,#0               ; [CPU_ALU] |379| 
    1975 00000008 565B          LSR64     ACC:P,T               ; [CPU_ALU] |379| 
    1976 00000009 2BAA          MOV       PH,#0                 ; [CPU_ALU] |379| 
    1977 0000000a 18AB          AND       PL,#0x7ff0            ; [CPU_ALU] |379| 
         0000000b 7FF0 
    1978 0000000c FF20          MOV       ACC,#32752            ; [CPU_ALU] |379| 
         0000000d 7FF0 
    1979 0000000e 0FAB          CMPL      ACC,P                 ; [CPU_ALU] |379| 
    1980 0000000f 6013          B         ||$C$L9||,NEQ         ; [CPU_ALU] |379| 
    1981                      ; branchcc occurs ; [] |379| 
    1982 00000010 06A6          MOVL      ACC,XAR6              ; [CPU_ALU] |379| 
    1983 00000011 A3A7          MOVL      P,XAR7                ; [CPU_ALU] |379| 
    1984 00000012 BE00          MOVB      XAR6,#0               ; [CPU_ALU] |379| 
    1985 00000013 18A9          AND       AL,#65535             ; [CPU_ALU] |379| 
         00000014 FFFF 
    1986 00000015 910F          ANDB      AH,#15                ; [CPU_ALU] |379| 
    1987 00000016 18AB          AND       PL,#65535             ; [CPU_ALU] |379| 
         00000017 FFFF 
    1988 00000018 18AA          AND       PH,#65535             ; [CPU_ALU] |379| 
         00000019 FFFF 
    1989 0000001a C244          MOVL      *-SP[4],XAR6          ; [CPU_FPU] |379| 
    1990 0000001b 2B42          MOV       *-SP[2],#0            ; [CPU_FPU] |379| 
    1991 0000001c 2B41          MOV       *-SP[1],#0            ; [CPU_FPU] |379| 
    1992              $C$DW$152       .dwtag  DW_TAG_TI_branch
    1993                      .dwattr $C$DW$152, DW_AT_low_pc(0x00)
TMS320C2000 Assembler PC v22.6.2 Wed Dec 10 14:45:02 2025

Copyright (c) 1996-2018 Texas Instruments Incorporated
dual_axis_servo_drive_hal.asm                                        PAGE   39

    1994                      .dwattr $C$DW$152, DW_AT_name("__c28xabi_cmpull")
    1995                      .dwattr $C$DW$152, DW_AT_TI_call
    1996              
    1997 0000001d 7640!         LCR       #||__c28xabi_cmpull|| ; [CPU_ALU] |379| 
         0000001e 0000 
    1998                      ; call occurs [#||__c28xabi_cmpull||] ; [] |379| 
    1999 0000001f 5200          CMPB      AL,#0                 ; [CPU_ALU] |379| 
    2000 00000020 56B1          MOVB      XAR4,#1,EQ            ; [CPU_ALU] |379| 
         00000021 01A4 
    2001 00000022       ||$C$L9||:    
    2002 00000022 FE84          SUBB      SP,#4                 ; [CPU_ARAU] 
    2003                      .dwcfi  cfa_offset, -2
    2004 00000023 92A4          MOV       AL,AR4                ; [CPU_ALU] |379| 
    2005              $C$DW$153       .dwtag  DW_TAG_TI_branch
    2006                      .dwattr $C$DW$153, DW_AT_low_pc(0x00)
    2007                      .dwattr $C$DW$153, DW_AT_TI_return
    2008              
    2009 00000024 0006          LRETR     ; [CPU_ALU] 
    2010                      ; return occurs ; [] 
    2011                      .dwattr $C$DW$149, DW_AT_TI_end_file("C:/ti/ccs2031/ccs/tools/compiler/ti-cgt-c2000_22.6.2.LTS/includ
    2012                      .dwattr $C$DW$149, DW_AT_TI_end_line(0x17b)
    2013                      .dwattr $C$DW$149, DW_AT_TI_end_column(0x4c)
    2014                      .dwendentry
    2015                      .dwendtag $C$DW$149
    2016              
    2017 00000000               .sect   ".text:__isinff"
    2018                      .clink
    2019                      .global ||__isinff||
    2020              
    2021              $C$DW$154       .dwtag  DW_TAG_subprogram
    2022                      .dwattr $C$DW$154, DW_AT_name("__isinff")
    2023                      .dwattr $C$DW$154, DW_AT_low_pc(||__isinff||)
    2024                      .dwattr $C$DW$154, DW_AT_high_pc(0x00)
    2025                      .dwattr $C$DW$154, DW_AT_linkage_name("__isinff")
    2026                      .dwattr $C$DW$154, DW_AT_external
    2027                      .dwattr $C$DW$154, DW_AT_type(*$C$DW$T$10)
    2028                      .dwattr $C$DW$154, DW_AT_decl_file("C:/ti/ccs2031/ccs/tools/compiler/ti-cgt-c2000_22.6.2.LTS/include/
    2029                      .dwattr $C$DW$154, DW_AT_decl_line(0x176)
    2030                      .dwattr $C$DW$154, DW_AT_decl_column(0x18)
    2031                      .dwattr $C$DW$154, DW_AT_TI_max_frame_size(-2)
    2032                      .dwpsn  file "C:/ti/ccs2031/ccs/tools/compiler/ti-cgt-c2000_22.6.2.LTS/include/_defs.h",line 375,colu
    2033              
    2034                      .dwfde $C$DW$CIE, ||__isinff||
    2035              $C$DW$155       .dwtag  DW_TAG_formal_parameter
    2036                      .dwattr $C$DW$155, DW_AT_name("f")
    2037                      .dwattr $C$DW$155, DW_AT_type(*$C$DW$T$16)
    2038                      .dwattr $C$DW$155, DW_AT_location[DW_OP_regx 0x2b]
    2039              
    2040              
    2041              ;***************************************************************
    2042              ;* FNAME: __isinff                      FR SIZE:   0           *
    2043              ;*                                                             *
    2044              ;* FUNCTION ENVIRONMENT                                        *
    2045              ;*                                                             *
    2046              ;* FUNCTION PROPERTIES                                         *
TMS320C2000 Assembler PC v22.6.2 Wed Dec 10 14:45:02 2025

Copyright (c) 1996-2018 Texas Instruments Incorporated
dual_axis_servo_drive_hal.asm                                        PAGE   40

    2047              ;*                            0 Parameter,  0 Auto,  0 SOE     *
    2048              ;***************************************************************
    2049              
    2050              ||__isinff||:
    2051              ;* PL    assigned to $O$K3
    2052              ;* AR6   assigned to $O$S1
    2053              ;* R0    assigned to f
    2054              $C$DW$156       .dwtag  DW_TAG_variable
    2055                      .dwattr $C$DW$156, DW_AT_name("f")
    2056                      .dwattr $C$DW$156, DW_AT_type(*$C$DW$T$245)
    2057                      .dwattr $C$DW$156, DW_AT_location[DW_OP_regx 0x2b]
    2058              
    2059                      .dwcfi  cfa_offset, -2
    2060                      .dwcfi  save_reg_to_mem, 26, 0
    2061                      .dwpsn  file "C:/ti/ccs2031/ccs/tools/compiler/ti-cgt-c2000_22.6.2.LTS/include/_defs.h",line 375,colu
    2062 00000000 BFAB          MOV32     P,R0H                 ; [CPU_FPU] |375| 
         00000001 0F12 
    2063 00000002 CCAA          AND       AL,PH,#0x7f80         ; [CPU_ALU] |375| 
         00000003 7F80 
    2064 00000004 80A9          MOVZ      AR7,AL                ; [CPU_ALU] |375| 
    2065 00000005 BE00          MOVB      XAR6,#0               ; [CPU_ALU] |375| 
    2066 00000006 FF20          MOV       ACC,#32640            ; [CPU_ALU] |375| 
         00000007 7F80 
    2067 00000008 0FA7          CMPL      ACC,XAR7              ; [CPU_ALU] |375| 
    2068 00000009 6006          B         ||$C$L10||,NEQ        ; [CPU_ALU] |375| 
    2069                      ; branchcc occurs ; [] |375| 
    2070 0000000a A9A9          MOVL      ACC,P                 ; [CPU_ALU] |375| 
    2071 0000000b 917F          ANDB      AH,#127               ; [CPU_ALU] |375| 
    2072 0000000c FF58          TEST      ACC                   ; [CPU_ALU] |375| 
    2073 0000000d 56B1          MOVB      XAR6,#1,EQ            ; [CPU_ALU] |375| 
         0000000e 01A6 
    2074 0000000f       ||$C$L10||:    
    2075 0000000f 92A6          MOV       AL,AR6                ; [CPU_ALU] |375| 
    2076              $C$DW$157       .dwtag  DW_TAG_TI_branch
    2077                      .dwattr $C$DW$157, DW_AT_low_pc(0x00)
    2078                      .dwattr $C$DW$157, DW_AT_TI_return
    2079              
    2080 00000010 0006          LRETR     ; [CPU_ALU] 
    2081                      ; return occurs ; [] 
    2082                      .dwattr $C$DW$154, DW_AT_TI_end_file("C:/ti/ccs2031/ccs/tools/compiler/ti-cgt-c2000_22.6.2.LTS/includ
    2083                      .dwattr $C$DW$154, DW_AT_TI_end_line(0x177)
    2084                      .dwattr $C$DW$154, DW_AT_TI_end_column(0x48)
    2085                      .dwendentry
    2086                      .dwendtag $C$DW$154
    2087              
    2088 00000000               .sect   ".text:__isinf"
    2089                      .clink
    2090                      .global ||__isinf||
    2091              
    2092              $C$DW$158       .dwtag  DW_TAG_subprogram
    2093                      .dwattr $C$DW$158, DW_AT_name("__isinf")
    2094                      .dwattr $C$DW$158, DW_AT_low_pc(||__isinf||)
    2095                      .dwattr $C$DW$158, DW_AT_high_pc(0x00)
    2096                      .dwattr $C$DW$158, DW_AT_linkage_name("__isinf")
    2097                      .dwattr $C$DW$158, DW_AT_external
TMS320C2000 Assembler PC v22.6.2 Wed Dec 10 14:45:02 2025

Copyright (c) 1996-2018 Texas Instruments Incorporated
dual_axis_servo_drive_hal.asm                                        PAGE   41

    2098                      .dwattr $C$DW$158, DW_AT_type(*$C$DW$T$10)
    2099                      .dwattr $C$DW$158, DW_AT_decl_file("C:/ti/ccs2031/ccs/tools/compiler/ti-cgt-c2000_22.6.2.LTS/include/
    2100                      .dwattr $C$DW$158, DW_AT_decl_line(0x178)
    2101                      .dwattr $C$DW$158, DW_AT_decl_column(0x18)
    2102                      .dwattr $C$DW$158, DW_AT_TI_max_frame_size(-6)
    2103                      .dwpsn  file "C:/ti/ccs2031/ccs/tools/compiler/ti-cgt-c2000_22.6.2.LTS/include/_defs.h",line 377,colu
    2104              
    2105                      .dwfde $C$DW$CIE, ||__isinf||
    2106              $C$DW$159       .dwtag  DW_TAG_formal_parameter
    2107                      .dwattr $C$DW$159, DW_AT_name("d")
    2108                      .dwattr $C$DW$159, DW_AT_type(*$C$DW$T$246)
    2109                      .dwattr $C$DW$159, DW_AT_location[DW_OP_reg12]
    2110              
    2111              
    2112              ;***************************************************************
    2113              ;* FNAME: __isinf                       FR SIZE:   4           *
    2114              ;*                                                             *
    2115              ;* FUNCTION ENVIRONMENT                                        *
    2116              ;*                                                             *
    2117              ;* FUNCTION PROPERTIES                                         *
    2118              ;*                            4 Parameter,  0 Auto,  0 SOE     *
    2119              ;***************************************************************
    2120              
    2121              ||__isinf||:
    2122              ;* AR7   assigned to $O$C2
    2123              ;* AR4   assigned to $O$S1
    2124              ;* AR4   assigned to d
    2125              $C$DW$160       .dwtag  DW_TAG_variable
    2126                      .dwattr $C$DW$160, DW_AT_name("d")
    2127                      .dwattr $C$DW$160, DW_AT_type(*$C$DW$T$247)
    2128                      .dwattr $C$DW$160, DW_AT_location[DW_OP_reg12]
    2129              
    2130                      .dwcfi  cfa_offset, -2
    2131                      .dwcfi  save_reg_to_mem, 26, 0
    2132 00000000 FE04          ADDB      SP,#4                 ; [CPU_ARAU] 
    2133                      .dwcfi  cfa_offset, -6
    2134                      .dwpsn  file "C:/ti/ccs2031/ccs/tools/compiler/ti-cgt-c2000_22.6.2.LTS/include/_defs.h",line 377,colu
    2135 00000001 C5C4          MOVL      XAR7,*+XAR4[0]        ; [CPU_ALU] |377| 
    2136 00000002 06D4          MOVL      ACC,*+XAR4[2]         ; [CPU_ALU] |377| 
    2137 00000003 28AC          MOV       T,#48                 ; [CPU_ALU] |377| 
         00000004 0030 
    2138 00000005 1EA6          MOVL      XAR6,ACC              ; [CPU_ALU] |377| 
    2139 00000006 A3A7          MOVL      P,XAR7                ; [CPU_ALU] |377| 
    2140 00000007 D400          MOVB      XAR4,#0               ; [CPU_ALU] |377| 
    2141 00000008 565B          LSR64     ACC:P,T               ; [CPU_ALU] |377| 
    2142 00000009 2BAA          MOV       PH,#0                 ; [CPU_ALU] |377| 
    2143 0000000a 18AB          AND       PL,#0x7ff0            ; [CPU_ALU] |377| 
         0000000b 7FF0 
    2144 0000000c FF20          MOV       ACC,#32752            ; [CPU_ALU] |377| 
         0000000d 7FF0 
    2145 0000000e 0FAB          CMPL      ACC,P                 ; [CPU_ALU] |377| 
    2146 0000000f 6013          B         ||$C$L11||,NEQ        ; [CPU_ALU] |377| 
    2147                      ; branchcc occurs ; [] |377| 
    2148 00000010 06A6          MOVL      ACC,XAR6              ; [CPU_ALU] |377| 
    2149 00000011 A3A7          MOVL      P,XAR7                ; [CPU_ALU] |377| 
TMS320C2000 Assembler PC v22.6.2 Wed Dec 10 14:45:02 2025

Copyright (c) 1996-2018 Texas Instruments Incorporated
dual_axis_servo_drive_hal.asm                                        PAGE   42

    2150 00000012 BE00          MOVB      XAR6,#0               ; [CPU_ALU] |377| 
    2151 00000013 18A9          AND       AL,#65535             ; [CPU_ALU] |377| 
         00000014 FFFF 
    2152 00000015 910F          ANDB      AH,#15                ; [CPU_ALU] |377| 
    2153 00000016 18AB          AND       PL,#65535             ; [CPU_ALU] |377| 
         00000017 FFFF 
    2154 00000018 18AA          AND       PH,#65535             ; [CPU_ALU] |377| 
         00000019 FFFF 
    2155 0000001a C244          MOVL      *-SP[4],XAR6          ; [CPU_FPU] |377| 
    2156 0000001b 2B42          MOV       *-SP[2],#0            ; [CPU_FPU] |377| 
    2157 0000001c 2B41          MOV       *-SP[1],#0            ; [CPU_FPU] |377| 
    2158              $C$DW$161       .dwtag  DW_TAG_TI_branch
    2159                      .dwattr $C$DW$161, DW_AT_low_pc(0x00)
    2160                      .dwattr $C$DW$161, DW_AT_name("__c28xabi_cmpull")
    2161                      .dwattr $C$DW$161, DW_AT_TI_call
    2162              
    2163 0000001d 7640!         LCR       #||__c28xabi_cmpull|| ; [CPU_ALU] |377| 
         0000001e 0000 
    2164                      ; call occurs [#||__c28xabi_cmpull||] ; [] |377| 
    2165 0000001f 5200          CMPB      AL,#0                 ; [CPU_ALU] |377| 
    2166 00000020 56B1          MOVB      XAR4,#1,EQ            ; [CPU_ALU] |377| 
         00000021 01A4 
    2167 00000022       ||$C$L11||:    
    2168 00000022 FE84          SUBB      SP,#4                 ; [CPU_ARAU] 
    2169                      .dwcfi  cfa_offset, -2
    2170 00000023 92A4          MOV       AL,AR4                ; [CPU_ALU] |377| 
    2171              $C$DW$162       .dwtag  DW_TAG_TI_branch
    2172                      .dwattr $C$DW$162, DW_AT_low_pc(0x00)
    2173                      .dwattr $C$DW$162, DW_AT_TI_return
    2174              
    2175 00000024 0006          LRETR     ; [CPU_ALU] 
    2176                      ; return occurs ; [] 
    2177                      .dwattr $C$DW$158, DW_AT_TI_end_file("C:/ti/ccs2031/ccs/tools/compiler/ti-cgt-c2000_22.6.2.LTS/includ
    2178                      .dwattr $C$DW$158, DW_AT_TI_end_line(0x179)
    2179                      .dwattr $C$DW$158, DW_AT_TI_end_column(0x4a)
    2180                      .dwendentry
    2181                      .dwendtag $C$DW$158
    2182              
    2183 00000000               .sect   ".text:__isfinitel"
    2184                      .clink
    2185                      .global ||__isfinitel||
    2186              
    2187              $C$DW$163       .dwtag  DW_TAG_subprogram
    2188                      .dwattr $C$DW$163, DW_AT_name("__isfinitel")
    2189                      .dwattr $C$DW$163, DW_AT_low_pc(||__isfinitel||)
    2190                      .dwattr $C$DW$163, DW_AT_high_pc(0x00)
    2191                      .dwattr $C$DW$163, DW_AT_linkage_name("__isfinitel")
    2192                      .dwattr $C$DW$163, DW_AT_external
    2193                      .dwattr $C$DW$163, DW_AT_type(*$C$DW$T$10)
    2194                      .dwattr $C$DW$163, DW_AT_decl_file("C:/ti/ccs2031/ccs/tools/compiler/ti-cgt-c2000_22.6.2.LTS/include/
    2195                      .dwattr $C$DW$163, DW_AT_decl_line(0x152)
    2196                      .dwattr $C$DW$163, DW_AT_decl_column(0x18)
    2197                      .dwattr $C$DW$163, DW_AT_TI_max_frame_size(-2)
    2198                      .dwpsn  file "C:/ti/ccs2031/ccs/tools/compiler/ti-cgt-c2000_22.6.2.LTS/include/_defs.h",line 339,colu
    2199              
TMS320C2000 Assembler PC v22.6.2 Wed Dec 10 14:45:02 2025

Copyright (c) 1996-2018 Texas Instruments Incorporated
dual_axis_servo_drive_hal.asm                                        PAGE   43

    2200                      .dwfde $C$DW$CIE, ||__isfinitel||
    2201              $C$DW$164       .dwtag  DW_TAG_formal_parameter
    2202                      .dwattr $C$DW$164, DW_AT_name("e")
    2203                      .dwattr $C$DW$164, DW_AT_type(*$C$DW$T$249)
    2204                      .dwattr $C$DW$164, DW_AT_location[DW_OP_reg12]
    2205              
    2206              
    2207              ;***************************************************************
    2208              ;* FNAME: __isfinitel                   FR SIZE:   0           *
    2209              ;*                                                             *
    2210              ;* FUNCTION ENVIRONMENT                                        *
    2211              ;*                                                             *
    2212              ;* FUNCTION PROPERTIES                                         *
    2213              ;*                            0 Parameter,  0 Auto,  0 SOE     *
    2214              ;***************************************************************
    2215              
    2216              ||__isfinitel||:
    2217              ;* AR4   assigned to e
    2218              $C$DW$165       .dwtag  DW_TAG_variable
    2219                      .dwattr $C$DW$165, DW_AT_name("e")
    2220                      .dwattr $C$DW$165, DW_AT_type(*$C$DW$T$250)
    2221                      .dwattr $C$DW$165, DW_AT_location[DW_OP_reg12]
    2222              
    2223                      .dwcfi  cfa_offset, -2
    2224                      .dwcfi  save_reg_to_mem, 26, 0
    2225                      .dwpsn  file "C:/ti/ccs2031/ccs/tools/compiler/ti-cgt-c2000_22.6.2.LTS/include/_defs.h",line 339,colu
    2226 00000000 A3C4          MOVL      P,*+XAR4[0]           ; [CPU_ALU] |339| 
    2227 00000001 06D4          MOVL      ACC,*+XAR4[2]         ; [CPU_ALU] |339| 
    2228 00000002 28AC          MOV       T,#48                 ; [CPU_ALU] |339| 
         00000003 0030 
    2229 00000004 565B          LSR64     ACC:P,T               ; [CPU_ALU] |339| 
    2230 00000005 18AB          AND       PL,#0x7ff0            ; [CPU_ALU] |339| 
         00000006 7FF0 
    2231 00000007 80AB          MOVZ      AR7,PL                ; [CPU_ALU] |339| 
    2232 00000008 FF20          MOV       ACC,#32752            ; [CPU_ALU] |339| 
         00000009 7FF0 
    2233 0000000a BE00          MOVB      XAR6,#0               ; [CPU_ALU] |339| 
    2234 0000000b 0FA7          CMPL      ACC,XAR7              ; [CPU_ALU] |339| 
    2235 0000000c 56B0          MOVB      XAR6,#1,NEQ           ; [CPU_ALU] |339| 
         0000000d 01A6 
    2236 0000000e 92A6          MOV       AL,AR6                ; [CPU_ALU] |339| 
    2237              $C$DW$166       .dwtag  DW_TAG_TI_branch
    2238                      .dwattr $C$DW$166, DW_AT_low_pc(0x00)
    2239                      .dwattr $C$DW$166, DW_AT_TI_return
    2240              
    2241 0000000f 0006          LRETR     ; [CPU_ALU] 
    2242                      ; return occurs ; [] 
    2243                      .dwattr $C$DW$163, DW_AT_TI_end_file("C:/ti/ccs2031/ccs/tools/compiler/ti-cgt-c2000_22.6.2.LTS/includ
    2244                      .dwattr $C$DW$163, DW_AT_TI_end_line(0x153)
    2245                      .dwattr $C$DW$163, DW_AT_TI_end_column(0x2f)
    2246                      .dwendentry
    2247                      .dwendtag $C$DW$163
    2248              
    2249 00000000               .sect   ".text:__isfinitef"
    2250                      .clink
TMS320C2000 Assembler PC v22.6.2 Wed Dec 10 14:45:02 2025

Copyright (c) 1996-2018 Texas Instruments Incorporated
dual_axis_servo_drive_hal.asm                                        PAGE   44

    2251                      .global ||__isfinitef||
    2252              
    2253              $C$DW$167       .dwtag  DW_TAG_subprogram
    2254                      .dwattr $C$DW$167, DW_AT_name("__isfinitef")
    2255                      .dwattr $C$DW$167, DW_AT_low_pc(||__isfinitef||)
    2256                      .dwattr $C$DW$167, DW_AT_high_pc(0x00)
    2257                      .dwattr $C$DW$167, DW_AT_linkage_name("__isfinitef")
    2258                      .dwattr $C$DW$167, DW_AT_external
    2259                      .dwattr $C$DW$167, DW_AT_type(*$C$DW$T$10)
    2260                      .dwattr $C$DW$167, DW_AT_decl_file("C:/ti/ccs2031/ccs/tools/compiler/ti-cgt-c2000_22.6.2.LTS/include/
    2261                      .dwattr $C$DW$167, DW_AT_decl_line(0x150)
    2262                      .dwattr $C$DW$167, DW_AT_decl_column(0x18)
    2263                      .dwattr $C$DW$167, DW_AT_TI_max_frame_size(-2)
    2264                      .dwpsn  file "C:/ti/ccs2031/ccs/tools/compiler/ti-cgt-c2000_22.6.2.LTS/include/_defs.h",line 337,colu
    2265              
    2266                      .dwfde $C$DW$CIE, ||__isfinitef||
    2267              $C$DW$168       .dwtag  DW_TAG_formal_parameter
    2268                      .dwattr $C$DW$168, DW_AT_name("f")
    2269                      .dwattr $C$DW$168, DW_AT_type(*$C$DW$T$16)
    2270                      .dwattr $C$DW$168, DW_AT_location[DW_OP_regx 0x2b]
    2271              
    2272              
    2273              ;***************************************************************
    2274              ;* FNAME: __isfinitef                   FR SIZE:   0           *
    2275              ;*                                                             *
    2276              ;* FUNCTION ENVIRONMENT                                        *
    2277              ;*                                                             *
    2278              ;* FUNCTION PROPERTIES                                         *
    2279              ;*                            0 Parameter,  0 Auto,  0 SOE     *
    2280              ;***************************************************************
    2281              
    2282              ||__isfinitef||:
    2283              ;* R0    assigned to f
    2284              $C$DW$169       .dwtag  DW_TAG_variable
    2285                      .dwattr $C$DW$169, DW_AT_name("f")
    2286                      .dwattr $C$DW$169, DW_AT_type(*$C$DW$T$245)
    2287                      .dwattr $C$DW$169, DW_AT_location[DW_OP_regx 0x2b]
    2288              
    2289                      .dwcfi  cfa_offset, -2
    2290                      .dwcfi  save_reg_to_mem, 26, 0
    2291                      .dwpsn  file "C:/ti/ccs2031/ccs/tools/compiler/ti-cgt-c2000_22.6.2.LTS/include/_defs.h",line 337,colu
    2292 00000000 BFAB          MOV32     P,R0H                 ; [CPU_FPU] |337| 
         00000001 0F12 
    2293 00000002 18AA          AND       PH,#0x7f80            ; [CPU_ALU] |337| 
         00000003 7F80 
    2294 00000004 80AA          MOVZ      AR7,PH                ; [CPU_ALU] |337| 
    2295 00000005 FF20          MOV       ACC,#32640            ; [CPU_ALU] |337| 
         00000006 7F80 
    2296 00000007 BE00          MOVB      XAR6,#0               ; [CPU_ALU] |337| 
    2297 00000008 0FA7          CMPL      ACC,XAR7              ; [CPU_ALU] |337| 
    2298 00000009 56B0          MOVB      XAR6,#1,NEQ           ; [CPU_ALU] |337| 
         0000000a 01A6 
    2299 0000000b 92A6          MOV       AL,AR6                ; [CPU_ALU] |337| 
    2300              $C$DW$170       .dwtag  DW_TAG_TI_branch
    2301                      .dwattr $C$DW$170, DW_AT_low_pc(0x00)
TMS320C2000 Assembler PC v22.6.2 Wed Dec 10 14:45:02 2025

Copyright (c) 1996-2018 Texas Instruments Incorporated
dual_axis_servo_drive_hal.asm                                        PAGE   45

    2302                      .dwattr $C$DW$170, DW_AT_TI_return
    2303              
    2304 0000000c 0006          LRETR     ; [CPU_ALU] 
    2305                      ; return occurs ; [] 
    2306                      .dwattr $C$DW$167, DW_AT_TI_end_file("C:/ti/ccs2031/ccs/tools/compiler/ti-cgt-c2000_22.6.2.LTS/includ
    2307                      .dwattr $C$DW$167, DW_AT_TI_end_line(0x151)
    2308                      .dwattr $C$DW$167, DW_AT_TI_end_column(0x2d)
    2309                      .dwendentry
    2310                      .dwendtag $C$DW$167
    2311              
    2312 00000000               .sect   ".text:__isfinite"
    2313                      .clink
    2314                      .global ||__isfinite||
    2315              
    2316              $C$DW$171       .dwtag  DW_TAG_subprogram
    2317                      .dwattr $C$DW$171, DW_AT_name("__isfinite")
    2318                      .dwattr $C$DW$171, DW_AT_low_pc(||__isfinite||)
    2319                      .dwattr $C$DW$171, DW_AT_high_pc(0x00)
    2320                      .dwattr $C$DW$171, DW_AT_linkage_name("__isfinite")
    2321                      .dwattr $C$DW$171, DW_AT_external
    2322                      .dwattr $C$DW$171, DW_AT_type(*$C$DW$T$10)
    2323                      .dwattr $C$DW$171, DW_AT_decl_file("C:/ti/ccs2031/ccs/tools/compiler/ti-cgt-c2000_22.6.2.LTS/include/
    2324                      .dwattr $C$DW$171, DW_AT_decl_line(0x14e)
    2325                      .dwattr $C$DW$171, DW_AT_decl_column(0x18)
    2326                      .dwattr $C$DW$171, DW_AT_TI_max_frame_size(-2)
    2327                      .dwpsn  file "C:/ti/ccs2031/ccs/tools/compiler/ti-cgt-c2000_22.6.2.LTS/include/_defs.h",line 335,colu
    2328              
    2329                      .dwfde $C$DW$CIE, ||__isfinite||
    2330              $C$DW$172       .dwtag  DW_TAG_formal_parameter
    2331                      .dwattr $C$DW$172, DW_AT_name("d")
    2332                      .dwattr $C$DW$172, DW_AT_type(*$C$DW$T$246)
    2333                      .dwattr $C$DW$172, DW_AT_location[DW_OP_reg12]
    2334              
    2335              
    2336              ;***************************************************************
    2337              ;* FNAME: __isfinite                    FR SIZE:   0           *
    2338              ;*                                                             *
    2339              ;* FUNCTION ENVIRONMENT                                        *
    2340              ;*                                                             *
    2341              ;* FUNCTION PROPERTIES                                         *
    2342              ;*                            0 Parameter,  0 Auto,  0 SOE     *
    2343              ;***************************************************************
    2344              
    2345              ||__isfinite||:
    2346              ;* AR4   assigned to d
    2347              $C$DW$173       .dwtag  DW_TAG_variable
    2348                      .dwattr $C$DW$173, DW_AT_name("d")
    2349                      .dwattr $C$DW$173, DW_AT_type(*$C$DW$T$247)
    2350                      .dwattr $C$DW$173, DW_AT_location[DW_OP_reg12]
    2351              
    2352                      .dwcfi  cfa_offset, -2
    2353                      .dwcfi  save_reg_to_mem, 26, 0
    2354                      .dwpsn  file "C:/ti/ccs2031/ccs/tools/compiler/ti-cgt-c2000_22.6.2.LTS/include/_defs.h",line 335,colu
    2355 00000000 A3C4          MOVL      P,*+XAR4[0]           ; [CPU_ALU] |335| 
    2356 00000001 06D4          MOVL      ACC,*+XAR4[2]         ; [CPU_ALU] |335| 
TMS320C2000 Assembler PC v22.6.2 Wed Dec 10 14:45:02 2025

Copyright (c) 1996-2018 Texas Instruments Incorporated
dual_axis_servo_drive_hal.asm                                        PAGE   46

    2357 00000002 28AC          MOV       T,#48                 ; [CPU_ALU] |335| 
         00000003 0030 
    2358 00000004 565B          LSR64     ACC:P,T               ; [CPU_ALU] |335| 
    2359 00000005 18AB          AND       PL,#0x7ff0            ; [CPU_ALU] |335| 
         00000006 7FF0 
    2360 00000007 80AB          MOVZ      AR7,PL                ; [CPU_ALU] |335| 
    2361 00000008 FF20          MOV       ACC,#32752            ; [CPU_ALU] |335| 
         00000009 7FF0 
    2362 0000000a BE00          MOVB      XAR6,#0               ; [CPU_ALU] |335| 
    2363 0000000b 0FA7          CMPL      ACC,XAR7              ; [CPU_ALU] |335| 
    2364 0000000c 56B0          MOVB      XAR6,#1,NEQ           ; [CPU_ALU] |335| 
         0000000d 01A6 
    2365 0000000e 92A6          MOV       AL,AR6                ; [CPU_ALU] |335| 
    2366              $C$DW$174       .dwtag  DW_TAG_TI_branch
    2367                      .dwattr $C$DW$174, DW_AT_low_pc(0x00)
    2368                      .dwattr $C$DW$174, DW_AT_TI_return
    2369              
    2370 0000000f 0006          LRETR     ; [CPU_ALU] 
    2371                      ; return occurs ; [] 
    2372                      .dwattr $C$DW$171, DW_AT_TI_end_file("C:/ti/ccs2031/ccs/tools/compiler/ti-cgt-c2000_22.6.2.LTS/includ
    2373                      .dwattr $C$DW$171, DW_AT_TI_end_line(0x14f)
    2374                      .dwattr $C$DW$171, DW_AT_TI_end_column(0x2e)
    2375                      .dwendentry
    2376                      .dwendtag $C$DW$171
    2377              
    2378 00000000               .sect   ".text:__fpclassifyl"
    2379                      .clink
    2380                      .global ||__fpclassifyl||
    2381              
    2382              $C$DW$175       .dwtag  DW_TAG_subprogram
    2383                      .dwattr $C$DW$175, DW_AT_name("__fpclassifyl")
    2384                      .dwattr $C$DW$175, DW_AT_low_pc(||__fpclassifyl||)
    2385                      .dwattr $C$DW$175, DW_AT_high_pc(0x00)
    2386                      .dwattr $C$DW$175, DW_AT_linkage_name("__fpclassifyl")
    2387                      .dwattr $C$DW$175, DW_AT_external
    2388                      .dwattr $C$DW$175, DW_AT_type(*$C$DW$T$10)
    2389                      .dwattr $C$DW$175, DW_AT_decl_file("C:/ti/ccs2031/ccs/tools/compiler/ti-cgt-c2000_22.6.2.LTS/include/
    2390                      .dwattr $C$DW$175, DW_AT_decl_line(0x1ae)
    2391                      .dwattr $C$DW$175, DW_AT_decl_column(0x18)
    2392                      .dwattr $C$DW$175, DW_AT_TI_max_frame_size(-10)
    2393                      .dwpsn  file "C:/ti/ccs2031/ccs/tools/compiler/ti-cgt-c2000_22.6.2.LTS/include/_defs.h",line 431,colu
    2394              
    2395                      .dwfde $C$DW$CIE, ||__fpclassifyl||
    2396              $C$DW$176       .dwtag  DW_TAG_formal_parameter
    2397                      .dwattr $C$DW$176, DW_AT_name("e")
    2398                      .dwattr $C$DW$176, DW_AT_type(*$C$DW$T$249)
    2399                      .dwattr $C$DW$176, DW_AT_location[DW_OP_reg12]
    2400              
    2401              
    2402              ;***************************************************************
    2403              ;* FNAME: __fpclassifyl                 FR SIZE:   8           *
    2404              ;*                                                             *
    2405              ;* FUNCTION ENVIRONMENT                                        *
    2406              ;*                                                             *
    2407              ;* FUNCTION PROPERTIES                                         *
TMS320C2000 Assembler PC v22.6.2 Wed Dec 10 14:45:02 2025

Copyright (c) 1996-2018 Texas Instruments Incorporated
dual_axis_servo_drive_hal.asm                                        PAGE   47

    2408              ;*                            4 Parameter,  4 Auto,  0 SOE     *
    2409              ;***************************************************************
    2410              
    2411              ||__fpclassifyl||:
    2412              $C$DW$177       .dwtag  DW_TAG_variable
    2413                      .dwattr $C$DW$177, DW_AT_name("e")
    2414                      .dwattr $C$DW$177, DW_AT_type(*$C$DW$T$18)
    2415                      .dwattr $C$DW$177, DW_AT_location[DW_OP_breg20 -8]
    2416              
    2417              ;* AR5   assigned to $O$C1
    2418              ;* AR4   assigned to e
    2419              $C$DW$178       .dwtag  DW_TAG_variable
    2420                      .dwattr $C$DW$178, DW_AT_name("e")
    2421                      .dwattr $C$DW$178, DW_AT_type(*$C$DW$T$250)
    2422                      .dwattr $C$DW$178, DW_AT_location[DW_OP_reg12]
    2423              
    2424                      .dwcfi  cfa_offset, -2
    2425                      .dwcfi  save_reg_to_mem, 26, 0
    2426 00000000 FE08          ADDB      SP,#8                 ; [CPU_ARAU] 
    2427                      .dwcfi  cfa_offset, -10
    2428 00000001 C4D4          MOVL      XAR6,*+XAR4[2]        ; [CPU_ALU] |431| 
    2429 00000002 06C4          MOVL      ACC,*+XAR4[0]         ; [CPU_ALU] |431| 
    2430 00000003 1E48          MOVL      *-SP[8],ACC           ; [CPU_ALU] |431| 
    2431 00000004 C246          MOVL      *-SP[6],XAR6          ; [CPU_ALU] |431| 
    2432                      .dwpsn  file "C:/ti/ccs2031/ccs/tools/compiler/ti-cgt-c2000_22.6.2.LTS/include/_defs.h",line 432,colu
    2433 00000005 8348          MOVL      XAR5,*-SP[8]          ; [CPU_ALU] |432| 
    2434 00000006 8A46          MOVL      XAR4,*-SP[6]          ; [CPU_ALU] |432| 
    2435                      .dwpsn  file "C:/ti/ccs2031/ccs/tools/compiler/ti-cgt-c2000_22.6.2.LTS/include/_defs.h",line 436,colu
    2436 00000007 28AC          MOV       T,#48                 ; [CPU_ALU] |436| 
         00000008 0030 
    2437 00000009 A0AB          MOVL      P,XAR5                ; [CPU_ALU] |436| 
    2438 0000000a A8A9          MOVL      ACC,XAR4              ; [CPU_ALU] |436| 
    2439 0000000b 565B          LSR64     ACC:P,T               ; [CPU_ALU] |436| 
    2440 0000000c 18AB          AND       PL,#0x7ff0            ; [CPU_ALU] |436| 
         0000000d 7FF0 
    2441 0000000e 88AB          MOVZ      AR6,PL                ; [CPU_ALU] |436| 
    2442 0000000f FF20          MOV       ACC,#32752            ; [CPU_ALU] |436| 
         00000010 7FF0 
    2443 00000011 0FA6          CMPL      ACC,XAR6              ; [CPU_ALU] |436| 
    2444 00000012 6016          B         ||$C$L13||,NEQ        ; [CPU_ALU] |436| 
    2445                      ; branchcc occurs ; [] |436| 
    2446 00000013 0200          MOVB      ACC,#0                ; [CPU_ALU] |436| 
    2447 00000014 1E44          MOVL      *-SP[4],ACC           ; [CPU_ALU] |436| 
    2448 00000015 2B42          MOV       *-SP[2],#0            ; [CPU_ALU] |436| 
    2449 00000016 2B41          MOV       *-SP[1],#0            ; [CPU_ALU] |436| 
    2450 00000017 A348          MOVL      P,*-SP[8]             ; [CPU_ALU] |436| 
    2451 00000018 0646          MOVL      ACC,*-SP[6]           ; [CPU_ALU] |436| 
    2452 00000019 18AB          AND       PL,#65535             ; [CPU_ALU] |436| 
         0000001a FFFF 
    2453 0000001b 18AA          AND       PH,#65535             ; [CPU_ALU] |436| 
         0000001c FFFF 
    2454 0000001d 18A9          AND       AL,#65535             ; [CPU_ALU] |436| 
         0000001e FFFF 
    2455 0000001f 910F          ANDB      AH,#15                ; [CPU_ALU] |436| 
    2456              $C$DW$179       .dwtag  DW_TAG_TI_branch
TMS320C2000 Assembler PC v22.6.2 Wed Dec 10 14:45:02 2025

Copyright (c) 1996-2018 Texas Instruments Incorporated
dual_axis_servo_drive_hal.asm                                        PAGE   48

    2457                      .dwattr $C$DW$179, DW_AT_low_pc(0x00)
    2458                      .dwattr $C$DW$179, DW_AT_name("__c28xabi_cmpull")
    2459                      .dwattr $C$DW$179, DW_AT_TI_call
    2460              
    2461 00000020 7640!         LCR       #||__c28xabi_cmpull|| ; [CPU_ALU] |436| 
         00000021 0000 
    2462                      ; call occurs [#||__c28xabi_cmpull||] ; [] |436| 
    2463 00000022 5200          CMPB      AL,#0                 ; [CPU_ALU] |436| 
    2464 00000023 6103          B         ||$C$L12||,EQ         ; [CPU_ALU] |436| 
    2465                      ; branchcc occurs ; [] |436| 
    2466 00000024 9A02          MOVB      AL,#2                 ; [CPU_ALU] |436| 
    2467 00000025 6F2D          B         ||$C$L16||,UNC        ; [CPU_ALU] |436| 
    2468                      ; branch occurs ; [] |436| 
    2469 00000026       ||$C$L12||:    
    2470 00000026 9A01          MOVB      AL,#1                 ; [CPU_ALU] |436| 
    2471 00000027 6F2B          B         ||$C$L16||,UNC        ; [CPU_ALU] |436| 
    2472                      ; branch occurs ; [] |436| 
    2473 00000028       ||$C$L13||:    
    2474 00000028 BE00          MOVB      XAR6,#0               ; [CPU_ALU] |436| 
    2475 00000029 A0AB          MOVL      P,XAR5                ; [CPU_ALU] |436| 
    2476 0000002a A8A9          MOVL      ACC,XAR4              ; [CPU_ALU] |436| 
    2477 0000002b 28AC          MOV       T,#52                 ; [CPU_ALU] |436| 
         0000002c 0034 
    2478 0000002d C244          MOVL      *-SP[4],XAR6          ; [CPU_ALU] |436| 
    2479 0000002e 2B42          MOV       *-SP[2],#0            ; [CPU_ALU] |436| 
    2480 0000002f 565B          LSR64     ACC:P,T               ; [CPU_ALU] |436| 
    2481 00000030 2B41          MOV       *-SP[1],#0            ; [CPU_FPU] |436| 
    2482 00000031 9000          ANDB      AL,#0                 ; [CPU_ALU] |436| 
    2483 00000032 9100          ANDB      AH,#0                 ; [CPU_ALU] |436| 
    2484 00000033 18AB          AND       PL,#2047              ; [CPU_ALU] |436| 
         00000034 07FF 
    2485 00000035 18AA          AND       PH,#0                 ; [CPU_ALU] |436| 
         00000036 0000 
    2486              $C$DW$180       .dwtag  DW_TAG_TI_branch
    2487                      .dwattr $C$DW$180, DW_AT_low_pc(0x00)
    2488                      .dwattr $C$DW$180, DW_AT_name("__c28xabi_cmpull")
    2489                      .dwattr $C$DW$180, DW_AT_TI_call
    2490              
    2491 00000037 7640!         LCR       #||__c28xabi_cmpull|| ; [CPU_ALU] |436| 
         00000038 0000 
    2492                      ; call occurs [#||__c28xabi_cmpull||] ; [] |436| 
    2493 00000039 5200          CMPB      AL,#0                 ; [CPU_ALU] |436| 
    2494 0000003a 6104          B         ||$C$L14||,EQ         ; [CPU_ALU] |436| 
    2495                      ; branchcc occurs ; [] |436| 
    2496 0000003b 28A9          MOV       AL,#-1                ; [CPU_ALU] |436| 
         0000003c FFFF 
    2497 0000003d 6F15          B         ||$C$L16||,UNC        ; [CPU_ALU] |436| 
    2498                      ; branch occurs ; [] |436| 
    2499 0000003e       ||$C$L14||:    
    2500 0000003e C244          MOVL      *-SP[4],XAR6          ; [CPU_ALU] |436| 
    2501 0000003f A8A9          MOVL      ACC,XAR4              ; [CPU_ALU] |436| 
    2502 00000040 A0AB          MOVL      P,XAR5                ; [CPU_ALU] |436| 
    2503 00000041 2B42          MOV       *-SP[2],#0            ; [CPU_ALU] |436| 
    2504 00000042 18A9          AND       AL,#65535             ; [CPU_ALU] |436| 
         00000043 FFFF 
TMS320C2000 Assembler PC v22.6.2 Wed Dec 10 14:45:02 2025

Copyright (c) 1996-2018 Texas Instruments Incorporated
dual_axis_servo_drive_hal.asm                                        PAGE   49

    2505 00000044 910F          ANDB      AH,#15                ; [CPU_ALU] |436| 
    2506 00000045 18AB          AND       PL,#65535             ; [CPU_ALU] |436| 
         00000046 FFFF 
    2507 00000047 18AA          AND       PH,#65535             ; [CPU_ALU] |436| 
         00000048 FFFF 
    2508 00000049 2B41          MOV       *-SP[1],#0            ; [CPU_FPU] |436| 
    2509              $C$DW$181       .dwtag  DW_TAG_TI_branch
    2510                      .dwattr $C$DW$181, DW_AT_low_pc(0x00)
    2511                      .dwattr $C$DW$181, DW_AT_name("__c28xabi_cmpull")
    2512                      .dwattr $C$DW$181, DW_AT_TI_call
    2513              
    2514 0000004a 7640!         LCR       #||__c28xabi_cmpull|| ; [CPU_ALU] |436| 
         0000004b 0000 
    2515                      ; call occurs [#||__c28xabi_cmpull||] ; [] |436| 
    2516 0000004c 5200          CMPB      AL,#0                 ; [CPU_ALU] |436| 
    2517 0000004d 6104          B         ||$C$L15||,EQ         ; [CPU_ALU] |436| 
    2518                      ; branchcc occurs ; [] |436| 
    2519 0000004e 28A9          MOV       AL,#-2                ; [CPU_ALU] |436| 
         0000004f FFFE 
    2520 00000050 6F02          B         ||$C$L16||,UNC        ; [CPU_ALU] |436| 
    2521                      ; branch occurs ; [] |436| 
    2522 00000051       ||$C$L15||:    
    2523 00000051 9A00          MOVB      AL,#0                 ; [CPU_ALU] |436| 
    2524 00000052       ||$C$L16||:    
    2525 00000052 FE88          SUBB      SP,#8                 ; [CPU_ARAU] 
    2526                      .dwcfi  cfa_offset, -2
    2527              $C$DW$182       .dwtag  DW_TAG_TI_branch
    2528                      .dwattr $C$DW$182, DW_AT_low_pc(0x00)
    2529                      .dwattr $C$DW$182, DW_AT_TI_return
    2530              
    2531 00000053 0006          LRETR     ; [CPU_ALU] 
    2532                      ; return occurs ; [] 
    2533                      .dwattr $C$DW$175, DW_AT_TI_end_file("C:/ti/ccs2031/ccs/tools/compiler/ti-cgt-c2000_22.6.2.LTS/includ
    2534                      .dwattr $C$DW$175, DW_AT_TI_end_line(0x1bd)
    2535                      .dwattr $C$DW$175, DW_AT_TI_end_column(0x01)
    2536                      .dwendentry
    2537                      .dwendtag $C$DW$175
    2538              
    2539 00000000               .sect   ".text:__fpclassifyf"
    2540                      .clink
    2541                      .global ||__fpclassifyf||
    2542              
    2543              $C$DW$183       .dwtag  DW_TAG_subprogram
    2544                      .dwattr $C$DW$183, DW_AT_name("__fpclassifyf")
    2545                      .dwattr $C$DW$183, DW_AT_low_pc(||__fpclassifyf||)
    2546                      .dwattr $C$DW$183, DW_AT_high_pc(0x00)
    2547                      .dwattr $C$DW$183, DW_AT_linkage_name("__fpclassifyf")
    2548                      .dwattr $C$DW$183, DW_AT_external
    2549                      .dwattr $C$DW$183, DW_AT_type(*$C$DW$T$10)
    2550                      .dwattr $C$DW$183, DW_AT_decl_file("C:/ti/ccs2031/ccs/tools/compiler/ti-cgt-c2000_22.6.2.LTS/include/
    2551                      .dwattr $C$DW$183, DW_AT_decl_line(0x18c)
    2552                      .dwattr $C$DW$183, DW_AT_decl_column(0x18)
    2553                      .dwattr $C$DW$183, DW_AT_TI_max_frame_size(-2)
    2554                      .dwpsn  file "C:/ti/ccs2031/ccs/tools/compiler/ti-cgt-c2000_22.6.2.LTS/include/_defs.h",line 397,colu
    2555              
TMS320C2000 Assembler PC v22.6.2 Wed Dec 10 14:45:02 2025

Copyright (c) 1996-2018 Texas Instruments Incorporated
dual_axis_servo_drive_hal.asm                                        PAGE   50

    2556                      .dwfde $C$DW$CIE, ||__fpclassifyf||
    2557              $C$DW$184       .dwtag  DW_TAG_formal_parameter
    2558                      .dwattr $C$DW$184, DW_AT_name("f")
    2559                      .dwattr $C$DW$184, DW_AT_type(*$C$DW$T$16)
    2560                      .dwattr $C$DW$184, DW_AT_location[DW_OP_regx 0x2b]
    2561              
    2562              
    2563              ;***************************************************************
    2564              ;* FNAME: __fpclassifyf                 FR SIZE:   0           *
    2565              ;*                                                             *
    2566              ;* FUNCTION ENVIRONMENT                                        *
    2567              ;*                                                             *
    2568              ;* FUNCTION PROPERTIES                                         *
    2569              ;*                            0 Parameter,  0 Auto,  0 SOE     *
    2570              ;***************************************************************
    2571              
    2572              ||__fpclassifyf||:
    2573              ;* PL    assigned to $O$K1
    2574              ;* R0    assigned to f
    2575              $C$DW$185       .dwtag  DW_TAG_variable
    2576                      .dwattr $C$DW$185, DW_AT_name("f")
    2577                      .dwattr $C$DW$185, DW_AT_type(*$C$DW$T$245)
    2578                      .dwattr $C$DW$185, DW_AT_location[DW_OP_regx 0x2b]
    2579              
    2580                      .dwcfi  cfa_offset, -2
    2581                      .dwcfi  save_reg_to_mem, 26, 0
    2582                      .dwpsn  file "C:/ti/ccs2031/ccs/tools/compiler/ti-cgt-c2000_22.6.2.LTS/include/_defs.h",line 398,colu
    2583 00000000 BFAB          MOV32     P,R0H                 ; [CPU_FPU] |398| 
         00000001 0F12 
    2584                      .dwpsn  file "C:/ti/ccs2031/ccs/tools/compiler/ti-cgt-c2000_22.6.2.LTS/include/_defs.h",line 402,colu
    2585 00000002 CCAA          AND       AL,PH,#0x7f80         ; [CPU_ALU] |402| 
         00000003 7F80 
    2586 00000004 88A9          MOVZ      AR6,AL                ; [CPU_ALU] |402| 
    2587 00000005 FF20          MOV       ACC,#32640            ; [CPU_ALU] |402| 
         00000006 7F80 
    2588 00000007 0FA6          CMPL      ACC,XAR6              ; [CPU_ALU] |402| 
    2589 00000008 6009          B         ||$C$L18||,NEQ        ; [CPU_ALU] |402| 
    2590                      ; branchcc occurs ; [] |402| 
    2591 00000009 A9A9          MOVL      ACC,P                 ; [CPU_ALU] |402| 
    2592 0000000a 917F          ANDB      AH,#127               ; [CPU_ALU] |402| 
    2593 0000000b FF58          TEST      ACC                   ; [CPU_ALU] |402| 
    2594 0000000c 6103          B         ||$C$L17||,EQ         ; [CPU_ALU] |402| 
    2595                      ; branchcc occurs ; [] |402| 
    2596                      .dwcfi  remember_state
    2597 0000000d 9A02          MOVB      AL,#2                 ; [CPU_ALU] |402| 
    2598              $C$DW$186       .dwtag  DW_TAG_TI_branch
    2599                      .dwattr $C$DW$186, DW_AT_low_pc(0x00)
    2600                      .dwattr $C$DW$186, DW_AT_TI_return
    2601              
    2602 0000000e 0006          LRETR     ; [CPU_ALU] 
    2603                      ; return occurs ; [] 
    2604                      .dwcfi  restore_state
    2605 0000000f       ||$C$L17||:    
    2606                      .dwcfi  remember_state
    2607 0000000f 9A01          MOVB      AL,#1                 ; [CPU_ALU] |402| 
TMS320C2000 Assembler PC v22.6.2 Wed Dec 10 14:45:02 2025

Copyright (c) 1996-2018 Texas Instruments Incorporated
dual_axis_servo_drive_hal.asm                                        PAGE   51

    2608              $C$DW$187       .dwtag  DW_TAG_TI_branch
    2609                      .dwattr $C$DW$187, DW_AT_low_pc(0x00)
    2610                      .dwattr $C$DW$187, DW_AT_TI_return
    2611              
    2612 00000010 0006          LRETR     ; [CPU_ALU] 
    2613                      ; return occurs ; [] 
    2614                      .dwcfi  restore_state
    2615 00000011       ||$C$L18||:    
    2616 00000011 A9A9          MOVL      ACC,P                 ; [CPU_ALU] |402| 
    2617 00000012 28AC          MOV       T,#23                 ; [CPU_ALU] |402| 
         00000013 0017 
    2618 00000014 5622          LSRL      ACC,T                 ; [CPU_ALU] |402| 
    2619 00000015 90FF          ANDB      AL,#0xff              ; [CPU_ALU] |402| 
    2620 00000016 6104          B         ||$C$L19||,EQ         ; [CPU_ALU] |402| 
    2621                      ; branchcc occurs ; [] |402| 
    2622                      .dwcfi  remember_state
    2623 00000017 28A9          MOV       AL,#-1                ; [CPU_ALU] |402| 
         00000018 FFFF 
    2624              $C$DW$188       .dwtag  DW_TAG_TI_branch
    2625                      .dwattr $C$DW$188, DW_AT_low_pc(0x00)
    2626                      .dwattr $C$DW$188, DW_AT_TI_return
    2627              
    2628 00000019 0006          LRETR     ; [CPU_ALU] 
    2629                      ; return occurs ; [] 
    2630                      .dwcfi  restore_state
    2631 0000001a       ||$C$L19||:    
    2632 0000001a A9A9          MOVL      ACC,P                 ; [CPU_ALU] |402| 
    2633 0000001b 917F          ANDB      AH,#127               ; [CPU_ALU] |402| 
    2634 0000001c FF58          TEST      ACC                   ; [CPU_ALU] |402| 
    2635 0000001d 6104          B         ||$C$L20||,EQ         ; [CPU_ALU] |402| 
    2636                      ; branchcc occurs ; [] |402| 
    2637                      .dwcfi  remember_state
    2638 0000001e 28A9          MOV       AL,#-2                ; [CPU_ALU] |402| 
         0000001f FFFE 
    2639              $C$DW$189       .dwtag  DW_TAG_TI_branch
    2640                      .dwattr $C$DW$189, DW_AT_low_pc(0x00)
    2641                      .dwattr $C$DW$189, DW_AT_TI_return
    2642              
    2643 00000020 0006          LRETR     ; [CPU_ALU] 
    2644                      ; return occurs ; [] 
    2645                      .dwcfi  restore_state
    2646 00000021       ||$C$L20||:    
    2647 00000021 9A00          MOVB      AL,#0                 ; [CPU_ALU] |402| 
    2648              $C$DW$190       .dwtag  DW_TAG_TI_branch
    2649                      .dwattr $C$DW$190, DW_AT_low_pc(0x00)
    2650                      .dwattr $C$DW$190, DW_AT_TI_return
    2651              
    2652 00000022 0006          LRETR     ; [CPU_ALU] 
    2653                      ; return occurs ; [] 
    2654                      .dwattr $C$DW$183, DW_AT_TI_end_file("C:/ti/ccs2031/ccs/tools/compiler/ti-cgt-c2000_22.6.2.LTS/includ
    2655                      .dwattr $C$DW$183, DW_AT_TI_end_line(0x19b)
    2656                      .dwattr $C$DW$183, DW_AT_TI_end_column(0x01)
    2657                      .dwendentry
    2658                      .dwendtag $C$DW$183
    2659              
TMS320C2000 Assembler PC v22.6.2 Wed Dec 10 14:45:02 2025

Copyright (c) 1996-2018 Texas Instruments Incorporated
dual_axis_servo_drive_hal.asm                                        PAGE   52

    2660 00000000               .sect   ".text:__fpclassify"
    2661                      .clink
    2662                      .global ||__fpclassify||
    2663              
    2664              $C$DW$191       .dwtag  DW_TAG_subprogram
    2665                      .dwattr $C$DW$191, DW_AT_name("__fpclassify")
    2666                      .dwattr $C$DW$191, DW_AT_low_pc(||__fpclassify||)
    2667                      .dwattr $C$DW$191, DW_AT_high_pc(0x00)
    2668                      .dwattr $C$DW$191, DW_AT_linkage_name("__fpclassify")
    2669                      .dwattr $C$DW$191, DW_AT_external
    2670                      .dwattr $C$DW$191, DW_AT_type(*$C$DW$T$10)
    2671                      .dwattr $C$DW$191, DW_AT_decl_file("C:/ti/ccs2031/ccs/tools/compiler/ti-cgt-c2000_22.6.2.LTS/include/
    2672                      .dwattr $C$DW$191, DW_AT_decl_line(0x19d)
    2673                      .dwattr $C$DW$191, DW_AT_decl_column(0x18)
    2674                      .dwattr $C$DW$191, DW_AT_TI_max_frame_size(-10)
    2675                      .dwpsn  file "C:/ti/ccs2031/ccs/tools/compiler/ti-cgt-c2000_22.6.2.LTS/include/_defs.h",line 414,colu
    2676              
    2677                      .dwfde $C$DW$CIE, ||__fpclassify||
    2678              $C$DW$192       .dwtag  DW_TAG_formal_parameter
    2679                      .dwattr $C$DW$192, DW_AT_name("d")
    2680                      .dwattr $C$DW$192, DW_AT_type(*$C$DW$T$246)
    2681                      .dwattr $C$DW$192, DW_AT_location[DW_OP_reg12]
    2682              
    2683              
    2684              ;***************************************************************
    2685              ;* FNAME: __fpclassify                  FR SIZE:   8           *
    2686              ;*                                                             *
    2687              ;* FUNCTION ENVIRONMENT                                        *
    2688              ;*                                                             *
    2689              ;* FUNCTION PROPERTIES                                         *
    2690              ;*                            4 Parameter,  4 Auto,  0 SOE     *
    2691              ;***************************************************************
    2692              
    2693              ||__fpclassify||:
    2694              $C$DW$193       .dwtag  DW_TAG_variable
    2695                      .dwattr $C$DW$193, DW_AT_name("d")
    2696                      .dwattr $C$DW$193, DW_AT_type(*$C$DW$T$17)
    2697                      .dwattr $C$DW$193, DW_AT_location[DW_OP_breg20 -8]
    2698              
    2699              ;* AR5   assigned to $O$C1
    2700              ;* AR4   assigned to d
    2701              $C$DW$194       .dwtag  DW_TAG_variable
    2702                      .dwattr $C$DW$194, DW_AT_name("d")
    2703                      .dwattr $C$DW$194, DW_AT_type(*$C$DW$T$247)
    2704                      .dwattr $C$DW$194, DW_AT_location[DW_OP_reg12]
    2705              
    2706                      .dwcfi  cfa_offset, -2
    2707                      .dwcfi  save_reg_to_mem, 26, 0
    2708 00000000 FE08          ADDB      SP,#8                 ; [CPU_ARAU] 
    2709                      .dwcfi  cfa_offset, -10
    2710 00000001 C4D4          MOVL      XAR6,*+XAR4[2]        ; [CPU_ALU] |414| 
    2711 00000002 06C4          MOVL      ACC,*+XAR4[0]         ; [CPU_ALU] |414| 
    2712 00000003 1E48          MOVL      *-SP[8],ACC           ; [CPU_ALU] |414| 
    2713 00000004 C246          MOVL      *-SP[6],XAR6          ; [CPU_ALU] |414| 
    2714                      .dwpsn  file "C:/ti/ccs2031/ccs/tools/compiler/ti-cgt-c2000_22.6.2.LTS/include/_defs.h",line 415,colu
TMS320C2000 Assembler PC v22.6.2 Wed Dec 10 14:45:02 2025

Copyright (c) 1996-2018 Texas Instruments Incorporated
dual_axis_servo_drive_hal.asm                                        PAGE   53

    2715 00000005 8348          MOVL      XAR5,*-SP[8]          ; [CPU_ALU] |415| 
    2716 00000006 8A46          MOVL      XAR4,*-SP[6]          ; [CPU_ALU] |415| 
    2717                      .dwpsn  file "C:/ti/ccs2031/ccs/tools/compiler/ti-cgt-c2000_22.6.2.LTS/include/_defs.h",line 419,colu
    2718 00000007 28AC          MOV       T,#48                 ; [CPU_ALU] |419| 
         00000008 0030 
    2719 00000009 A0AB          MOVL      P,XAR5                ; [CPU_ALU] |419| 
    2720 0000000a A8A9          MOVL      ACC,XAR4              ; [CPU_ALU] |419| 
    2721 0000000b 565B          LSR64     ACC:P,T               ; [CPU_ALU] |419| 
    2722 0000000c 18AB          AND       PL,#0x7ff0            ; [CPU_ALU] |419| 
         0000000d 7FF0 
    2723 0000000e 88AB          MOVZ      AR6,PL                ; [CPU_ALU] |419| 
    2724 0000000f FF20          MOV       ACC,#32752            ; [CPU_ALU] |419| 
         00000010 7FF0 
    2725 00000011 0FA6          CMPL      ACC,XAR6              ; [CPU_ALU] |419| 
    2726 00000012 6016          B         ||$C$L22||,NEQ        ; [CPU_ALU] |419| 
    2727                      ; branchcc occurs ; [] |419| 
    2728 00000013 0200          MOVB      ACC,#0                ; [CPU_ALU] |419| 
    2729 00000014 1E44          MOVL      *-SP[4],ACC           ; [CPU_ALU] |419| 
    2730 00000015 2B42          MOV       *-SP[2],#0            ; [CPU_ALU] |419| 
    2731 00000016 2B41          MOV       *-SP[1],#0            ; [CPU_ALU] |419| 
    2732 00000017 A348          MOVL      P,*-SP[8]             ; [CPU_ALU] |419| 
    2733 00000018 0646          MOVL      ACC,*-SP[6]           ; [CPU_ALU] |419| 
    2734 00000019 18AB          AND       PL,#65535             ; [CPU_ALU] |419| 
         0000001a FFFF 
    2735 0000001b 18AA          AND       PH,#65535             ; [CPU_ALU] |419| 
         0000001c FFFF 
    2736 0000001d 18A9          AND       AL,#65535             ; [CPU_ALU] |419| 
         0000001e FFFF 
    2737 0000001f 910F          ANDB      AH,#15                ; [CPU_ALU] |419| 
    2738              $C$DW$195       .dwtag  DW_TAG_TI_branch
    2739                      .dwattr $C$DW$195, DW_AT_low_pc(0x00)
    2740                      .dwattr $C$DW$195, DW_AT_name("__c28xabi_cmpull")
    2741                      .dwattr $C$DW$195, DW_AT_TI_call
    2742              
    2743 00000020 7640!         LCR       #||__c28xabi_cmpull|| ; [CPU_ALU] |419| 
         00000021 0000 
    2744                      ; call occurs [#||__c28xabi_cmpull||] ; [] |419| 
    2745 00000022 5200          CMPB      AL,#0                 ; [CPU_ALU] |419| 
    2746 00000023 6103          B         ||$C$L21||,EQ         ; [CPU_ALU] |419| 
    2747                      ; branchcc occurs ; [] |419| 
    2748 00000024 9A02          MOVB      AL,#2                 ; [CPU_ALU] |419| 
    2749 00000025 6F2D          B         ||$C$L25||,UNC        ; [CPU_ALU] |419| 
    2750                      ; branch occurs ; [] |419| 
    2751 00000026       ||$C$L21||:    
    2752 00000026 9A01          MOVB      AL,#1                 ; [CPU_ALU] |419| 
    2753 00000027 6F2B          B         ||$C$L25||,UNC        ; [CPU_ALU] |419| 
    2754                      ; branch occurs ; [] |419| 
    2755 00000028       ||$C$L22||:    
    2756 00000028 BE00          MOVB      XAR6,#0               ; [CPU_ALU] |419| 
    2757 00000029 A0AB          MOVL      P,XAR5                ; [CPU_ALU] |419| 
    2758 0000002a A8A9          MOVL      ACC,XAR4              ; [CPU_ALU] |419| 
    2759 0000002b 28AC          MOV       T,#52                 ; [CPU_ALU] |419| 
         0000002c 0034 
    2760 0000002d C244          MOVL      *-SP[4],XAR6          ; [CPU_ALU] |419| 
    2761 0000002e 2B42          MOV       *-SP[2],#0            ; [CPU_ALU] |419| 
TMS320C2000 Assembler PC v22.6.2 Wed Dec 10 14:45:02 2025

Copyright (c) 1996-2018 Texas Instruments Incorporated
dual_axis_servo_drive_hal.asm                                        PAGE   54

    2762 0000002f 565B          LSR64     ACC:P,T               ; [CPU_ALU] |419| 
    2763 00000030 2B41          MOV       *-SP[1],#0            ; [CPU_FPU] |419| 
    2764 00000031 9000          ANDB      AL,#0                 ; [CPU_ALU] |419| 
    2765 00000032 9100          ANDB      AH,#0                 ; [CPU_ALU] |419| 
    2766 00000033 18AB          AND       PL,#2047              ; [CPU_ALU] |419| 
         00000034 07FF 
    2767 00000035 18AA          AND       PH,#0                 ; [CPU_ALU] |419| 
         00000036 0000 
    2768              $C$DW$196       .dwtag  DW_TAG_TI_branch
    2769                      .dwattr $C$DW$196, DW_AT_low_pc(0x00)
    2770                      .dwattr $C$DW$196, DW_AT_name("__c28xabi_cmpull")
    2771                      .dwattr $C$DW$196, DW_AT_TI_call
    2772              
    2773 00000037 7640!         LCR       #||__c28xabi_cmpull|| ; [CPU_ALU] |419| 
         00000038 0000 
    2774                      ; call occurs [#||__c28xabi_cmpull||] ; [] |419| 
    2775 00000039 5200          CMPB      AL,#0                 ; [CPU_ALU] |419| 
    2776 0000003a 6104          B         ||$C$L23||,EQ         ; [CPU_ALU] |419| 
    2777                      ; branchcc occurs ; [] |419| 
    2778 0000003b 28A9          MOV       AL,#-1                ; [CPU_ALU] |419| 
         0000003c FFFF 
    2779 0000003d 6F15          B         ||$C$L25||,UNC        ; [CPU_ALU] |419| 
    2780                      ; branch occurs ; [] |419| 
    2781 0000003e       ||$C$L23||:    
    2782 0000003e C244          MOVL      *-SP[4],XAR6          ; [CPU_ALU] |419| 
    2783 0000003f A8A9          MOVL      ACC,XAR4              ; [CPU_ALU] |419| 
    2784 00000040 A0AB          MOVL      P,XAR5                ; [CPU_ALU] |419| 
    2785 00000041 2B42          MOV       *-SP[2],#0            ; [CPU_ALU] |419| 
    2786 00000042 18A9          AND       AL,#65535             ; [CPU_ALU] |419| 
         00000043 FFFF 
    2787 00000044 910F          ANDB      AH,#15                ; [CPU_ALU] |419| 
    2788 00000045 18AB          AND       PL,#65535             ; [CPU_ALU] |419| 
         00000046 FFFF 
    2789 00000047 18AA          AND       PH,#65535             ; [CPU_ALU] |419| 
         00000048 FFFF 
    2790 00000049 2B41          MOV       *-SP[1],#0            ; [CPU_FPU] |419| 
    2791              $C$DW$197       .dwtag  DW_TAG_TI_branch
    2792                      .dwattr $C$DW$197, DW_AT_low_pc(0x00)
    2793                      .dwattr $C$DW$197, DW_AT_name("__c28xabi_cmpull")
    2794                      .dwattr $C$DW$197, DW_AT_TI_call
    2795              
    2796 0000004a 7640!         LCR       #||__c28xabi_cmpull|| ; [CPU_ALU] |419| 
         0000004b 0000 
    2797                      ; call occurs [#||__c28xabi_cmpull||] ; [] |419| 
    2798 0000004c 5200          CMPB      AL,#0                 ; [CPU_ALU] |419| 
    2799 0000004d 6104          B         ||$C$L24||,EQ         ; [CPU_ALU] |419| 
    2800                      ; branchcc occurs ; [] |419| 
    2801 0000004e 28A9          MOV       AL,#-2                ; [CPU_ALU] |419| 
         0000004f FFFE 
    2802 00000050 6F02          B         ||$C$L25||,UNC        ; [CPU_ALU] |419| 
    2803                      ; branch occurs ; [] |419| 
    2804 00000051       ||$C$L24||:    
    2805 00000051 9A00          MOVB      AL,#0                 ; [CPU_ALU] |419| 
    2806 00000052       ||$C$L25||:    
    2807 00000052 FE88          SUBB      SP,#8                 ; [CPU_ARAU] 
TMS320C2000 Assembler PC v22.6.2 Wed Dec 10 14:45:02 2025

Copyright (c) 1996-2018 Texas Instruments Incorporated
dual_axis_servo_drive_hal.asm                                        PAGE   55

    2808                      .dwcfi  cfa_offset, -2
    2809              $C$DW$198       .dwtag  DW_TAG_TI_branch
    2810                      .dwattr $C$DW$198, DW_AT_low_pc(0x00)
    2811                      .dwattr $C$DW$198, DW_AT_TI_return
    2812              
    2813 00000053 0006          LRETR     ; [CPU_ALU] 
    2814                      ; return occurs ; [] 
    2815                      .dwattr $C$DW$191, DW_AT_TI_end_file("C:/ti/ccs2031/ccs/tools/compiler/ti-cgt-c2000_22.6.2.LTS/includ
    2816                      .dwattr $C$DW$191, DW_AT_TI_end_line(0x1ac)
    2817                      .dwattr $C$DW$191, DW_AT_TI_end_column(0x01)
    2818                      .dwendentry
    2819                      .dwendtag $C$DW$191
    2820              
    2821 00000000               .sect   ".text:__fast_lldiv"
    2822                      .clink
    2823                      .global ||__fast_lldiv||
    2824              
    2825              $C$DW$199       .dwtag  DW_TAG_subprogram
    2826                      .dwattr $C$DW$199, DW_AT_name("__fast_lldiv")
    2827                      .dwattr $C$DW$199, DW_AT_low_pc(||__fast_lldiv||)
    2828                      .dwattr $C$DW$199, DW_AT_high_pc(0x00)
    2829                      .dwattr $C$DW$199, DW_AT_linkage_name("__fast_lldiv")
    2830                      .dwattr $C$DW$199, DW_AT_external
    2831                      .dwattr $C$DW$199, DW_AT_type(*$C$DW$T$132)
    2832                      .dwattr $C$DW$199, DW_AT_decl_file("C:/ti/ccs2031/ccs/tools/compiler/ti-cgt-c2000_22.6.2.LTS/include/
    2833                      .dwattr $C$DW$199, DW_AT_decl_line(0x1ab)
    2834                      .dwattr $C$DW$199, DW_AT_decl_column(0x12)
    2835                      .dwattr $C$DW$199, DW_AT_TI_max_frame_size(-14)
    2836                      .dwpsn  file "C:/ti/ccs2031/ccs/tools/compiler/ti-cgt-c2000_22.6.2.LTS/include/stdlib.h",line 428,col
    2837              
    2838                      .dwfde $C$DW$CIE, ||__fast_lldiv||
    2839              $C$DW$200       .dwtag  DW_TAG_formal_parameter
    2840                      .dwattr $C$DW$200, DW_AT_name("_numer")
    2841                      .dwattr $C$DW$200, DW_AT_type(*$C$DW$T$14)
    2842                      .dwattr $C$DW$200, DW_AT_location[DW_OP_reg2]
    2843              
    2844              $C$DW$201       .dwtag  DW_TAG_formal_parameter
    2845                      .dwattr $C$DW$201, DW_AT_name("_denom")
    2846                      .dwattr $C$DW$201, DW_AT_type(*$C$DW$T$14)
    2847                      .dwattr $C$DW$201, DW_AT_location[DW_OP_breg20 -18]
    2848              
    2849              
    2850              ;***************************************************************
    2851              ;* FNAME: __fast_lldiv                  FR SIZE:  12           *
    2852              ;*                                                             *
    2853              ;* FUNCTION ENVIRONMENT                                        *
    2854              ;*                                                             *
    2855              ;* FUNCTION PROPERTIES                                         *
    2856              ;*                            0 Parameter,  8 Auto,  4 SOE     *
    2857              ;***************************************************************
    2858              
    2859 00000000       ||__fast_lldiv||:
    2860                      .dwcfi  cfa_offset, -2
    2861                      .dwcfi  save_reg_to_mem, 26, 0
    2862 00000000 E203          MOV32     *SP++,R4H             ; [CPU_FPU] 
TMS320C2000 Assembler PC v22.6.2 Wed Dec 10 14:45:02 2025

Copyright (c) 1996-2018 Texas Instruments Incorporated
dual_axis_servo_drive_hal.asm                                        PAGE   56

         00000001 04BD 
    2863                      .dwcfi  save_reg_to_mem, 59, 2
    2864                      .dwcfi  cfa_offset, -4
    2865 00000002 E203          MOV32     *SP++,R5H             ; [CPU_FPU] 
         00000003 05BD 
    2866                      .dwcfi  save_reg_to_mem, 63, 4
    2867                      .dwcfi  cfa_offset, -6
    2868 00000004 FE08          ADDB      SP,#8                 ; [CPU_ARAU] 
    2869                      .dwcfi  cfa_offset, -14
    2870 00000005 1EA7          MOVL      XAR7,ACC              ; [CPU_ALU] |428| 
    2871 00000006 5CAD          MOVZ      AR4,SP                ; [CPU_ALU] |428| 
    2872 00000007 06A6          MOVL      ACC,XAR6              ; [CPU_ALU] |428| 
    2873                      .dwpsn  file "C:/ti/ccs2031/ccs/tools/compiler/ti-cgt-c2000_22.6.2.LTS/include/stdlib.h",line 429,col
    2874 00000008 C4A7          MOVL      XAR6,XAR7             ; [CPU_ALU] |429| 
    2875                      .dwpsn  file "C:/ti/ccs2031/ccs/tools/compiler/ti-cgt-c2000_22.6.2.LTS/include/stdlib.h",line 428,col
    2876 00000009 DC92          SUBB      XAR4,#18              ; [CPU_ARAU] |428| 
    2877                      .dwpsn  file "C:/ti/ccs2031/ccs/tools/compiler/ti-cgt-c2000_22.6.2.LTS/include/stdlib.h",line 429,col
    2878 0000000a E2AF          MOV32     R3H,*+XAR4[2]         ; [CPU_FPU] |429| 
         0000000b 03D4 
    2879 0000000c BDA6          MOV32     R1H,XAR6              ; [CPU_FPU] |429| 
         0000000d 0F16 
    2880 0000000e BDAB          MOV32     R0H,P                 ; [CPU_FPU] |429| 
         0000000f 0F12 
    2881 00000010 E2AF          MOV32     R5H,*+XAR4[0]         ; [CPU_FPU] |429| 
         00000011 05C4 
    2882 00000012 5CAD          MOVZ      AR4,SP                ; [CPU_ALU] |429| 
    2883 00000013 DC88          SUBB      XAR4,#8               ; [CPU_ARAU] |429| 
    2884 00000014 80A4          MOVZ      AR7,AR4               ; [CPU_ALU] |429| 
    2885 00000015 E5B8          ABSI64DIV64 R2H:R4H,R1H:R0H,R3H:R5H ; [CPU_FPU] |429| 
    2886 00000016 E565          SUBC2UI64 R2H:R4H,R1H:R0H,R3H:R5H ; [CPU_FPU] |429| 
    2887 00000017 E565          SUBC2UI64 R2H:R4H,R1H:R0H,R3H:R5H ; [CPU_FPU] |429| 
    2888 00000018 E565          SUBC2UI64 R2H:R4H,R1H:R0H,R3H:R5H ; [CPU_FPU] |429| 
    2889 00000019 E565          SUBC2UI64 R2H:R4H,R1H:R0H,R3H:R5H ; [CPU_FPU] |429| 
    2890 0000001a E565          SUBC2UI64 R2H:R4H,R1H:R0H,R3H:R5H ; [CPU_FPU] |429| 
    2891 0000001b E565          SUBC2UI64 R2H:R4H,R1H:R0H,R3H:R5H ; [CPU_FPU] |429| 
    2892 0000001c E565          SUBC2UI64 R2H:R4H,R1H:R0H,R3H:R5H ; [CPU_FPU] |429| 
    2893 0000001d E565          SUBC2UI64 R2H:R4H,R1H:R0H,R3H:R5H ; [CPU_FPU] |429| 
    2894 0000001e E565          SUBC2UI64 R2H:R4H,R1H:R0H,R3H:R5H ; [CPU_FPU] |429| 
    2895 0000001f E565          SUBC2UI64 R2H:R4H,R1H:R0H,R3H:R5H ; [CPU_FPU] |429| 
    2896 00000020 E565          SUBC2UI64 R2H:R4H,R1H:R0H,R3H:R5H ; [CPU_FPU] |429| 
    2897 00000021 E565          SUBC2UI64 R2H:R4H,R1H:R0H,R3H:R5H ; [CPU_FPU] |429| 
    2898 00000022 E565          SUBC2UI64 R2H:R4H,R1H:R0H,R3H:R5H ; [CPU_FPU] |429| 
    2899 00000023 E565          SUBC2UI64 R2H:R4H,R1H:R0H,R3H:R5H ; [CPU_FPU] |429| 
    2900 00000024 E565          SUBC2UI64 R2H:R4H,R1H:R0H,R3H:R5H ; [CPU_FPU] |429| 
    2901 00000025 E565          SUBC2UI64 R2H:R4H,R1H:R0H,R3H:R5H ; [CPU_FPU] |429| 
    2902 00000026 E565          SUBC2UI64 R2H:R4H,R1H:R0H,R3H:R5H ; [CPU_FPU] |429| 
    2903 00000027 E565          SUBC2UI64 R2H:R4H,R1H:R0H,R3H:R5H ; [CPU_FPU] |429| 
    2904 00000028 E565          SUBC2UI64 R2H:R4H,R1H:R0H,R3H:R5H ; [CPU_FPU] |429| 
    2905 00000029 E565          SUBC2UI64 R2H:R4H,R1H:R0H,R3H:R5H ; [CPU_FPU] |429| 
    2906 0000002a E565          SUBC2UI64 R2H:R4H,R1H:R0H,R3H:R5H ; [CPU_FPU] |429| 
    2907 0000002b E565          SUBC2UI64 R2H:R4H,R1H:R0H,R3H:R5H ; [CPU_FPU] |429| 
    2908 0000002c E565          SUBC2UI64 R2H:R4H,R1H:R0H,R3H:R5H ; [CPU_FPU] |429| 
    2909 0000002d E565          SUBC2UI64 R2H:R4H,R1H:R0H,R3H:R5H ; [CPU_FPU] |429| 
    2910 0000002e E565          SUBC2UI64 R2H:R4H,R1H:R0H,R3H:R5H ; [CPU_FPU] |429| 
    2911 0000002f E565          SUBC2UI64 R2H:R4H,R1H:R0H,R3H:R5H ; [CPU_FPU] |429| 
TMS320C2000 Assembler PC v22.6.2 Wed Dec 10 14:45:02 2025

Copyright (c) 1996-2018 Texas Instruments Incorporated
dual_axis_servo_drive_hal.asm                                        PAGE   57

    2912 00000030 E565          SUBC2UI64 R2H:R4H,R1H:R0H,R3H:R5H ; [CPU_FPU] |429| 
    2913 00000031 E565          SUBC2UI64 R2H:R4H,R1H:R0H,R3H:R5H ; [CPU_FPU] |429| 
    2914 00000032 E565          SUBC2UI64 R2H:R4H,R1H:R0H,R3H:R5H ; [CPU_FPU] |429| 
    2915 00000033 E565          SUBC2UI64 R2H:R4H,R1H:R0H,R3H:R5H ; [CPU_FPU] |429| 
    2916 00000034 E565          SUBC2UI64 R2H:R4H,R1H:R0H,R3H:R5H ; [CPU_FPU] |429| 
    2917 00000035 E565          SUBC2UI64 R2H:R4H,R1H:R0H,R3H:R5H ; [CPU_FPU] |429| 
    2918 00000036 E5BA          NEGI64DIV64 R1H:R0H,R2H:R4H     ; [CPU_FPU] |429| 
    2919 00000037 E203          MOV32     *-SP[6],R1H           ; [CPU_FPU] |429| 
         00000038 0146 
    2920 00000039 E203          MOV32     *-SP[8],R0H           ; [CPU_FPU] |429| 
         0000003a 0048 
    2921 0000003b E203          MOV32     *-SP[2],R2H           ; [CPU_FPU] |429| 
         0000003c 0242 
    2922 0000003d E203          MOV32     *-SP[4],R4H           ; [CPU_FPU] |429| 
         0000003e 0444 
    2923 0000003f 6104          B         ||$C$L26||,EQ         ; [CPU_ALU] |429| 
    2924                      ; branchcc occurs ; [] |429| 
    2925 00000040 8AA9          MOVL      XAR4,ACC              ; [CPU_ALU] |429| 
    2926 00000041 F607          RPT       #7
    2927 00000042 2484  ||     PREAD     *XAR4++,*XAR7         ; [CPU_ALU] |429| 
    2928 00000043       ||$C$L26||:    
    2929 00000043 FE88          SUBB      SP,#8                 ; [CPU_ARAU] 
    2930                      .dwcfi  cfa_offset, -6
    2931 00000044 E2AF          MOV32     R5H,*--SP             ; [CPU_FPU] 
         00000045 05BE 
    2932                      .dwcfi  cfa_offset, -4
    2933                      .dwcfi  restore_reg, 63
    2934 00000046 E2AF          MOV32     R4H,*--SP             ; [CPU_FPU] 
         00000047 04BE 
    2935                      .dwcfi  cfa_offset, -2
    2936                      .dwcfi  restore_reg, 59
    2937              $C$DW$202       .dwtag  DW_TAG_TI_branch
    2938                      .dwattr $C$DW$202, DW_AT_low_pc(0x00)
    2939                      .dwattr $C$DW$202, DW_AT_TI_return
    2940              
    2941 00000048 0006          LRETR     ; [CPU_ALU] 
    2942                      ; return occurs ; [] 
    2943                      .dwattr $C$DW$199, DW_AT_TI_end_file("C:/ti/ccs2031/ccs/tools/compiler/ti-cgt-c2000_22.6.2.LTS/includ
    2944                      .dwattr $C$DW$199, DW_AT_TI_end_line(0x1ae)
    2945                      .dwattr $C$DW$199, DW_AT_TI_end_column(0x01)
    2946                      .dwendentry
    2947                      .dwendtag $C$DW$199
    2948              
    2949 00000000               .sect   ".text:__fast_ldiv"
    2950                      .clink
    2951                      .global ||__fast_ldiv||
    2952              
    2953              $C$DW$203       .dwtag  DW_TAG_subprogram
    2954                      .dwattr $C$DW$203, DW_AT_name("__fast_ldiv")
    2955                      .dwattr $C$DW$203, DW_AT_low_pc(||__fast_ldiv||)
    2956                      .dwattr $C$DW$203, DW_AT_high_pc(0x00)
    2957                      .dwattr $C$DW$203, DW_AT_linkage_name("__fast_ldiv")
    2958                      .dwattr $C$DW$203, DW_AT_external
    2959                      .dwattr $C$DW$203, DW_AT_type(*$C$DW$T$129)
    2960                      .dwattr $C$DW$203, DW_AT_decl_file("C:/ti/ccs2031/ccs/tools/compiler/ti-cgt-c2000_22.6.2.LTS/include/
TMS320C2000 Assembler PC v22.6.2 Wed Dec 10 14:45:02 2025

Copyright (c) 1996-2018 Texas Instruments Incorporated
dual_axis_servo_drive_hal.asm                                        PAGE   58

    2961                      .dwattr $C$DW$203, DW_AT_decl_line(0x1a4)
    2962                      .dwattr $C$DW$203, DW_AT_decl_column(0x11)
    2963                      .dwattr $C$DW$203, DW_AT_TI_max_frame_size(-6)
    2964                      .dwpsn  file "C:/ti/ccs2031/ccs/tools/compiler/ti-cgt-c2000_22.6.2.LTS/include/stdlib.h",line 421,col
    2965              
    2966                      .dwfde $C$DW$CIE, ||__fast_ldiv||
    2967              $C$DW$204       .dwtag  DW_TAG_formal_parameter
    2968                      .dwattr $C$DW$204, DW_AT_name("_numer")
    2969                      .dwattr $C$DW$204, DW_AT_type(*$C$DW$T$12)
    2970                      .dwattr $C$DW$204, DW_AT_location[DW_OP_reg0]
    2971              
    2972              $C$DW$205       .dwtag  DW_TAG_formal_parameter
    2973                      .dwattr $C$DW$205, DW_AT_name("_denom")
    2974                      .dwattr $C$DW$205, DW_AT_type(*$C$DW$T$12)
    2975                      .dwattr $C$DW$205, DW_AT_location[DW_OP_breg20 -8]
    2976              
    2977              
    2978              ;***************************************************************
    2979              ;* FNAME: __fast_ldiv                   FR SIZE:   4           *
    2980              ;*                                                             *
    2981              ;* FUNCTION ENVIRONMENT                                        *
    2982              ;*                                                             *
    2983              ;* FUNCTION PROPERTIES                                         *
    2984              ;*                            0 Parameter,  4 Auto,  0 SOE     *
    2985              ;***************************************************************
    2986              
    2987              ||__fast_ldiv||:
    2988              ;* AR7   assigned to _numer
    2989              $C$DW$206       .dwtag  DW_TAG_variable
    2990                      .dwattr $C$DW$206, DW_AT_name("_numer")
    2991                      .dwattr $C$DW$206, DW_AT_type(*$C$DW$T$234)
    2992                      .dwattr $C$DW$206, DW_AT_location[DW_OP_reg18]
    2993              
    2994                      .dwcfi  cfa_offset, -2
    2995                      .dwcfi  save_reg_to_mem, 26, 0
    2996 00000000 FE04          ADDB      SP,#4                 ; [CPU_ARAU] 
    2997                      .dwcfi  cfa_offset, -6
    2998 00000001 1EA7          MOVL      XAR7,ACC              ; [CPU_ALU] |421| 
    2999                      .dwpsn  file "C:/ti/ccs2031/ccs/tools/compiler/ti-cgt-c2000_22.6.2.LTS/include/stdlib.h",line 422,col
    3000 00000002 5CAD          MOVZ      AR4,SP                ; [CPU_ALU] |422| 
    3001 00000003 BDA7          MOV32     R1H,XAR7              ; [CPU_FPU] |422| 
         00000004 0F16 
    3002 00000005 E2AF          MOV32     R3H,*-SP[8]           ; [CPU_FPU] |422| 
         00000006 0348 
    3003 00000007 DC84          SUBB      XAR4,#4               ; [CPU_ARAU] |422| 
    3004                      .dwpsn  file "C:/ti/ccs2031/ccs/tools/compiler/ti-cgt-c2000_22.6.2.LTS/include/stdlib.h",line 421,col
    3005 00000008 06A6          MOVL      ACC,XAR6              ; [CPU_ALU] |421| 
    3006                      .dwpsn  file "C:/ti/ccs2031/ccs/tools/compiler/ti-cgt-c2000_22.6.2.LTS/include/stdlib.h",line 422,col
    3007 00000009 80A4          MOVZ      AR7,AR4               ; [CPU_ALU] |422| 
    3008 0000000a E568          ABSI32DIV32 R2H,R1H,R3H         ; [CPU_FPU] |422| 
    3009 0000000b E564          SUBC4UI32 R2H,R1H,R3H           ; [CPU_FPU] |422| 
    3010 0000000c E564          SUBC4UI32 R2H,R1H,R3H           ; [CPU_FPU] |422| 
    3011 0000000d E564          SUBC4UI32 R2H,R1H,R3H           ; [CPU_FPU] |422| 
    3012 0000000e E564          SUBC4UI32 R2H,R1H,R3H           ; [CPU_FPU] |422| 
    3013 0000000f E564          SUBC4UI32 R2H,R1H,R3H           ; [CPU_FPU] |422| 
TMS320C2000 Assembler PC v22.6.2 Wed Dec 10 14:45:02 2025

Copyright (c) 1996-2018 Texas Instruments Incorporated
dual_axis_servo_drive_hal.asm                                        PAGE   59

    3014 00000010 E564          SUBC4UI32 R2H,R1H,R3H           ; [CPU_FPU] |422| 
    3015 00000011 E564          SUBC4UI32 R2H,R1H,R3H           ; [CPU_FPU] |422| 
    3016 00000012 E564          SUBC4UI32 R2H,R1H,R3H           ; [CPU_FPU] |422| 
    3017 00000013 E56A          NEGI32DIV32 R1H,R2H             ; [CPU_FPU] |422| 
    3018 00000014 E203          MOV32     *-SP[4],R1H           ; [CPU_FPU] |422| 
         00000015 0144 
    3019 00000016 E203          MOV32     *-SP[2],R2H           ; [CPU_FPU] |422| 
         00000017 0242 
    3020 00000018 6104          B         ||$C$L27||,EQ         ; [CPU_ALU] |422| 
    3021                      ; branchcc occurs ; [] |422| 
    3022 00000019 8AA9          MOVL      XAR4,ACC              ; [CPU_ALU] |422| 
    3023 0000001a F603          RPT       #3
    3024 0000001b 2484  ||     PREAD     *XAR4++,*XAR7         ; [CPU_ALU] |422| 
    3025 0000001c       ||$C$L27||:    
    3026 0000001c FE84          SUBB      SP,#4                 ; [CPU_ARAU] 
    3027                      .dwcfi  cfa_offset, -2
    3028              $C$DW$207       .dwtag  DW_TAG_TI_branch
    3029                      .dwattr $C$DW$207, DW_AT_low_pc(0x00)
    3030                      .dwattr $C$DW$207, DW_AT_TI_return
    3031              
    3032 0000001d 0006          LRETR     ; [CPU_ALU] 
    3033                      ; return occurs ; [] 
    3034                      .dwattr $C$DW$203, DW_AT_TI_end_file("C:/ti/ccs2031/ccs/tools/compiler/ti-cgt-c2000_22.6.2.LTS/includ
    3035                      .dwattr $C$DW$203, DW_AT_TI_end_line(0x1a7)
    3036                      .dwattr $C$DW$203, DW_AT_TI_end_column(0x01)
    3037                      .dwendentry
    3038                      .dwendtag $C$DW$203
    3039              
    3040 00000000               .sect   ".text:HAL_setupQEP"
    3041                      .clink
    3042                      .global ||HAL_setupQEP||
    3043              
    3044              $C$DW$208       .dwtag  DW_TAG_subprogram
    3045                      .dwattr $C$DW$208, DW_AT_name("HAL_setupQEP")
    3046                      .dwattr $C$DW$208, DW_AT_low_pc(||HAL_setupQEP||)
    3047                      .dwattr $C$DW$208, DW_AT_high_pc(0x00)
    3048                      .dwattr $C$DW$208, DW_AT_linkage_name("HAL_setupQEP")
    3049                      .dwattr $C$DW$208, DW_AT_external
    3050                      .dwattr $C$DW$208, DW_AT_decl_file("../sources/dual_axis_servo_drive_hal.c")
    3051                      .dwattr $C$DW$208, DW_AT_decl_line(0x52d)
    3052                      .dwattr $C$DW$208, DW_AT_decl_column(0x06)
    3053                      .dwattr $C$DW$208, DW_AT_TI_max_frame_size(-6)
    3054                      .dwpsn  file "../sources/dual_axis_servo_drive_hal.c",line 1326,column 1,is_stmt,address ||HAL_setupQ
    3055              
    3056                      .dwfde $C$DW$CIE, ||HAL_setupQEP||
    3057              $C$DW$209       .dwtag  DW_TAG_formal_parameter
    3058                      .dwattr $C$DW$209, DW_AT_name("handle")
    3059                      .dwattr $C$DW$209, DW_AT_type(*$C$DW$T$142)
    3060                      .dwattr $C$DW$209, DW_AT_location[DW_OP_reg12]
    3061              
    3062              
    3063              ;***************************************************************
    3064              ;* FNAME: HAL_setupQEP                  FR SIZE:   4           *
    3065              ;*                                                             *
    3066              ;* FUNCTION ENVIRONMENT                                        *
TMS320C2000 Assembler PC v22.6.2 Wed Dec 10 14:45:02 2025

Copyright (c) 1996-2018 Texas Instruments Incorporated
dual_axis_servo_drive_hal.asm                                        PAGE   60

    3067              ;*                                                             *
    3068              ;* FUNCTION PROPERTIES                                         *
    3069              ;*                            0 Parameter,  0 Auto,  4 SOE     *
    3070              ;***************************************************************
    3071              
    3072              ||HAL_setupQEP||:
    3073              ;* AR5   assigned to $O$C1
    3074              ;* AR5   assigned to $O$C2
    3075              ;* AL    assigned to $O$K18
    3076              ;* AR5   assigned to $O$U2
    3077              ;* AR4   assigned to handle
    3078              $C$DW$210       .dwtag  DW_TAG_variable
    3079                      .dwattr $C$DW$210, DW_AT_name("handle")
    3080                      .dwattr $C$DW$210, DW_AT_type(*$C$DW$T$143)
    3081                      .dwattr $C$DW$210, DW_AT_location[DW_OP_reg12]
    3082              
    3083              ;* AR5   assigned to base
    3084              $C$DW$211       .dwtag  DW_TAG_variable
    3085                      .dwattr $C$DW$211, DW_AT_name("base")
    3086                      .dwattr $C$DW$211, DW_AT_type(*$C$DW$T$28)
    3087                      .dwattr $C$DW$211, DW_AT_location[DW_OP_reg14]
    3088              
    3089              ;* AR6   assigned to base
    3090              $C$DW$212       .dwtag  DW_TAG_variable
    3091                      .dwattr $C$DW$212, DW_AT_name("base")
    3092                      .dwattr $C$DW$212, DW_AT_type(*$C$DW$T$28)
    3093                      .dwattr $C$DW$212, DW_AT_location[DW_OP_reg16]
    3094              
    3095                      .dwcfi  cfa_offset, -2
    3096                      .dwcfi  save_reg_to_mem, 26, 0
    3097 00000000 B2BD          MOVL      *SP++,XAR1            ; [CPU_ALU] 
    3098                      .dwcfi  save_reg_to_mem, 7, 2
    3099                      .dwcfi  cfa_offset, -4
    3100                      .dwpsn  file "C:/ti/C2000Ware_MotorControl_SDK_5_04_00_00/c2000ware/driverlib/f28002x/driverlib/eqep.
    3101 00000001 D10E          MOVB      XAR1,#14              ; [CPU_ALU] |473| 
    3102 00000002 AABD          MOVL      *SP++,XAR2            ; [CPU_ALU] 
    3103                      .dwcfi  save_reg_to_mem, 9, 4
    3104                      .dwcfi  cfa_offset, -6
    3105 00000003 839C          MOVL      XAR5,*+XAR4[AR1]      ; [CPU_ALU] |473| 
    3106 00000004 D014          MOVB      XAR0,#20              ; [CPU_ALU] |473| 
    3107                      .dwpsn  file "C:/ti/C2000Ware_MotorControl_SDK_5_04_00_00/c2000ware/driverlib/f28002x/driverlib/eqep.
    3108 00000005 D10E          MOVB      XAR1,#14              ; [CPU_ALU] |1832| 
    3109                      .dwpsn  file "C:/ti/C2000Ware_MotorControl_SDK_5_04_00_00/c2000ware/driverlib/f28002x/driverlib/eqep.
    3110 00000006 CC95          AND       AL,*+XAR5[AR0],#0x31ff ; [CPU_ALU] |473| 
         00000007 31FF 
    3111 00000008 D014          MOVB      XAR0,#20              ; [CPU_ALU] |473| 
    3112 00000009 9695          MOV       *+XAR5[AR0],AL        ; [CPU_ALU] |473| 
    3113                      .dwpsn  file "C:/ti/C2000Ware_MotorControl_SDK_5_04_00_00/c2000ware/driverlib/f28002x/driverlib/eqep.
    3114 0000000a 839C          MOVL      XAR5,*+XAR4[AR1]      ; [CPU_ALU] |1832| 
    3115 0000000b D015          MOVB      XAR0,#21              ; [CPU_ALU] |1832| 
    3116                      .dwpsn  file "C:/ti/C2000Ware_MotorControl_SDK_5_04_00_00/c2000ware/driverlib/f28002x/driverlib/eqep.
    3117 0000000c D10E          MOVB      XAR1,#14              ; [CPU_ALU] |1498| 
    3118                      .dwpsn  file "C:/ti/C2000Ware_MotorControl_SDK_5_04_00_00/c2000ware/driverlib/f28002x/driverlib/eqep.
    3119 0000000d CC95          AND       AL,*+XAR5[AR0],#0x3fff ; [CPU_ALU] |1832| 
         0000000e 3FFF 
TMS320C2000 Assembler PC v22.6.2 Wed Dec 10 14:45:02 2025

Copyright (c) 1996-2018 Texas Instruments Incorporated
dual_axis_servo_drive_hal.asm                                        PAGE   61

    3120 0000000f D015          MOVB      XAR0,#21              ; [CPU_ALU] |1832| 
    3121 00000010 1AA9          OR        AL,#0x8000            ; [CPU_ALU] |1832| 
         00000011 8000 
    3122 00000012 9695          MOV       *+XAR5[AR0],AL        ; [CPU_ALU] |1832| 
    3123                      .dwpsn  file "C:/ti/C2000Ware_MotorControl_SDK_5_04_00_00/c2000ware/driverlib/f28002x/driverlib/eqep.
    3124 00000013 839C          MOVL      XAR5,*+XAR4[AR1]      ; [CPU_ALU] |1498| 
    3125 00000014 D015          MOVB      XAR0,#21              ; [CPU_ALU] |1498| 
    3126                      .dwpsn  file "../sources/dual_axis_servo_drive_hal.c",line 1343,column 5,is_stmt,isa 0
    3127 00000015 7680!         MOVL      XAR6,#||halMtr||      ; [CPU_ARAU] |1343| 
         00000016 0000 
    3128                      .dwpsn  file "C:/ti/C2000Ware_MotorControl_SDK_5_04_00_00/c2000ware/driverlib/f28002x/driverlib/eqep.
    3129 00000017 CC95          AND       AL,*+XAR5[AR0],#0xff9f ; [CPU_ALU] |1498| 
         00000018 FF9F 
    3130 00000019 D015          MOVB      XAR0,#21              ; [CPU_ALU] |1498| 
    3131 0000001a 5014          ORB       AL,#0x14              ; [CPU_ALU] |1498| 
    3132 0000001b 9695          MOV       *+XAR5[AR0],AL        ; [CPU_ALU] |1498| 
    3133                      .dwpsn  file "../sources/dual_axis_servo_drive_hal.c",line 1343,column 5,is_stmt,isa 0
    3134 0000001c 06A6          MOVL      ACC,XAR6              ; [CPU_ALU] |1343| 
    3135 0000001d 0FA4          CMPL      ACC,XAR4              ; [CPU_ALU] |1343| 
    3136 0000001e 6114          B         ||$C$L28||,EQ         ; [CPU_ALU] |1343| 
    3137                      ; branchcc occurs ; [] |1343| 
    3138                      .dwpsn  file "../sources/dual_axis_servo_drive_hal.c",line 1352,column 10,is_stmt,isa 0
    3139 0000001f 0912          ADDB      ACC,#18               ; [CPU_ALU] |1352| 
    3140 00000020 0FA4          CMPL      ACC,XAR4              ; [CPU_ALU] |1352| 
    3141 00000021 6023          B         ||$C$L30||,NEQ        ; [CPU_ALU] |1352| 
    3142                      ; branchcc occurs ; [] |1352| 
    3143                      .dwpsn  file "C:/ti/C2000Ware_MotorControl_SDK_5_04_00_00/c2000ware/driverlib/f28002x/driverlib/eqep.
    3144 00000022 D015          MOVB      XAR0,#21              ; [CPU_ALU] |513| 
    3145 00000023 CC95          AND       AL,*+XAR5[AR0],#0xdfff ; [CPU_ALU] |513| 
         00000024 DFFF 
    3146 00000025 D115          MOVB      XAR1,#21              ; [CPU_ALU] |513| 
    3147                      .dwpsn  file "C:/ti/C2000Ware_MotorControl_SDK_5_04_00_00/c2000ware/driverlib/f28002x/driverlib/eqep.
    3148 00000026 8D80          MOVL      XAR2,#3999            ; [CPU_ARAU] |519| 
         00000027 0F9F 
    3149                      .dwpsn  file "C:/ti/C2000Ware_MotorControl_SDK_5_04_00_00/c2000ware/driverlib/f28002x/driverlib/eqep.
    3150 00000028 C4A5          MOVL      XAR6,XAR5             ; [CPU_ALU] |1192| 
    3151                      .dwpsn  file "C:/ti/C2000Ware_MotorControl_SDK_5_04_00_00/c2000ware/driverlib/f28002x/driverlib/eqep.
    3152 00000029 76C0          MOVL      XAR7,#3999            ; [CPU_ARAU] |1201| 
         0000002a 0F9F 
    3153                      .dwpsn  file "C:/ti/C2000Ware_MotorControl_SDK_5_04_00_00/c2000ware/driverlib/f28002x/driverlib/eqep.
    3154 0000002b 1AA9          OR        AL,#0x1000            ; [CPU_ALU] |513| 
         0000002c 1000 
    3155                      .dwpsn  file "C:/ti/C2000Ware_MotorControl_SDK_5_04_00_00/c2000ware/driverlib/f28002x/driverlib/eqep.
    3156 0000002d D010          MOVB      XAR0,#16              ; [CPU_ALU] |1201| 
    3157                      .dwpsn  file "C:/ti/C2000Ware_MotorControl_SDK_5_04_00_00/c2000ware/driverlib/f28002x/driverlib/eqep.
    3158 0000002e 969D          MOV       *+XAR5[AR1],AL        ; [CPU_ALU] |513| 
    3159                      .dwpsn  file "C:/ti/C2000Ware_MotorControl_SDK_5_04_00_00/c2000ware/driverlib/f28002x/driverlib/eqep.
    3160 0000002f AAE5          MOVL      *+XAR5[4],XAR2        ; [CPU_ALU] |519| 
    3161                      .dwpsn  file "C:/ti/C2000Ware_MotorControl_SDK_5_04_00_00/c2000ware/driverlib/f28002x/driverlib/eqep.
    3162 00000030 C396          MOVL      *+XAR6[AR0],XAR7      ; [CPU_ALU] |1201| 
    3163                      .dwpsn  file "../sources/dual_axis_servo_drive_hal.c",line 1359,column 9,is_stmt,isa 0
    3164 00000031 6F0F          B         ||$C$L29||,UNC        ; [CPU_ALU] |1359| 
    3165                      ; branch occurs ; [] |1359| 
    3166 00000032       ||$C$L28||:    
    3167                      .dwpsn  file "C:/ti/C2000Ware_MotorControl_SDK_5_04_00_00/c2000ware/driverlib/f28002x/driverlib/eqep.
TMS320C2000 Assembler PC v22.6.2 Wed Dec 10 14:45:02 2025

Copyright (c) 1996-2018 Texas Instruments Incorporated
dual_axis_servo_drive_hal.asm                                        PAGE   62

    3168 00000032 D015          MOVB      XAR0,#21              ; [CPU_ALU] |513| 
    3169 00000033 CC95          AND       AL,*+XAR5[AR0],#0xdfff ; [CPU_ALU] |513| 
         00000034 DFFF 
    3170 00000035 D115          MOVB      XAR1,#21              ; [CPU_ALU] |513| 
    3171                      .dwpsn  file "C:/ti/C2000Ware_MotorControl_SDK_5_04_00_00/c2000ware/driverlib/f28002x/driverlib/eqep.
    3172 00000036 76C0          MOVL      XAR7,#3999            ; [CPU_ARAU] |519| 
         00000037 0F9F 
    3173                      .dwpsn  file "C:/ti/C2000Ware_MotorControl_SDK_5_04_00_00/c2000ware/driverlib/f28002x/driverlib/eqep.
    3174 00000038 7680          MOVL      XAR6,#3999            ; [CPU_ARAU] |1201| 
         00000039 0F9F 
    3175                      .dwpsn  file "C:/ti/C2000Ware_MotorControl_SDK_5_04_00_00/c2000ware/driverlib/f28002x/driverlib/eqep.
    3176 0000003a 1AA9          OR        AL,#0x1000            ; [CPU_ALU] |513| 
         0000003b 1000 
    3177                      .dwpsn  file "C:/ti/C2000Ware_MotorControl_SDK_5_04_00_00/c2000ware/driverlib/f28002x/driverlib/eqep.
    3178 0000003c D010          MOVB      XAR0,#16              ; [CPU_ALU] |1201| 
    3179                      .dwpsn  file "C:/ti/C2000Ware_MotorControl_SDK_5_04_00_00/c2000ware/driverlib/f28002x/driverlib/eqep.
    3180 0000003d 969D          MOV       *+XAR5[AR1],AL        ; [CPU_ALU] |513| 
    3181                      .dwpsn  file "C:/ti/C2000Ware_MotorControl_SDK_5_04_00_00/c2000ware/driverlib/f28002x/driverlib/eqep.
    3182 0000003e C3E5          MOVL      *+XAR5[4],XAR7        ; [CPU_ALU] |519| 
    3183                      .dwpsn  file "C:/ti/C2000Ware_MotorControl_SDK_5_04_00_00/c2000ware/driverlib/f28002x/driverlib/eqep.
    3184 0000003f C295          MOVL      *+XAR5[AR0],XAR6      ; [CPU_ALU] |1201| 
    3185 00000040       ||$C$L29||:    
    3186                      .dwpsn  file "C:/ti/C2000Ware_MotorControl_SDK_5_04_00_00/c2000ware/driverlib/f28002x/driverlib/eqep.
    3187 00000040 8AA5          MOVL      XAR4,XAR5             ; [CPU_ALU] |1206| 
    3188 00000041 DC15          ADDB      XAR4,#21              ; [CPU_ALU] |1206| 
    3189 00000042 1AC4          OR        *+XAR4[0],#0x0002     ; [CPU_ALU] |1206| 
         00000043 0002 
    3190 00000044       ||$C$L30||:    
    3191                      .dwpsn  file "C:/ti/C2000Ware_MotorControl_SDK_5_04_00_00/c2000ware/driverlib/f28002x/driverlib/eqep.
    3192 00000044 8AA5          MOVL      XAR4,XAR5             ; [CPU_ALU] |1113| 
    3193                      .dwpsn  file "C:/ti/C2000Ware_MotorControl_SDK_5_04_00_00/c2000ware/driverlib/f28002x/driverlib/eqep.
    3194 00000045 C5A5          MOVL      XAR7,XAR5             ; [CPU_ALU] |986| 
    3195                      .dwpsn  file "C:/ti/C2000Ware_MotorControl_SDK_5_04_00_00/c2000ware/driverlib/f28002x/driverlib/eqep.
    3196 00000046 C4A5          MOVL      XAR6,XAR5             ; [CPU_ALU] |654| 
    3197                      .dwpsn  file "C:/ti/C2000Ware_MotorControl_SDK_5_04_00_00/c2000ware/driverlib/f28002x/driverlib/eqep.
    3198 00000047 D016          MOVB      XAR0,#22              ; [CPU_ALU] |958| 
    3199                      .dwpsn  file "C:/ti/C2000Ware_MotorControl_SDK_5_04_00_00/c2000ware/driverlib/f28002x/driverlib/eqep.
    3200 00000048 DC17          ADDB      XAR4,#23              ; [CPU_ALU] |1113| 
    3201 00000049 18C4          AND       *+XAR4[0],#0xefff     ; [CPU_ALU] |1113| 
         0000004a EFFF 
    3202                      .dwpsn  file "C:/ti/C2000Ware_MotorControl_SDK_5_04_00_00/c2000ware/driverlib/f28002x/driverlib/eqep.
    3203 0000004b DF16          ADDB      XAR7,#22              ; [CPU_ALU] |986| 
    3204                      .dwpsn  file "C:/ti/C2000Ware_MotorControl_SDK_5_04_00_00/c2000ware/driverlib/f28002x/driverlib/eqep.
    3205 0000004c DE18          ADDB      XAR6,#24              ; [CPU_ALU] |654| 
    3206                      .dwpsn  file "C:/ti/C2000Ware_MotorControl_SDK_5_04_00_00/c2000ware/driverlib/f28002x/driverlib/eqep.
    3207 0000004d CC95          AND       AL,*+XAR5[AR0],#0xfff0 ; [CPU_FPU] |958| 
         0000004e FFF0 
    3208                      .dwpsn  file "C:/ti/C2000Ware_MotorControl_SDK_5_04_00_00/c2000ware/driverlib/f28002x/driverlib/eqep.
    3209 0000004f 8AA5          MOVL      XAR4,XAR5             ; [CPU_FPU] |406| 
    3210                      .dwpsn  file "C:/ti/C2000Ware_MotorControl_SDK_5_04_00_00/c2000ware/driverlib/f28002x/driverlib/eqep.
    3211 00000050 D016          MOVB      XAR0,#22              ; [CPU_FPU] |958| 
    3212 00000051 5075          ORB       AL,#0x75              ; [CPU_ALU] |958| 
    3213 00000052 9695          MOV       *+XAR5[AR0],AL        ; [CPU_FPU] |958| 
    3214                      .dwpsn  file "C:/ti/C2000Ware_MotorControl_SDK_5_04_00_00/c2000ware/driverlib/f28002x/driverlib/eqep.
    3215 00000053 DC15          ADDB      XAR4,#21              ; [CPU_ALU] |406| 
TMS320C2000 Assembler PC v22.6.2 Wed Dec 10 14:45:02 2025

Copyright (c) 1996-2018 Texas Instruments Incorporated
dual_axis_servo_drive_hal.asm                                        PAGE   63

    3216                      .dwpsn  file "C:/ti/C2000Ware_MotorControl_SDK_5_04_00_00/c2000ware/driverlib/f28002x/driverlib/eqep.
    3217 00000054 1AC7          OR        *+XAR7[0],#0x8000     ; [CPU_FPU] |986| 
         00000055 8000 
    3218                      .dwpsn  file "C:/ti/C2000Ware_MotorControl_SDK_5_04_00_00/c2000ware/driverlib/f28002x/driverlib/eqep.
    3219 00000056 1AC6          OR        *+XAR6[0],#0x0800     ; [CPU_FPU] |654| 
         00000057 0800 
    3220                      .dwpsn  file "C:/ti/C2000Ware_MotorControl_SDK_5_04_00_00/c2000ware/driverlib/f28002x/driverlib/eqep.
    3221 00000058 1AC4          OR        *+XAR4[0],#0x0008     ; [CPU_ALU] |406| 
         00000059 0008 
    3222 0000005a 86BE          MOVL      XAR2,*--SP            ; [CPU_ALU] 
    3223                      .dwcfi  cfa_offset, -4
    3224                      .dwcfi  restore_reg, 9
    3225 0000005b 8BBE          MOVL      XAR1,*--SP            ; [CPU_ALU] 
    3226                      .dwcfi  cfa_offset, -2
    3227                      .dwcfi  restore_reg, 7
    3228              $C$DW$213       .dwtag  DW_TAG_TI_branch
    3229                      .dwattr $C$DW$213, DW_AT_low_pc(0x00)
    3230                      .dwattr $C$DW$213, DW_AT_TI_return
    3231              
    3232 0000005c 0006          LRETR     ; [CPU_ALU] 
    3233                      ; return occurs ; [] 
    3234                      .dwattr $C$DW$208, DW_AT_TI_end_file("../sources/dual_axis_servo_drive_hal.c")
    3235                      .dwattr $C$DW$208, DW_AT_TI_end_line(0x564)
    3236                      .dwattr $C$DW$208, DW_AT_TI_end_column(0x01)
    3237                      .dwendentry
    3238                      .dwendtag $C$DW$208
    3239              
    3240 00000000               .sect   ".text:HAL_setupMotorPWMs"
    3241                      .clink
    3242                      .global ||HAL_setupMotorPWMs||
    3243              
    3244              $C$DW$214       .dwtag  DW_TAG_subprogram
    3245                      .dwattr $C$DW$214, DW_AT_name("HAL_setupMotorPWMs")
    3246                      .dwattr $C$DW$214, DW_AT_low_pc(||HAL_setupMotorPWMs||)
    3247                      .dwattr $C$DW$214, DW_AT_high_pc(0x00)
    3248                      .dwattr $C$DW$214, DW_AT_linkage_name("HAL_setupMotorPWMs")
    3249                      .dwattr $C$DW$214, DW_AT_external
    3250                      .dwattr $C$DW$214, DW_AT_decl_file("../sources/dual_axis_servo_drive_hal.c")
    3251                      .dwattr $C$DW$214, DW_AT_decl_line(0x415)
    3252                      .dwattr $C$DW$214, DW_AT_decl_column(0x06)
    3253                      .dwattr $C$DW$214, DW_AT_TI_max_frame_size(-6)
    3254                      .dwpsn  file "../sources/dual_axis_servo_drive_hal.c",line 1046,column 1,is_stmt,address ||HAL_setupM
    3255              
    3256                      .dwfde $C$DW$CIE, ||HAL_setupMotorPWMs||
    3257              $C$DW$215       .dwtag  DW_TAG_formal_parameter
    3258                      .dwattr $C$DW$215, DW_AT_name("handle")
    3259                      .dwattr $C$DW$215, DW_AT_type(*$C$DW$T$142)
    3260                      .dwattr $C$DW$215, DW_AT_location[DW_OP_reg12]
    3261              
    3262              
    3263              ;***************************************************************
    3264              ;* FNAME: HAL_setupMotorPWMs            FR SIZE:   4           *
    3265              ;*                                                             *
    3266              ;* FUNCTION ENVIRONMENT                                        *
    3267              ;*                                                             *
TMS320C2000 Assembler PC v22.6.2 Wed Dec 10 14:45:02 2025

Copyright (c) 1996-2018 Texas Instruments Incorporated
dual_axis_servo_drive_hal.asm                                        PAGE   64

    3268              ;* FUNCTION PROPERTIES                                         *
    3269              ;*                            0 Parameter,  0 Auto,  4 SOE     *
    3270              ;***************************************************************
    3271              
    3272              ||HAL_setupMotorPWMs||:
    3273              ;* AL    assigned to $O$A1
    3274              ;* AR7   assigned to $O$U10
    3275              ;* AL    assigned to $O$K68
    3276              ;* AR4   assigned to handle
    3277              $C$DW$216       .dwtag  DW_TAG_variable
    3278                      .dwattr $C$DW$216, DW_AT_name("handle")
    3279                      .dwattr $C$DW$216, DW_AT_type(*$C$DW$T$143)
    3280                      .dwattr $C$DW$216, DW_AT_location[DW_OP_reg12]
    3281              
    3282              ;* AR6   assigned to halfPeriod
    3283              $C$DW$217       .dwtag  DW_TAG_variable
    3284                      .dwattr $C$DW$217, DW_AT_name("halfPeriod")
    3285                      .dwattr $C$DW$217, DW_AT_type(*$C$DW$T$172)
    3286                      .dwattr $C$DW$217, DW_AT_location[DW_OP_reg16]
    3287              
    3288              ;* AR2   assigned to base
    3289              $C$DW$218       .dwtag  DW_TAG_variable
    3290                      .dwattr $C$DW$218, DW_AT_name("base")
    3291                      .dwattr $C$DW$218, DW_AT_type(*$C$DW$T$28)
    3292                      .dwattr $C$DW$218, DW_AT_location[DW_OP_reg8]
    3293              
    3294              ;* AR5   assigned to base
    3295              $C$DW$219       .dwtag  DW_TAG_variable
    3296                      .dwattr $C$DW$219, DW_AT_name("base")
    3297                      .dwattr $C$DW$219, DW_AT_type(*$C$DW$T$28)
    3298                      .dwattr $C$DW$219, DW_AT_location[DW_OP_reg14]
    3299              
    3300                      .dwcfi  cfa_offset, -2
    3301                      .dwcfi  save_reg_to_mem, 26, 0
    3302 00000000 B2BD          MOVL      *SP++,XAR1            ; [CPU_ALU] 
    3303                      .dwcfi  save_reg_to_mem, 7, 2
    3304                      .dwcfi  cfa_offset, -4
    3305 00000001 AABD          MOVL      *SP++,XAR2            ; [CPU_ALU] 
    3306                      .dwcfi  save_reg_to_mem, 9, 4
    3307                      .dwcfi  cfa_offset, -6
    3308                      .dwpsn  file "C:\ti\C2000Ware_MotorControl_SDK_5_04_00_00\c2000ware\driverlib\f28002x\driverlib\sysct
    3309 00000002 7622          EALLOW    ; [CPU_ALU] |951| 
    3310                      .dwpsn  file "C:\ti\C2000Ware_MotorControl_SDK_5_04_00_00\c2000ware\driverlib\f28002x\driverlib\sysct
    3311 00000003 8F45          MOVL      XAR5,#381730          ; [CPU_ARAU] |956| 
         00000004 D322 
    3312 00000005 06C5          MOVL      ACC,*+XAR5[0]         ; [CPU_ALU] |956| 
    3313 00000006 18A8          AND       AH,#65531             ; [CPU_ALU] |956| 
         00000007 FFFB 
    3314 00000008 1EC5          MOVL      *+XAR5[0],ACC         ; [CPU_ALU] |956| 
    3315                      .dwpsn  file "C:\ti\C2000Ware_MotorControl_SDK_5_04_00_00\c2000ware\driverlib\f28002x\driverlib\sysct
    3316 00000009 761A          EDIS      ; [CPU_ALU] |957| 
    3317 0000000a C5A4          MOVL      XAR7,XAR4             ; [CPU_ALU] 
    3318 0000000b BE02          MOVB      XAR6,#2               ; [CPU_ALU] 
    3319 0000000c       ||$C$L31||:    
    3320                      .dwpsn  file "C:/ti/C2000Ware_MotorControl_SDK_5_04_00_00/c2000ware/driverlib/f28002x/driverlib/epwm.
TMS320C2000 Assembler PC v22.6.2 Wed Dec 10 14:45:02 2025

Copyright (c) 1996-2018 Texas Instruments Incorporated
dual_axis_servo_drive_hal.asm                                        PAGE   65

    3321 0000000c 83C7          MOVL      XAR5,*+XAR7[0]        ; [CPU_ALU] |1967| 
    3322                      .dwpsn  file "C:/ti/C2000Ware_MotorControl_SDK_5_04_00_00/c2000ware/driverlib/f28002x/driverlib/epwm.
    3323 0000000d 0263          MOVB      ACC,#99               ; [CPU_ALU] |2383| 
    3324                      .dwpsn  file "C:/ti/C2000Ware_MotorControl_SDK_5_04_00_00/c2000ware/driverlib/f28002x/driverlib/epwm.
    3325 0000000e 1AC5          OR        *+XAR5[0],#0x0008     ; [CPU_ALU] |1967| 
         0000000f 0008 
    3326                      .dwpsn  file "C:/ti/C2000Ware_MotorControl_SDK_5_04_00_00/c2000ware/driverlib/f28002x/driverlib/epwm.
    3327 00000010 07C7          ADDL      ACC,*+XAR7[0]         ; [CPU_ALU] |2383| 
    3328 00000011 83A9          MOVL      XAR5,ACC              ; [CPU_ALU] |2383| 
    3329                      .dwpsn  file "C:/ti/C2000Ware_MotorControl_SDK_5_04_00_00/c2000ware/driverlib/f28002x/driverlib/epwm.
    3330 00000012 0260          MOVB      ACC,#96               ; [CPU_ALU] |2349| 
    3331                      .dwpsn  file "C:/ti/C2000Ware_MotorControl_SDK_5_04_00_00/c2000ware/driverlib/f28002x/driverlib/epwm.
    3332 00000013 2BC5          MOV       *+XAR5[0],#0          ; [CPU_ALU] |2383| 
    3333                      .dwpsn  file "C:/ti/C2000Ware_MotorControl_SDK_5_04_00_00/c2000ware/driverlib/f28002x/driverlib/epwm.
    3334 00000014 07C7          ADDL      ACC,*+XAR7[0]         ; [CPU_ALU] |2349| 
    3335 00000015 83A9          MOVL      XAR5,ACC              ; [CPU_ALU] |2349| 
    3336 00000016 0260          MOVB      ACC,#96               ; [CPU_ALU] |2349| 
    3337 00000017 A3C5          MOVL      P,*+XAR5[0]           ; [CPU_ALU] |2349| 
    3338 00000018 07C7          ADDL      ACC,*+XAR7[0]         ; [CPU_ALU] |2349| 
    3339 00000019 83A9          MOVL      XAR5,ACC              ; [CPU_ALU] |2349| 
    3340 0000001a 18AA          AND       PH,#0                 ; [CPU_ALU] |2349| 
         0000001b 0000 
    3341 0000001c A9C5          MOVL      *+XAR5[0],P           ; [CPU_ALU] |2349| 
    3342                      .dwpsn  file "C:/ti/C2000Ware_MotorControl_SDK_5_04_00_00/c2000ware/driverlib/f28002x/driverlib/epwm.
    3343 0000001d 83C7          MOVL      XAR5,*+XAR7[0]        ; [CPU_ALU] |1647| 
    3344 0000001e 2BE5          MOV       *+XAR5[4],#0          ; [CPU_ALU] |1647| 
    3345                      .dwpsn  file "C:/ti/C2000Ware_MotorControl_SDK_5_04_00_00/c2000ware/driverlib/f28002x/driverlib/epwm.
    3346 0000001f 83C7          MOVL      XAR5,*+XAR7[0]        ; [CPU_ALU] |2050| 
    3347 00000020 CCC5          AND       AL,*+XAR5[0],#0xfffe  ; [CPU_ALU] |2050| 
         00000021 FFFE 
    3348 00000022 83C7          MOVL      XAR5,*+XAR7[0]        ; [CPU_ALU] |2050| 
    3349 00000023 5002          ORB       AL,#0x02              ; [CPU_ALU] |2050| 
    3350 00000024 96C5          MOV       *+XAR5[0],AL          ; [CPU_ALU] |2050| 
    3351                      .dwpsn  file "C:/ti/C2000Ware_MotorControl_SDK_5_04_00_00/c2000ware/driverlib/f28002x/driverlib/epwm.
    3352 00000025 83C7          MOVL      XAR5,*+XAR7[0]        ; [CPU_ALU] |1725| 
    3353 00000026 8EC7          MOVL      XAR0,*+XAR7[0]        ; [CPU_ALU] |1725| 
    3354 00000027 CCC5          AND       AL,*+XAR5[0],#0xe07f  ; [CPU_ALU] |1725| 
         00000028 E07F 
    3355 00000029 96C0          MOV       *+XAR0[0],AL          ; [CPU_ALU] |1725| 
    3356                      .dwpsn  file "C:/ti/C2000Ware_MotorControl_SDK_5_04_00_00/c2000ware/driverlib/f28002x/driverlib/epwm.
    3357 0000002a 026B          MOVB      ACC,#107              ; [CPU_ALU] |2642| 
    3358 0000002b 07C7          ADDL      ACC,*+XAR7[0]         ; [CPU_ALU] |2642| 
    3359 0000002c 83A9          MOVL      XAR5,ACC              ; [CPU_ALU] |2642| 
    3360                      .dwpsn  file "C:/ti/C2000Ware_MotorControl_SDK_5_04_00_00/c2000ware/driverlib/f28002x/driverlib/epwm.
    3361 0000002d 0208          MOVB      ACC,#8                ; [CPU_ALU] |2537| 
    3362                      .dwpsn  file "C:/ti/C2000Ware_MotorControl_SDK_5_04_00_00/c2000ware/driverlib/f28002x/driverlib/epwm.
    3363 0000002e 2BC5          MOV       *+XAR5[0],#0          ; [CPU_ALU] |2642| 
    3364                      .dwpsn  file "C:/ti/C2000Ware_MotorControl_SDK_5_04_00_00/c2000ware/driverlib/f28002x/driverlib/epwm.
    3365 0000002f 07C7          ADDL      ACC,*+XAR7[0]         ; [CPU_ALU] |2537| 
    3366 00000030 83A9          MOVL      XAR5,ACC              ; [CPU_ALU] |2537| 
    3367 00000031 CCC5          AND       AL,*+XAR5[0],#0xf3ec  ; [CPU_ALU] |2537| 
         00000032 F3EC 
    3368 00000033 27A9          MOV       PL,AL                 ; [CPU_ALU] |2537| 
    3369 00000034 0208          MOVB      ACC,#8                ; [CPU_ALU] |2537| 
    3370 00000035 07C7          ADDL      ACC,*+XAR7[0]         ; [CPU_ALU] |2537| 
TMS320C2000 Assembler PC v22.6.2 Wed Dec 10 14:45:02 2025

Copyright (c) 1996-2018 Texas Instruments Incorporated
dual_axis_servo_drive_hal.asm                                        PAGE   66

    3371 00000036 83A9          MOVL      XAR5,ACC              ; [CPU_ALU] |2537| 
    3372                      .dwpsn  file "C:/ti/C2000Ware_MotorControl_SDK_5_04_00_00/c2000ware/driverlib/f28002x/driverlib/epwm.
    3373 00000037 0240          MOVB      ACC,#64               ; [CPU_ALU] |3113| 
    3374                      .dwpsn  file "C:/ti/C2000Ware_MotorControl_SDK_5_04_00_00/c2000ware/driverlib/f28002x/driverlib/epwm.
    3375 00000038 3FC5          MOV       *+XAR5[0],P           ; [CPU_ALU] |2537| 
    3376                      .dwpsn  file "C:/ti/C2000Ware_MotorControl_SDK_5_04_00_00/c2000ware/driverlib/f28002x/driverlib/epwm.
    3377 00000039 07C7          ADDL      ACC,*+XAR7[0]         ; [CPU_ALU] |3113| 
    3378 0000003a 83A9          MOVL      XAR5,ACC              ; [CPU_ALU] |3113| 
    3379                      .dwpsn  file "C:/ti/C2000Ware_MotorControl_SDK_5_04_00_00/c2000ware/driverlib/f28002x/driverlib/epwm.
    3380 0000003b 020C          MOVB      ACC,#12               ; [CPU_ALU] |3556| 
    3381                      .dwpsn  file "C:/ti/C2000Ware_MotorControl_SDK_5_04_00_00/c2000ware/driverlib/f28002x/driverlib/epwm.
    3382 0000003c 56BF          MOVB      *+XAR5[0],#144,UNC    ; [CPU_ALU] |3113| 
         0000003d 90C5 
    3383                      .dwpsn  file "C:/ti/C2000Ware_MotorControl_SDK_5_04_00_00/c2000ware/driverlib/f28002x/driverlib/epwm.
    3384 0000003e 07C7          ADDL      ACC,*+XAR7[0]         ; [CPU_ALU] |3556| 
    3385 0000003f 83A9          MOVL      XAR5,ACC              ; [CPU_ALU] |3556| 
    3386 00000040 CCC5          AND       AL,*+XAR5[0],#0xffef  ; [CPU_ALU] |3556| 
         00000041 FFEF 
    3387 00000042 27A9          MOV       PL,AL                 ; [CPU_ALU] |3556| 
    3388 00000043 020C          MOVB      ACC,#12               ; [CPU_ALU] |3556| 
    3389 00000044 07C7          ADDL      ACC,*+XAR7[0]         ; [CPU_ALU] |3556| 
    3390 00000045 83A9          MOVL      XAR5,ACC              ; [CPU_ALU] |3556| 
    3391 00000046 3FC5          MOV       *+XAR5[0],P           ; [CPU_ALU] |3556| 
    3392                      .dwpsn  file "C:/ti/C2000Ware_MotorControl_SDK_5_04_00_00/c2000ware/driverlib/f28002x/driverlib/epwm.
    3393 00000047 86C7          MOVL      XAR2,*+XAR7[0]        ; [CPU_ALU] |3583| 
    3394                      .dwpsn  file "C:/ti/C2000Ware_MotorControl_SDK_5_04_00_00/c2000ware/driverlib/f28002x/driverlib/epwm.
    3395 00000048 83A2          MOVL      XAR5,XAR2             ; [CPU_ALU] |3604| 
    3396                      .dwpsn  file "C:/ti/C2000Ware_MotorControl_SDK_5_04_00_00/c2000ware/driverlib/f28002x/driverlib/epwm.
    3397 00000049 D00C          MOVB      XAR0,#12              ; [CPU_ALU] |3609| 
    3398 0000004a D10C          MOVB      XAR1,#12              ; [CPU_ALU] |3609| 
    3399                      .dwpsn  file "C:/ti/C2000Ware_MotorControl_SDK_5_04_00_00/c2000ware/driverlib/f28002x/driverlib/epwm.
    3400 0000004b DD0C          ADDB      XAR5,#12              ; [CPU_ALU] |3604| 
    3401 0000004c 18C5          AND       *+XAR5[0],#0xbfff     ; [CPU_ALU] |3604| 
         0000004d BFFF 
    3402                      .dwpsn  file "C:/ti/C2000Ware_MotorControl_SDK_5_04_00_00/c2000ware/driverlib/f28002x/driverlib/epwm.
    3403 0000004e CC92          AND       AL,*+XAR2[AR0],#0xffdf ; [CPU_ALU] |3609| 
         0000004f FFDF 
    3404 00000050 969A          MOV       *+XAR2[AR1],AL        ; [CPU_ALU] |3609| 
    3405                      .dwpsn  file "C:/ti/C2000Ware_MotorControl_SDK_5_04_00_00/c2000ware/driverlib/f28002x/driverlib/epwm.
    3406 00000051 020C          MOVB      ACC,#12               ; [CPU_ALU] |3472| 
    3407 00000052 07C7          ADDL      ACC,*+XAR7[0]         ; [CPU_ALU] |3472| 
    3408 00000053 83A9          MOVL      XAR5,ACC              ; [CPU_ALU] |3472| 
    3409 00000054 92C5          MOV       AL,*+XAR5[0]          ; [CPU_ALU] |3472| 
    3410 00000055 5002          ORB       AL,#0x02              ; [CPU_ALU] |3472| 
    3411 00000056 27A9          MOV       PL,AL                 ; [CPU_ALU] |3472| 
    3412 00000057 020C          MOVB      ACC,#12               ; [CPU_ALU] |3472| 
    3413 00000058 07C7          ADDL      ACC,*+XAR7[0]         ; [CPU_ALU] |3472| 
    3414 00000059 83A9          MOVL      XAR5,ACC              ; [CPU_ALU] |3472| 
    3415 0000005a 020C          MOVB      ACC,#12               ; [CPU_ALU] |3472| 
    3416 0000005b 3FC5          MOV       *+XAR5[0],P           ; [CPU_ALU] |3472| 
    3417 0000005c 07C7          ADDL      ACC,*+XAR7[0]         ; [CPU_ALU] |3472| 
    3418 0000005d 83A9          MOVL      XAR5,ACC              ; [CPU_ALU] |3472| 
    3419 0000005e 92C5          MOV       AL,*+XAR5[0]          ; [CPU_ALU] |3472| 
    3420 0000005f 5001          ORB       AL,#0x01              ; [CPU_ALU] |3472| 
    3421 00000060 27A9          MOV       PL,AL                 ; [CPU_ALU] |3472| 
TMS320C2000 Assembler PC v22.6.2 Wed Dec 10 14:45:02 2025

Copyright (c) 1996-2018 Texas Instruments Incorporated
dual_axis_servo_drive_hal.asm                                        PAGE   67

    3422 00000061 020C          MOVB      ACC,#12               ; [CPU_ALU] |3472| 
    3423 00000062 07C7          ADDL      ACC,*+XAR7[0]         ; [CPU_ALU] |3472| 
    3424 00000063 83A9          MOVL      XAR5,ACC              ; [CPU_ALU] |3472| 
    3425                      .dwpsn  file "C:/ti/C2000Ware_MotorControl_SDK_5_04_00_00/c2000ware/driverlib/f28002x/driverlib/epwm.
    3426 00000064 020C          MOVB      ACC,#12               ; [CPU_ALU] |3521| 
    3427                      .dwpsn  file "C:/ti/C2000Ware_MotorControl_SDK_5_04_00_00/c2000ware/driverlib/f28002x/driverlib/epwm.
    3428 00000065 3FC5          MOV       *+XAR5[0],P           ; [CPU_ALU] |3472| 
    3429                      .dwpsn  file "C:/ti/C2000Ware_MotorControl_SDK_5_04_00_00/c2000ware/driverlib/f28002x/driverlib/epwm.
    3430 00000066 07C7          ADDL      ACC,*+XAR7[0]         ; [CPU_ALU] |3521| 
    3431 00000067 83A9          MOVL      XAR5,ACC              ; [CPU_ALU] |3521| 
    3432 00000068 CCC5          AND       AL,*+XAR5[0],#0xfffb  ; [CPU_ALU] |3521| 
         00000069 FFFB 
    3433 0000006a 27A9          MOV       PL,AL                 ; [CPU_ALU] |3521| 
    3434 0000006b 020C          MOVB      ACC,#12               ; [CPU_ALU] |3521| 
    3435 0000006c 07C7          ADDL      ACC,*+XAR7[0]         ; [CPU_ALU] |3521| 
    3436 0000006d 83A9          MOVL      XAR5,ACC              ; [CPU_ALU] |3521| 
    3437 0000006e 020C          MOVB      ACC,#12               ; [CPU_ALU] |3521| 
    3438 0000006f 3FC5          MOV       *+XAR5[0],P           ; [CPU_ALU] |3521| 
    3439 00000070 07C7          ADDL      ACC,*+XAR7[0]         ; [CPU_ALU] |3521| 
    3440 00000071 83A9          MOVL      XAR5,ACC              ; [CPU_ALU] |3521| 
    3441 00000072 92C5          MOV       AL,*+XAR5[0]          ; [CPU_ALU] |3521| 
    3442 00000073 5008          ORB       AL,#0x08              ; [CPU_ALU] |3521| 
    3443 00000074 27A9          MOV       PL,AL                 ; [CPU_ALU] |3521| 
    3444 00000075 020C          MOVB      ACC,#12               ; [CPU_ALU] |3521| 
    3445 00000076 07C7          ADDL      ACC,*+XAR7[0]         ; [CPU_ALU] |3521| 
    3446 00000077 83A9          MOVL      XAR5,ACC              ; [CPU_ALU] |3521| 
    3447                      .dwpsn  file "C:/ti/C2000Ware_MotorControl_SDK_5_04_00_00/c2000ware/driverlib/f28002x/driverlib/epwm.
    3448 00000078 0251          MOVB      ACC,#81               ; [CPU_ALU] |3866| 
    3449                      .dwpsn  file "C:/ti/C2000Ware_MotorControl_SDK_5_04_00_00/c2000ware/driverlib/f28002x/driverlib/epwm.
    3450 00000079 3FC5          MOV       *+XAR5[0],P           ; [CPU_ALU] |3521| 
    3451                      .dwpsn  file "C:/ti/C2000Ware_MotorControl_SDK_5_04_00_00/c2000ware/driverlib/f28002x/driverlib/epwm.
    3452 0000007a 07C7          ADDL      ACC,*+XAR7[0]         ; [CPU_ALU] |3866| 
    3453 0000007b 83A9          MOVL      XAR5,ACC              ; [CPU_ALU] |3866| 
    3454                      .dwpsn  file "C:/ti/C2000Ware_MotorControl_SDK_5_04_00_00/c2000ware/driverlib/f28002x/driverlib/epwm.
    3455 0000007c 0253          MOVB      ACC,#83               ; [CPU_ALU] |3894| 
    3456                      .dwpsn  file "C:/ti/C2000Ware_MotorControl_SDK_5_04_00_00/c2000ware/driverlib/f28002x/driverlib/epwm.
    3457 0000007d 56BF          MOVB      *+XAR5[0],#60,UNC     ; [CPU_ALU] |3866| 
         0000007e 3CC5 
    3458                      .dwpsn  file "C:/ti/C2000Ware_MotorControl_SDK_5_04_00_00/c2000ware/driverlib/f28002x/driverlib/epwm.
    3459 0000007f 07C7          ADDL      ACC,*+XAR7[0]         ; [CPU_ALU] |3894| 
    3460 00000080 83A9          MOVL      XAR5,ACC              ; [CPU_ALU] |3894| 
    3461 00000081 56BF          MOVB      *+XAR5[0],#60,UNC     ; [CPU_ALU] |3894| 
         00000082 3CC5 
    3462                      .dwpsn  file "C:/ti/C2000Ware_MotorControl_SDK_5_04_00_00/c2000ware/driverlib/f28002x/driverlib/epwm.
    3463 00000083 83C7          MOVL      XAR5,*+XAR7[0]        ; [CPU_ALU] |1994| 
    3464 00000084 1AC5          OR        *+XAR5[0],#0x0004     ; [CPU_ALU] |1994| 
         00000085 0004 
    3465                      .dwpsn  file "C:/ti/C2000Ware_MotorControl_SDK_5_04_00_00/c2000ware/driverlib/f28002x/driverlib/epwm.
    3466 00000086 83C7          MOVL      XAR5,*+XAR7[0]        ; [CPU_ALU] |1679| 
    3467 00000087 1AC5          OR        *+XAR5[0],#0x2000     ; [CPU_ALU] |1679| 
         00000088 2000 
    3468                      .dwpsn  file "C:/ti/C2000Ware_MotorControl_SDK_5_04_00_00/c2000ware/driverlib/f28002x/driverlib/epwm.
    3469 00000089 83C7          MOVL      XAR5,*+XAR7[0]        ; [CPU_ALU] |1848| 
    3470 0000008a 92F5          MOV       AL,*+XAR5[6]          ; [CPU_ALU] |1848| 
    3471 0000008b 8387          MOVL      XAR5,*XAR7++          ; [CPU_ALU] |1848| 
TMS320C2000 Assembler PC v22.6.2 Wed Dec 10 14:45:02 2025

Copyright (c) 1996-2018 Texas Instruments Incorporated
dual_axis_servo_drive_hal.asm                                        PAGE   68

    3472 0000008c 5002          ORB       AL,#0x02              ; [CPU_ALU] |1848| 
    3473 0000008d 96F5          MOV       *+XAR5[6],AL          ; [CPU_ALU] |1848| 
    3474                      .dwpsn  file "../sources/dual_axis_servo_drive_hal.c",line 1057,column 18,is_stmt,isa 0
    3475 0000008e 000E          BANZ      ||$C$L31||,AR6--      ; [CPU_ALU] |1057| 
         0000008f FF7E 
    3476                      ; branchcc occurs ; [] |1057| 
    3477                      .dwpsn  file "C:\ti\C2000Ware_MotorControl_SDK_5_04_00_00\c2000ware\driverlib\f28002x\driverlib\sysct
    3478 00000090 7622          EALLOW    ; [CPU_ALU] |2667| 
    3479                      .dwpsn  file "C:\ti\C2000Ware_MotorControl_SDK_5_04_00_00\c2000ware\driverlib\f28002x\driverlib\sysct
    3480 00000091 BFA9          MOV32     ACC,*(0:0x7940)       ; [CPU_FPU] |2668| 
         00000092 7940 
    3481 00000093 18A8          AND       AH,#57599             ; [CPU_ALU] |2668| 
         00000094 E0FF 
    3482 00000095 BDA9          MOV32     *(0:0x7940),ACC       ; [CPU_FPU] |2668| 
         00000096 7940 
    3483                      .dwpsn  file "C:\ti\C2000Ware_MotorControl_SDK_5_04_00_00\c2000ware\driverlib\f28002x\driverlib\sysct
    3484 00000097 761A          EDIS      ; [CPU_ALU] |2672| 
    3485                      .dwpsn  file "../sources/dual_axis_servo_drive_hal.c",line 1113,column 5,is_stmt,isa 0
    3486 00000098 8F40!         MOVL      XAR5,#||halMtr||      ; [CPU_ARAU] |1113| 
         00000099 0000 
    3487 0000009a A0A9          MOVL      ACC,XAR5              ; [CPU_ALU] |1113| 
    3488 0000009b 0FA4          CMPL      ACC,XAR4              ; [CPU_ALU] |1113| 
    3489 0000009c 6127          B         ||$C$L32||,EQ         ; [CPU_ALU] |1113| 
    3490                      ; branchcc occurs ; [] |1113| 
    3491                      .dwpsn  file "../sources/dual_axis_servo_drive_hal.c",line 1126,column 10,is_stmt,isa 0
    3492 0000009d 0912          ADDB      ACC,#18               ; [CPU_ALU] |1126| 
    3493 0000009e 0FA4          CMPL      ACC,XAR4              ; [CPU_ALU] |1126| 
    3494                      .dwpsn  file "../sources/dual_axis_servo_drive_hal.c",line 1050,column 26,is_stmt,isa 0
    3495 0000009f 56B0          MOVB      XAR6,#0,NEQ           ; [CPU_ALU] |1050| 
         000000a0 00A6 
    3496 000000a1 604A          B         ||$C$L34||,NEQ        ; [CPU_ALU] 
    3497                      ; branchcc occurs ; [] 
    3498                      .dwpsn  file "C:/ti/C2000Ware_MotorControl_SDK_5_04_00_00/c2000ware/driverlib/f28002x/driverlib/epwm.
    3499 000000a2 0260          MOVB      ACC,#96               ; [CPU_ALU] |2349| 
    3500 000000a3 07C4          ADDL      ACC,*+XAR4[0]         ; [CPU_ALU] |2349| 
    3501 000000a4 83A9          MOVL      XAR5,ACC              ; [CPU_ALU] |2349| 
    3502 000000a5 0260          MOVB      ACC,#96               ; [CPU_ALU] |2349| 
    3503 000000a6 A3C5          MOVL      P,*+XAR5[0]           ; [CPU_ALU] |2349| 
    3504 000000a7 07C4          ADDL      ACC,*+XAR4[0]         ; [CPU_ALU] |2349| 
    3505 000000a8 83A9          MOVL      XAR5,ACC              ; [CPU_ALU] |2349| 
    3506 000000a9 18AA          AND       PH,#0                 ; [CPU_ALU] |2349| 
         000000aa 0000 
    3507 000000ab 1AAA          OR        PH,#2000              ; [CPU_ALU] |2349| 
         000000ac 07D0 
    3508 000000ad 0260          MOVB      ACC,#96               ; [CPU_FPU] |2349| 
    3509 000000ae A9C5          MOVL      *+XAR5[0],P           ; [CPU_ALU] |2349| 
    3510 000000af 07D4          ADDL      ACC,*+XAR4[2]         ; [CPU_ALU] |2349| 
    3511 000000b0 83A9          MOVL      XAR5,ACC              ; [CPU_ALU] |2349| 
    3512 000000b1 0260          MOVB      ACC,#96               ; [CPU_ALU] |2349| 
    3513 000000b2 07D4          ADDL      ACC,*+XAR4[2]         ; [CPU_ALU] |2349| 
    3514 000000b3 A3C5          MOVL      P,*+XAR5[0]           ; [CPU_FPU] |2349| 
    3515 000000b4 83A9          MOVL      XAR5,ACC              ; [CPU_ALU] |2349| 
    3516 000000b5 18AA          AND       PH,#0                 ; [CPU_ALU] |2349| 
         000000b6 0000 
    3517 000000b7 1AAA          OR        PH,#2000              ; [CPU_ALU] |2349| 
TMS320C2000 Assembler PC v22.6.2 Wed Dec 10 14:45:02 2025

Copyright (c) 1996-2018 Texas Instruments Incorporated
dual_axis_servo_drive_hal.asm                                        PAGE   69

         000000b8 07D0 
    3518 000000b9 0260          MOVB      ACC,#96               ; [CPU_FPU] |2349| 
    3519 000000ba A9C5          MOVL      *+XAR5[0],P           ; [CPU_ALU] |2349| 
    3520 000000bb 07E4          ADDL      ACC,*+XAR4[4]         ; [CPU_ALU] |2349| 
    3521 000000bc 83A9          MOVL      XAR5,ACC              ; [CPU_ALU] |2349| 
    3522 000000bd A3C5          MOVL      P,*+XAR5[0]           ; [CPU_ALU] |2349| 
    3523 000000be 18AA          AND       PH,#0                 ; [CPU_ALU] |2349| 
         000000bf 0000 
    3524 000000c0 1AAA          OR        PH,#2000              ; [CPU_ALU] |2349| 
         000000c1 07D0 
    3525                      .dwpsn  file "../sources/dual_axis_servo_drive_hal.c",line 1133,column 9,is_stmt,isa 0
    3526 000000c2 6F23          B         ||$C$L33||,UNC        ; [CPU_ALU] |1133| 
    3527                      ; branch occurs ; [] |1133| 
    3528 000000c3       ||$C$L32||:    
    3529                      .dwpsn  file "C:/ti/C2000Ware_MotorControl_SDK_5_04_00_00/c2000ware/driverlib/f28002x/driverlib/epwm.
    3530 000000c3 83C4          MOVL      XAR5,*+XAR4[0]        ; [CPU_ALU] |2019| 
    3531 000000c4 18C5          AND       *+XAR5[0],#0xfffb     ; [CPU_ALU] |2019| 
         000000c5 FFFB 
    3532                      .dwpsn  file "C:/ti/C2000Ware_MotorControl_SDK_5_04_00_00/c2000ware/driverlib/f28002x/driverlib/epwm.
    3533 000000c6 83C4          MOVL      XAR5,*+XAR4[0]        ; [CPU_ALU] |1848| 
    3534 000000c7 92F5          MOV       AL,*+XAR5[6]          ; [CPU_ALU] |1848| 
    3535 000000c8 83C4          MOVL      XAR5,*+XAR4[0]        ; [CPU_ALU] |1848| 
    3536 000000c9 5002          ORB       AL,#0x02              ; [CPU_ALU] |1848| 
    3537 000000ca 96F5          MOV       *+XAR5[6],AL          ; [CPU_ALU] |1848| 
    3538                      .dwpsn  file "C:/ti/C2000Ware_MotorControl_SDK_5_04_00_00/c2000ware/driverlib/f28002x/driverlib/epwm.
    3539 000000cb 0260          MOVB      ACC,#96               ; [CPU_ALU] |2349| 
    3540 000000cc 07C4          ADDL      ACC,*+XAR4[0]         ; [CPU_ALU] |2349| 
    3541 000000cd 83A9          MOVL      XAR5,ACC              ; [CPU_ALU] |2349| 
    3542 000000ce 0260          MOVB      ACC,#96               ; [CPU_ALU] |2349| 
    3543 000000cf A3C5          MOVL      P,*+XAR5[0]           ; [CPU_ALU] |2349| 
    3544 000000d0 07C4          ADDL      ACC,*+XAR4[0]         ; [CPU_ALU] |2349| 
    3545 000000d1 83A9          MOVL      XAR5,ACC              ; [CPU_ALU] |2349| 
    3546 000000d2 18AA          AND       PH,#0                 ; [CPU_ALU] |2349| 
         000000d3 0000 
    3547 000000d4 0260          MOVB      ACC,#96               ; [CPU_FPU] |2349| 
    3548 000000d5 A9C5          MOVL      *+XAR5[0],P           ; [CPU_ALU] |2349| 
    3549 000000d6 07D4          ADDL      ACC,*+XAR4[2]         ; [CPU_ALU] |2349| 
    3550 000000d7 83A9          MOVL      XAR5,ACC              ; [CPU_ALU] |2349| 
    3551 000000d8 0260          MOVB      ACC,#96               ; [CPU_ALU] |2349| 
    3552 000000d9 07D4          ADDL      ACC,*+XAR4[2]         ; [CPU_ALU] |2349| 
    3553 000000da A3C5          MOVL      P,*+XAR5[0]           ; [CPU_FPU] |2349| 
    3554 000000db 83A9          MOVL      XAR5,ACC              ; [CPU_ALU] |2349| 
    3555 000000dc 18AA          AND       PH,#0                 ; [CPU_ALU] |2349| 
         000000dd 0000 
    3556 000000de 0260          MOVB      ACC,#96               ; [CPU_FPU] |2349| 
    3557 000000df A9C5          MOVL      *+XAR5[0],P           ; [CPU_ALU] |2349| 
    3558 000000e0 07E4          ADDL      ACC,*+XAR4[4]         ; [CPU_ALU] |2349| 
    3559 000000e1 83A9          MOVL      XAR5,ACC              ; [CPU_ALU] |2349| 
    3560 000000e2 A3C5          MOVL      P,*+XAR5[0]           ; [CPU_ALU] |2349| 
    3561 000000e3 18AA          AND       PH,#0                 ; [CPU_ALU] |2349| 
         000000e4 0000 
    3562 000000e5       ||$C$L33||:    
    3563 000000e5 0260          MOVB      ACC,#96               ; [CPU_ALU] |2349| 
    3564 000000e6 07E4          ADDL      ACC,*+XAR4[4]         ; [CPU_ALU] |2349| 
    3565 000000e7 83A9          MOVL      XAR5,ACC              ; [CPU_ALU] |2349| 
TMS320C2000 Assembler PC v22.6.2 Wed Dec 10 14:45:02 2025

Copyright (c) 1996-2018 Texas Instruments Incorporated
dual_axis_servo_drive_hal.asm                                        PAGE   70

    3566                      .dwpsn  file "../sources/dual_axis_servo_drive_hal.c",line 1115,column 9,is_stmt,isa 0
    3567 000000e8 7680          MOVL      XAR6,#4000            ; [CPU_ALU] |1115| 
         000000e9 0FA0 
    3568                      .dwpsn  file "C:/ti/C2000Ware_MotorControl_SDK_5_04_00_00/c2000ware/driverlib/f28002x/driverlib/epwm.
    3569 000000ea A9C5          MOVL      *+XAR5[0],P           ; [CPU_ALU] |2349| 
    3570 000000eb       ||$C$L34||:    
    3571                      .dwpsn  file "C:/ti/C2000Ware_MotorControl_SDK_5_04_00_00/c2000ware/driverlib/f28002x/driverlib/epwm.
    3572 000000eb 0263          MOVB      ACC,#99               ; [CPU_ALU] |2383| 
    3573 000000ec 07C4          ADDL      ACC,*+XAR4[0]         ; [CPU_ALU] |2383| 
    3574 000000ed 83A9          MOVL      XAR5,ACC              ; [CPU_ALU] |2383| 
    3575 000000ee 0263          MOVB      ACC,#99               ; [CPU_ALU] |2383| 
    3576 000000ef 7EC5          MOV       *+XAR5[0],AR6         ; [CPU_ALU] |2383| 
    3577 000000f0 07D4          ADDL      ACC,*+XAR4[2]         ; [CPU_ALU] |2383| 
    3578 000000f1 83A9          MOVL      XAR5,ACC              ; [CPU_ALU] |2383| 
    3579 000000f2 0263          MOVB      ACC,#99               ; [CPU_ALU] |2383| 
    3580 000000f3 7EC5          MOV       *+XAR5[0],AR6         ; [CPU_ALU] |2383| 
    3581 000000f4 07E4          ADDL      ACC,*+XAR4[4]         ; [CPU_ALU] |2383| 
    3582 000000f5 83A9          MOVL      XAR5,ACC              ; [CPU_ALU] |2383| 
    3583                      .dwpsn  file "C:/ti/C2000Ware_MotorControl_SDK_5_04_00_00/c2000ware/driverlib/f28002x/driverlib/epwm.
    3584 000000f6 02A4          MOVB      ACC,#164              ; [CPU_ALU] |5373| 
    3585                      .dwpsn  file "C:/ti/C2000Ware_MotorControl_SDK_5_04_00_00/c2000ware/driverlib/f28002x/driverlib/epwm.
    3586 000000f7 7EC5          MOV       *+XAR5[0],AR6         ; [CPU_ALU] |2383| 
    3587                      .dwpsn  file "C:/ti/C2000Ware_MotorControl_SDK_5_04_00_00/c2000ware/driverlib/f28002x/driverlib/epwm.
    3588 000000f8 07C4          ADDL      ACC,*+XAR4[0]         ; [CPU_ALU] |5373| 
    3589 000000f9 83A9          MOVL      XAR5,ACC              ; [CPU_ALU] |5373| 
    3590 000000fa CCC5          AND       AL,*+XAR5[0],#0xf9ff  ; [CPU_ALU] |5373| 
         000000fb F9FF 
    3591 000000fc 88A9          MOVZ      AR6,AL                ; [CPU_ALU] |5373| 
    3592 000000fd 1AA6          OR        AR6,#0x0100           ; [CPU_ALU] |5373| 
         000000fe 0100 
    3593 000000ff 02A4          MOVB      ACC,#164              ; [CPU_ALU] |5373| 
    3594 00000100 07C4          ADDL      ACC,*+XAR4[0]         ; [CPU_ALU] |5373| 
    3595 00000101 83A9          MOVL      XAR5,ACC              ; [CPU_ALU] |5373| 
    3596 00000102 7EC5          MOV       *+XAR5[0],AR6         ; [CPU_ALU] |5373| 
    3597                      .dwpsn  file "C:/ti/C2000Ware_MotorControl_SDK_5_04_00_00/c2000ware/driverlib/f28002x/driverlib/epwm.
    3598 00000103 83C4          MOVL      XAR5,*+XAR4[0]        ; [CPU_ALU] |5475| 
    3599                      .dwpsn  file "C:/ti/C2000Ware_MotorControl_SDK_5_04_00_00/c2000ware/driverlib/f28002x/driverlib/epwm.
    3600 00000104 A0A9          MOVL      ACC,XAR5              ; [CPU_ALU] |5485| 
    3601 00000105 09A6          ADDB      ACC,#166              ; [CPU_ALU] |5485| 
    3602 00000106 1EA6          MOVL      XAR6,ACC              ; [CPU_ALU] |5485| 
    3603                      .dwpsn  file "C:/ti/C2000Ware_MotorControl_SDK_5_04_00_00/c2000ware/driverlib/f28002x/driverlib/epwm.
    3604 00000107 D0B0          MOVB      XAR0,#176             ; [CPU_ALU] |5491| 
    3605                      .dwpsn  file "C:/ti/C2000Ware_MotorControl_SDK_5_04_00_00/c2000ware/driverlib/f28002x/driverlib/epwm.
    3606 00000108 1AC6          OR        *+XAR6[0],#0x0020     ; [CPU_ALU] |5485| 
         00000109 0020 
    3607                      .dwpsn  file "C:/ti/C2000Ware_MotorControl_SDK_5_04_00_00/c2000ware/driverlib/f28002x/driverlib/epwm.
    3608 0000010a CC95          AND       AL,*+XAR5[AR0],#0xfff0 ; [CPU_ALU] |5491| 
         0000010b FFF0 
    3609 0000010c D0B0          MOVB      XAR0,#176             ; [CPU_ALU] |5491| 
    3610 0000010d 5001          ORB       AL,#0x01              ; [CPU_ALU] |5491| 
    3611 0000010e 9695          MOV       *+XAR5[AR0],AL        ; [CPU_ALU] |5491| 
    3612                      .dwpsn  file "C:/ti/C2000Ware_MotorControl_SDK_5_04_00_00/c2000ware/driverlib/f28002x/driverlib/epwm.
    3613 0000010f 02A4          MOVB      ACC,#164              ; [CPU_ALU] |5269| 
    3614 00000110 07C4          ADDL      ACC,*+XAR4[0]         ; [CPU_ALU] |5269| 
    3615 00000111 8AA9          MOVL      XAR4,ACC              ; [CPU_ALU] |5269| 
TMS320C2000 Assembler PC v22.6.2 Wed Dec 10 14:45:02 2025

Copyright (c) 1996-2018 Texas Instruments Incorporated
dual_axis_servo_drive_hal.asm                                        PAGE   71

    3616 00000112 1AC4          OR        *+XAR4[0],#0x0800     ; [CPU_ALU] |5269| 
         00000113 0800 
    3617 00000114 86BE          MOVL      XAR2,*--SP            ; [CPU_ALU] 
    3618                      .dwcfi  cfa_offset, -4
    3619                      .dwcfi  restore_reg, 9
    3620 00000115 8BBE          MOVL      XAR1,*--SP            ; [CPU_ALU] 
    3621                      .dwcfi  cfa_offset, -2
    3622                      .dwcfi  restore_reg, 7
    3623              $C$DW$220       .dwtag  DW_TAG_TI_branch
    3624                      .dwattr $C$DW$220, DW_AT_low_pc(0x00)
    3625                      .dwattr $C$DW$220, DW_AT_TI_return
    3626              
    3627 00000116 0006          LRETR     ; [CPU_ALU] 
    3628                      ; return occurs ; [] 
    3629                      .dwattr $C$DW$214, DW_AT_TI_end_file("../sources/dual_axis_servo_drive_hal.c")
    3630                      .dwattr $C$DW$214, DW_AT_TI_end_line(0x488)
    3631                      .dwattr $C$DW$214, DW_AT_TI_end_column(0x01)
    3632                      .dwendentry
    3633                      .dwendtag $C$DW$214
    3634              
    3635 00000000               .sect   ".text:HAL_setupMotorFaultProtection"
    3636                      .clink
    3637                      .global ||HAL_setupMotorFaultProtection||
    3638              
    3639              $C$DW$221       .dwtag  DW_TAG_subprogram
    3640                      .dwattr $C$DW$221, DW_AT_name("HAL_setupMotorFaultProtection")
    3641                      .dwattr $C$DW$221, DW_AT_low_pc(||HAL_setupMotorFaultProtection||)
    3642                      .dwattr $C$DW$221, DW_AT_high_pc(0x00)
    3643                      .dwattr $C$DW$221, DW_AT_linkage_name("HAL_setupMotorFaultProtection")
    3644                      .dwattr $C$DW$221, DW_AT_external
    3645                      .dwattr $C$DW$221, DW_AT_decl_file("../sources/dual_axis_servo_drive_hal.c")
    3646                      .dwattr $C$DW$221, DW_AT_decl_line(0x48d)
    3647                      .dwattr $C$DW$221, DW_AT_decl_column(0x06)
    3648                      .dwattr $C$DW$221, DW_AT_TI_max_frame_size(-4)
    3649                      .dwpsn  file "../sources/dual_axis_servo_drive_hal.c",line 1166,column 1,is_stmt,address ||HAL_setupM
    3650              
    3651                      .dwfde $C$DW$CIE, ||HAL_setupMotorFaultProtection||
    3652              $C$DW$222       .dwtag  DW_TAG_formal_parameter
    3653                      .dwattr $C$DW$222, DW_AT_name("handle")
    3654                      .dwattr $C$DW$222, DW_AT_type(*$C$DW$T$142)
    3655                      .dwattr $C$DW$222, DW_AT_location[DW_OP_reg12]
    3656              
    3657              
    3658              ;***************************************************************
    3659              ;* FNAME: HAL_setupMotorFaultProtection FR SIZE:   2           *
    3660              ;*                                                             *
    3661              ;* FUNCTION ENVIRONMENT                                        *
    3662              ;*                                                             *
    3663              ;* FUNCTION PROPERTIES                                         *
    3664              ;*                            0 Parameter,  0 Auto,  2 SOE     *
    3665              ;***************************************************************
    3666              
    3667              ||HAL_setupMotorFaultProtection||:
    3668              ;* AL    assigned to $O$K2
    3669              ;* AR4   assigned to $O$U49
TMS320C2000 Assembler PC v22.6.2 Wed Dec 10 14:45:02 2025

Copyright (c) 1996-2018 Texas Instruments Incorporated
dual_axis_servo_drive_hal.asm                                        PAGE   72

    3670              ;* AR1   assigned to handle
    3671              $C$DW$223       .dwtag  DW_TAG_variable
    3672                      .dwattr $C$DW$223, DW_AT_name("handle")
    3673                      .dwattr $C$DW$223, DW_AT_type(*$C$DW$T$143)
    3674                      .dwattr $C$DW$223, DW_AT_location[DW_OP_reg6]
    3675              
    3676              ;* PL    assigned to dcTripSet
    3677              $C$DW$224       .dwtag  DW_TAG_variable
    3678                      .dwattr $C$DW$224, DW_AT_name("dcTripSet")
    3679                      .dwattr $C$DW$224, DW_AT_type(*$C$DW$T$172)
    3680                      .dwattr $C$DW$224, DW_AT_location[DW_OP_reg2]
    3681              
    3682              ;* AR7   assigned to tzOSTSet
    3683              $C$DW$225       .dwtag  DW_TAG_variable
    3684                      .dwattr $C$DW$225, DW_AT_name("tzOSTSet")
    3685                      .dwattr $C$DW$225, DW_AT_type(*$C$DW$T$172)
    3686                      .dwattr $C$DW$225, DW_AT_location[DW_OP_reg18]
    3687              
    3688              ;* AL    assigned to base
    3689              $C$DW$226       .dwtag  DW_TAG_variable
    3690                      .dwattr $C$DW$226, DW_AT_name("base")
    3691                      .dwattr $C$DW$226, DW_AT_type(*$C$DW$T$28)
    3692                      .dwattr $C$DW$226, DW_AT_location[DW_OP_reg0]
    3693              
    3694              ;* AL    assigned to base
    3695              $C$DW$227       .dwtag  DW_TAG_variable
    3696                      .dwattr $C$DW$227, DW_AT_name("base")
    3697                      .dwattr $C$DW$227, DW_AT_type(*$C$DW$T$28)
    3698                      .dwattr $C$DW$227, DW_AT_location[DW_OP_reg0]
    3699              
    3700              ;* AR5   assigned to base
    3701              $C$DW$228       .dwtag  DW_TAG_variable
    3702                      .dwattr $C$DW$228, DW_AT_name("base")
    3703                      .dwattr $C$DW$228, DW_AT_type(*$C$DW$T$28)
    3704                      .dwattr $C$DW$228, DW_AT_location[DW_OP_reg14]
    3705              
    3706              ;* AR5   assigned to base
    3707              $C$DW$229       .dwtag  DW_TAG_variable
    3708                      .dwattr $C$DW$229, DW_AT_name("base")
    3709                      .dwattr $C$DW$229, DW_AT_type(*$C$DW$T$28)
    3710                      .dwattr $C$DW$229, DW_AT_location[DW_OP_reg14]
    3711              
    3712              ;* AR5   assigned to base
    3713              $C$DW$230       .dwtag  DW_TAG_variable
    3714                      .dwattr $C$DW$230, DW_AT_name("base")
    3715                      .dwattr $C$DW$230, DW_AT_type(*$C$DW$T$28)
    3716                      .dwattr $C$DW$230, DW_AT_location[DW_OP_reg14]
    3717              
    3718              ;* AR5   assigned to base
    3719              $C$DW$231       .dwtag  DW_TAG_variable
    3720                      .dwattr $C$DW$231, DW_AT_name("base")
    3721                      .dwattr $C$DW$231, DW_AT_type(*$C$DW$T$28)
    3722                      .dwattr $C$DW$231, DW_AT_location[DW_OP_reg14]
    3723              
    3724              ;* AR5   assigned to base
TMS320C2000 Assembler PC v22.6.2 Wed Dec 10 14:45:02 2025

Copyright (c) 1996-2018 Texas Instruments Incorporated
dual_axis_servo_drive_hal.asm                                        PAGE   73

    3725              $C$DW$232       .dwtag  DW_TAG_variable
    3726                      .dwattr $C$DW$232, DW_AT_name("base")
    3727                      .dwattr $C$DW$232, DW_AT_type(*$C$DW$T$28)
    3728                      .dwattr $C$DW$232, DW_AT_location[DW_OP_reg14]
    3729              
    3730              ;* AR5   assigned to base
    3731              $C$DW$233       .dwtag  DW_TAG_variable
    3732                      .dwattr $C$DW$233, DW_AT_name("base")
    3733                      .dwattr $C$DW$233, DW_AT_type(*$C$DW$T$28)
    3734                      .dwattr $C$DW$233, DW_AT_location[DW_OP_reg14]
    3735              
    3736              ;* AR5   assigned to base
    3737              $C$DW$234       .dwtag  DW_TAG_variable
    3738                      .dwattr $C$DW$234, DW_AT_name("base")
    3739                      .dwattr $C$DW$234, DW_AT_type(*$C$DW$T$28)
    3740                      .dwattr $C$DW$234, DW_AT_location[DW_OP_reg14]
    3741              
    3742              ;* AR5   assigned to base
    3743              $C$DW$235       .dwtag  DW_TAG_variable
    3744                      .dwattr $C$DW$235, DW_AT_name("base")
    3745                      .dwattr $C$DW$235, DW_AT_type(*$C$DW$T$28)
    3746                      .dwattr $C$DW$235, DW_AT_location[DW_OP_reg14]
    3747              
    3748              ;* AL    assigned to base
    3749              $C$DW$236       .dwtag  DW_TAG_variable
    3750                      .dwattr $C$DW$236, DW_AT_name("base")
    3751                      .dwattr $C$DW$236, DW_AT_type(*$C$DW$T$28)
    3752                      .dwattr $C$DW$236, DW_AT_location[DW_OP_reg0]
    3753              
    3754              ;* AL    assigned to base
    3755              $C$DW$237       .dwtag  DW_TAG_variable
    3756                      .dwattr $C$DW$237, DW_AT_name("base")
    3757                      .dwattr $C$DW$237, DW_AT_type(*$C$DW$T$28)
    3758                      .dwattr $C$DW$237, DW_AT_location[DW_OP_reg0]
    3759              
    3760              ;* AR5   assigned to base
    3761              $C$DW$238       .dwtag  DW_TAG_variable
    3762                      .dwattr $C$DW$238, DW_AT_name("base")
    3763                      .dwattr $C$DW$238, DW_AT_type(*$C$DW$T$28)
    3764                      .dwattr $C$DW$238, DW_AT_location[DW_OP_reg14]
    3765              
    3766              ;* AR5   assigned to base
    3767              $C$DW$239       .dwtag  DW_TAG_variable
    3768                      .dwattr $C$DW$239, DW_AT_name("base")
    3769                      .dwattr $C$DW$239, DW_AT_type(*$C$DW$T$28)
    3770                      .dwattr $C$DW$239, DW_AT_location[DW_OP_reg14]
    3771              
    3772              ;* AR5   assigned to base
    3773              $C$DW$240       .dwtag  DW_TAG_variable
    3774                      .dwattr $C$DW$240, DW_AT_name("base")
    3775                      .dwattr $C$DW$240, DW_AT_type(*$C$DW$T$28)
    3776                      .dwattr $C$DW$240, DW_AT_location[DW_OP_reg14]
    3777              
    3778              ;* AR5   assigned to base
    3779              $C$DW$241       .dwtag  DW_TAG_variable
TMS320C2000 Assembler PC v22.6.2 Wed Dec 10 14:45:02 2025

Copyright (c) 1996-2018 Texas Instruments Incorporated
dual_axis_servo_drive_hal.asm                                        PAGE   74

    3780                      .dwattr $C$DW$241, DW_AT_name("base")
    3781                      .dwattr $C$DW$241, DW_AT_type(*$C$DW$T$28)
    3782                      .dwattr $C$DW$241, DW_AT_location[DW_OP_reg14]
    3783              
    3784              ;* AL    assigned to base
    3785              $C$DW$242       .dwtag  DW_TAG_variable
    3786                      .dwattr $C$DW$242, DW_AT_name("base")
    3787                      .dwattr $C$DW$242, DW_AT_type(*$C$DW$T$28)
    3788                      .dwattr $C$DW$242, DW_AT_location[DW_OP_reg0]
    3789              
    3790                      .dwcfi  cfa_offset, -2
    3791                      .dwcfi  save_reg_to_mem, 26, 0
    3792 00000000 B2BD          MOVL      *SP++,XAR1            ; [CPU_ALU] 
    3793                      .dwcfi  save_reg_to_mem, 7, 2
    3794                      .dwcfi  cfa_offset, -4
    3795 00000001 8BA4          MOVL      XAR1,XAR4             ; [CPU_ALU] |1166| 
    3796                      .dwpsn  file "../sources/dual_axis_servo_drive_hal.c",line 1173,column 5,is_stmt,isa 0
    3797 00000002 8F00!         MOVL      XAR4,#||halMtr||      ; [CPU_ARAU] |1173| 
         00000003 0000 
    3798 00000004 A8A9          MOVL      ACC,XAR4              ; [CPU_ALU] |1173| 
    3799 00000005 0FA1          CMPL      ACC,XAR1              ; [CPU_ALU] |1173| 
    3800 00000006 6132          B         ||$C$L35||,EQ         ; [CPU_ALU] |1173| 
    3801                      ; branchcc occurs ; [] |1173| 
    3802                      .dwpsn  file "../sources/dual_axis_servo_drive_hal.c",line 1206,column 10,is_stmt,isa 0
    3803 00000007 0912          ADDB      ACC,#18               ; [CPU_ALU] |1206| 
    3804 00000008 0FA1          CMPL      ACC,XAR1              ; [CPU_ALU] |1206| 
    3805 00000009 605B          B         ||$C$L36||,NEQ        ; [CPU_ALU] |1206| 
    3806                      ; branchcc occurs ; [] |1206| 
    3807                      .dwpsn  file "../sources/dual_axis_servo_drive_hal.c",line 1210,column 9,is_stmt,isa 0
    3808 0000000a 7622          EALLOW    ; [CPU_ALU] |1210| 
    3809                      .dwpsn  file "../sources/dual_axis_servo_drive_hal.c",line 1211,column 9,is_stmt,isa 0
    3810 0000000b BE00          MOVB      XAR6,#0               ; [CPU_ALU] |1211| 
    3811                      .dwpsn  file "../sources/dual_axis_servo_drive_hal.c",line 1212,column 9,is_stmt,isa 0
    3812 0000000c 0200          MOVB      ACC,#0                ; [CPU_ALU] |1212| 
    3813                      .dwpsn  file "../sources/dual_axis_servo_drive_hal.c",line 1211,column 9,is_stmt,isa 0
    3814 0000000d BDA6          MOV32     *(0:0x7a04),XAR6      ; [CPU_FPU] |1211| 
         0000000e 7A04 
    3815                      .dwpsn  file "../sources/dual_axis_servo_drive_hal.c",line 1212,column 9,is_stmt,isa 0
    3816 0000000f BDA9          MOV32     *(0:0x7a06),ACC       ; [CPU_FPU] |1212| 
         00000010 7A06 
    3817                      .dwpsn  file "C:\ti\C2000Ware_MotorControl_SDK_5_04_00_00\c2000ware\driverlib\f28002x\driverlib\xbar.
    3818 00000011 9A2D          MOVB      AL,#45                ; [CPU_ALU] |930| 
    3819 00000012 F4A9          MOV       *(0:0x7901),AL        ; [CPU_ALU] |930| 
         00000013 7901 
    3820                      .dwpsn  file "C:\ti\C2000Ware_MotorControl_SDK_5_04_00_00\c2000ware\driverlib\f28002x\driverlib\xbar.
    3821 00000014 0202          MOVB      ACC,#2                ; [CPU_ALU] |963| 
    3822 00000015 BDA9          MOV32     *(0:0x791e),ACC       ; [CPU_FPU] |963| 
         00000016 791E 
    3823                      .dwpsn  file "C:\ti\C2000Ware_MotorControl_SDK_5_04_00_00\c2000ware\driverlib\f28002x\driverlib\xbar.
    3824 00000017 761A          EDIS      ; [CPU_ALU] |965| 
    3825                      .dwpsn  file "../sources/dual_axis_servo_drive_hal.c",line 1221,column 9,is_stmt,isa 0
    3826 00000018 9A02          MOVB      AL,#2                 ; [CPU_ALU] |1221| 
    3827 00000019 28A8          MOV       AH,#3072              ; [CPU_ALU] |1221| 
         0000001a 0C00 
    3828              $C$DW$243       .dwtag  DW_TAG_TI_branch
TMS320C2000 Assembler PC v22.6.2 Wed Dec 10 14:45:02 2025

Copyright (c) 1996-2018 Texas Instruments Incorporated
dual_axis_servo_drive_hal.asm                                        PAGE   75

    3829                      .dwattr $C$DW$243, DW_AT_low_pc(0x00)
    3830                      .dwattr $C$DW$243, DW_AT_name("XBAR_setEPWMMuxConfig")
    3831                      .dwattr $C$DW$243, DW_AT_TI_call
    3832              
    3833 0000001b 7640!         LCR       #||XBAR_setEPWMMuxConfig|| ; [CPU_ALU] |1221| 
         0000001c 0000 
    3834                      ; call occurs [#||XBAR_setEPWMMuxConfig||] ; [] |1221| 
    3835                      .dwpsn  file "../sources/dual_axis_servo_drive_hal.c",line 1224,column 9,is_stmt,isa 0
    3836 0000001d 9A02          MOVB      AL,#2                 ; [CPU_ALU] |1224| 
    3837 0000001e 28A8          MOV       AH,#1025              ; [CPU_ALU] |1224| 
         0000001f 0401 
    3838              $C$DW$244       .dwtag  DW_TAG_TI_branch
    3839                      .dwattr $C$DW$244, DW_AT_low_pc(0x00)
    3840                      .dwattr $C$DW$244, DW_AT_name("XBAR_setEPWMMuxConfig")
    3841                      .dwattr $C$DW$244, DW_AT_TI_call
    3842              
    3843 00000020 7640!         LCR       #||XBAR_setEPWMMuxConfig|| ; [CPU_ALU] |1224| 
         00000021 0000 
    3844                      ; call occurs [#||XBAR_setEPWMMuxConfig||] ; [] |1224| 
    3845                      .dwpsn  file "../sources/dual_axis_servo_drive_hal.c",line 1227,column 9,is_stmt,isa 0
    3846 00000022 9A02          MOVB      AL,#2                 ; [CPU_ALU] |1227| 
    3847 00000023 28A8          MOV       AH,#2560              ; [CPU_ALU] |1227| 
         00000024 0A00 
    3848              $C$DW$245       .dwtag  DW_TAG_TI_branch
    3849                      .dwattr $C$DW$245, DW_AT_low_pc(0x00)
    3850                      .dwattr $C$DW$245, DW_AT_name("XBAR_setEPWMMuxConfig")
    3851                      .dwattr $C$DW$245, DW_AT_TI_call
    3852              
    3853 00000025 7640!         LCR       #||XBAR_setEPWMMuxConfig|| ; [CPU_ALU] |1227| 
         00000026 0000 
    3854                      ; call occurs [#||XBAR_setEPWMMuxConfig||] ; [] |1227| 
    3855                      .dwpsn  file "C:\ti\C2000Ware_MotorControl_SDK_5_04_00_00\c2000ware\driverlib\f28002x\driverlib\xbar.
    3856 00000027 7622          EALLOW    ; [CPU_ALU] |840| 
    3857                      .dwpsn  file "C:\ti\C2000Ware_MotorControl_SDK_5_04_00_00\c2000ware\driverlib\f28002x\driverlib\xbar.
    3858 00000028 BFA9          MOV32     ACC,*(0:0x7a22)       ; [CPU_FPU] |842| 
         00000029 7A22 
    3859 0000002a 9000          ANDB      AL,#0                 ; [CPU_ALU] |842| 
    3860 0000002b BDA9          MOV32     *(0:0x7a22),ACC       ; [CPU_FPU] |842| 
         0000002c 7A22 
    3861                      .dwpsn  file "C:\ti\C2000Ware_MotorControl_SDK_5_04_00_00\c2000ware\driverlib\f28002x\driverlib\xbar.
    3862 0000002d BFA9          MOV32     ACC,*(0:0x7a22)       ; [CPU_FPU] |811| 
         0000002e 7A22 
    3863 0000002f 5064          ORB       AL,#0x64              ; [CPU_ALU] |811| 
    3864 00000030 BDA9          MOV32     *(0:0x7a22),ACC       ; [CPU_FPU] |811| 
         00000031 7A22 
    3865                      .dwpsn  file "C:\ti\C2000Ware_MotorControl_SDK_5_04_00_00\c2000ware\driverlib\f28002x\driverlib\xbar.
    3866 00000032 761A          EDIS      ; [CPU_ALU] |812| 
    3867                      .dwpsn  file "../sources/dual_axis_servo_drive_hal.c",line 1236,column 9,is_stmt,isa 0
    3868 00000033 28AB          MOV       PL,#16                ; [CPU_ALU] |1236| 
         00000034 0010 
    3869                      .dwpsn  file "../sources/dual_axis_servo_drive_hal.c",line 1237,column 9,is_stmt,isa 0
    3870 00000035 76C0          MOVL      XAR7,#512             ; [CPU_ALU] |1237| 
         00000036 0200 
    3871 00000037 6F2D          B         ||$C$L36||,UNC        ; [CPU_ALU] |1237| 
    3872                      ; branch occurs ; [] |1237| 
TMS320C2000 Assembler PC v22.6.2 Wed Dec 10 14:45:02 2025

Copyright (c) 1996-2018 Texas Instruments Incorporated
dual_axis_servo_drive_hal.asm                                        PAGE   76

    3873 00000038       ||$C$L35||:    
    3874                      .dwpsn  file "../sources/dual_axis_servo_drive_hal.c",line 1177,column 9,is_stmt,isa 0
    3875 00000038 7622          EALLOW    ; [CPU_ALU] |1177| 
    3876                      .dwpsn  file "../sources/dual_axis_servo_drive_hal.c",line 1178,column 9,is_stmt,isa 0
    3877 00000039 BE00          MOVB      XAR6,#0               ; [CPU_ALU] |1178| 
    3878                      .dwpsn  file "../sources/dual_axis_servo_drive_hal.c",line 1179,column 9,is_stmt,isa 0
    3879 0000003a 0200          MOVB      ACC,#0                ; [CPU_ALU] |1179| 
    3880                      .dwpsn  file "../sources/dual_axis_servo_drive_hal.c",line 1178,column 9,is_stmt,isa 0
    3881 0000003b BDA6          MOV32     *(0:0x7a00),XAR6      ; [CPU_FPU] |1178| 
         0000003c 7A00 
    3882                      .dwpsn  file "../sources/dual_axis_servo_drive_hal.c",line 1179,column 9,is_stmt,isa 0
    3883 0000003d BDA9          MOV32     *(0:0x7a02),ACC       ; [CPU_FPU] |1179| 
         0000003e 7A02 
    3884                      .dwpsn  file "C:\ti\C2000Ware_MotorControl_SDK_5_04_00_00\c2000ware\driverlib\f28002x\driverlib\xbar.
    3885 0000003f 9A2A          MOVB      AL,#42                ; [CPU_ALU] |930| 
    3886 00000040 F4A9          MOV       *(0:0x7900),AL        ; [CPU_ALU] |930| 
         00000041 7900 
    3887                      .dwpsn  file "C:\ti\C2000Ware_MotorControl_SDK_5_04_00_00\c2000ware\driverlib\f28002x\driverlib\xbar.
    3888 00000042 0202          MOVB      ACC,#2                ; [CPU_ALU] |963| 
    3889 00000043 BDA9          MOV32     *(0:0x791e),ACC       ; [CPU_FPU] |963| 
         00000044 791E 
    3890                      .dwpsn  file "C:\ti\C2000Ware_MotorControl_SDK_5_04_00_00\c2000ware\driverlib\f28002x\driverlib\xbar.
    3891 00000045 761A          EDIS      ; [CPU_ALU] |965| 
    3892                      .dwpsn  file "../sources/dual_axis_servo_drive_hal.c",line 1188,column 9,is_stmt,isa 0
    3893 00000046 9A00          MOVB      AL,#0                 ; [CPU_ALU] |1188| 
    3894 00000047 28A8          MOV       AH,#2048              ; [CPU_ALU] |1188| 
         00000048 0800 
    3895              $C$DW$246       .dwtag  DW_TAG_TI_branch
    3896                      .dwattr $C$DW$246, DW_AT_low_pc(0x00)
    3897                      .dwattr $C$DW$246, DW_AT_name("XBAR_setEPWMMuxConfig")
    3898                      .dwattr $C$DW$246, DW_AT_TI_call
    3899              
    3900 00000049 7640!         LCR       #||XBAR_setEPWMMuxConfig|| ; [CPU_ALU] |1188| 
         0000004a 0000 
    3901                      ; call occurs [#||XBAR_setEPWMMuxConfig||] ; [] |1188| 
    3902                      .dwpsn  file "../sources/dual_axis_servo_drive_hal.c",line 1191,column 9,is_stmt,isa 0
    3903 0000004b 9A00          MOVB      AL,#0                 ; [CPU_ALU] |1191| 
    3904 0000004c 9B01          MOVB      AH,#1                 ; [CPU_ALU] |1191| 
    3905              $C$DW$247       .dwtag  DW_TAG_TI_branch
    3906                      .dwattr $C$DW$247, DW_AT_low_pc(0x00)
    3907                      .dwattr $C$DW$247, DW_AT_name("XBAR_setEPWMMuxConfig")
    3908                      .dwattr $C$DW$247, DW_AT_TI_call
    3909              
    3910 0000004d 7640!         LCR       #||XBAR_setEPWMMuxConfig|| ; [CPU_ALU] |1191| 
         0000004e 0000 
    3911                      ; call occurs [#||XBAR_setEPWMMuxConfig||] ; [] |1191| 
    3912                      .dwpsn  file "../sources/dual_axis_servo_drive_hal.c",line 1194,column 9,is_stmt,isa 0
    3913 0000004f 9A00          MOVB      AL,#0                 ; [CPU_ALU] |1194| 
    3914 00000050 28A8          MOV       AH,#3584              ; [CPU_ALU] |1194| 
         00000051 0E00 
    3915              $C$DW$248       .dwtag  DW_TAG_TI_branch
    3916                      .dwattr $C$DW$248, DW_AT_low_pc(0x00)
    3917                      .dwattr $C$DW$248, DW_AT_name("XBAR_setEPWMMuxConfig")
    3918                      .dwattr $C$DW$248, DW_AT_TI_call
    3919              
TMS320C2000 Assembler PC v22.6.2 Wed Dec 10 14:45:02 2025

Copyright (c) 1996-2018 Texas Instruments Incorporated
dual_axis_servo_drive_hal.asm                                        PAGE   77

    3920 00000052 7640!         LCR       #||XBAR_setEPWMMuxConfig|| ; [CPU_ALU] |1194| 
         00000053 0000 
    3921                      ; call occurs [#||XBAR_setEPWMMuxConfig||] ; [] |1194| 
    3922                      .dwpsn  file "C:\ti\C2000Ware_MotorControl_SDK_5_04_00_00\c2000ware\driverlib\f28002x\driverlib\xbar.
    3923 00000054 7622          EALLOW    ; [CPU_ALU] |840| 
    3924                      .dwpsn  file "C:\ti\C2000Ware_MotorControl_SDK_5_04_00_00\c2000ware\driverlib\f28002x\driverlib\xbar.
    3925 00000055 BFA9          MOV32     ACC,*(0:0x7a20)       ; [CPU_FPU] |842| 
         00000056 7A20 
    3926 00000057 9000          ANDB      AL,#0                 ; [CPU_ALU] |842| 
    3927 00000058 BDA9          MOV32     *(0:0x7a20),ACC       ; [CPU_FPU] |842| 
         00000059 7A20 
    3928                      .dwpsn  file "C:\ti\C2000Ware_MotorControl_SDK_5_04_00_00\c2000ware\driverlib\f28002x\driverlib\xbar.
    3929 0000005a BFA9          MOV32     ACC,*(0:0x7a20)       ; [CPU_FPU] |811| 
         0000005b 7A20 
    3930 0000005c 5091          ORB       AL,#0x91              ; [CPU_ALU] |811| 
    3931 0000005d BDA9          MOV32     *(0:0x7a20),ACC       ; [CPU_FPU] |811| 
         0000005e 7A20 
    3932                      .dwpsn  file "C:\ti\C2000Ware_MotorControl_SDK_5_04_00_00\c2000ware\driverlib\f28002x\driverlib\xbar.
    3933 0000005f 761A          EDIS      ; [CPU_ALU] |812| 
    3934                      .dwpsn  file "../sources/dual_axis_servo_drive_hal.c",line 1203,column 9,is_stmt,isa 0
    3935 00000060 28AB          MOV       PL,#8                 ; [CPU_ALU] |1203| 
         00000061 0008 
    3936                      .dwpsn  file "../sources/dual_axis_servo_drive_hal.c",line 1204,column 9,is_stmt,isa 0
    3937 00000062 76C0          MOVL      XAR7,#256             ; [CPU_ALU] |1204| 
         00000063 0100 
    3938 00000064       ||$C$L36||:    
    3939 00000064 8AA1          MOVL      XAR4,XAR1             ; [CPU_ALU] 
    3940 00000065 BE02          MOVB      XAR6,#2               ; [CPU_ALU] 
    3941 00000066       ||$C$L37||:    
    3942                      .dwpsn  file "C:/ti/C2000Ware_MotorControl_SDK_5_04_00_00/c2000ware/driverlib/f28002x/driverlib/epwm.
    3943 00000066 06C4          MOVL      ACC,*+XAR4[0]         ; [CPU_ALU] |4086| 
    3944                      .dwpsn  file "C:/ti/C2000Ware_MotorControl_SDK_5_04_00_00/c2000ware/driverlib/f28002x/driverlib/epwm.
    3945 00000067 7622          EALLOW    ; [CPU_ALU] |4095| 
    3946                      .dwpsn  file "C:/ti/C2000Ware_MotorControl_SDK_5_04_00_00/c2000ware/driverlib/f28002x/driverlib/epwm.
    3947 00000068 0980          ADDB      ACC,#128              ; [CPU_ALU] |4096| 
    3948 00000069 83A9          MOVL      XAR5,ACC              ; [CPU_ALU] |4096| 
    3949 0000006a 92A7          MOV       AL,AR7                ; [CPU_ALU] |4096| 
    3950 0000006b 98C5          OR        *+XAR5[0],AL          ; [CPU_ALU] |4096| 
    3951                      .dwpsn  file "C:/ti/C2000Ware_MotorControl_SDK_5_04_00_00/c2000ware/driverlib/f28002x/driverlib/epwm.
    3952 0000006c 761A          EDIS      ; [CPU_ALU] |4097| 
    3953                      .dwpsn  file "C:/ti/C2000Ware_MotorControl_SDK_5_04_00_00/c2000ware/driverlib/f28002x/driverlib/epwm.
    3954 0000006d 06C4          MOVL      ACC,*+XAR4[0]         ; [CPU_ALU] |4086| 
    3955                      .dwpsn  file "C:/ti/C2000Ware_MotorControl_SDK_5_04_00_00/c2000ware/driverlib/f28002x/driverlib/epwm.
    3956 0000006e 7622          EALLOW    ; [CPU_ALU] |4095| 
    3957                      .dwpsn  file "C:/ti/C2000Ware_MotorControl_SDK_5_04_00_00/c2000ware/driverlib/f28002x/driverlib/epwm.
    3958 0000006f 0980          ADDB      ACC,#128              ; [CPU_ALU] |4096| 
    3959 00000070 83A9          MOVL      XAR5,ACC              ; [CPU_ALU] |4096| 
    3960 00000071 1AC5          OR        *+XAR5[0],#0x0020     ; [CPU_ALU] |4096| 
         00000072 0020 
    3961                      .dwpsn  file "C:/ti/C2000Ware_MotorControl_SDK_5_04_00_00/c2000ware/driverlib/f28002x/driverlib/epwm.
    3962 00000073 761A          EDIS      ; [CPU_ALU] |4097| 
    3963                      .dwpsn  file "C:/ti/C2000Ware_MotorControl_SDK_5_04_00_00/c2000ware/driverlib/f28002x/driverlib/epwm.
    3964 00000074 83C4          MOVL      XAR5,*+XAR4[0]        ; [CPU_ALU] |7003| 
    3965                      .dwpsn  file "C:/ti/C2000Ware_MotorControl_SDK_5_04_00_00/c2000ware/driverlib/f28002x/driverlib/epwm.
    3966 00000075 7622          EALLOW    ; [CPU_ALU] |7020| 
TMS320C2000 Assembler PC v22.6.2 Wed Dec 10 14:45:02 2025

Copyright (c) 1996-2018 Texas Instruments Incorporated
dual_axis_servo_drive_hal.asm                                        PAGE   78

    3967                      .dwpsn  file "C:/ti/C2000Ware_MotorControl_SDK_5_04_00_00/c2000ware/driverlib/f28002x/driverlib/epwm.
    3968 00000076 D0D2          MOVB      XAR0,#210             ; [CPU_ALU] |7021| 
    3969 00000077 D1D2          MOVB      XAR1,#210             ; [CPU_ALU] |7021| 
    3970 00000078 92AB          MOV       AL,PL                 ; [CPU_ALU] |7021| 
    3971 00000079 CA95          OR        AL,*+XAR5[AR0]        ; [CPU_ALU] |7021| 
    3972                      .dwpsn  file "C:/ti/C2000Ware_MotorControl_SDK_5_04_00_00/c2000ware/driverlib/f28002x/driverlib/epwm.
    3973 0000007a D0C0          MOVB      XAR0,#192             ; [CPU_ALU] |7027| 
    3974                      .dwpsn  file "C:/ti/C2000Ware_MotorControl_SDK_5_04_00_00/c2000ware/driverlib/f28002x/driverlib/epwm.
    3975 0000007b 969D          MOV       *+XAR5[AR1],AL        ; [CPU_ALU] |7021| 
    3976                      .dwpsn  file "C:/ti/C2000Ware_MotorControl_SDK_5_04_00_00/c2000ware/driverlib/f28002x/driverlib/epwm.
    3977 0000007c 9295          MOV       AL,*+XAR5[AR0]        ; [CPU_ALU] |7027| 
    3978 0000007d D0C0          MOVB      XAR0,#192             ; [CPU_ALU] |7027| 
    3979 0000007e 500F          ORB       AL,#0x0f              ; [CPU_ALU] |7027| 
    3980 0000007f 9695          MOV       *+XAR5[AR0],AL        ; [CPU_ALU] |7027| 
    3981                      .dwpsn  file "C:/ti/C2000Ware_MotorControl_SDK_5_04_00_00/c2000ware/driverlib/f28002x/driverlib/epwm.
    3982 00000080 761A          EDIS      ; [CPU_ALU] |7029| 
    3983                      .dwpsn  file "C:/ti/C2000Ware_MotorControl_SDK_5_04_00_00/c2000ware/driverlib/f28002x/driverlib/epwm.
    3984 00000081 83C4          MOVL      XAR5,*+XAR4[0]        ; [CPU_ALU] |7003| 
    3985                      .dwpsn  file "C:/ti/C2000Ware_MotorControl_SDK_5_04_00_00/c2000ware/driverlib/f28002x/driverlib/epwm.
    3986 00000082 7622          EALLOW    ; [CPU_ALU] |7020| 
    3987                      .dwpsn  file "C:/ti/C2000Ware_MotorControl_SDK_5_04_00_00/c2000ware/driverlib/f28002x/driverlib/epwm.
    3988 00000083 D0D4          MOVB      XAR0,#212             ; [CPU_ALU] |7021| 
    3989 00000084 92AB          MOV       AL,PL                 ; [CPU_ALU] |7021| 
    3990 00000085 D1D4          MOVB      XAR1,#212             ; [CPU_ALU] |7021| 
    3991 00000086 CA95          OR        AL,*+XAR5[AR0]        ; [CPU_ALU] |7021| 
    3992                      .dwpsn  file "C:/ti/C2000Ware_MotorControl_SDK_5_04_00_00/c2000ware/driverlib/f28002x/driverlib/epwm.
    3993 00000087 D0C0          MOVB      XAR0,#192             ; [CPU_ALU] |7027| 
    3994                      .dwpsn  file "C:/ti/C2000Ware_MotorControl_SDK_5_04_00_00/c2000ware/driverlib/f28002x/driverlib/epwm.
    3995 00000088 969D          MOV       *+XAR5[AR1],AL        ; [CPU_ALU] |7021| 
    3996                      .dwpsn  file "C:/ti/C2000Ware_MotorControl_SDK_5_04_00_00/c2000ware/driverlib/f28002x/driverlib/epwm.
    3997 00000089 9295          MOV       AL,*+XAR5[AR0]        ; [CPU_ALU] |7027| 
    3998 0000008a D0C0          MOVB      XAR0,#192             ; [CPU_ALU] |7027| 
    3999 0000008b 1AA9          OR        AL,#0x0f00            ; [CPU_ALU] |7027| 
         0000008c 0F00 
    4000 0000008d 9695          MOV       *+XAR5[AR0],AL        ; [CPU_ALU] |7027| 
    4001                      .dwpsn  file "C:/ti/C2000Ware_MotorControl_SDK_5_04_00_00/c2000ware/driverlib/f28002x/driverlib/epwm.
    4002 0000008e 761A          EDIS      ; [CPU_ALU] |7029| 
    4003                      .dwpsn  file "C:/ti/C2000Ware_MotorControl_SDK_5_04_00_00/c2000ware/driverlib/f28002x/driverlib/epwm.
    4004 0000008f 83C4          MOVL      XAR5,*+XAR4[0]        ; [CPU_ALU] |4185| 
    4005                      .dwpsn  file "C:/ti/C2000Ware_MotorControl_SDK_5_04_00_00/c2000ware/driverlib/f28002x/driverlib/epwm.
    4006 00000090 7622          EALLOW    ; [CPU_ALU] |4194| 
    4007                      .dwpsn  file "C:/ti/C2000Ware_MotorControl_SDK_5_04_00_00/c2000ware/driverlib/f28002x/driverlib/epwm.
    4008 00000091 D082          MOVB      XAR0,#130             ; [CPU_ALU] |4195| 
    4009 00000092 CC95          AND       AL,*+XAR5[AR0],#0xfff8 ; [CPU_ALU] |4195| 
         00000093 FFF8 
    4010 00000094 D082          MOVB      XAR0,#130             ; [CPU_ALU] |4195| 
    4011 00000095 5002          ORB       AL,#0x02              ; [CPU_ALU] |4195| 
    4012 00000096 9695          MOV       *+XAR5[AR0],AL        ; [CPU_ALU] |4195| 
    4013                      .dwpsn  file "C:/ti/C2000Ware_MotorControl_SDK_5_04_00_00/c2000ware/driverlib/f28002x/driverlib/epwm.
    4014 00000097 761A          EDIS      ; [CPU_ALU] |4198| 
    4015                      .dwpsn  file "C:/ti/C2000Ware_MotorControl_SDK_5_04_00_00/c2000ware/driverlib/f28002x/driverlib/epwm.
    4016 00000098 83C4          MOVL      XAR5,*+XAR4[0]        ; [CPU_ALU] |4185| 
    4017                      .dwpsn  file "C:/ti/C2000Ware_MotorControl_SDK_5_04_00_00/c2000ware/driverlib/f28002x/driverlib/epwm.
    4018 00000099 7622          EALLOW    ; [CPU_ALU] |4194| 
    4019                      .dwpsn  file "C:/ti/C2000Ware_MotorControl_SDK_5_04_00_00/c2000ware/driverlib/f28002x/driverlib/epwm.
TMS320C2000 Assembler PC v22.6.2 Wed Dec 10 14:45:02 2025

Copyright (c) 1996-2018 Texas Instruments Incorporated
dual_axis_servo_drive_hal.asm                                        PAGE   79

    4020 0000009a D082          MOVB      XAR0,#130             ; [CPU_ALU] |4195| 
    4021 0000009b CC95          AND       AL,*+XAR5[AR0],#0xff3f ; [CPU_ALU] |4195| 
         0000009c FF3F 
    4022 0000009d D082          MOVB      XAR0,#130             ; [CPU_ALU] |4195| 
    4023 0000009e 1AA9          OR        AL,#0x0100            ; [CPU_ALU] |4195| 
         0000009f 0100 
    4024 000000a0 9695          MOV       *+XAR5[AR0],AL        ; [CPU_ALU] |4195| 
    4025                      .dwpsn  file "C:/ti/C2000Ware_MotorControl_SDK_5_04_00_00/c2000ware/driverlib/f28002x/driverlib/epwm.
    4026 000000a1 761A          EDIS      ; [CPU_ALU] |4198| 
    4027                      .dwpsn  file "C:/ti/C2000Ware_MotorControl_SDK_5_04_00_00/c2000ware/driverlib/f28002x/driverlib/epwm.
    4028 000000a2 83C4          MOVL      XAR5,*+XAR4[0]        ; [CPU_ALU] |6342| 
    4029                      .dwpsn  file "C:/ti/C2000Ware_MotorControl_SDK_5_04_00_00/c2000ware/driverlib/f28002x/driverlib/epwm.
    4030 000000a3 7622          EALLOW    ; [CPU_ALU] |6355| 
    4031                      .dwpsn  file "C:/ti/C2000Ware_MotorControl_SDK_5_04_00_00/c2000ware/driverlib/f28002x/driverlib/epwm.
    4032 000000a4 D0C3          MOVB      XAR0,#195             ; [CPU_ALU] |6358| 
    4033 000000a5 9295          MOV       AL,*+XAR5[AR0]        ; [CPU_ALU] |6358| 
    4034 000000a6 D0C3          MOVB      XAR0,#195             ; [CPU_ALU] |6358| 
    4035 000000a7 5001          ORB       AL,#0x01              ; [CPU_ALU] |6358| 
    4036 000000a8 9695          MOV       *+XAR5[AR0],AL        ; [CPU_ALU] |6358| 
    4037                      .dwpsn  file "C:/ti/C2000Ware_MotorControl_SDK_5_04_00_00/c2000ware/driverlib/f28002x/driverlib/epwm.
    4038 000000a9 761A          EDIS      ; [CPU_ALU] |6368| 
    4039                      .dwpsn  file "C:/ti/C2000Ware_MotorControl_SDK_5_04_00_00/c2000ware/driverlib/f28002x/driverlib/epwm.
    4040 000000aa 83C4          MOVL      XAR5,*+XAR4[0]        ; [CPU_ALU] |6342| 
    4041                      .dwpsn  file "C:/ti/C2000Ware_MotorControl_SDK_5_04_00_00/c2000ware/driverlib/f28002x/driverlib/epwm.
    4042 000000ab 7622          EALLOW    ; [CPU_ALU] |6355| 
    4043                      .dwpsn  file "C:/ti/C2000Ware_MotorControl_SDK_5_04_00_00/c2000ware/driverlib/f28002x/driverlib/epwm.
    4044 000000ac D0C4          MOVB      XAR0,#196             ; [CPU_ALU] |6358| 
    4045 000000ad 9295          MOV       AL,*+XAR5[AR0]        ; [CPU_ALU] |6358| 
    4046 000000ae D0C4          MOVB      XAR0,#196             ; [CPU_ALU] |6358| 
    4047 000000af 5001          ORB       AL,#0x01              ; [CPU_ALU] |6358| 
    4048 000000b0 9695          MOV       *+XAR5[AR0],AL        ; [CPU_ALU] |6358| 
    4049                      .dwpsn  file "C:/ti/C2000Ware_MotorControl_SDK_5_04_00_00/c2000ware/driverlib/f28002x/driverlib/epwm.
    4050 000000b1 761A          EDIS      ; [CPU_ALU] |6368| 
    4051                      .dwpsn  file "C:/ti/C2000Ware_MotorControl_SDK_5_04_00_00/c2000ware/driverlib/f28002x/driverlib/epwm.
    4052 000000b2 83C4          MOVL      XAR5,*+XAR4[0]        ; [CPU_ALU] |6402| 
    4053                      .dwpsn  file "C:/ti/C2000Ware_MotorControl_SDK_5_04_00_00/c2000ware/driverlib/f28002x/driverlib/epwm.
    4054 000000b3 7622          EALLOW    ; [CPU_ALU] |6415| 
    4055                      .dwpsn  file "C:/ti/C2000Ware_MotorControl_SDK_5_04_00_00/c2000ware/driverlib/f28002x/driverlib/epwm.
    4056 000000b4 D0C3          MOVB      XAR0,#195             ; [CPU_ALU] |6418| 
    4057 000000b5 9295          MOV       AL,*+XAR5[AR0]        ; [CPU_ALU] |6418| 
    4058 000000b6 D0C3          MOVB      XAR0,#195             ; [CPU_ALU] |6418| 
    4059 000000b7 5002          ORB       AL,#0x02              ; [CPU_ALU] |6418| 
    4060 000000b8 9695          MOV       *+XAR5[AR0],AL        ; [CPU_ALU] |6418| 
    4061                      .dwpsn  file "C:/ti/C2000Ware_MotorControl_SDK_5_04_00_00/c2000ware/driverlib/f28002x/driverlib/epwm.
    4062 000000b9 761A          EDIS      ; [CPU_ALU] |6428| 
    4063                      .dwpsn  file "C:/ti/C2000Ware_MotorControl_SDK_5_04_00_00/c2000ware/driverlib/f28002x/driverlib/epwm.
    4064 000000ba 83C4          MOVL      XAR5,*+XAR4[0]        ; [CPU_ALU] |6402| 
    4065                      .dwpsn  file "C:/ti/C2000Ware_MotorControl_SDK_5_04_00_00/c2000ware/driverlib/f28002x/driverlib/epwm.
    4066 000000bb 7622          EALLOW    ; [CPU_ALU] |6415| 
    4067                      .dwpsn  file "C:/ti/C2000Ware_MotorControl_SDK_5_04_00_00/c2000ware/driverlib/f28002x/driverlib/epwm.
    4068 000000bc D0C4          MOVB      XAR0,#196             ; [CPU_ALU] |6418| 
    4069 000000bd 9295          MOV       AL,*+XAR5[AR0]        ; [CPU_ALU] |6418| 
    4070 000000be D0C4          MOVB      XAR0,#196             ; [CPU_ALU] |6418| 
    4071 000000bf 5002          ORB       AL,#0x02              ; [CPU_ALU] |6418| 
    4072 000000c0 9695          MOV       *+XAR5[AR0],AL        ; [CPU_ALU] |6418| 
TMS320C2000 Assembler PC v22.6.2 Wed Dec 10 14:45:02 2025

Copyright (c) 1996-2018 Texas Instruments Incorporated
dual_axis_servo_drive_hal.asm                                        PAGE   80

    4073                      .dwpsn  file "C:/ti/C2000Ware_MotorControl_SDK_5_04_00_00/c2000ware/driverlib/f28002x/driverlib/epwm.
    4074 000000c1 761A          EDIS      ; [CPU_ALU] |6428| 
    4075                      .dwpsn  file "C:/ti/C2000Ware_MotorControl_SDK_5_04_00_00/c2000ware/driverlib/f28002x/driverlib/epwm.
    4076 000000c2 06C4          MOVL      ACC,*+XAR4[0]         ; [CPU_ALU] |4086| 
    4077                      .dwpsn  file "C:/ti/C2000Ware_MotorControl_SDK_5_04_00_00/c2000ware/driverlib/f28002x/driverlib/epwm.
    4078 000000c3 7622          EALLOW    ; [CPU_ALU] |4095| 
    4079                      .dwpsn  file "C:/ti/C2000Ware_MotorControl_SDK_5_04_00_00/c2000ware/driverlib/f28002x/driverlib/epwm.
    4080 000000c4 0980          ADDB      ACC,#128              ; [CPU_ALU] |4096| 
    4081 000000c5 83A9          MOVL      XAR5,ACC              ; [CPU_ALU] |4096| 
    4082 000000c6 1AC5          OR        *+XAR5[0],#0x4000     ; [CPU_ALU] |4096| 
         000000c7 4000 
    4083                      .dwpsn  file "C:/ti/C2000Ware_MotorControl_SDK_5_04_00_00/c2000ware/driverlib/f28002x/driverlib/epwm.
    4084 000000c8 761A          EDIS      ; [CPU_ALU] |4097| 
    4085                      .dwpsn  file "C:/ti/C2000Ware_MotorControl_SDK_5_04_00_00/c2000ware/driverlib/f28002x/driverlib/epwm.
    4086 000000c9 06C4          MOVL      ACC,*+XAR4[0]         ; [CPU_ALU] |4086| 
    4087                      .dwpsn  file "C:/ti/C2000Ware_MotorControl_SDK_5_04_00_00/c2000ware/driverlib/f28002x/driverlib/epwm.
    4088 000000ca 7622          EALLOW    ; [CPU_ALU] |4095| 
    4089                      .dwpsn  file "C:/ti/C2000Ware_MotorControl_SDK_5_04_00_00/c2000ware/driverlib/f28002x/driverlib/epwm.
    4090 000000cb 0980          ADDB      ACC,#128              ; [CPU_ALU] |4096| 
    4091 000000cc 83A9          MOVL      XAR5,ACC              ; [CPU_ALU] |4096| 
    4092 000000cd 1AC5          OR        *+XAR5[0],#0x8000     ; [CPU_ALU] |4096| 
         000000ce 8000 
    4093                      .dwpsn  file "C:/ti/C2000Ware_MotorControl_SDK_5_04_00_00/c2000ware/driverlib/f28002x/driverlib/epwm.
    4094 000000cf 761A          EDIS      ; [CPU_ALU] |4097| 
    4095                      .dwpsn  file "C:/ti/C2000Ware_MotorControl_SDK_5_04_00_00/c2000ware/driverlib/f28002x/driverlib/epwm.
    4096 000000d0 83C4          MOVL      XAR5,*+XAR4[0]        ; [CPU_ALU] |4292| 
    4097                      .dwpsn  file "C:/ti/C2000Ware_MotorControl_SDK_5_04_00_00/c2000ware/driverlib/f28002x/driverlib/epwm.
    4098 000000d1 7622          EALLOW    ; [CPU_ALU] |4301| 
    4099                      .dwpsn  file "C:/ti/C2000Ware_MotorControl_SDK_5_04_00_00/c2000ware/driverlib/f28002x/driverlib/epwm.
    4100 000000d2 D084          MOVB      XAR0,#132             ; [CPU_ALU] |4302| 
    4101 000000d3 CC95          AND       AL,*+XAR5[AR0],#0xfffe ; [CPU_ALU] |4302| 
         000000d4 FFFE 
    4102 000000d5 D084          MOVB      XAR0,#132             ; [CPU_ALU] |4302| 
    4103 000000d6 5002          ORB       AL,#0x02              ; [CPU_ALU] |4302| 
    4104 000000d7 9695          MOV       *+XAR5[AR0],AL        ; [CPU_ALU] |4302| 
    4105                      .dwpsn  file "C:/ti/C2000Ware_MotorControl_SDK_5_04_00_00/c2000ware/driverlib/f28002x/driverlib/epwm.
    4106 000000d8 761A          EDIS      ; [CPU_ALU] |4305| 
    4107                      .dwpsn  file "C:/ti/C2000Ware_MotorControl_SDK_5_04_00_00/c2000ware/driverlib/f28002x/driverlib/epwm.
    4108 000000d9 83C4          MOVL      XAR5,*+XAR4[0]        ; [CPU_ALU] |4292| 
    4109                      .dwpsn  file "C:/ti/C2000Ware_MotorControl_SDK_5_04_00_00/c2000ware/driverlib/f28002x/driverlib/epwm.
    4110 000000da 7622          EALLOW    ; [CPU_ALU] |4301| 
    4111                      .dwpsn  file "C:/ti/C2000Ware_MotorControl_SDK_5_04_00_00/c2000ware/driverlib/f28002x/driverlib/epwm.
    4112 000000db D084          MOVB      XAR0,#132             ; [CPU_ALU] |4302| 
    4113 000000dc CC95          AND       AL,*+XAR5[AR0],#0xfffb ; [CPU_ALU] |4302| 
         000000dd FFFB 
    4114 000000de D084          MOVB      XAR0,#132             ; [CPU_ALU] |4302| 
    4115 000000df 5008          ORB       AL,#0x08              ; [CPU_ALU] |4302| 
    4116 000000e0 9695          MOV       *+XAR5[AR0],AL        ; [CPU_ALU] |4302| 
    4117                      .dwpsn  file "C:/ti/C2000Ware_MotorControl_SDK_5_04_00_00/c2000ware/driverlib/f28002x/driverlib/epwm.
    4118 000000e1 761A          EDIS      ; [CPU_ALU] |4305| 
    4119                      .dwpsn  file "C:/ti/C2000Ware_MotorControl_SDK_5_04_00_00/c2000ware/driverlib/f28002x/driverlib/cmpss
    4120 000000e2 83F4          MOVL      XAR5,*+XAR4[6]        ; [CPU_ALU] |757| 
    4121                      .dwpsn  file "C:/ti/C2000Ware_MotorControl_SDK_5_04_00_00/c2000ware/driverlib/f28002x/driverlib/cmpss
    4122 000000e3 7622          EALLOW    ; [CPU_ALU] |766| 
    4123                      .dwpsn  file "C:/ti/C2000Ware_MotorControl_SDK_5_04_00_00/c2000ware/driverlib/f28002x/driverlib/cmpss
TMS320C2000 Assembler PC v22.6.2 Wed Dec 10 14:45:02 2025

Copyright (c) 1996-2018 Texas Instruments Incorporated
dual_axis_servo_drive_hal.asm                                        PAGE   81

    4124 000000e4 1ADD          OR        *+XAR5[3],#0x0002     ; [CPU_ALU] |768| 
         000000e5 0002 
    4125                      .dwpsn  file "C:/ti/C2000Ware_MotorControl_SDK_5_04_00_00/c2000ware/driverlib/f28002x/driverlib/cmpss
    4126 000000e6 761A          EDIS      ; [CPU_ALU] |770| 
    4127                      .dwpsn  file "C:/ti/C2000Ware_MotorControl_SDK_5_04_00_00/c2000ware/driverlib/f28002x/driverlib/cmpss
    4128 000000e7 83F4          MOVL      XAR5,*+XAR4[6]        ; [CPU_ALU] |787| 
    4129                      .dwpsn  file "C:/ti/C2000Ware_MotorControl_SDK_5_04_00_00/c2000ware/driverlib/f28002x/driverlib/cmpss
    4130 000000e8 7622          EALLOW    ; [CPU_ALU] |796| 
    4131                      .dwpsn  file "C:/ti/C2000Ware_MotorControl_SDK_5_04_00_00/c2000ware/driverlib/f28002x/driverlib/cmpss
    4132 000000e9 1ADD          OR        *+XAR5[3],#0x0200     ; [CPU_ALU] |798| 
         000000ea 0200 
    4133                      .dwpsn  file "C:/ti/C2000Ware_MotorControl_SDK_5_04_00_00/c2000ware/driverlib/f28002x/driverlib/cmpss
    4134 000000eb 761A          EDIS      ; [CPU_ALU] |800| 
    4135                      .dwpsn  file "C:/ti/C2000Ware_MotorControl_SDK_5_04_00_00/c2000ware/driverlib/f28002x/driverlib/epwm.
    4136 000000ec 0684          MOVL      ACC,*XAR4++           ; [CPU_ALU] |4727| 
    4137                      .dwpsn  file "C:/ti/C2000Ware_MotorControl_SDK_5_04_00_00/c2000ware/driverlib/f28002x/driverlib/epwm.
    4138 000000ed 7622          EALLOW    ; [CPU_ALU] |4737| 
    4139                      .dwpsn  file "C:/ti/C2000Ware_MotorControl_SDK_5_04_00_00/c2000ware/driverlib/f28002x/driverlib/epwm.
    4140 000000ee 0997          ADDB      ACC,#151              ; [CPU_ALU] |4738| 
    4141 000000ef 83A9          MOVL      XAR5,ACC              ; [CPU_ALU] |4738| 
    4142 000000f0 1AC5          OR        *+XAR5[0],#0x007e     ; [CPU_ALU] |4738| 
         000000f1 007E 
    4143                      .dwpsn  file "C:/ti/C2000Ware_MotorControl_SDK_5_04_00_00/c2000ware/driverlib/f28002x/driverlib/epwm.
    4144 000000f2 761A          EDIS      ; [CPU_ALU] |4739| 
    4145                      .dwpsn  file "../sources/dual_axis_servo_drive_hal.c",line 1244,column 18,is_stmt,isa 0
    4146 000000f3 000E          BANZ      ||$C$L37||,AR6--      ; [CPU_ALU] |1244| 
         000000f4 FF73 
    4147                      ; branchcc occurs ; [] |1244| 
    4148 000000f5 8BBE          MOVL      XAR1,*--SP            ; [CPU_ALU] 
    4149                      .dwcfi  cfa_offset, -2
    4150                      .dwcfi  restore_reg, 7
    4151              $C$DW$249       .dwtag  DW_TAG_TI_branch
    4152                      .dwattr $C$DW$249, DW_AT_low_pc(0x00)
    4153                      .dwattr $C$DW$249, DW_AT_TI_return
    4154              
    4155 000000f6 0006          LRETR     ; [CPU_ALU] 
    4156                      ; return occurs ; [] 
    4157                      .dwattr $C$DW$221, DW_AT_TI_end_file("../sources/dual_axis_servo_drive_hal.c")
    4158                      .dwattr $C$DW$221, DW_AT_TI_end_line(0x52b)
    4159                      .dwattr $C$DW$221, DW_AT_TI_end_column(0x01)
    4160                      .dwendentry
    4161                      .dwendtag $C$DW$221
    4162              
    4163 00000000               .sect   ".text:HAL_setupInterrupts"
    4164                      .clink
    4165                      .global ||HAL_setupInterrupts||
    4166              
    4167              $C$DW$250       .dwtag  DW_TAG_subprogram
    4168                      .dwattr $C$DW$250, DW_AT_name("HAL_setupInterrupts")
    4169                      .dwattr $C$DW$250, DW_AT_low_pc(||HAL_setupInterrupts||)
    4170                      .dwattr $C$DW$250, DW_AT_high_pc(0x00)
    4171                      .dwattr $C$DW$250, DW_AT_linkage_name("HAL_setupInterrupts")
    4172                      .dwattr $C$DW$250, DW_AT_external
    4173                      .dwattr $C$DW$250, DW_AT_decl_file("../sources/dual_axis_servo_drive_hal.c")
    4174                      .dwattr $C$DW$250, DW_AT_decl_line(0x2a2)
TMS320C2000 Assembler PC v22.6.2 Wed Dec 10 14:45:02 2025

Copyright (c) 1996-2018 Texas Instruments Incorporated
dual_axis_servo_drive_hal.asm                                        PAGE   82

    4175                      .dwattr $C$DW$250, DW_AT_decl_column(0x06)
    4176                      .dwattr $C$DW$250, DW_AT_TI_max_frame_size(-2)
    4177                      .dwpsn  file "../sources/dual_axis_servo_drive_hal.c",line 675,column 1,is_stmt,address ||HAL_setupIn
    4178              
    4179                      .dwfde $C$DW$CIE, ||HAL_setupInterrupts||
    4180              $C$DW$251       .dwtag  DW_TAG_formal_parameter
    4181                      .dwattr $C$DW$251, DW_AT_name("handle")
    4182                      .dwattr $C$DW$251, DW_AT_type(*$C$DW$T$142)
    4183                      .dwattr $C$DW$251, DW_AT_location[DW_OP_reg12]
    4184              
    4185              
    4186              ;***************************************************************
    4187              ;* FNAME: HAL_setupInterrupts           FR SIZE:   0           *
    4188              ;*                                                             *
    4189              ;* FUNCTION ENVIRONMENT                                        *
    4190              ;*                                                             *
    4191              ;* FUNCTION PROPERTIES                                         *
    4192              ;*                            0 Parameter,  0 Auto,  0 SOE     *
    4193              ;***************************************************************
    4194              
    4195              ||HAL_setupInterrupts||:
    4196              ;* AL    assigned to $O$K23
    4197              ;* AR4   assigned to handle
    4198              $C$DW$252       .dwtag  DW_TAG_variable
    4199                      .dwattr $C$DW$252, DW_AT_name("handle")
    4200                      .dwattr $C$DW$252, DW_AT_type(*$C$DW$T$143)
    4201                      .dwattr $C$DW$252, DW_AT_location[DW_OP_reg12]
    4202              
    4203              ;* AR5   assigned to base
    4204              $C$DW$253       .dwtag  DW_TAG_variable
    4205                      .dwattr $C$DW$253, DW_AT_name("base")
    4206                      .dwattr $C$DW$253, DW_AT_type(*$C$DW$T$28)
    4207                      .dwattr $C$DW$253, DW_AT_location[DW_OP_reg14]
    4208              
    4209                      .dwcfi  cfa_offset, -2
    4210                      .dwcfi  save_reg_to_mem, 26, 0
    4211                      .dwpsn  file "C:/ti/C2000Ware_MotorControl_SDK_5_04_00_00/c2000ware/driverlib/f28002x/driverlib/epwm.
    4212 00000000 02A4          MOVB      ACC,#164              ; [CPU_ALU] |4985| 
    4213 00000001 07C4          ADDL      ACC,*+XAR4[0]         ; [CPU_ALU] |4985| 
    4214 00000002 83A9          MOVL      XAR5,ACC              ; [CPU_ALU] |4985| 
    4215 00000003 CCC5          AND       AL,*+XAR5[0],#0xfff8  ; [CPU_ALU] |4985| 
         00000004 FFF8 
    4216 00000005 5001          ORB       AL,#0x01              ; [CPU_ALU] |4985| 
    4217 00000006 88A9          MOVZ      AR6,AL                ; [CPU_ALU] |4985| 
    4218 00000007 02A4          MOVB      ACC,#164              ; [CPU_ALU] |4985| 
    4219 00000008 07C4          ADDL      ACC,*+XAR4[0]         ; [CPU_ALU] |4985| 
    4220 00000009 83A9          MOVL      XAR5,ACC              ; [CPU_ALU] |4985| 
    4221                      .dwpsn  file "C:/ti/C2000Ware_MotorControl_SDK_5_04_00_00/c2000ware/driverlib/f28002x/driverlib/epwm.
    4222 0000000a 02A4          MOVB      ACC,#164              ; [CPU_ALU] |4881| 
    4223                      .dwpsn  file "C:/ti/C2000Ware_MotorControl_SDK_5_04_00_00/c2000ware/driverlib/f28002x/driverlib/epwm.
    4224 0000000b 7EC5          MOV       *+XAR5[0],AR6         ; [CPU_ALU] |4985| 
    4225                      .dwpsn  file "C:/ti/C2000Ware_MotorControl_SDK_5_04_00_00/c2000ware/driverlib/f28002x/driverlib/epwm.
    4226 0000000c 07C4          ADDL      ACC,*+XAR4[0]         ; [CPU_ALU] |4881| 
    4227 0000000d 83A9          MOVL      XAR5,ACC              ; [CPU_ALU] |4881| 
    4228 0000000e 1AC5          OR        *+XAR5[0],#0x0008     ; [CPU_ALU] |4881| 
TMS320C2000 Assembler PC v22.6.2 Wed Dec 10 14:45:02 2025

Copyright (c) 1996-2018 Texas Instruments Incorporated
dual_axis_servo_drive_hal.asm                                        PAGE   83

         0000000f 0008 
    4229                      .dwpsn  file "C:/ti/C2000Ware_MotorControl_SDK_5_04_00_00/c2000ware/driverlib/f28002x/driverlib/epwm.
    4230 00000010 83C4          MOVL      XAR5,*+XAR4[0]        ; [CPU_ALU] |5005| 
    4231                      .dwpsn  file "C:/ti/C2000Ware_MotorControl_SDK_5_04_00_00/c2000ware/driverlib/f28002x/driverlib/epwm.
    4232 00000011 A0A9          MOVL      ACC,XAR5              ; [CPU_ALU] |5015| 
    4233 00000012 09A6          ADDB      ACC,#166              ; [CPU_ALU] |5015| 
    4234 00000013 1EA6          MOVL      XAR6,ACC              ; [CPU_ALU] |5015| 
    4235                      .dwpsn  file "C:/ti/C2000Ware_MotorControl_SDK_5_04_00_00/c2000ware/driverlib/f28002x/driverlib/epwm.
    4236 00000014 D0AE          MOVB      XAR0,#174             ; [CPU_ALU] |5016| 
    4237                      .dwpsn  file "C:/ti/C2000Ware_MotorControl_SDK_5_04_00_00/c2000ware/driverlib/f28002x/driverlib/epwm.
    4238 00000015 1AC6          OR        *+XAR6[0],#0x0010     ; [CPU_ALU] |5015| 
         00000016 0010 
    4239                      .dwpsn  file "C:/ti/C2000Ware_MotorControl_SDK_5_04_00_00/c2000ware/driverlib/f28002x/driverlib/epwm.
    4240 00000017 CC95          AND       AL,*+XAR5[AR0],#0xfff0 ; [CPU_ALU] |5016| 
         00000018 FFF0 
    4241 00000019 D0AE          MOVB      XAR0,#174             ; [CPU_ALU] |5016| 
    4242 0000001a 5001          ORB       AL,#0x01              ; [CPU_ALU] |5016| 
    4243 0000001b 9695          MOV       *+XAR5[AR0],AL        ; [CPU_ALU] |5016| 
    4244                      .dwpsn  file "C:/ti/C2000Ware_MotorControl_SDK_5_04_00_00/c2000ware/driverlib/f28002x/driverlib/epwm.
    4245 0000001c 02AA          MOVB      ACC,#170              ; [CPU_ALU] |5070| 
    4246 0000001d 07C4          ADDL      ACC,*+XAR4[0]         ; [CPU_ALU] |5070| 
    4247 0000001e 1EA6          MOVL      XAR6,ACC              ; [CPU_ALU] |5070| 
    4248                      .dwpsn  file "../sources/dual_axis_servo_drive_hal.c",line 699,column 5,is_stmt,isa 0
    4249 0000001f 8F40!         MOVL      XAR5,#||halMtr||      ; [CPU_ARAU] |699| 
         00000020 0000 
    4250 00000021 A0A9          MOVL      ACC,XAR5              ; [CPU_ALU] |699| 
    4251                      .dwpsn  file "C:/ti/C2000Ware_MotorControl_SDK_5_04_00_00/c2000ware/driverlib/f28002x/driverlib/epwm.
    4252 00000022 1AC6          OR        *+XAR6[0],#0x0001     ; [CPU_ALU] |5070| 
         00000023 0001 
    4253                      .dwpsn  file "../sources/dual_axis_servo_drive_hal.c",line 699,column 5,is_stmt,isa 0
    4254 00000024 0FA4          CMPL      ACC,XAR4              ; [CPU_ALU] |699| 
    4255 00000025 611B          B         ||$C$L38||,EQ         ; [CPU_ALU] |699| 
    4256                      ; branchcc occurs ; [] |699| 
    4257                      .dwpsn  file "../sources/dual_axis_servo_drive_hal.c",line 709,column 10,is_stmt,isa 0
    4258 00000026 0912          ADDB      ACC,#18               ; [CPU_ALU] |709| 
    4259 00000027 0FA4          CMPL      ACC,XAR4              ; [CPU_ALU] |709| 
    4260 00000028 602E          B         ||$C$L40||,NEQ        ; [CPU_ALU] |709| 
    4261                      ; branchcc occurs ; [] |709| 
    4262                      .dwpsn  file "C:\ti\C2000Ware_MotorControl_SDK_5_04_00_00\c2000ware\driverlib\f28002x\driverlib\inter
    4263 00000029 7622          EALLOW    ; [CPU_ALU] |256| 
    4264                      .dwpsn  file "C:\ti\C2000Ware_MotorControl_SDK_5_04_00_00\c2000ware\driverlib\f28002x\driverlib\inter
    4265 0000002a 8F00!         MOVL      XAR4,#||motor2ControlISR|| ; [CPU_ARAU] |257| 
         0000002b 0000 
    4266 0000002c BDA4          MOV32     *(0:0x0d6c),XAR4      ; [CPU_FPU] |257| 
         0000002d 0D6C 
    4267                      .dwpsn  file "C:/ti/C2000Ware_MotorControl_SDK_5_04_00_00/c2000ware/driverlib/f28002x/driverlib/adc.h
    4268 0000002e F5A9          MOV       AL,*(0:0x7507)        ; [CPU_ALU] |1835| 
         0000002f 7507 
    4269 00000030 CCA9          AND       AL,AL,#0xfff0         ; [CPU_ALU] |1835| 
         00000031 FFF0 
    4270 00000032 5002          ORB       AL,#0x02              ; [CPU_ALU] |1835| 
    4271 00000033 F4A9          MOV       *(0:0x7507),AL        ; [CPU_ALU] |1835| 
         00000034 7507 
    4272                      .dwpsn  file "C:/ti/C2000Ware_MotorControl_SDK_5_04_00_00/c2000ware/driverlib/f28002x/driverlib/adc.h
    4273 00000035 F5A9          MOV       AL,*(0:0x7507)        ; [CPU_ALU] |1884| 
TMS320C2000 Assembler PC v22.6.2 Wed Dec 10 14:45:02 2025

Copyright (c) 1996-2018 Texas Instruments Incorporated
dual_axis_servo_drive_hal.asm                                        PAGE   84

         00000036 7507 
    4274 00000037 5040          ORB       AL,#0x40              ; [CPU_ALU] |1884| 
    4275 00000038 F4A9          MOV       *(0:0x7507),AL        ; [CPU_ALU] |1884| 
         00000039 7507 
    4276                      .dwpsn  file "C:/ti/C2000Ware_MotorControl_SDK_5_04_00_00/c2000ware/driverlib/f28002x/driverlib/adc.h
    4277 0000003a F5A9          MOV       AL,*(0:0x7507)        ; [CPU_ALU] |1737| 
         0000003b 7507 
    4278 0000003c 5020          ORB       AL,#0x20              ; [CPU_ALU] |1737| 
    4279 0000003d F4A9          MOV       *(0:0x7507),AL        ; [CPU_ALU] |1737| 
         0000003e 7507 
    4280                      .dwpsn  file "../sources/dual_axis_servo_drive_hal.c",line 717,column 9,is_stmt,isa 0
    4281 0000003f 6F16          B         ||$C$L39||,UNC        ; [CPU_ALU] |717| 
    4282                      ; branch occurs ; [] |717| 
    4283 00000040       ||$C$L38||:    
    4284                      .dwpsn  file "C:\ti\C2000Ware_MotorControl_SDK_5_04_00_00\c2000ware\driverlib\f28002x\driverlib\inter
    4285 00000040 7622          EALLOW    ; [CPU_ALU] |256| 
    4286                      .dwpsn  file "C:\ti\C2000Ware_MotorControl_SDK_5_04_00_00\c2000ware\driverlib\f28002x\driverlib\inter
    4287 00000041 8F00!         MOVL      XAR4,#||motor1ControlISR|| ; [CPU_ARAU] |257| 
         00000042 0000 
    4288 00000043 BDA4          MOV32     *(0:0x0d60),XAR4      ; [CPU_FPU] |257| 
         00000044 0D60 
    4289                      .dwpsn  file "C:/ti/C2000Ware_MotorControl_SDK_5_04_00_00/c2000ware/driverlib/f28002x/driverlib/adc.h
    4290 00000045 F5A9          MOV       AL,*(0:0x7407)        ; [CPU_ALU] |1835| 
         00000046 7407 
    4291 00000047 18A9          AND       AL,#0xfff0            ; [CPU_ALU] |1835| 
         00000048 FFF0 
    4292 00000049 F4A9          MOV       *(0:0x7407),AL        ; [CPU_ALU] |1835| 
         0000004a 7407 
    4293                      .dwpsn  file "C:/ti/C2000Ware_MotorControl_SDK_5_04_00_00/c2000ware/driverlib/f28002x/driverlib/adc.h
    4294 0000004b F5A9          MOV       AL,*(0:0x7407)        ; [CPU_ALU] |1884| 
         0000004c 7407 
    4295 0000004d 5040          ORB       AL,#0x40              ; [CPU_ALU] |1884| 
    4296 0000004e F4A9          MOV       *(0:0x7407),AL        ; [CPU_ALU] |1884| 
         0000004f 7407 
    4297                      .dwpsn  file "C:/ti/C2000Ware_MotorControl_SDK_5_04_00_00/c2000ware/driverlib/f28002x/driverlib/adc.h
    4298 00000050 F5A9          MOV       AL,*(0:0x7407)        ; [CPU_ALU] |1737| 
         00000051 7407 
    4299 00000052 5020          ORB       AL,#0x20              ; [CPU_ALU] |1737| 
    4300 00000053 F4A9          MOV       *(0:0x7407),AL        ; [CPU_ALU] |1737| 
         00000054 7407 
    4301 00000055       ||$C$L39||:    
    4302                      .dwpsn  file "C:/ti/C2000Ware_MotorControl_SDK_5_04_00_00/c2000ware/driverlib/f28002x/driverlib/adc.h
    4303 00000055 761A          EDIS      ; [CPU_ALU] |1739| 
    4304              ||$C$L40||:    
    4305              $C$DW$254       .dwtag  DW_TAG_TI_branch
    4306                      .dwattr $C$DW$254, DW_AT_low_pc(0x00)
    4307                      .dwattr $C$DW$254, DW_AT_TI_return
    4308              
    4309 00000056 0006          LRETR     ; [CPU_ALU] 
    4310                      ; return occurs ; [] 
    4311                      .dwattr $C$DW$250, DW_AT_TI_end_file("../sources/dual_axis_servo_drive_hal.c")
    4312                      .dwattr $C$DW$250, DW_AT_TI_end_line(0x2d2)
    4313                      .dwattr $C$DW$250, DW_AT_TI_end_column(0x01)
    4314                      .dwendentry
    4315                      .dwendtag $C$DW$250
TMS320C2000 Assembler PC v22.6.2 Wed Dec 10 14:45:02 2025

Copyright (c) 1996-2018 Texas Instruments Incorporated
dual_axis_servo_drive_hal.asm                                        PAGE   85

    4316              
    4317 00000000               .sect   ".text:HAL_setupGPIOs"
    4318                      .clink
    4319                      .global ||HAL_setupGPIOs||
    4320              
    4321              $C$DW$255       .dwtag  DW_TAG_subprogram
    4322                      .dwattr $C$DW$255, DW_AT_name("HAL_setupGPIOs")
    4323                      .dwattr $C$DW$255, DW_AT_low_pc(||HAL_setupGPIOs||)
    4324                      .dwattr $C$DW$255, DW_AT_high_pc(0x00)
    4325                      .dwattr $C$DW$255, DW_AT_linkage_name("HAL_setupGPIOs")
    4326                      .dwattr $C$DW$255, DW_AT_external
    4327                      .dwattr $C$DW$255, DW_AT_decl_file("../sources/dual_axis_servo_drive_hal.c")
    4328                      .dwattr $C$DW$255, DW_AT_decl_line(0x2e8)
    4329                      .dwattr $C$DW$255, DW_AT_decl_column(0x06)
    4330                      .dwattr $C$DW$255, DW_AT_TI_max_frame_size(-4)
    4331                      .dwpsn  file "../sources/dual_axis_servo_drive_hal.c",line 745,column 1,is_stmt,address ||HAL_setupGP
    4332              
    4333                      .dwfde $C$DW$CIE, ||HAL_setupGPIOs||
    4334              $C$DW$256       .dwtag  DW_TAG_formal_parameter
    4335                      .dwattr $C$DW$256, DW_AT_name("handle")
    4336                      .dwattr $C$DW$256, DW_AT_type(*$C$DW$T$152)
    4337                      .dwattr $C$DW$256, DW_AT_location[DW_OP_reg12]
    4338              
    4339              
    4340              ;***************************************************************
    4341              ;* FNAME: HAL_setupGPIOs                FR SIZE:   2           *
    4342              ;*                                                             *
    4343              ;* FUNCTION ENVIRONMENT                                        *
    4344              ;*                                                             *
    4345              ;* FUNCTION PROPERTIES                                         *
    4346              ;*                            2 Parameter,  0 Auto,  0 SOE     *
    4347              ;***************************************************************
    4348              
    4349 00000000       ||HAL_setupGPIOs||:
    4350                      .dwcfi  cfa_offset, -2
    4351                      .dwcfi  save_reg_to_mem, 26, 0
    4352 00000000 FE02          ADDB      SP,#2                 ; [CPU_ARAU] 
    4353                      .dwcfi  cfa_offset, -4
    4354                      .dwpsn  file "../sources/dual_axis_servo_drive_hal.c",line 747,column 5,is_stmt,isa 0
    4355 00000001 8F06          MOVL      XAR4,#393217          ; [CPU_ARAU] |747| 
         00000002 0001 
    4356 00000003 A8A9          MOVL      ACC,XAR4              ; [CPU_ALU] |747| 
    4357              $C$DW$257       .dwtag  DW_TAG_TI_branch
    4358                      .dwattr $C$DW$257, DW_AT_low_pc(0x00)
    4359                      .dwattr $C$DW$257, DW_AT_name("GPIO_setPinConfig")
    4360                      .dwattr $C$DW$257, DW_AT_TI_call
    4361              
    4362 00000004 7640!         LCR       #||GPIO_setPinConfig|| ; [CPU_ALU] |747| 
         00000005 0000 
    4363                      ; call occurs [#||GPIO_setPinConfig||] ; [] |747| 
    4364                      .dwpsn  file "../sources/dual_axis_servo_drive_hal.c",line 748,column 5,is_stmt,isa 0
    4365 00000006 D401          MOVB      XAR4,#1               ; [CPU_ALU] |748| 
    4366 00000007 0200          MOVB      ACC,#0                ; [CPU_ALU] |748| 
    4367              $C$DW$258       .dwtag  DW_TAG_TI_branch
    4368                      .dwattr $C$DW$258, DW_AT_low_pc(0x00)
TMS320C2000 Assembler PC v22.6.2 Wed Dec 10 14:45:02 2025

Copyright (c) 1996-2018 Texas Instruments Incorporated
dual_axis_servo_drive_hal.asm                                        PAGE   86

    4369                      .dwattr $C$DW$258, DW_AT_name("GPIO_setDirectionMode")
    4370                      .dwattr $C$DW$258, DW_AT_TI_call
    4371              
    4372 00000008 7640!         LCR       #||GPIO_setDirectionMode|| ; [CPU_ALU] |748| 
         00000009 0000 
    4373                      ; call occurs [#||GPIO_setDirectionMode||] ; [] |748| 
    4374                      .dwpsn  file "../sources/dual_axis_servo_drive_hal.c",line 749,column 5,is_stmt,isa 0
    4375 0000000a 0200          MOVB      ACC,#0                ; [CPU_ALU] |749| 
    4376 0000000b 1E42          MOVL      *-SP[2],ACC           ; [CPU_ALU] |749| 
    4377              $C$DW$259       .dwtag  DW_TAG_TI_branch
    4378                      .dwattr $C$DW$259, DW_AT_low_pc(0x00)
    4379                      .dwattr $C$DW$259, DW_AT_name("GPIO_setPadConfig")
    4380                      .dwattr $C$DW$259, DW_AT_TI_call
    4381              
    4382 0000000c 7640!         LCR       #||GPIO_setPadConfig|| ; [CPU_ALU] |749| 
         0000000d 0000 
    4383                      ; call occurs [#||GPIO_setPadConfig||] ; [] |749| 
    4384                      .dwpsn  file "../sources/dual_axis_servo_drive_hal.c",line 752,column 5,is_stmt,isa 0
    4385 0000000e 8F06          MOVL      XAR4,#393729          ; [CPU_ARAU] |752| 
         0000000f 0201 
    4386 00000010 A8A9          MOVL      ACC,XAR4              ; [CPU_ALU] |752| 
    4387              $C$DW$260       .dwtag  DW_TAG_TI_branch
    4388                      .dwattr $C$DW$260, DW_AT_low_pc(0x00)
    4389                      .dwattr $C$DW$260, DW_AT_name("GPIO_setPinConfig")
    4390                      .dwattr $C$DW$260, DW_AT_TI_call
    4391              
    4392 00000011 7640!         LCR       #||GPIO_setPinConfig|| ; [CPU_ALU] |752| 
         00000012 0000 
    4393                      ; call occurs [#||GPIO_setPinConfig||] ; [] |752| 
    4394                      .dwpsn  file "../sources/dual_axis_servo_drive_hal.c",line 753,column 5,is_stmt,isa 0
    4395 00000013 D401          MOVB      XAR4,#1               ; [CPU_ALU] |753| 
    4396 00000014 0201          MOVB      ACC,#1                ; [CPU_ALU] |753| 
    4397              $C$DW$261       .dwtag  DW_TAG_TI_branch
    4398                      .dwattr $C$DW$261, DW_AT_low_pc(0x00)
    4399                      .dwattr $C$DW$261, DW_AT_name("GPIO_setDirectionMode")
    4400                      .dwattr $C$DW$261, DW_AT_TI_call
    4401              
    4402 00000015 7640!         LCR       #||GPIO_setDirectionMode|| ; [CPU_ALU] |753| 
         00000016 0000 
    4403                      ; call occurs [#||GPIO_setDirectionMode||] ; [] |753| 
    4404                      .dwpsn  file "../sources/dual_axis_servo_drive_hal.c",line 754,column 5,is_stmt,isa 0
    4405 00000017 0200          MOVB      ACC,#0                ; [CPU_ALU] |754| 
    4406 00000018 1E42          MOVL      *-SP[2],ACC           ; [CPU_ALU] |754| 
    4407 00000019 0201          MOVB      ACC,#1                ; [CPU_ALU] |754| 
    4408              $C$DW$262       .dwtag  DW_TAG_TI_branch
    4409                      .dwattr $C$DW$262, DW_AT_low_pc(0x00)
    4410                      .dwattr $C$DW$262, DW_AT_name("GPIO_setPadConfig")
    4411                      .dwattr $C$DW$262, DW_AT_TI_call
    4412              
    4413 0000001a 7640!         LCR       #||GPIO_setPadConfig|| ; [CPU_ALU] |754| 
         0000001b 0000 
    4414                      ; call occurs [#||GPIO_setPadConfig||] ; [] |754| 
    4415                      .dwpsn  file "../sources/dual_axis_servo_drive_hal.c",line 757,column 5,is_stmt,isa 0
    4416 0000001c 8F06          MOVL      XAR4,#394241          ; [CPU_ARAU] |757| 
         0000001d 0401 
TMS320C2000 Assembler PC v22.6.2 Wed Dec 10 14:45:02 2025

Copyright (c) 1996-2018 Texas Instruments Incorporated
dual_axis_servo_drive_hal.asm                                        PAGE   87

    4417 0000001e A8A9          MOVL      ACC,XAR4              ; [CPU_ALU] |757| 
    4418              $C$DW$263       .dwtag  DW_TAG_TI_branch
    4419                      .dwattr $C$DW$263, DW_AT_low_pc(0x00)
    4420                      .dwattr $C$DW$263, DW_AT_name("GPIO_setPinConfig")
    4421                      .dwattr $C$DW$263, DW_AT_TI_call
    4422              
    4423 0000001f 7640!         LCR       #||GPIO_setPinConfig|| ; [CPU_ALU] |757| 
         00000020 0000 
    4424                      ; call occurs [#||GPIO_setPinConfig||] ; [] |757| 
    4425                      .dwpsn  file "../sources/dual_axis_servo_drive_hal.c",line 758,column 5,is_stmt,isa 0
    4426 00000021 D401          MOVB      XAR4,#1               ; [CPU_ALU] |758| 
    4427 00000022 0202          MOVB      ACC,#2                ; [CPU_ALU] |758| 
    4428              $C$DW$264       .dwtag  DW_TAG_TI_branch
    4429                      .dwattr $C$DW$264, DW_AT_low_pc(0x00)
    4430                      .dwattr $C$DW$264, DW_AT_name("GPIO_setDirectionMode")
    4431                      .dwattr $C$DW$264, DW_AT_TI_call
    4432              
    4433 00000023 7640!         LCR       #||GPIO_setDirectionMode|| ; [CPU_ALU] |758| 
         00000024 0000 
    4434                      ; call occurs [#||GPIO_setDirectionMode||] ; [] |758| 
    4435                      .dwpsn  file "../sources/dual_axis_servo_drive_hal.c",line 759,column 5,is_stmt,isa 0
    4436 00000025 0200          MOVB      ACC,#0                ; [CPU_ALU] |759| 
    4437 00000026 1E42          MOVL      *-SP[2],ACC           ; [CPU_ALU] |759| 
    4438 00000027 0202          MOVB      ACC,#2                ; [CPU_ALU] |759| 
    4439              $C$DW$265       .dwtag  DW_TAG_TI_branch
    4440                      .dwattr $C$DW$265, DW_AT_low_pc(0x00)
    4441                      .dwattr $C$DW$265, DW_AT_name("GPIO_setPadConfig")
    4442                      .dwattr $C$DW$265, DW_AT_TI_call
    4443              
    4444 00000028 7640!         LCR       #||GPIO_setPadConfig|| ; [CPU_ALU] |759| 
         00000029 0000 
    4445                      ; call occurs [#||GPIO_setPadConfig||] ; [] |759| 
    4446                      .dwpsn  file "../sources/dual_axis_servo_drive_hal.c",line 762,column 5,is_stmt,isa 0
    4447 0000002a 8F06          MOVL      XAR4,#394753          ; [CPU_ARAU] |762| 
         0000002b 0601 
    4448 0000002c A8A9          MOVL      ACC,XAR4              ; [CPU_ALU] |762| 
    4449              $C$DW$266       .dwtag  DW_TAG_TI_branch
    4450                      .dwattr $C$DW$266, DW_AT_low_pc(0x00)
    4451                      .dwattr $C$DW$266, DW_AT_name("GPIO_setPinConfig")
    4452                      .dwattr $C$DW$266, DW_AT_TI_call
    4453              
    4454 0000002d 7640!         LCR       #||GPIO_setPinConfig|| ; [CPU_ALU] |762| 
         0000002e 0000 
    4455                      ; call occurs [#||GPIO_setPinConfig||] ; [] |762| 
    4456                      .dwpsn  file "../sources/dual_axis_servo_drive_hal.c",line 763,column 5,is_stmt,isa 0
    4457 0000002f D401          MOVB      XAR4,#1               ; [CPU_ALU] |763| 
    4458 00000030 0203          MOVB      ACC,#3                ; [CPU_ALU] |763| 
    4459              $C$DW$267       .dwtag  DW_TAG_TI_branch
    4460                      .dwattr $C$DW$267, DW_AT_low_pc(0x00)
    4461                      .dwattr $C$DW$267, DW_AT_name("GPIO_setDirectionMode")
    4462                      .dwattr $C$DW$267, DW_AT_TI_call
    4463              
    4464 00000031 7640!         LCR       #||GPIO_setDirectionMode|| ; [CPU_ALU] |763| 
         00000032 0000 
    4465                      ; call occurs [#||GPIO_setDirectionMode||] ; [] |763| 
TMS320C2000 Assembler PC v22.6.2 Wed Dec 10 14:45:02 2025

Copyright (c) 1996-2018 Texas Instruments Incorporated
dual_axis_servo_drive_hal.asm                                        PAGE   88

    4466                      .dwpsn  file "../sources/dual_axis_servo_drive_hal.c",line 764,column 5,is_stmt,isa 0
    4467 00000033 0200          MOVB      ACC,#0                ; [CPU_ALU] |764| 
    4468 00000034 1E42          MOVL      *-SP[2],ACC           ; [CPU_ALU] |764| 
    4469 00000035 0203          MOVB      ACC,#3                ; [CPU_ALU] |764| 
    4470              $C$DW$268       .dwtag  DW_TAG_TI_branch
    4471                      .dwattr $C$DW$268, DW_AT_low_pc(0x00)
    4472                      .dwattr $C$DW$268, DW_AT_name("GPIO_setPadConfig")
    4473                      .dwattr $C$DW$268, DW_AT_TI_call
    4474              
    4475 00000036 7640!         LCR       #||GPIO_setPadConfig|| ; [CPU_ALU] |764| 
         00000037 0000 
    4476                      ; call occurs [#||GPIO_setPadConfig||] ; [] |764| 
    4477                      .dwpsn  file "../sources/dual_axis_servo_drive_hal.c",line 767,column 5,is_stmt,isa 0
    4478 00000038 8F06          MOVL      XAR4,#395265          ; [CPU_ARAU] |767| 
         00000039 0801 
    4479 0000003a A8A9          MOVL      ACC,XAR4              ; [CPU_ALU] |767| 
    4480              $C$DW$269       .dwtag  DW_TAG_TI_branch
    4481                      .dwattr $C$DW$269, DW_AT_low_pc(0x00)
    4482                      .dwattr $C$DW$269, DW_AT_name("GPIO_setPinConfig")
    4483                      .dwattr $C$DW$269, DW_AT_TI_call
    4484              
    4485 0000003b 7640!         LCR       #||GPIO_setPinConfig|| ; [CPU_ALU] |767| 
         0000003c 0000 
    4486                      ; call occurs [#||GPIO_setPinConfig||] ; [] |767| 
    4487                      .dwpsn  file "../sources/dual_axis_servo_drive_hal.c",line 768,column 5,is_stmt,isa 0
    4488 0000003d D401          MOVB      XAR4,#1               ; [CPU_ALU] |768| 
    4489 0000003e 0204          MOVB      ACC,#4                ; [CPU_ALU] |768| 
    4490              $C$DW$270       .dwtag  DW_TAG_TI_branch
    4491                      .dwattr $C$DW$270, DW_AT_low_pc(0x00)
    4492                      .dwattr $C$DW$270, DW_AT_name("GPIO_setDirectionMode")
    4493                      .dwattr $C$DW$270, DW_AT_TI_call
    4494              
    4495 0000003f 7640!         LCR       #||GPIO_setDirectionMode|| ; [CPU_ALU] |768| 
         00000040 0000 
    4496                      ; call occurs [#||GPIO_setDirectionMode||] ; [] |768| 
    4497                      .dwpsn  file "../sources/dual_axis_servo_drive_hal.c",line 769,column 5,is_stmt,isa 0
    4498 00000041 0200          MOVB      ACC,#0                ; [CPU_ALU] |769| 
    4499 00000042 1E42          MOVL      *-SP[2],ACC           ; [CPU_ALU] |769| 
    4500 00000043 0204          MOVB      ACC,#4                ; [CPU_ALU] |769| 
    4501              $C$DW$271       .dwtag  DW_TAG_TI_branch
    4502                      .dwattr $C$DW$271, DW_AT_low_pc(0x00)
    4503                      .dwattr $C$DW$271, DW_AT_name("GPIO_setPadConfig")
    4504                      .dwattr $C$DW$271, DW_AT_TI_call
    4505              
    4506 00000044 7640!         LCR       #||GPIO_setPadConfig|| ; [CPU_ALU] |769| 
         00000045 0000 
    4507                      ; call occurs [#||GPIO_setPadConfig||] ; [] |769| 
    4508                      .dwpsn  file "../sources/dual_axis_servo_drive_hal.c",line 778,column 5,is_stmt,isa 0
    4509 00000046 8F06          MOVL      XAR4,#395776          ; [CPU_ARAU] |778| 
         00000047 0A00 
    4510 00000048 A8A9          MOVL      ACC,XAR4              ; [CPU_ALU] |778| 
    4511              $C$DW$272       .dwtag  DW_TAG_TI_branch
    4512                      .dwattr $C$DW$272, DW_AT_low_pc(0x00)
    4513                      .dwattr $C$DW$272, DW_AT_name("GPIO_setPinConfig")
    4514                      .dwattr $C$DW$272, DW_AT_TI_call
TMS320C2000 Assembler PC v22.6.2 Wed Dec 10 14:45:02 2025

Copyright (c) 1996-2018 Texas Instruments Incorporated
dual_axis_servo_drive_hal.asm                                        PAGE   89

    4515              
    4516 00000049 7640!         LCR       #||GPIO_setPinConfig|| ; [CPU_ALU] |778| 
         0000004a 0000 
    4517                      ; call occurs [#||GPIO_setPinConfig||] ; [] |778| 
    4518                      .dwpsn  file "../sources/dual_axis_servo_drive_hal.c",line 779,column 5,is_stmt,isa 0
    4519 0000004b D400          MOVB      XAR4,#0               ; [CPU_ALU] |779| 
    4520 0000004c 0205          MOVB      ACC,#5                ; [CPU_ALU] |779| 
    4521              $C$DW$273       .dwtag  DW_TAG_TI_branch
    4522                      .dwattr $C$DW$273, DW_AT_low_pc(0x00)
    4523                      .dwattr $C$DW$273, DW_AT_name("GPIO_setDirectionMode")
    4524                      .dwattr $C$DW$273, DW_AT_TI_call
    4525              
    4526 0000004d 7640!         LCR       #||GPIO_setDirectionMode|| ; [CPU_ALU] |779| 
         0000004e 0000 
    4527                      ; call occurs [#||GPIO_setDirectionMode||] ; [] |779| 
    4528                      .dwpsn  file "../sources/dual_axis_servo_drive_hal.c",line 780,column 5,is_stmt,isa 0
    4529 0000004f 0200          MOVB      ACC,#0                ; [CPU_ALU] |780| 
    4530 00000050 1E42          MOVL      *-SP[2],ACC           ; [CPU_ALU] |780| 
    4531 00000051 0205          MOVB      ACC,#5                ; [CPU_ALU] |780| 
    4532              $C$DW$274       .dwtag  DW_TAG_TI_branch
    4533                      .dwattr $C$DW$274, DW_AT_low_pc(0x00)
    4534                      .dwattr $C$DW$274, DW_AT_name("GPIO_setPadConfig")
    4535                      .dwattr $C$DW$274, DW_AT_TI_call
    4536              
    4537 00000052 7640!         LCR       #||GPIO_setPadConfig|| ; [CPU_ALU] |780| 
         00000053 0000 
    4538                      ; call occurs [#||GPIO_setPadConfig||] ; [] |780| 
    4539                      .dwpsn  file "../sources/dual_axis_servo_drive_hal.c",line 784,column 5,is_stmt,isa 0
    4540 00000054 8F06          MOVL      XAR4,#396289          ; [CPU_ARAU] |784| 
         00000055 0C01 
    4541 00000056 A8A9          MOVL      ACC,XAR4              ; [CPU_ALU] |784| 
    4542              $C$DW$275       .dwtag  DW_TAG_TI_branch
    4543                      .dwattr $C$DW$275, DW_AT_low_pc(0x00)
    4544                      .dwattr $C$DW$275, DW_AT_name("GPIO_setPinConfig")
    4545                      .dwattr $C$DW$275, DW_AT_TI_call
    4546              
    4547 00000057 7640!         LCR       #||GPIO_setPinConfig|| ; [CPU_ALU] |784| 
         00000058 0000 
    4548                      ; call occurs [#||GPIO_setPinConfig||] ; [] |784| 
    4549                      .dwpsn  file "../sources/dual_axis_servo_drive_hal.c",line 785,column 5,is_stmt,isa 0
    4550 00000059 D401          MOVB      XAR4,#1               ; [CPU_ALU] |785| 
    4551 0000005a 0206          MOVB      ACC,#6                ; [CPU_ALU] |785| 
    4552              $C$DW$276       .dwtag  DW_TAG_TI_branch
    4553                      .dwattr $C$DW$276, DW_AT_low_pc(0x00)
    4554                      .dwattr $C$DW$276, DW_AT_name("GPIO_setDirectionMode")
    4555                      .dwattr $C$DW$276, DW_AT_TI_call
    4556              
    4557 0000005b 7640!         LCR       #||GPIO_setDirectionMode|| ; [CPU_ALU] |785| 
         0000005c 0000 
    4558                      ; call occurs [#||GPIO_setDirectionMode||] ; [] |785| 
    4559                      .dwpsn  file "../sources/dual_axis_servo_drive_hal.c",line 786,column 5,is_stmt,isa 0
    4560 0000005d 0200          MOVB      ACC,#0                ; [CPU_ALU] |786| 
    4561 0000005e 1E42          MOVL      *-SP[2],ACC           ; [CPU_ALU] |786| 
    4562 0000005f 0206          MOVB      ACC,#6                ; [CPU_ALU] |786| 
    4563              $C$DW$277       .dwtag  DW_TAG_TI_branch
TMS320C2000 Assembler PC v22.6.2 Wed Dec 10 14:45:02 2025

Copyright (c) 1996-2018 Texas Instruments Incorporated
dual_axis_servo_drive_hal.asm                                        PAGE   90

    4564                      .dwattr $C$DW$277, DW_AT_low_pc(0x00)
    4565                      .dwattr $C$DW$277, DW_AT_name("GPIO_setPadConfig")
    4566                      .dwattr $C$DW$277, DW_AT_TI_call
    4567              
    4568 00000060 7640!         LCR       #||GPIO_setPadConfig|| ; [CPU_ALU] |786| 
         00000061 0000 
    4569                      ; call occurs [#||GPIO_setPadConfig||] ; [] |786| 
    4570                      .dwpsn  file "../sources/dual_axis_servo_drive_hal.c",line 789,column 5,is_stmt,isa 0
    4571 00000062 8F06          MOVL      XAR4,#396801          ; [CPU_ARAU] |789| 
         00000063 0E01 
    4572 00000064 A8A9          MOVL      ACC,XAR4              ; [CPU_ALU] |789| 
    4573              $C$DW$278       .dwtag  DW_TAG_TI_branch
    4574                      .dwattr $C$DW$278, DW_AT_low_pc(0x00)
    4575                      .dwattr $C$DW$278, DW_AT_name("GPIO_setPinConfig")
    4576                      .dwattr $C$DW$278, DW_AT_TI_call
    4577              
    4578 00000065 7640!         LCR       #||GPIO_setPinConfig|| ; [CPU_ALU] |789| 
         00000066 0000 
    4579                      ; call occurs [#||GPIO_setPinConfig||] ; [] |789| 
    4580                      .dwpsn  file "../sources/dual_axis_servo_drive_hal.c",line 790,column 5,is_stmt,isa 0
    4581 00000067 D401          MOVB      XAR4,#1               ; [CPU_ALU] |790| 
    4582 00000068 0207          MOVB      ACC,#7                ; [CPU_ALU] |790| 
    4583              $C$DW$279       .dwtag  DW_TAG_TI_branch
    4584                      .dwattr $C$DW$279, DW_AT_low_pc(0x00)
    4585                      .dwattr $C$DW$279, DW_AT_name("GPIO_setDirectionMode")
    4586                      .dwattr $C$DW$279, DW_AT_TI_call
    4587              
    4588 00000069 7640!         LCR       #||GPIO_setDirectionMode|| ; [CPU_ALU] |790| 
         0000006a 0000 
    4589                      ; call occurs [#||GPIO_setDirectionMode||] ; [] |790| 
    4590                      .dwpsn  file "../sources/dual_axis_servo_drive_hal.c",line 791,column 5,is_stmt,isa 0
    4591 0000006b 0200          MOVB      ACC,#0                ; [CPU_ALU] |791| 
    4592 0000006c 1E42          MOVL      *-SP[2],ACC           ; [CPU_ALU] |791| 
    4593 0000006d 0207          MOVB      ACC,#7                ; [CPU_ALU] |791| 
    4594              $C$DW$280       .dwtag  DW_TAG_TI_branch
    4595                      .dwattr $C$DW$280, DW_AT_low_pc(0x00)
    4596                      .dwattr $C$DW$280, DW_AT_name("GPIO_setPadConfig")
    4597                      .dwattr $C$DW$280, DW_AT_TI_call
    4598              
    4599 0000006e 7640!         LCR       #||GPIO_setPadConfig|| ; [CPU_ALU] |791| 
         0000006f 0000 
    4600                      ; call occurs [#||GPIO_setPadConfig||] ; [] |791| 
    4601                      .dwpsn  file "../sources/dual_axis_servo_drive_hal.c",line 794,column 5,is_stmt,isa 0
    4602 00000070 8F06          MOVL      XAR4,#397312          ; [CPU_ARAU] |794| 
         00000071 1000 
    4603 00000072 A8A9          MOVL      ACC,XAR4              ; [CPU_ALU] |794| 
    4604              $C$DW$281       .dwtag  DW_TAG_TI_branch
    4605                      .dwattr $C$DW$281, DW_AT_low_pc(0x00)
    4606                      .dwattr $C$DW$281, DW_AT_name("GPIO_setPinConfig")
    4607                      .dwattr $C$DW$281, DW_AT_TI_call
    4608              
    4609 00000073 7640!         LCR       #||GPIO_setPinConfig|| ; [CPU_ALU] |794| 
         00000074 0000 
    4610                      ; call occurs [#||GPIO_setPinConfig||] ; [] |794| 
    4611                      .dwpsn  file "../sources/dual_axis_servo_drive_hal.c",line 795,column 5,is_stmt,isa 0
TMS320C2000 Assembler PC v22.6.2 Wed Dec 10 14:45:02 2025

Copyright (c) 1996-2018 Texas Instruments Incorporated
dual_axis_servo_drive_hal.asm                                        PAGE   91

    4612 00000075 D400          MOVB      XAR4,#0               ; [CPU_ALU] |795| 
    4613 00000076 0208          MOVB      ACC,#8                ; [CPU_ALU] |795| 
    4614              $C$DW$282       .dwtag  DW_TAG_TI_branch
    4615                      .dwattr $C$DW$282, DW_AT_low_pc(0x00)
    4616                      .dwattr $C$DW$282, DW_AT_name("GPIO_setDirectionMode")
    4617                      .dwattr $C$DW$282, DW_AT_TI_call
    4618              
    4619 00000077 7640!         LCR       #||GPIO_setDirectionMode|| ; [CPU_ALU] |795| 
         00000078 0000 
    4620                      ; call occurs [#||GPIO_setDirectionMode||] ; [] |795| 
    4621                      .dwpsn  file "../sources/dual_axis_servo_drive_hal.c",line 796,column 5,is_stmt,isa 0
    4622 00000079 0200          MOVB      ACC,#0                ; [CPU_ALU] |796| 
    4623 0000007a 1E42          MOVL      *-SP[2],ACC           ; [CPU_ALU] |796| 
    4624 0000007b 0208          MOVB      ACC,#8                ; [CPU_ALU] |796| 
    4625              $C$DW$283       .dwtag  DW_TAG_TI_branch
    4626                      .dwattr $C$DW$283, DW_AT_low_pc(0x00)
    4627                      .dwattr $C$DW$283, DW_AT_name("GPIO_setPadConfig")
    4628                      .dwattr $C$DW$283, DW_AT_TI_call
    4629              
    4630 0000007c 7640!         LCR       #||GPIO_setPadConfig|| ; [CPU_ALU] |796| 
         0000007d 0000 
    4631                      ; call occurs [#||GPIO_setPadConfig||] ; [] |796| 
    4632                      .dwpsn  file "../sources/dual_axis_servo_drive_hal.c",line 805,column 5,is_stmt,isa 0
    4633 0000007e 8F06          MOVL      XAR4,#397824          ; [CPU_ARAU] |805| 
         0000007f 1200 
    4634 00000080 A8A9          MOVL      ACC,XAR4              ; [CPU_ALU] |805| 
    4635              $C$DW$284       .dwtag  DW_TAG_TI_branch
    4636                      .dwattr $C$DW$284, DW_AT_low_pc(0x00)
    4637                      .dwattr $C$DW$284, DW_AT_name("GPIO_setPinConfig")
    4638                      .dwattr $C$DW$284, DW_AT_TI_call
    4639              
    4640 00000081 7640!         LCR       #||GPIO_setPinConfig|| ; [CPU_ALU] |805| 
         00000082 0000 
    4641                      ; call occurs [#||GPIO_setPinConfig||] ; [] |805| 
    4642                      .dwpsn  file "../sources/dual_axis_servo_drive_hal.c",line 806,column 5,is_stmt,isa 0
    4643 00000083 D400          MOVB      XAR4,#0               ; [CPU_ALU] |806| 
    4644 00000084 0209          MOVB      ACC,#9                ; [CPU_ALU] |806| 
    4645              $C$DW$285       .dwtag  DW_TAG_TI_branch
    4646                      .dwattr $C$DW$285, DW_AT_low_pc(0x00)
    4647                      .dwattr $C$DW$285, DW_AT_name("GPIO_setDirectionMode")
    4648                      .dwattr $C$DW$285, DW_AT_TI_call
    4649              
    4650 00000085 7640!         LCR       #||GPIO_setDirectionMode|| ; [CPU_ALU] |806| 
         00000086 0000 
    4651                      ; call occurs [#||GPIO_setDirectionMode||] ; [] |806| 
    4652                      .dwpsn  file "../sources/dual_axis_servo_drive_hal.c",line 807,column 5,is_stmt,isa 0
    4653 00000087 0200          MOVB      ACC,#0                ; [CPU_ALU] |807| 
    4654 00000088 1E42          MOVL      *-SP[2],ACC           ; [CPU_ALU] |807| 
    4655 00000089 0209          MOVB      ACC,#9                ; [CPU_ALU] |807| 
    4656              $C$DW$286       .dwtag  DW_TAG_TI_branch
    4657                      .dwattr $C$DW$286, DW_AT_low_pc(0x00)
    4658                      .dwattr $C$DW$286, DW_AT_name("GPIO_setPadConfig")
    4659                      .dwattr $C$DW$286, DW_AT_TI_call
    4660              
    4661 0000008a 7640!         LCR       #||GPIO_setPadConfig|| ; [CPU_ALU] |807| 
TMS320C2000 Assembler PC v22.6.2 Wed Dec 10 14:45:02 2025

Copyright (c) 1996-2018 Texas Instruments Incorporated
dual_axis_servo_drive_hal.asm                                        PAGE   92

         0000008b 0000 
    4662                      ; call occurs [#||GPIO_setPadConfig||] ; [] |807| 
    4663                      .dwpsn  file "../sources/dual_axis_servo_drive_hal.c",line 817,column 5,is_stmt,isa 0
    4664 0000008c 8F06          MOVL      XAR4,#398336          ; [CPU_ARAU] |817| 
         0000008d 1400 
    4665 0000008e A8A9          MOVL      ACC,XAR4              ; [CPU_ALU] |817| 
    4666              $C$DW$287       .dwtag  DW_TAG_TI_branch
    4667                      .dwattr $C$DW$287, DW_AT_low_pc(0x00)
    4668                      .dwattr $C$DW$287, DW_AT_name("GPIO_setPinConfig")
    4669                      .dwattr $C$DW$287, DW_AT_TI_call
    4670              
    4671 0000008f 7640!         LCR       #||GPIO_setPinConfig|| ; [CPU_ALU] |817| 
         00000090 0000 
    4672                      ; call occurs [#||GPIO_setPinConfig||] ; [] |817| 
    4673                      .dwpsn  file "../sources/dual_axis_servo_drive_hal.c",line 818,column 5,is_stmt,isa 0
    4674 00000091 D400          MOVB      XAR4,#0               ; [CPU_ALU] |818| 
    4675 00000092 020A          MOVB      ACC,#10               ; [CPU_ALU] |818| 
    4676              $C$DW$288       .dwtag  DW_TAG_TI_branch
    4677                      .dwattr $C$DW$288, DW_AT_low_pc(0x00)
    4678                      .dwattr $C$DW$288, DW_AT_name("GPIO_setDirectionMode")
    4679                      .dwattr $C$DW$288, DW_AT_TI_call
    4680              
    4681 00000093 7640!         LCR       #||GPIO_setDirectionMode|| ; [CPU_ALU] |818| 
         00000094 0000 
    4682                      ; call occurs [#||GPIO_setDirectionMode||] ; [] |818| 
    4683                      .dwpsn  file "../sources/dual_axis_servo_drive_hal.c",line 819,column 5,is_stmt,isa 0
    4684 00000095 0200          MOVB      ACC,#0                ; [CPU_ALU] |819| 
    4685 00000096 1E42          MOVL      *-SP[2],ACC           ; [CPU_ALU] |819| 
    4686 00000097 020A          MOVB      ACC,#10               ; [CPU_ALU] |819| 
    4687              $C$DW$289       .dwtag  DW_TAG_TI_branch
    4688                      .dwattr $C$DW$289, DW_AT_low_pc(0x00)
    4689                      .dwattr $C$DW$289, DW_AT_name("GPIO_setPadConfig")
    4690                      .dwattr $C$DW$289, DW_AT_TI_call
    4691              
    4692 00000098 7640!         LCR       #||GPIO_setPadConfig|| ; [CPU_ALU] |819| 
         00000099 0000 
    4693                      ; call occurs [#||GPIO_setPadConfig||] ; [] |819| 
    4694                      .dwpsn  file "../sources/dual_axis_servo_drive_hal.c",line 829,column 5,is_stmt,isa 0
    4695 0000009a 8F06          MOVL      XAR4,#398848          ; [CPU_ARAU] |829| 
         0000009b 1600 
    4696 0000009c A8A9          MOVL      ACC,XAR4              ; [CPU_ALU] |829| 
    4697              $C$DW$290       .dwtag  DW_TAG_TI_branch
    4698                      .dwattr $C$DW$290, DW_AT_low_pc(0x00)
    4699                      .dwattr $C$DW$290, DW_AT_name("GPIO_setPinConfig")
    4700                      .dwattr $C$DW$290, DW_AT_TI_call
    4701              
    4702 0000009d 7640!         LCR       #||GPIO_setPinConfig|| ; [CPU_ALU] |829| 
         0000009e 0000 
    4703                      ; call occurs [#||GPIO_setPinConfig||] ; [] |829| 
    4704                      .dwpsn  file "../sources/dual_axis_servo_drive_hal.c",line 830,column 5,is_stmt,isa 0
    4705 0000009f D400          MOVB      XAR4,#0               ; [CPU_ALU] |830| 
    4706 000000a0 020B          MOVB      ACC,#11               ; [CPU_ALU] |830| 
    4707              $C$DW$291       .dwtag  DW_TAG_TI_branch
    4708                      .dwattr $C$DW$291, DW_AT_low_pc(0x00)
    4709                      .dwattr $C$DW$291, DW_AT_name("GPIO_setDirectionMode")
TMS320C2000 Assembler PC v22.6.2 Wed Dec 10 14:45:02 2025

Copyright (c) 1996-2018 Texas Instruments Incorporated
dual_axis_servo_drive_hal.asm                                        PAGE   93

    4710                      .dwattr $C$DW$291, DW_AT_TI_call
    4711              
    4712 000000a1 7640!         LCR       #||GPIO_setDirectionMode|| ; [CPU_ALU] |830| 
         000000a2 0000 
    4713                      ; call occurs [#||GPIO_setDirectionMode||] ; [] |830| 
    4714                      .dwpsn  file "../sources/dual_axis_servo_drive_hal.c",line 831,column 5,is_stmt,isa 0
    4715 000000a3 0200          MOVB      ACC,#0                ; [CPU_ALU] |831| 
    4716 000000a4 1E42          MOVL      *-SP[2],ACC           ; [CPU_ALU] |831| 
    4717 000000a5 020B          MOVB      ACC,#11               ; [CPU_ALU] |831| 
    4718              $C$DW$292       .dwtag  DW_TAG_TI_branch
    4719                      .dwattr $C$DW$292, DW_AT_low_pc(0x00)
    4720                      .dwattr $C$DW$292, DW_AT_name("GPIO_setPadConfig")
    4721                      .dwattr $C$DW$292, DW_AT_TI_call
    4722              
    4723 000000a6 7640!         LCR       #||GPIO_setPadConfig|| ; [CPU_ALU] |831| 
         000000a7 0000 
    4724                      ; call occurs [#||GPIO_setPadConfig||] ; [] |831| 
    4725                      .dwpsn  file "../sources/dual_axis_servo_drive_hal.c",line 835,column 5,is_stmt,isa 0
    4726 000000a8 8F06          MOVL      XAR4,#399361          ; [CPU_ARAU] |835| 
         000000a9 1801 
    4727 000000aa A8A9          MOVL      ACC,XAR4              ; [CPU_ALU] |835| 
    4728              $C$DW$293       .dwtag  DW_TAG_TI_branch
    4729                      .dwattr $C$DW$293, DW_AT_low_pc(0x00)
    4730                      .dwattr $C$DW$293, DW_AT_name("GPIO_setPinConfig")
    4731                      .dwattr $C$DW$293, DW_AT_TI_call
    4732              
    4733 000000ab 7640!         LCR       #||GPIO_setPinConfig|| ; [CPU_ALU] |835| 
         000000ac 0000 
    4734                      ; call occurs [#||GPIO_setPinConfig||] ; [] |835| 
    4735                      .dwpsn  file "../sources/dual_axis_servo_drive_hal.c",line 836,column 5,is_stmt,isa 0
    4736 000000ad D401          MOVB      XAR4,#1               ; [CPU_ALU] |836| 
    4737 000000ae 020C          MOVB      ACC,#12               ; [CPU_ALU] |836| 
    4738              $C$DW$294       .dwtag  DW_TAG_TI_branch
    4739                      .dwattr $C$DW$294, DW_AT_low_pc(0x00)
    4740                      .dwattr $C$DW$294, DW_AT_name("GPIO_setDirectionMode")
    4741                      .dwattr $C$DW$294, DW_AT_TI_call
    4742              
    4743 000000af 7640!         LCR       #||GPIO_setDirectionMode|| ; [CPU_ALU] |836| 
         000000b0 0000 
    4744                      ; call occurs [#||GPIO_setDirectionMode||] ; [] |836| 
    4745                      .dwpsn  file "../sources/dual_axis_servo_drive_hal.c",line 837,column 5,is_stmt,isa 0
    4746 000000b1 0200          MOVB      ACC,#0                ; [CPU_ALU] |837| 
    4747 000000b2 1E42          MOVL      *-SP[2],ACC           ; [CPU_ALU] |837| 
    4748 000000b3 020C          MOVB      ACC,#12               ; [CPU_ALU] |837| 
    4749              $C$DW$295       .dwtag  DW_TAG_TI_branch
    4750                      .dwattr $C$DW$295, DW_AT_low_pc(0x00)
    4751                      .dwattr $C$DW$295, DW_AT_name("GPIO_setPadConfig")
    4752                      .dwattr $C$DW$295, DW_AT_TI_call
    4753              
    4754 000000b4 7640!         LCR       #||GPIO_setPadConfig|| ; [CPU_ALU] |837| 
         000000b5 0000 
    4755                      ; call occurs [#||GPIO_setPadConfig||] ; [] |837| 
    4756                      .dwpsn  file "../sources/dual_axis_servo_drive_hal.c",line 840,column 5,is_stmt,isa 0
    4757 000000b6 8F06          MOVL      XAR4,#399873          ; [CPU_ARAU] |840| 
         000000b7 1A01 
TMS320C2000 Assembler PC v22.6.2 Wed Dec 10 14:45:02 2025

Copyright (c) 1996-2018 Texas Instruments Incorporated
dual_axis_servo_drive_hal.asm                                        PAGE   94

    4758 000000b8 A8A9          MOVL      ACC,XAR4              ; [CPU_ALU] |840| 
    4759              $C$DW$296       .dwtag  DW_TAG_TI_branch
    4760                      .dwattr $C$DW$296, DW_AT_low_pc(0x00)
    4761                      .dwattr $C$DW$296, DW_AT_name("GPIO_setPinConfig")
    4762                      .dwattr $C$DW$296, DW_AT_TI_call
    4763              
    4764 000000b9 7640!         LCR       #||GPIO_setPinConfig|| ; [CPU_ALU] |840| 
         000000ba 0000 
    4765                      ; call occurs [#||GPIO_setPinConfig||] ; [] |840| 
    4766                      .dwpsn  file "../sources/dual_axis_servo_drive_hal.c",line 841,column 5,is_stmt,isa 0
    4767 000000bb D401          MOVB      XAR4,#1               ; [CPU_ALU] |841| 
    4768 000000bc 020D          MOVB      ACC,#13               ; [CPU_ALU] |841| 
    4769              $C$DW$297       .dwtag  DW_TAG_TI_branch
    4770                      .dwattr $C$DW$297, DW_AT_low_pc(0x00)
    4771                      .dwattr $C$DW$297, DW_AT_name("GPIO_setDirectionMode")
    4772                      .dwattr $C$DW$297, DW_AT_TI_call
    4773              
    4774 000000bd 7640!         LCR       #||GPIO_setDirectionMode|| ; [CPU_ALU] |841| 
         000000be 0000 
    4775                      ; call occurs [#||GPIO_setDirectionMode||] ; [] |841| 
    4776                      .dwpsn  file "../sources/dual_axis_servo_drive_hal.c",line 842,column 5,is_stmt,isa 0
    4777 000000bf 0200          MOVB      ACC,#0                ; [CPU_ALU] |842| 
    4778 000000c0 1E42          MOVL      *-SP[2],ACC           ; [CPU_ALU] |842| 
    4779 000000c1 020D          MOVB      ACC,#13               ; [CPU_ALU] |842| 
    4780              $C$DW$298       .dwtag  DW_TAG_TI_branch
    4781                      .dwattr $C$DW$298, DW_AT_low_pc(0x00)
    4782                      .dwattr $C$DW$298, DW_AT_name("GPIO_setPadConfig")
    4783                      .dwattr $C$DW$298, DW_AT_TI_call
    4784              
    4785 000000c2 7640!         LCR       #||GPIO_setPadConfig|| ; [CPU_ALU] |842| 
         000000c3 0000 
    4786                      ; call occurs [#||GPIO_setPadConfig||] ; [] |842| 
    4787                      .dwpsn  file "../sources/dual_axis_servo_drive_hal.c",line 845,column 5,is_stmt,isa 0
    4788 000000c4 8F06          MOVL      XAR4,#400394          ; [CPU_ARAU] |845| 
         000000c5 1C0A 
    4789 000000c6 A8A9          MOVL      ACC,XAR4              ; [CPU_ALU] |845| 
    4790              $C$DW$299       .dwtag  DW_TAG_TI_branch
    4791                      .dwattr $C$DW$299, DW_AT_low_pc(0x00)
    4792                      .dwattr $C$DW$299, DW_AT_name("GPIO_setPinConfig")
    4793                      .dwattr $C$DW$299, DW_AT_TI_call
    4794              
    4795 000000c7 7640!         LCR       #||GPIO_setPinConfig|| ; [CPU_ALU] |845| 
         000000c8 0000 
    4796                      ; call occurs [#||GPIO_setPinConfig||] ; [] |845| 
    4797                      .dwpsn  file "../sources/dual_axis_servo_drive_hal.c",line 846,column 5,is_stmt,isa 0
    4798 000000c9 D400          MOVB      XAR4,#0               ; [CPU_ALU] |846| 
    4799 000000ca 020E          MOVB      ACC,#14               ; [CPU_ALU] |846| 
    4800              $C$DW$300       .dwtag  DW_TAG_TI_branch
    4801                      .dwattr $C$DW$300, DW_AT_low_pc(0x00)
    4802                      .dwattr $C$DW$300, DW_AT_name("GPIO_setDirectionMode")
    4803                      .dwattr $C$DW$300, DW_AT_TI_call
    4804              
    4805 000000cb 7640!         LCR       #||GPIO_setDirectionMode|| ; [CPU_ALU] |846| 
         000000cc 0000 
    4806                      ; call occurs [#||GPIO_setDirectionMode||] ; [] |846| 
TMS320C2000 Assembler PC v22.6.2 Wed Dec 10 14:45:02 2025

Copyright (c) 1996-2018 Texas Instruments Incorporated
dual_axis_servo_drive_hal.asm                                        PAGE   95

    4807                      .dwpsn  file "../sources/dual_axis_servo_drive_hal.c",line 847,column 5,is_stmt,isa 0
    4808 000000cd 0201          MOVB      ACC,#1                ; [CPU_ALU] |847| 
    4809 000000ce 1E42          MOVL      *-SP[2],ACC           ; [CPU_ALU] |847| 
    4810 000000cf 020E          MOVB      ACC,#14               ; [CPU_ALU] |847| 
    4811              $C$DW$301       .dwtag  DW_TAG_TI_branch
    4812                      .dwattr $C$DW$301, DW_AT_low_pc(0x00)
    4813                      .dwattr $C$DW$301, DW_AT_name("GPIO_setPadConfig")
    4814                      .dwattr $C$DW$301, DW_AT_TI_call
    4815              
    4816 000000d0 7640!         LCR       #||GPIO_setPadConfig|| ; [CPU_ALU] |847| 
         000000d1 0000 
    4817                      ; call occurs [#||GPIO_setPadConfig||] ; [] |847| 
    4818                      .dwpsn  file "../sources/dual_axis_servo_drive_hal.c",line 848,column 5,is_stmt,isa 0
    4819 000000d2 020E          MOVB      ACC,#14               ; [CPU_ALU] |848| 
    4820 000000d3 D401          MOVB      XAR4,#1               ; [CPU_ALU] |848| 
    4821              $C$DW$302       .dwtag  DW_TAG_TI_branch
    4822                      .dwattr $C$DW$302, DW_AT_low_pc(0x00)
    4823                      .dwattr $C$DW$302, DW_AT_name("GPIO_setQualificationMode")
    4824                      .dwattr $C$DW$302, DW_AT_TI_call
    4825              
    4826 000000d4 7640!         LCR       #||GPIO_setQualificationMode|| ; [CPU_ALU] |848| 
         000000d5 0000 
    4827                      ; call occurs [#||GPIO_setQualificationMode||] ; [] |848| 
    4828                      .dwpsn  file "../sources/dual_axis_servo_drive_hal.c",line 849,column 5,is_stmt,isa 0
    4829 000000d6 0204          MOVB      ACC,#4                ; [CPU_ALU] |849| 
    4830 000000d7 1E42          MOVL      *-SP[2],ACC           ; [CPU_ALU] |849| 
    4831 000000d8 020E          MOVB      ACC,#14               ; [CPU_ALU] |849| 
    4832              $C$DW$303       .dwtag  DW_TAG_TI_branch
    4833                      .dwattr $C$DW$303, DW_AT_low_pc(0x00)
    4834                      .dwattr $C$DW$303, DW_AT_name("GPIO_setQualificationPeriod")
    4835                      .dwattr $C$DW$303, DW_AT_TI_call
    4836              
    4837 000000d9 7640!         LCR       #||GPIO_setQualificationPeriod|| ; [CPU_ALU] |849| 
         000000da 0000 
    4838                      ; call occurs [#||GPIO_setQualificationPeriod||] ; [] |849| 
    4839                      .dwpsn  file "../sources/dual_axis_servo_drive_hal.c",line 852,column 5,is_stmt,isa 0
    4840 000000db 8F06          MOVL      XAR4,#400909          ; [CPU_ARAU] |852| 
         000000dc 1E0D 
    4841 000000dd A8A9          MOVL      ACC,XAR4              ; [CPU_ALU] |852| 
    4842              $C$DW$304       .dwtag  DW_TAG_TI_branch
    4843                      .dwattr $C$DW$304, DW_AT_low_pc(0x00)
    4844                      .dwattr $C$DW$304, DW_AT_name("GPIO_setPinConfig")
    4845                      .dwattr $C$DW$304, DW_AT_TI_call
    4846              
    4847 000000de 7640!         LCR       #||GPIO_setPinConfig|| ; [CPU_ALU] |852| 
         000000df 0000 
    4848                      ; call occurs [#||GPIO_setPinConfig||] ; [] |852| 
    4849                      .dwpsn  file "../sources/dual_axis_servo_drive_hal.c",line 853,column 5,is_stmt,isa 0
    4850 000000e0 D401          MOVB      XAR4,#1               ; [CPU_ALU] |853| 
    4851 000000e1 020F          MOVB      ACC,#15               ; [CPU_ALU] |853| 
    4852              $C$DW$305       .dwtag  DW_TAG_TI_branch
    4853                      .dwattr $C$DW$305, DW_AT_low_pc(0x00)
    4854                      .dwattr $C$DW$305, DW_AT_name("GPIO_setDirectionMode")
    4855                      .dwattr $C$DW$305, DW_AT_TI_call
    4856              
TMS320C2000 Assembler PC v22.6.2 Wed Dec 10 14:45:02 2025

Copyright (c) 1996-2018 Texas Instruments Incorporated
dual_axis_servo_drive_hal.asm                                        PAGE   96

    4857 000000e2 7640!         LCR       #||GPIO_setDirectionMode|| ; [CPU_ALU] |853| 
         000000e3 0000 
    4858                      ; call occurs [#||GPIO_setDirectionMode||] ; [] |853| 
    4859                      .dwpsn  file "../sources/dual_axis_servo_drive_hal.c",line 854,column 5,is_stmt,isa 0
    4860 000000e4 0200          MOVB      ACC,#0                ; [CPU_ALU] |854| 
    4861 000000e5 1E42          MOVL      *-SP[2],ACC           ; [CPU_ALU] |854| 
    4862 000000e6 020F          MOVB      ACC,#15               ; [CPU_ALU] |854| 
    4863              $C$DW$306       .dwtag  DW_TAG_TI_branch
    4864                      .dwattr $C$DW$306, DW_AT_low_pc(0x00)
    4865                      .dwattr $C$DW$306, DW_AT_name("GPIO_setPadConfig")
    4866                      .dwattr $C$DW$306, DW_AT_TI_call
    4867              
    4868 000000e7 7640!         LCR       #||GPIO_setPadConfig|| ; [CPU_ALU] |854| 
         000000e8 0000 
    4869                      ; call occurs [#||GPIO_setPadConfig||] ; [] |854| 
    4870                      .dwpsn  file "../sources/dual_axis_servo_drive_hal.c",line 857,column 5,is_stmt,isa 0
    4871 000000e9 8F08          MOVL      XAR4,#524293          ; [CPU_ARAU] |857| 
         000000ea 0005 
    4872 000000eb A8A9          MOVL      ACC,XAR4              ; [CPU_ALU] |857| 
    4873              $C$DW$307       .dwtag  DW_TAG_TI_branch
    4874                      .dwattr $C$DW$307, DW_AT_low_pc(0x00)
    4875                      .dwattr $C$DW$307, DW_AT_name("GPIO_setPinConfig")
    4876                      .dwattr $C$DW$307, DW_AT_TI_call
    4877              
    4878 000000ec 7640!         LCR       #||GPIO_setPinConfig|| ; [CPU_ALU] |857| 
         000000ed 0000 
    4879                      ; call occurs [#||GPIO_setPinConfig||] ; [] |857| 
    4880                      .dwpsn  file "../sources/dual_axis_servo_drive_hal.c",line 858,column 5,is_stmt,isa 0
    4881 000000ee D401          MOVB      XAR4,#1               ; [CPU_ALU] |858| 
    4882 000000ef 0210          MOVB      ACC,#16               ; [CPU_ALU] |858| 
    4883              $C$DW$308       .dwtag  DW_TAG_TI_branch
    4884                      .dwattr $C$DW$308, DW_AT_low_pc(0x00)
    4885                      .dwattr $C$DW$308, DW_AT_name("GPIO_setDirectionMode")
    4886                      .dwattr $C$DW$308, DW_AT_TI_call
    4887              
    4888 000000f0 7640!         LCR       #||GPIO_setDirectionMode|| ; [CPU_ALU] |858| 
         000000f1 0000 
    4889                      ; call occurs [#||GPIO_setDirectionMode||] ; [] |858| 
    4890                      .dwpsn  file "../sources/dual_axis_servo_drive_hal.c",line 859,column 5,is_stmt,isa 0
    4891 000000f2 0200          MOVB      ACC,#0                ; [CPU_ALU] |859| 
    4892 000000f3 1E42          MOVL      *-SP[2],ACC           ; [CPU_ALU] |859| 
    4893 000000f4 0210          MOVB      ACC,#16               ; [CPU_ALU] |859| 
    4894              $C$DW$309       .dwtag  DW_TAG_TI_branch
    4895                      .dwattr $C$DW$309, DW_AT_low_pc(0x00)
    4896                      .dwattr $C$DW$309, DW_AT_name("GPIO_setPadConfig")
    4897                      .dwattr $C$DW$309, DW_AT_TI_call
    4898              
    4899 000000f5 7640!         LCR       #||GPIO_setPadConfig|| ; [CPU_ALU] |859| 
         000000f6 0000 
    4900                      ; call occurs [#||GPIO_setPadConfig||] ; [] |859| 
    4901                      .dwpsn  file "../sources/dual_axis_servo_drive_hal.c",line 862,column 5,is_stmt,isa 0
    4902 000000f7 8F08          MOVL      XAR4,#524805          ; [CPU_ARAU] |862| 
         000000f8 0205 
    4903 000000f9 A8A9          MOVL      ACC,XAR4              ; [CPU_ALU] |862| 
    4904              $C$DW$310       .dwtag  DW_TAG_TI_branch
TMS320C2000 Assembler PC v22.6.2 Wed Dec 10 14:45:02 2025

Copyright (c) 1996-2018 Texas Instruments Incorporated
dual_axis_servo_drive_hal.asm                                        PAGE   97

    4905                      .dwattr $C$DW$310, DW_AT_low_pc(0x00)
    4906                      .dwattr $C$DW$310, DW_AT_name("GPIO_setPinConfig")
    4907                      .dwattr $C$DW$310, DW_AT_TI_call
    4908              
    4909 000000fa 7640!         LCR       #||GPIO_setPinConfig|| ; [CPU_ALU] |862| 
         000000fb 0000 
    4910                      ; call occurs [#||GPIO_setPinConfig||] ; [] |862| 
    4911                      .dwpsn  file "../sources/dual_axis_servo_drive_hal.c",line 863,column 5,is_stmt,isa 0
    4912 000000fc 0211          MOVB      ACC,#17               ; [CPU_ALU] |863| 
    4913 000000fd D401          MOVB      XAR4,#1               ; [CPU_ALU] |863| 
    4914              $C$DW$311       .dwtag  DW_TAG_TI_branch
    4915                      .dwattr $C$DW$311, DW_AT_low_pc(0x00)
    4916                      .dwattr $C$DW$311, DW_AT_name("GPIO_setDirectionMode")
    4917                      .dwattr $C$DW$311, DW_AT_TI_call
    4918              
    4919 000000fe 7640!         LCR       #||GPIO_setDirectionMode|| ; [CPU_ALU] |863| 
         000000ff 0000 
    4920                      ; call occurs [#||GPIO_setDirectionMode||] ; [] |863| 
    4921                      .dwpsn  file "../sources/dual_axis_servo_drive_hal.c",line 864,column 5,is_stmt,isa 0
    4922 00000100 0200          MOVB      ACC,#0                ; [CPU_ALU] |864| 
    4923 00000101 1E42          MOVL      *-SP[2],ACC           ; [CPU_ALU] |864| 
    4924 00000102 0211          MOVB      ACC,#17               ; [CPU_ALU] |864| 
    4925              $C$DW$312       .dwtag  DW_TAG_TI_branch
    4926                      .dwattr $C$DW$312, DW_AT_low_pc(0x00)
    4927                      .dwattr $C$DW$312, DW_AT_name("GPIO_setPadConfig")
    4928                      .dwattr $C$DW$312, DW_AT_TI_call
    4929              
    4930 00000103 7640!         LCR       #||GPIO_setPadConfig|| ; [CPU_ALU] |864| 
         00000104 0000 
    4931                      ; call occurs [#||GPIO_setPadConfig||] ; [] |864| 
    4932                      .dwpsn  file "../sources/dual_axis_servo_drive_hal.c",line 867,column 5,is_stmt,isa 0
    4933 00000105 8F08          MOVL      XAR4,#525312          ; [CPU_ARAU] |867| 
         00000106 0400 
    4934 00000107 A8A9          MOVL      ACC,XAR4              ; [CPU_ALU] |867| 
    4935              $C$DW$313       .dwtag  DW_TAG_TI_branch
    4936                      .dwattr $C$DW$313, DW_AT_low_pc(0x00)
    4937                      .dwattr $C$DW$313, DW_AT_name("GPIO_setPinConfig")
    4938                      .dwattr $C$DW$313, DW_AT_TI_call
    4939              
    4940 00000108 7640!         LCR       #||GPIO_setPinConfig|| ; [CPU_ALU] |867| 
         00000109 0000 
    4941                      ; call occurs [#||GPIO_setPinConfig||] ; [] |867| 
    4942                      .dwpsn  file "../sources/dual_axis_servo_drive_hal.c",line 868,column 5,is_stmt,isa 0
    4943 0000010a D400          MOVB      XAR4,#0               ; [CPU_ALU] |868| 
    4944 0000010b 0212          MOVB      ACC,#18               ; [CPU_ALU] |868| 
    4945              $C$DW$314       .dwtag  DW_TAG_TI_branch
    4946                      .dwattr $C$DW$314, DW_AT_low_pc(0x00)
    4947                      .dwattr $C$DW$314, DW_AT_name("GPIO_setDirectionMode")
    4948                      .dwattr $C$DW$314, DW_AT_TI_call
    4949              
    4950 0000010c 7640!         LCR       #||GPIO_setDirectionMode|| ; [CPU_ALU] |868| 
         0000010d 0000 
    4951                      ; call occurs [#||GPIO_setDirectionMode||] ; [] |868| 
    4952                      .dwpsn  file "../sources/dual_axis_servo_drive_hal.c",line 869,column 5,is_stmt,isa 0
    4953 0000010e 0200          MOVB      ACC,#0                ; [CPU_ALU] |869| 
TMS320C2000 Assembler PC v22.6.2 Wed Dec 10 14:45:02 2025

Copyright (c) 1996-2018 Texas Instruments Incorporated
dual_axis_servo_drive_hal.asm                                        PAGE   98

    4954 0000010f 1E42          MOVL      *-SP[2],ACC           ; [CPU_ALU] |869| 
    4955 00000110 0212          MOVB      ACC,#18               ; [CPU_ALU] |869| 
    4956              $C$DW$315       .dwtag  DW_TAG_TI_branch
    4957                      .dwattr $C$DW$315, DW_AT_low_pc(0x00)
    4958                      .dwattr $C$DW$315, DW_AT_name("GPIO_setPadConfig")
    4959                      .dwattr $C$DW$315, DW_AT_TI_call
    4960              
    4961 00000111 7640!         LCR       #||GPIO_setPadConfig|| ; [CPU_ALU] |869| 
         00000112 0000 
    4962                      ; call occurs [#||GPIO_setPadConfig||] ; [] |869| 
    4963                      .dwpsn  file "../sources/dual_axis_servo_drive_hal.c",line 872,column 5,is_stmt,isa 0
    4964 00000113 8F08          MOVL      XAR4,#525824          ; [CPU_ARAU] |872| 
         00000114 0600 
    4965 00000115 A8A9          MOVL      ACC,XAR4              ; [CPU_ALU] |872| 
    4966              $C$DW$316       .dwtag  DW_TAG_TI_branch
    4967                      .dwattr $C$DW$316, DW_AT_low_pc(0x00)
    4968                      .dwattr $C$DW$316, DW_AT_name("GPIO_setPinConfig")
    4969                      .dwattr $C$DW$316, DW_AT_TI_call
    4970              
    4971 00000116 7640!         LCR       #||GPIO_setPinConfig|| ; [CPU_ALU] |872| 
         00000117 0000 
    4972                      ; call occurs [#||GPIO_setPinConfig||] ; [] |872| 
    4973                      .dwpsn  file "../sources/dual_axis_servo_drive_hal.c",line 873,column 5,is_stmt,isa 0
    4974 00000118 D400          MOVB      XAR4,#0               ; [CPU_ALU] |873| 
    4975 00000119 0213          MOVB      ACC,#19               ; [CPU_ALU] |873| 
    4976              $C$DW$317       .dwtag  DW_TAG_TI_branch
    4977                      .dwattr $C$DW$317, DW_AT_low_pc(0x00)
    4978                      .dwattr $C$DW$317, DW_AT_name("GPIO_setDirectionMode")
    4979                      .dwattr $C$DW$317, DW_AT_TI_call
    4980              
    4981 0000011a 7640!         LCR       #||GPIO_setDirectionMode|| ; [CPU_ALU] |873| 
         0000011b 0000 
    4982                      ; call occurs [#||GPIO_setDirectionMode||] ; [] |873| 
    4983                      .dwpsn  file "../sources/dual_axis_servo_drive_hal.c",line 874,column 5,is_stmt,isa 0
    4984 0000011c 0200          MOVB      ACC,#0                ; [CPU_ALU] |874| 
    4985 0000011d 1E42          MOVL      *-SP[2],ACC           ; [CPU_ALU] |874| 
    4986 0000011e 0213          MOVB      ACC,#19               ; [CPU_ALU] |874| 
    4987              $C$DW$318       .dwtag  DW_TAG_TI_branch
    4988                      .dwattr $C$DW$318, DW_AT_low_pc(0x00)
    4989                      .dwattr $C$DW$318, DW_AT_name("GPIO_setPadConfig")
    4990                      .dwattr $C$DW$318, DW_AT_TI_call
    4991              
    4992 0000011f 7640!         LCR       #||GPIO_setPadConfig|| ; [CPU_ALU] |874| 
         00000120 0000 
    4993                      ; call occurs [#||GPIO_setPadConfig||] ; [] |874| 
    4994                      .dwpsn  file "../sources/dual_axis_servo_drive_hal.c",line 882,column 5,is_stmt,isa 0
    4995 00000121 8F08          MOVL      XAR4,#527360          ; [CPU_ARAU] |882| 
         00000122 0C00 
    4996 00000123 A8A9          MOVL      ACC,XAR4              ; [CPU_ALU] |882| 
    4997              $C$DW$319       .dwtag  DW_TAG_TI_branch
    4998                      .dwattr $C$DW$319, DW_AT_low_pc(0x00)
    4999                      .dwattr $C$DW$319, DW_AT_name("GPIO_setPinConfig")
    5000                      .dwattr $C$DW$319, DW_AT_TI_call
    5001              
    5002 00000124 7640!         LCR       #||GPIO_setPinConfig|| ; [CPU_ALU] |882| 
TMS320C2000 Assembler PC v22.6.2 Wed Dec 10 14:45:02 2025

Copyright (c) 1996-2018 Texas Instruments Incorporated
dual_axis_servo_drive_hal.asm                                        PAGE   99

         00000125 0000 
    5003                      ; call occurs [#||GPIO_setPinConfig||] ; [] |882| 
    5004                      .dwpsn  file "../sources/dual_axis_servo_drive_hal.c",line 883,column 5,is_stmt,isa 0
    5005 00000126 0214          MOVB      ACC,#20               ; [CPU_ALU] |883| 
    5006 00000127 D400          MOVB      XAR4,#0               ; [CPU_ALU] |883| 
    5007              $C$DW$320       .dwtag  DW_TAG_TI_branch
    5008                      .dwattr $C$DW$320, DW_AT_low_pc(0x00)
    5009                      .dwattr $C$DW$320, DW_AT_name("GPIO_setDirectionMode")
    5010                      .dwattr $C$DW$320, DW_AT_TI_call
    5011              
    5012 00000128 7640!         LCR       #||GPIO_setDirectionMode|| ; [CPU_ALU] |883| 
         00000129 0000 
    5013                      ; call occurs [#||GPIO_setDirectionMode||] ; [] |883| 
    5014                      .dwpsn  file "../sources/dual_axis_servo_drive_hal.c",line 884,column 5,is_stmt,isa 0
    5015 0000012a 0200          MOVB      ACC,#0                ; [CPU_ALU] |884| 
    5016 0000012b 1E42          MOVL      *-SP[2],ACC           ; [CPU_ALU] |884| 
    5017 0000012c 0214          MOVB      ACC,#20               ; [CPU_ALU] |884| 
    5018              $C$DW$321       .dwtag  DW_TAG_TI_branch
    5019                      .dwattr $C$DW$321, DW_AT_low_pc(0x00)
    5020                      .dwattr $C$DW$321, DW_AT_name("GPIO_setPadConfig")
    5021                      .dwattr $C$DW$321, DW_AT_TI_call
    5022              
    5023 0000012d 7640!         LCR       #||GPIO_setPadConfig|| ; [CPU_ALU] |884| 
         0000012e 0000 
    5024                      ; call occurs [#||GPIO_setPadConfig||] ; [] |884| 
    5025                      .dwpsn  file "../sources/dual_axis_servo_drive_hal.c",line 888,column 5,is_stmt,isa 0
    5026 0000012f 8F08          MOVL      XAR4,#527872          ; [CPU_ARAU] |888| 
         00000130 0E00 
    5027 00000131 A8A9          MOVL      ACC,XAR4              ; [CPU_ALU] |888| 
    5028              $C$DW$322       .dwtag  DW_TAG_TI_branch
    5029                      .dwattr $C$DW$322, DW_AT_low_pc(0x00)
    5030                      .dwattr $C$DW$322, DW_AT_name("GPIO_setPinConfig")
    5031                      .dwattr $C$DW$322, DW_AT_TI_call
    5032              
    5033 00000132 7640!         LCR       #||GPIO_setPinConfig|| ; [CPU_ALU] |888| 
         00000133 0000 
    5034                      ; call occurs [#||GPIO_setPinConfig||] ; [] |888| 
    5035                      .dwpsn  file "C:/ti/C2000Ware_MotorControl_SDK_5_04_00_00/c2000ware/driverlib/f28002x/driverlib/gpio.
    5036 00000134 9A00          MOVB      AL,#0                 ; [CPU_ALU] |485| 
    5037 00000135 9B80          MOV       AH,#128               ; [CPU_ALU] |485| 
    5038                      .dwpsn  file "../sources/dual_axis_servo_drive_hal.c",line 890,column 5,is_stmt,isa 0
    5039 00000136 D401          MOVB      XAR4,#1               ; [CPU_ALU] |890| 
    5040                      .dwpsn  file "C:/ti/C2000Ware_MotorControl_SDK_5_04_00_00/c2000ware/driverlib/f28002x/driverlib/gpio.
    5041 00000137 BDA9          MOV32     *(0:0x7f04),ACC       ; [CPU_FPU] |485| 
         00000138 7F04 
    5042                      .dwpsn  file "../sources/dual_axis_servo_drive_hal.c",line 890,column 5,is_stmt,isa 0
    5043 00000139 0217          MOVB      ACC,#23               ; [CPU_ALU] |890| 
    5044              $C$DW$323       .dwtag  DW_TAG_TI_branch
    5045                      .dwattr $C$DW$323, DW_AT_low_pc(0x00)
    5046                      .dwattr $C$DW$323, DW_AT_name("GPIO_setDirectionMode")
    5047                      .dwattr $C$DW$323, DW_AT_TI_call
    5048              
    5049 0000013a 7640!         LCR       #||GPIO_setDirectionMode|| ; [CPU_ALU] |890| 
         0000013b 0000 
    5050                      ; call occurs [#||GPIO_setDirectionMode||] ; [] |890| 
TMS320C2000 Assembler PC v22.6.2 Wed Dec 10 14:45:02 2025

Copyright (c) 1996-2018 Texas Instruments Incorporated
dual_axis_servo_drive_hal.asm                                        PAGE  100

    5051                      .dwpsn  file "../sources/dual_axis_servo_drive_hal.c",line 891,column 5,is_stmt,isa 0
    5052 0000013c 0201          MOVB      ACC,#1                ; [CPU_ALU] |891| 
    5053 0000013d 1E42          MOVL      *-SP[2],ACC           ; [CPU_ALU] |891| 
    5054 0000013e 0217          MOVB      ACC,#23               ; [CPU_ALU] |891| 
    5055              $C$DW$324       .dwtag  DW_TAG_TI_branch
    5056                      .dwattr $C$DW$324, DW_AT_low_pc(0x00)
    5057                      .dwattr $C$DW$324, DW_AT_name("GPIO_setPadConfig")
    5058                      .dwattr $C$DW$324, DW_AT_TI_call
    5059              
    5060 0000013f 7640!         LCR       #||GPIO_setPadConfig|| ; [CPU_ALU] |891| 
         00000140 0000 
    5061                      ; call occurs [#||GPIO_setPadConfig||] ; [] |891| 
    5062                      .dwpsn  file "../sources/dual_axis_servo_drive_hal.c",line 894,column 5,is_stmt,isa 0
    5063 00000141 8F08          MOVL      XAR4,#528384          ; [CPU_ARAU] |894| 
         00000142 1000 
    5064 00000143 A8A9          MOVL      ACC,XAR4              ; [CPU_ALU] |894| 
    5065              $C$DW$325       .dwtag  DW_TAG_TI_branch
    5066                      .dwattr $C$DW$325, DW_AT_low_pc(0x00)
    5067                      .dwattr $C$DW$325, DW_AT_name("GPIO_setPinConfig")
    5068                      .dwattr $C$DW$325, DW_AT_TI_call
    5069              
    5070 00000144 7640!         LCR       #||GPIO_setPinConfig|| ; [CPU_ALU] |894| 
         00000145 0000 
    5071                      ; call occurs [#||GPIO_setPinConfig||] ; [] |894| 
    5072                      .dwpsn  file "../sources/dual_axis_servo_drive_hal.c",line 895,column 5,is_stmt,isa 0
    5073 00000146 D400          MOVB      XAR4,#0               ; [CPU_ALU] |895| 
    5074 00000147 0218          MOVB      ACC,#24               ; [CPU_ALU] |895| 
    5075              $C$DW$326       .dwtag  DW_TAG_TI_branch
    5076                      .dwattr $C$DW$326, DW_AT_low_pc(0x00)
    5077                      .dwattr $C$DW$326, DW_AT_name("GPIO_setDirectionMode")
    5078                      .dwattr $C$DW$326, DW_AT_TI_call
    5079              
    5080 00000148 7640!         LCR       #||GPIO_setDirectionMode|| ; [CPU_ALU] |895| 
         00000149 0000 
    5081                      ; call occurs [#||GPIO_setDirectionMode||] ; [] |895| 
    5082                      .dwpsn  file "../sources/dual_axis_servo_drive_hal.c",line 896,column 5,is_stmt,isa 0
    5083 0000014a 0200          MOVB      ACC,#0                ; [CPU_ALU] |896| 
    5084 0000014b 1E42          MOVL      *-SP[2],ACC           ; [CPU_ALU] |896| 
    5085 0000014c 0218          MOVB      ACC,#24               ; [CPU_ALU] |896| 
    5086              $C$DW$327       .dwtag  DW_TAG_TI_branch
    5087                      .dwattr $C$DW$327, DW_AT_low_pc(0x00)
    5088                      .dwattr $C$DW$327, DW_AT_name("GPIO_setPadConfig")
    5089                      .dwattr $C$DW$327, DW_AT_TI_call
    5090              
    5091 0000014d 7640!         LCR       #||GPIO_setPadConfig|| ; [CPU_ALU] |896| 
         0000014e 0000 
    5092                      ; call occurs [#||GPIO_setPadConfig||] ; [] |896| 
    5093                      .dwpsn  file "../sources/dual_axis_servo_drive_hal.c",line 899,column 5,is_stmt,isa 0
    5094 0000014f 8F08          MOVL      XAR4,#528898          ; [CPU_ARAU] |899| 
         00000150 1202 
    5095 00000151 A8A9          MOVL      ACC,XAR4              ; [CPU_ALU] |899| 
    5096              $C$DW$328       .dwtag  DW_TAG_TI_branch
    5097                      .dwattr $C$DW$328, DW_AT_low_pc(0x00)
    5098                      .dwattr $C$DW$328, DW_AT_name("GPIO_setPinConfig")
    5099                      .dwattr $C$DW$328, DW_AT_TI_call
TMS320C2000 Assembler PC v22.6.2 Wed Dec 10 14:45:02 2025

Copyright (c) 1996-2018 Texas Instruments Incorporated
dual_axis_servo_drive_hal.asm                                        PAGE  101

    5100              
    5101 00000152 7640!         LCR       #||GPIO_setPinConfig|| ; [CPU_ALU] |899| 
         00000153 0000 
    5102                      ; call occurs [#||GPIO_setPinConfig||] ; [] |899| 
    5103                      .dwpsn  file "../sources/dual_axis_servo_drive_hal.c",line 900,column 5,is_stmt,isa 0
    5104 00000154 0219          MOVB      ACC,#25               ; [CPU_ALU] |900| 
    5105 00000155 D401          MOVB      XAR4,#1               ; [CPU_ALU] |900| 
    5106              $C$DW$329       .dwtag  DW_TAG_TI_branch
    5107                      .dwattr $C$DW$329, DW_AT_low_pc(0x00)
    5108                      .dwattr $C$DW$329, DW_AT_name("GPIO_setDirectionMode")
    5109                      .dwattr $C$DW$329, DW_AT_TI_call
    5110              
    5111 00000156 7640!         LCR       #||GPIO_setDirectionMode|| ; [CPU_ALU] |900| 
         00000157 0000 
    5112                      ; call occurs [#||GPIO_setDirectionMode||] ; [] |900| 
    5113                      .dwpsn  file "../sources/dual_axis_servo_drive_hal.c",line 901,column 5,is_stmt,isa 0
    5114 00000158 0201          MOVB      ACC,#1                ; [CPU_ALU] |901| 
    5115 00000159 1E42          MOVL      *-SP[2],ACC           ; [CPU_ALU] |901| 
    5116 0000015a 0219          MOVB      ACC,#25               ; [CPU_ALU] |901| 
    5117              $C$DW$330       .dwtag  DW_TAG_TI_branch
    5118                      .dwattr $C$DW$330, DW_AT_low_pc(0x00)
    5119                      .dwattr $C$DW$330, DW_AT_name("GPIO_setPadConfig")
    5120                      .dwattr $C$DW$330, DW_AT_TI_call
    5121              
    5122 0000015b 7640!         LCR       #||GPIO_setPadConfig|| ; [CPU_ALU] |901| 
         0000015c 0000 
    5123                      ; call occurs [#||GPIO_setPadConfig||] ; [] |901| 
    5124                      .dwpsn  file "../sources/dual_axis_servo_drive_hal.c",line 902,column 5,is_stmt,isa 0
    5125 0000015d D401          MOVB      XAR4,#1               ; [CPU_ALU] |902| 
    5126 0000015e 0219          MOVB      ACC,#25               ; [CPU_ALU] |902| 
    5127              $C$DW$331       .dwtag  DW_TAG_TI_branch
    5128                      .dwattr $C$DW$331, DW_AT_low_pc(0x00)
    5129                      .dwattr $C$DW$331, DW_AT_name("GPIO_setQualificationMode")
    5130                      .dwattr $C$DW$331, DW_AT_TI_call
    5131              
    5132 0000015f 7640!         LCR       #||GPIO_setQualificationMode|| ; [CPU_ALU] |902| 
         00000160 0000 
    5133                      ; call occurs [#||GPIO_setQualificationMode||] ; [] |902| 
    5134                      .dwpsn  file "../sources/dual_axis_servo_drive_hal.c",line 903,column 5,is_stmt,isa 0
    5135 00000161 0204          MOVB      ACC,#4                ; [CPU_ALU] |903| 
    5136 00000162 1E42          MOVL      *-SP[2],ACC           ; [CPU_ALU] |903| 
    5137 00000163 0219          MOVB      ACC,#25               ; [CPU_ALU] |903| 
    5138              $C$DW$332       .dwtag  DW_TAG_TI_branch
    5139                      .dwattr $C$DW$332, DW_AT_low_pc(0x00)
    5140                      .dwattr $C$DW$332, DW_AT_name("GPIO_setQualificationPeriod")
    5141                      .dwattr $C$DW$332, DW_AT_TI_call
    5142              
    5143 00000164 7640!         LCR       #||GPIO_setQualificationPeriod|| ; [CPU_ALU] |903| 
         00000165 0000 
    5144                      ; call occurs [#||GPIO_setQualificationPeriod||] ; [] |903| 
    5145                      .dwpsn  file "../sources/dual_axis_servo_drive_hal.c",line 906,column 5,is_stmt,isa 0
    5146 00000166 8F08          MOVL      XAR4,#529410          ; [CPU_ARAU] |906| 
         00000167 1402 
    5147 00000168 A8A9          MOVL      ACC,XAR4              ; [CPU_ALU] |906| 
    5148              $C$DW$333       .dwtag  DW_TAG_TI_branch
TMS320C2000 Assembler PC v22.6.2 Wed Dec 10 14:45:02 2025

Copyright (c) 1996-2018 Texas Instruments Incorporated
dual_axis_servo_drive_hal.asm                                        PAGE  102

    5149                      .dwattr $C$DW$333, DW_AT_low_pc(0x00)
    5150                      .dwattr $C$DW$333, DW_AT_name("GPIO_setPinConfig")
    5151                      .dwattr $C$DW$333, DW_AT_TI_call
    5152              
    5153 00000169 7640!         LCR       #||GPIO_setPinConfig|| ; [CPU_ALU] |906| 
         0000016a 0000 
    5154                      ; call occurs [#||GPIO_setPinConfig||] ; [] |906| 
    5155                      .dwpsn  file "../sources/dual_axis_servo_drive_hal.c",line 907,column 5,is_stmt,isa 0
    5156 0000016b D401          MOVB      XAR4,#1               ; [CPU_ALU] |907| 
    5157 0000016c 021A          MOVB      ACC,#26               ; [CPU_ALU] |907| 
    5158              $C$DW$334       .dwtag  DW_TAG_TI_branch
    5159                      .dwattr $C$DW$334, DW_AT_low_pc(0x00)
    5160                      .dwattr $C$DW$334, DW_AT_name("GPIO_setDirectionMode")
    5161                      .dwattr $C$DW$334, DW_AT_TI_call
    5162              
    5163 0000016d 7640!         LCR       #||GPIO_setDirectionMode|| ; [CPU_ALU] |907| 
         0000016e 0000 
    5164                      ; call occurs [#||GPIO_setDirectionMode||] ; [] |907| 
    5165                      .dwpsn  file "../sources/dual_axis_servo_drive_hal.c",line 908,column 5,is_stmt,isa 0
    5166 0000016f 0201          MOVB      ACC,#1                ; [CPU_ALU] |908| 
    5167 00000170 1E42          MOVL      *-SP[2],ACC           ; [CPU_ALU] |908| 
    5168 00000171 021A          MOVB      ACC,#26               ; [CPU_ALU] |908| 
    5169              $C$DW$335       .dwtag  DW_TAG_TI_branch
    5170                      .dwattr $C$DW$335, DW_AT_low_pc(0x00)
    5171                      .dwattr $C$DW$335, DW_AT_name("GPIO_setPadConfig")
    5172                      .dwattr $C$DW$335, DW_AT_TI_call
    5173              
    5174 00000172 7640!         LCR       #||GPIO_setPadConfig|| ; [CPU_ALU] |908| 
         00000173 0000 
    5175                      ; call occurs [#||GPIO_setPadConfig||] ; [] |908| 
    5176                      .dwpsn  file "../sources/dual_axis_servo_drive_hal.c",line 909,column 5,is_stmt,isa 0
    5177 00000174 D401          MOVB      XAR4,#1               ; [CPU_ALU] |909| 
    5178 00000175 021A          MOVB      ACC,#26               ; [CPU_ALU] |909| 
    5179              $C$DW$336       .dwtag  DW_TAG_TI_branch
    5180                      .dwattr $C$DW$336, DW_AT_low_pc(0x00)
    5181                      .dwattr $C$DW$336, DW_AT_name("GPIO_setQualificationMode")
    5182                      .dwattr $C$DW$336, DW_AT_TI_call
    5183              
    5184 00000176 7640!         LCR       #||GPIO_setQualificationMode|| ; [CPU_ALU] |909| 
         00000177 0000 
    5185                      ; call occurs [#||GPIO_setQualificationMode||] ; [] |909| 
    5186                      .dwpsn  file "../sources/dual_axis_servo_drive_hal.c",line 910,column 5,is_stmt,isa 0
    5187 00000178 0204          MOVB      ACC,#4                ; [CPU_ALU] |910| 
    5188 00000179 1E42          MOVL      *-SP[2],ACC           ; [CPU_ALU] |910| 
    5189 0000017a 021A          MOVB      ACC,#26               ; [CPU_ALU] |910| 
    5190              $C$DW$337       .dwtag  DW_TAG_TI_branch
    5191                      .dwattr $C$DW$337, DW_AT_low_pc(0x00)
    5192                      .dwattr $C$DW$337, DW_AT_name("GPIO_setQualificationPeriod")
    5193                      .dwattr $C$DW$337, DW_AT_TI_call
    5194              
    5195 0000017b 7640!         LCR       #||GPIO_setQualificationPeriod|| ; [CPU_ALU] |910| 
         0000017c 0000 
    5196                      ; call occurs [#||GPIO_setQualificationPeriod||] ; [] |910| 
    5197                      .dwpsn  file "../sources/dual_axis_servo_drive_hal.c",line 913,column 5,is_stmt,isa 0
    5198 0000017d 8F08          MOVL      XAR4,#529920          ; [CPU_ARAU] |913| 
TMS320C2000 Assembler PC v22.6.2 Wed Dec 10 14:45:02 2025

Copyright (c) 1996-2018 Texas Instruments Incorporated
dual_axis_servo_drive_hal.asm                                        PAGE  103

         0000017e 1600 
    5199 0000017f A8A9          MOVL      ACC,XAR4              ; [CPU_ALU] |913| 
    5200              $C$DW$338       .dwtag  DW_TAG_TI_branch
    5201                      .dwattr $C$DW$338, DW_AT_low_pc(0x00)
    5202                      .dwattr $C$DW$338, DW_AT_name("GPIO_setPinConfig")
    5203                      .dwattr $C$DW$338, DW_AT_TI_call
    5204              
    5205 00000180 7640!         LCR       #||GPIO_setPinConfig|| ; [CPU_ALU] |913| 
         00000181 0000 
    5206                      ; call occurs [#||GPIO_setPinConfig||] ; [] |913| 
    5207                      .dwpsn  file "../sources/dual_axis_servo_drive_hal.c",line 914,column 5,is_stmt,isa 0
    5208 00000182 D401          MOVB      XAR4,#1               ; [CPU_ALU] |914| 
    5209 00000183 021B          MOVB      ACC,#27               ; [CPU_ALU] |914| 
    5210              $C$DW$339       .dwtag  DW_TAG_TI_branch
    5211                      .dwattr $C$DW$339, DW_AT_low_pc(0x00)
    5212                      .dwattr $C$DW$339, DW_AT_name("GPIO_setDirectionMode")
    5213                      .dwattr $C$DW$339, DW_AT_TI_call
    5214              
    5215 00000184 7640!         LCR       #||GPIO_setDirectionMode|| ; [CPU_ALU] |914| 
         00000185 0000 
    5216                      ; call occurs [#||GPIO_setDirectionMode||] ; [] |914| 
    5217                      .dwpsn  file "../sources/dual_axis_servo_drive_hal.c",line 915,column 5,is_stmt,isa 0
    5218 00000186 0200          MOVB      ACC,#0                ; [CPU_ALU] |915| 
    5219 00000187 1E42          MOVL      *-SP[2],ACC           ; [CPU_ALU] |915| 
    5220 00000188 021B          MOVB      ACC,#27               ; [CPU_ALU] |915| 
    5221              $C$DW$340       .dwtag  DW_TAG_TI_branch
    5222                      .dwattr $C$DW$340, DW_AT_low_pc(0x00)
    5223                      .dwattr $C$DW$340, DW_AT_name("GPIO_setPadConfig")
    5224                      .dwattr $C$DW$340, DW_AT_TI_call
    5225              
    5226 00000189 7640!         LCR       #||GPIO_setPadConfig|| ; [CPU_ALU] |915| 
         0000018a 0000 
    5227                      ; call occurs [#||GPIO_setPadConfig||] ; [] |915| 
    5228                      .dwpsn  file "../sources/dual_axis_servo_drive_hal.c",line 918,column 5,is_stmt,isa 0
    5229 0000018b 8F08          MOVL      XAR4,#530433          ; [CPU_ARAU] |918| 
         0000018c 1801 
    5230 0000018d A8A9          MOVL      ACC,XAR4              ; [CPU_ALU] |918| 
    5231              $C$DW$341       .dwtag  DW_TAG_TI_branch
    5232                      .dwattr $C$DW$341, DW_AT_low_pc(0x00)
    5233                      .dwattr $C$DW$341, DW_AT_name("GPIO_setPinConfig")
    5234                      .dwattr $C$DW$341, DW_AT_TI_call
    5235              
    5236 0000018e 7640!         LCR       #||GPIO_setPinConfig|| ; [CPU_ALU] |918| 
         0000018f 0000 
    5237                      ; call occurs [#||GPIO_setPinConfig||] ; [] |918| 
    5238                      .dwpsn  file "../sources/dual_axis_servo_drive_hal.c",line 919,column 5,is_stmt,isa 0
    5239 00000190 D400          MOVB      XAR4,#0               ; [CPU_ALU] |919| 
    5240 00000191 021C          MOVB      ACC,#28               ; [CPU_ALU] |919| 
    5241              $C$DW$342       .dwtag  DW_TAG_TI_branch
    5242                      .dwattr $C$DW$342, DW_AT_low_pc(0x00)
    5243                      .dwattr $C$DW$342, DW_AT_name("GPIO_setDirectionMode")
    5244                      .dwattr $C$DW$342, DW_AT_TI_call
    5245              
    5246 00000192 7640!         LCR       #||GPIO_setDirectionMode|| ; [CPU_ALU] |919| 
         00000193 0000 
TMS320C2000 Assembler PC v22.6.2 Wed Dec 10 14:45:02 2025

Copyright (c) 1996-2018 Texas Instruments Incorporated
dual_axis_servo_drive_hal.asm                                        PAGE  104

    5247                      ; call occurs [#||GPIO_setDirectionMode||] ; [] |919| 
    5248                      .dwpsn  file "../sources/dual_axis_servo_drive_hal.c",line 920,column 5,is_stmt,isa 0
    5249 00000194 0201          MOVB      ACC,#1                ; [CPU_ALU] |920| 
    5250 00000195 1E42          MOVL      *-SP[2],ACC           ; [CPU_ALU] |920| 
    5251 00000196 021C          MOVB      ACC,#28               ; [CPU_ALU] |920| 
    5252              $C$DW$343       .dwtag  DW_TAG_TI_branch
    5253                      .dwattr $C$DW$343, DW_AT_low_pc(0x00)
    5254                      .dwattr $C$DW$343, DW_AT_name("GPIO_setPadConfig")
    5255                      .dwattr $C$DW$343, DW_AT_TI_call
    5256              
    5257 00000197 7640!         LCR       #||GPIO_setPadConfig|| ; [CPU_ALU] |920| 
         00000198 0000 
    5258                      ; call occurs [#||GPIO_setPadConfig||] ; [] |920| 
    5259                      .dwpsn  file "../sources/dual_axis_servo_drive_hal.c",line 923,column 5,is_stmt,isa 0
    5260 00000199 8F08          MOVL      XAR4,#530945          ; [CPU_ARAU] |923| 
         0000019a 1A01 
    5261 0000019b A8A9          MOVL      ACC,XAR4              ; [CPU_ALU] |923| 
    5262              $C$DW$344       .dwtag  DW_TAG_TI_branch
    5263                      .dwattr $C$DW$344, DW_AT_low_pc(0x00)
    5264                      .dwattr $C$DW$344, DW_AT_name("GPIO_setPinConfig")
    5265                      .dwattr $C$DW$344, DW_AT_TI_call
    5266              
    5267 0000019c 7640!         LCR       #||GPIO_setPinConfig|| ; [CPU_ALU] |923| 
         0000019d 0000 
    5268                      ; call occurs [#||GPIO_setPinConfig||] ; [] |923| 
    5269                      .dwpsn  file "../sources/dual_axis_servo_drive_hal.c",line 924,column 5,is_stmt,isa 0
    5270 0000019e D401          MOVB      XAR4,#1               ; [CPU_ALU] |924| 
    5271 0000019f 021D          MOVB      ACC,#29               ; [CPU_ALU] |924| 
    5272              $C$DW$345       .dwtag  DW_TAG_TI_branch
    5273                      .dwattr $C$DW$345, DW_AT_low_pc(0x00)
    5274                      .dwattr $C$DW$345, DW_AT_name("GPIO_setDirectionMode")
    5275                      .dwattr $C$DW$345, DW_AT_TI_call
    5276              
    5277 000001a0 7640!         LCR       #||GPIO_setDirectionMode|| ; [CPU_ALU] |924| 
         000001a1 0000 
    5278                      ; call occurs [#||GPIO_setDirectionMode||] ; [] |924| 
    5279                      .dwpsn  file "../sources/dual_axis_servo_drive_hal.c",line 925,column 5,is_stmt,isa 0
    5280 000001a2 0201          MOVB      ACC,#1                ; [CPU_ALU] |925| 
    5281 000001a3 1E42          MOVL      *-SP[2],ACC           ; [CPU_ALU] |925| 
    5282 000001a4 021D          MOVB      ACC,#29               ; [CPU_ALU] |925| 
    5283              $C$DW$346       .dwtag  DW_TAG_TI_branch
    5284                      .dwattr $C$DW$346, DW_AT_low_pc(0x00)
    5285                      .dwattr $C$DW$346, DW_AT_name("GPIO_setPadConfig")
    5286                      .dwattr $C$DW$346, DW_AT_TI_call
    5287              
    5288 000001a5 7640!         LCR       #||GPIO_setPadConfig|| ; [CPU_ALU] |925| 
         000001a6 0000 
    5289                      ; call occurs [#||GPIO_setPadConfig||] ; [] |925| 
    5290                      .dwpsn  file "../sources/dual_axis_servo_drive_hal.c",line 933,column 5,is_stmt,isa 0
    5291 000001a7 8F08          MOVL      XAR4,#531456          ; [CPU_ARAU] |933| 
         000001a8 1C00 
    5292 000001a9 A8A9          MOVL      ACC,XAR4              ; [CPU_ALU] |933| 
    5293              $C$DW$347       .dwtag  DW_TAG_TI_branch
    5294                      .dwattr $C$DW$347, DW_AT_low_pc(0x00)
    5295                      .dwattr $C$DW$347, DW_AT_name("GPIO_setPinConfig")
TMS320C2000 Assembler PC v22.6.2 Wed Dec 10 14:45:02 2025

Copyright (c) 1996-2018 Texas Instruments Incorporated
dual_axis_servo_drive_hal.asm                                        PAGE  105

    5296                      .dwattr $C$DW$347, DW_AT_TI_call
    5297              
    5298 000001aa 7640!         LCR       #||GPIO_setPinConfig|| ; [CPU_ALU] |933| 
         000001ab 0000 
    5299                      ; call occurs [#||GPIO_setPinConfig||] ; [] |933| 
    5300                      .dwpsn  file "../sources/dual_axis_servo_drive_hal.c",line 934,column 5,is_stmt,isa 0
    5301 000001ac D400          MOVB      XAR4,#0               ; [CPU_ALU] |934| 
    5302 000001ad 021E          MOVB      ACC,#30               ; [CPU_ALU] |934| 
    5303              $C$DW$348       .dwtag  DW_TAG_TI_branch
    5304                      .dwattr $C$DW$348, DW_AT_low_pc(0x00)
    5305                      .dwattr $C$DW$348, DW_AT_name("GPIO_setDirectionMode")
    5306                      .dwattr $C$DW$348, DW_AT_TI_call
    5307              
    5308 000001ae 7640!         LCR       #||GPIO_setDirectionMode|| ; [CPU_ALU] |934| 
         000001af 0000 
    5309                      ; call occurs [#||GPIO_setDirectionMode||] ; [] |934| 
    5310                      .dwpsn  file "../sources/dual_axis_servo_drive_hal.c",line 935,column 5,is_stmt,isa 0
    5311 000001b0 0200          MOVB      ACC,#0                ; [CPU_ALU] |935| 
    5312 000001b1 1E42          MOVL      *-SP[2],ACC           ; [CPU_ALU] |935| 
    5313 000001b2 021E          MOVB      ACC,#30               ; [CPU_ALU] |935| 
    5314              $C$DW$349       .dwtag  DW_TAG_TI_branch
    5315                      .dwattr $C$DW$349, DW_AT_low_pc(0x00)
    5316                      .dwattr $C$DW$349, DW_AT_name("GPIO_setPadConfig")
    5317                      .dwattr $C$DW$349, DW_AT_TI_call
    5318              
    5319 000001b3 7640!         LCR       #||GPIO_setPadConfig|| ; [CPU_ALU] |935| 
         000001b4 0000 
    5320                      ; call occurs [#||GPIO_setPadConfig||] ; [] |935| 
    5321                      .dwpsn  file "../sources/dual_axis_servo_drive_hal.c",line 944,column 5,is_stmt,isa 0
    5322 000001b5 8F08          MOVL      XAR4,#531968          ; [CPU_ARAU] |944| 
         000001b6 1E00 
    5323 000001b7 A8A9          MOVL      ACC,XAR4              ; [CPU_ALU] |944| 
    5324              $C$DW$350       .dwtag  DW_TAG_TI_branch
    5325                      .dwattr $C$DW$350, DW_AT_low_pc(0x00)
    5326                      .dwattr $C$DW$350, DW_AT_name("GPIO_setPinConfig")
    5327                      .dwattr $C$DW$350, DW_AT_TI_call
    5328              
    5329 000001b8 7640!         LCR       #||GPIO_setPinConfig|| ; [CPU_ALU] |944| 
         000001b9 0000 
    5330                      ; call occurs [#||GPIO_setPinConfig||] ; [] |944| 
    5331                      .dwpsn  file "../sources/dual_axis_servo_drive_hal.c",line 945,column 5,is_stmt,isa 0
    5332 000001ba D400          MOVB      XAR4,#0               ; [CPU_ALU] |945| 
    5333 000001bb 021F          MOVB      ACC,#31               ; [CPU_ALU] |945| 
    5334              $C$DW$351       .dwtag  DW_TAG_TI_branch
    5335                      .dwattr $C$DW$351, DW_AT_low_pc(0x00)
    5336                      .dwattr $C$DW$351, DW_AT_name("GPIO_setDirectionMode")
    5337                      .dwattr $C$DW$351, DW_AT_TI_call
    5338              
    5339 000001bc 7640!         LCR       #||GPIO_setDirectionMode|| ; [CPU_ALU] |945| 
         000001bd 0000 
    5340                      ; call occurs [#||GPIO_setDirectionMode||] ; [] |945| 
    5341                      .dwpsn  file "../sources/dual_axis_servo_drive_hal.c",line 946,column 5,is_stmt,isa 0
    5342 000001be 0200          MOVB      ACC,#0                ; [CPU_ALU] |946| 
    5343 000001bf 1E42          MOVL      *-SP[2],ACC           ; [CPU_ALU] |946| 
    5344 000001c0 021F          MOVB      ACC,#31               ; [CPU_ALU] |946| 
TMS320C2000 Assembler PC v22.6.2 Wed Dec 10 14:45:02 2025

Copyright (c) 1996-2018 Texas Instruments Incorporated
dual_axis_servo_drive_hal.asm                                        PAGE  106

    5345              $C$DW$352       .dwtag  DW_TAG_TI_branch
    5346                      .dwattr $C$DW$352, DW_AT_low_pc(0x00)
    5347                      .dwattr $C$DW$352, DW_AT_name("GPIO_setPadConfig")
    5348                      .dwattr $C$DW$352, DW_AT_TI_call
    5349              
    5350 000001c1 7640!         LCR       #||GPIO_setPadConfig|| ; [CPU_ALU] |946| 
         000001c2 0000 
    5351                      ; call occurs [#||GPIO_setPadConfig||] ; [] |946| 
    5352                      .dwpsn  file "../sources/dual_axis_servo_drive_hal.c",line 950,column 5,is_stmt,isa 0
    5353 000001c3 9A00          MOVB      AL,#0                 ; [CPU_ALU] |950| 
    5354 000001c4 9B46          MOV       AH,#70                ; [CPU_ALU] |950| 
    5355              $C$DW$353       .dwtag  DW_TAG_TI_branch
    5356                      .dwattr $C$DW$353, DW_AT_low_pc(0x00)
    5357                      .dwattr $C$DW$353, DW_AT_name("GPIO_setPinConfig")
    5358                      .dwattr $C$DW$353, DW_AT_TI_call
    5359              
    5360 000001c5 7640!         LCR       #||GPIO_setPinConfig|| ; [CPU_ALU] |950| 
         000001c6 0000 
    5361                      ; call occurs [#||GPIO_setPinConfig||] ; [] |950| 
    5362                      .dwpsn  file "../sources/dual_axis_servo_drive_hal.c",line 951,column 5,is_stmt,isa 0
    5363 000001c7 D400          MOVB      XAR4,#0               ; [CPU_ALU] |951| 
    5364 000001c8 0220          MOVB      ACC,#32               ; [CPU_ALU] |951| 
    5365              $C$DW$354       .dwtag  DW_TAG_TI_branch
    5366                      .dwattr $C$DW$354, DW_AT_low_pc(0x00)
    5367                      .dwattr $C$DW$354, DW_AT_name("GPIO_setDirectionMode")
    5368                      .dwattr $C$DW$354, DW_AT_TI_call
    5369              
    5370 000001c9 7640!         LCR       #||GPIO_setDirectionMode|| ; [CPU_ALU] |951| 
         000001ca 0000 
    5371                      ; call occurs [#||GPIO_setDirectionMode||] ; [] |951| 
    5372                      .dwpsn  file "../sources/dual_axis_servo_drive_hal.c",line 952,column 5,is_stmt,isa 0
    5373 000001cb 0200          MOVB      ACC,#0                ; [CPU_ALU] |952| 
    5374 000001cc 1E42          MOVL      *-SP[2],ACC           ; [CPU_ALU] |952| 
    5375 000001cd 0220          MOVB      ACC,#32               ; [CPU_ALU] |952| 
    5376              $C$DW$355       .dwtag  DW_TAG_TI_branch
    5377                      .dwattr $C$DW$355, DW_AT_low_pc(0x00)
    5378                      .dwattr $C$DW$355, DW_AT_name("GPIO_setPadConfig")
    5379                      .dwattr $C$DW$355, DW_AT_TI_call
    5380              
    5381 000001ce 7640!         LCR       #||GPIO_setPadConfig|| ; [CPU_ALU] |952| 
         000001cf 0000 
    5382                      ; call occurs [#||GPIO_setPadConfig||] ; [] |952| 
    5383                      .dwpsn  file "../sources/dual_axis_servo_drive_hal.c",line 960,column 5,is_stmt,isa 0
    5384 000001d0 FF29          MOV       ACC,#8961 << 9        ; [CPU_ALU] |960| 
         000001d1 2301 
    5385              $C$DW$356       .dwtag  DW_TAG_TI_branch
    5386                      .dwattr $C$DW$356, DW_AT_low_pc(0x00)
    5387                      .dwattr $C$DW$356, DW_AT_name("GPIO_setPinConfig")
    5388                      .dwattr $C$DW$356, DW_AT_TI_call
    5389              
    5390 000001d2 7640!         LCR       #||GPIO_setPinConfig|| ; [CPU_ALU] |960| 
         000001d3 0000 
    5391                      ; call occurs [#||GPIO_setPinConfig||] ; [] |960| 
    5392                      .dwpsn  file "../sources/dual_axis_servo_drive_hal.c",line 961,column 5,is_stmt,isa 0
    5393 000001d4 D400          MOVB      XAR4,#0               ; [CPU_ALU] |961| 
TMS320C2000 Assembler PC v22.6.2 Wed Dec 10 14:45:02 2025

Copyright (c) 1996-2018 Texas Instruments Incorporated
dual_axis_servo_drive_hal.asm                                        PAGE  107

    5394 000001d5 0221          MOVB      ACC,#33               ; [CPU_ALU] |961| 
    5395              $C$DW$357       .dwtag  DW_TAG_TI_branch
    5396                      .dwattr $C$DW$357, DW_AT_low_pc(0x00)
    5397                      .dwattr $C$DW$357, DW_AT_name("GPIO_setDirectionMode")
    5398                      .dwattr $C$DW$357, DW_AT_TI_call
    5399              
    5400 000001d6 7640!         LCR       #||GPIO_setDirectionMode|| ; [CPU_ALU] |961| 
         000001d7 0000 
    5401                      ; call occurs [#||GPIO_setDirectionMode||] ; [] |961| 
    5402                      .dwpsn  file "../sources/dual_axis_servo_drive_hal.c",line 962,column 5,is_stmt,isa 0
    5403 000001d8 0200          MOVB      ACC,#0                ; [CPU_ALU] |962| 
    5404 000001d9 1E42          MOVL      *-SP[2],ACC           ; [CPU_ALU] |962| 
    5405 000001da 0221          MOVB      ACC,#33               ; [CPU_ALU] |962| 
    5406              $C$DW$358       .dwtag  DW_TAG_TI_branch
    5407                      .dwattr $C$DW$358, DW_AT_low_pc(0x00)
    5408                      .dwattr $C$DW$358, DW_AT_name("GPIO_setPadConfig")
    5409                      .dwattr $C$DW$358, DW_AT_TI_call
    5410              
    5411 000001db 7640!         LCR       #||GPIO_setPadConfig|| ; [CPU_ALU] |962| 
         000001dc 0000 
    5412                      ; call occurs [#||GPIO_setPadConfig||] ; [] |962| 
    5413                      .dwpsn  file "../sources/dual_axis_servo_drive_hal.c",line 966,column 5,is_stmt,isa 0
    5414 000001dd FF2A          MOV       ACC,#4481 << 10       ; [CPU_ALU] |966| 
         000001de 1181 
    5415              $C$DW$359       .dwtag  DW_TAG_TI_branch
    5416                      .dwattr $C$DW$359, DW_AT_low_pc(0x00)
    5417                      .dwattr $C$DW$359, DW_AT_name("GPIO_setPinConfig")
    5418                      .dwattr $C$DW$359, DW_AT_TI_call
    5419              
    5420 000001df 7640!         LCR       #||GPIO_setPinConfig|| ; [CPU_ALU] |966| 
         000001e0 0000 
    5421                      ; call occurs [#||GPIO_setPinConfig||] ; [] |966| 
    5422                      .dwpsn  file "C:/ti/C2000Ware_MotorControl_SDK_5_04_00_00/c2000ware/driverlib/f28002x/driverlib/gpio.
    5423 000001e1 0204          MOVB      ACC,#4                ; [CPU_ALU] |489| 
    5424                      .dwpsn  file "../sources/dual_axis_servo_drive_hal.c",line 968,column 5,is_stmt,isa 0
    5425 000001e2 D401          MOVB      XAR4,#1               ; [CPU_ALU] |968| 
    5426                      .dwpsn  file "C:/ti/C2000Ware_MotorControl_SDK_5_04_00_00/c2000ware/driverlib/f28002x/driverlib/gpio.
    5427 000001e3 BDA9          MOV32     *(0:0x7f0a),ACC       ; [CPU_FPU] |489| 
         000001e4 7F0A 
    5428                      .dwpsn  file "../sources/dual_axis_servo_drive_hal.c",line 968,column 5,is_stmt,isa 0
    5429 000001e5 0222          MOVB      ACC,#34               ; [CPU_ALU] |968| 
    5430              $C$DW$360       .dwtag  DW_TAG_TI_branch
    5431                      .dwattr $C$DW$360, DW_AT_low_pc(0x00)
    5432                      .dwattr $C$DW$360, DW_AT_name("GPIO_setDirectionMode")
    5433                      .dwattr $C$DW$360, DW_AT_TI_call
    5434              
    5435 000001e6 7640!         LCR       #||GPIO_setDirectionMode|| ; [CPU_ALU] |968| 
         000001e7 0000 
    5436                      ; call occurs [#||GPIO_setDirectionMode||] ; [] |968| 
    5437                      .dwpsn  file "../sources/dual_axis_servo_drive_hal.c",line 969,column 5,is_stmt,isa 0
    5438 000001e8 0200          MOVB      ACC,#0                ; [CPU_ALU] |969| 
    5439 000001e9 1E42          MOVL      *-SP[2],ACC           ; [CPU_ALU] |969| 
    5440 000001ea 0222          MOVB      ACC,#34               ; [CPU_ALU] |969| 
    5441              $C$DW$361       .dwtag  DW_TAG_TI_branch
    5442                      .dwattr $C$DW$361, DW_AT_low_pc(0x00)
TMS320C2000 Assembler PC v22.6.2 Wed Dec 10 14:45:02 2025

Copyright (c) 1996-2018 Texas Instruments Incorporated
dual_axis_servo_drive_hal.asm                                        PAGE  108

    5443                      .dwattr $C$DW$361, DW_AT_name("GPIO_setPadConfig")
    5444                      .dwattr $C$DW$361, DW_AT_TI_call
    5445              
    5446 000001eb 7640!         LCR       #||GPIO_setPadConfig|| ; [CPU_ALU] |969| 
         000001ec 0000 
    5447                      ; call occurs [#||GPIO_setPadConfig||] ; [] |969| 
    5448                      .dwpsn  file "../sources/dual_axis_servo_drive_hal.c",line 972,column 5,is_stmt,isa 0
    5449 000001ed FF29          MOV       ACC,#8963 << 9        ; [CPU_ALU] |972| 
         000001ee 2303 
    5450              $C$DW$362       .dwtag  DW_TAG_TI_branch
    5451                      .dwattr $C$DW$362, DW_AT_low_pc(0x00)
    5452                      .dwattr $C$DW$362, DW_AT_name("GPIO_setPinConfig")
    5453                      .dwattr $C$DW$362, DW_AT_TI_call
    5454              
    5455 000001ef 7640!         LCR       #||GPIO_setPinConfig|| ; [CPU_ALU] |972| 
         000001f0 0000 
    5456                      ; call occurs [#||GPIO_setPinConfig||] ; [] |972| 
    5457                      .dwpsn  file "../sources/dual_axis_servo_drive_hal.c",line 973,column 5,is_stmt,isa 0
    5458 000001f1 D400          MOVB      XAR4,#0               ; [CPU_ALU] |973| 
    5459 000001f2 0223          MOVB      ACC,#35               ; [CPU_ALU] |973| 
    5460              $C$DW$363       .dwtag  DW_TAG_TI_branch
    5461                      .dwattr $C$DW$363, DW_AT_low_pc(0x00)
    5462                      .dwattr $C$DW$363, DW_AT_name("GPIO_setDirectionMode")
    5463                      .dwattr $C$DW$363, DW_AT_TI_call
    5464              
    5465 000001f3 7640!         LCR       #||GPIO_setDirectionMode|| ; [CPU_ALU] |973| 
         000001f4 0000 
    5466                      ; call occurs [#||GPIO_setDirectionMode||] ; [] |973| 
    5467                      .dwpsn  file "../sources/dual_axis_servo_drive_hal.c",line 974,column 5,is_stmt,isa 0
    5468 000001f5 0200          MOVB      ACC,#0                ; [CPU_ALU] |974| 
    5469 000001f6 1E42          MOVL      *-SP[2],ACC           ; [CPU_ALU] |974| 
    5470 000001f7 0223          MOVB      ACC,#35               ; [CPU_ALU] |974| 
    5471              $C$DW$364       .dwtag  DW_TAG_TI_branch
    5472                      .dwattr $C$DW$364, DW_AT_low_pc(0x00)
    5473                      .dwattr $C$DW$364, DW_AT_name("GPIO_setPadConfig")
    5474                      .dwattr $C$DW$364, DW_AT_TI_call
    5475              
    5476 000001f8 7640!         LCR       #||GPIO_setPadConfig|| ; [CPU_ALU] |974| 
         000001f9 0000 
    5477                      ; call occurs [#||GPIO_setPadConfig||] ; [] |974| 
    5478                      .dwpsn  file "../sources/dual_axis_servo_drive_hal.c",line 982,column 5,is_stmt,isa 0
    5479 000001fa FF29          MOV       ACC,#8961 << 9        ; [CPU_ALU] |982| 
         000001fb 2301 
    5480              $C$DW$365       .dwtag  DW_TAG_TI_branch
    5481                      .dwattr $C$DW$365, DW_AT_low_pc(0x00)
    5482                      .dwattr $C$DW$365, DW_AT_name("GPIO_setPinConfig")
    5483                      .dwattr $C$DW$365, DW_AT_TI_call
    5484              
    5485 000001fc 7640!         LCR       #||GPIO_setPinConfig|| ; [CPU_ALU] |982| 
         000001fd 0000 
    5486                      ; call occurs [#||GPIO_setPinConfig||] ; [] |982| 
    5487                      .dwpsn  file "../sources/dual_axis_servo_drive_hal.c",line 983,column 5,is_stmt,isa 0
    5488 000001fe D400          MOVB      XAR4,#0               ; [CPU_ALU] |983| 
    5489 000001ff 0221          MOVB      ACC,#33               ; [CPU_ALU] |983| 
    5490              $C$DW$366       .dwtag  DW_TAG_TI_branch
TMS320C2000 Assembler PC v22.6.2 Wed Dec 10 14:45:02 2025

Copyright (c) 1996-2018 Texas Instruments Incorporated
dual_axis_servo_drive_hal.asm                                        PAGE  109

    5491                      .dwattr $C$DW$366, DW_AT_low_pc(0x00)
    5492                      .dwattr $C$DW$366, DW_AT_name("GPIO_setDirectionMode")
    5493                      .dwattr $C$DW$366, DW_AT_TI_call
    5494              
    5495 00000200 7640!         LCR       #||GPIO_setDirectionMode|| ; [CPU_ALU] |983| 
         00000201 0000 
    5496                      ; call occurs [#||GPIO_setDirectionMode||] ; [] |983| 
    5497                      .dwpsn  file "../sources/dual_axis_servo_drive_hal.c",line 984,column 5,is_stmt,isa 0
    5498 00000202 0200          MOVB      ACC,#0                ; [CPU_ALU] |984| 
    5499 00000203 1E42          MOVL      *-SP[2],ACC           ; [CPU_ALU] |984| 
    5500 00000204 0221          MOVB      ACC,#33               ; [CPU_ALU] |984| 
    5501              $C$DW$367       .dwtag  DW_TAG_TI_branch
    5502                      .dwattr $C$DW$367, DW_AT_low_pc(0x00)
    5503                      .dwattr $C$DW$367, DW_AT_name("GPIO_setPadConfig")
    5504                      .dwattr $C$DW$367, DW_AT_TI_call
    5505              
    5506 00000205 7640!         LCR       #||GPIO_setPadConfig|| ; [CPU_ALU] |984| 
         00000206 0000 
    5507                      ; call occurs [#||GPIO_setPadConfig||] ; [] |984| 
    5508                      .dwpsn  file "../sources/dual_axis_servo_drive_hal.c",line 988,column 5,is_stmt,isa 0
    5509 00000207 28A9          MOV       AL,#2569              ; [CPU_ALU] |988| 
         00000208 0A09 
    5510 00000209 9B46          MOV       AH,#70                ; [CPU_ALU] |988| 
    5511              $C$DW$368       .dwtag  DW_TAG_TI_branch
    5512                      .dwattr $C$DW$368, DW_AT_low_pc(0x00)
    5513                      .dwattr $C$DW$368, DW_AT_name("GPIO_setPinConfig")
    5514                      .dwattr $C$DW$368, DW_AT_TI_call
    5515              
    5516 0000020a 7640!         LCR       #||GPIO_setPinConfig|| ; [CPU_ALU] |988| 
         0000020b 0000 
    5517                      ; call occurs [#||GPIO_setPinConfig||] ; [] |988| 
    5518                      .dwpsn  file "../sources/dual_axis_servo_drive_hal.c",line 989,column 5,is_stmt,isa 0
    5519 0000020c D400          MOVB      XAR4,#0               ; [CPU_ALU] |989| 
    5520 0000020d 0225          MOVB      ACC,#37               ; [CPU_ALU] |989| 
    5521              $C$DW$369       .dwtag  DW_TAG_TI_branch
    5522                      .dwattr $C$DW$369, DW_AT_low_pc(0x00)
    5523                      .dwattr $C$DW$369, DW_AT_name("GPIO_setDirectionMode")
    5524                      .dwattr $C$DW$369, DW_AT_TI_call
    5525              
    5526 0000020e 7640!         LCR       #||GPIO_setDirectionMode|| ; [CPU_ALU] |989| 
         0000020f 0000 
    5527                      ; call occurs [#||GPIO_setDirectionMode||] ; [] |989| 
    5528                      .dwpsn  file "../sources/dual_axis_servo_drive_hal.c",line 990,column 5,is_stmt,isa 0
    5529 00000210 0201          MOVB      ACC,#1                ; [CPU_ALU] |990| 
    5530 00000211 1E42          MOVL      *-SP[2],ACC           ; [CPU_ALU] |990| 
    5531 00000212 0225          MOVB      ACC,#37               ; [CPU_ALU] |990| 
    5532              $C$DW$370       .dwtag  DW_TAG_TI_branch
    5533                      .dwattr $C$DW$370, DW_AT_low_pc(0x00)
    5534                      .dwattr $C$DW$370, DW_AT_name("GPIO_setPadConfig")
    5535                      .dwattr $C$DW$370, DW_AT_TI_call
    5536              
    5537 00000213 7640!         LCR       #||GPIO_setPadConfig|| ; [CPU_ALU] |990| 
         00000214 0000 
    5538                      ; call occurs [#||GPIO_setPadConfig||] ; [] |990| 
    5539                      .dwpsn  file "../sources/dual_axis_servo_drive_hal.c",line 991,column 5,is_stmt,isa 0
TMS320C2000 Assembler PC v22.6.2 Wed Dec 10 14:45:02 2025

Copyright (c) 1996-2018 Texas Instruments Incorporated
dual_axis_servo_drive_hal.asm                                        PAGE  110

    5540 00000215 D401          MOVB      XAR4,#1               ; [CPU_ALU] |991| 
    5541 00000216 0225          MOVB      ACC,#37               ; [CPU_ALU] |991| 
    5542              $C$DW$371       .dwtag  DW_TAG_TI_branch
    5543                      .dwattr $C$DW$371, DW_AT_low_pc(0x00)
    5544                      .dwattr $C$DW$371, DW_AT_name("GPIO_setQualificationMode")
    5545                      .dwattr $C$DW$371, DW_AT_TI_call
    5546              
    5547 00000217 7640!         LCR       #||GPIO_setQualificationMode|| ; [CPU_ALU] |991| 
         00000218 0000 
    5548                      ; call occurs [#||GPIO_setQualificationMode||] ; [] |991| 
    5549                      .dwpsn  file "../sources/dual_axis_servo_drive_hal.c",line 992,column 5,is_stmt,isa 0
    5550 00000219 0204          MOVB      ACC,#4                ; [CPU_ALU] |992| 
    5551 0000021a 1E42          MOVL      *-SP[2],ACC           ; [CPU_ALU] |992| 
    5552 0000021b 0225          MOVB      ACC,#37               ; [CPU_ALU] |992| 
    5553              $C$DW$372       .dwtag  DW_TAG_TI_branch
    5554                      .dwattr $C$DW$372, DW_AT_low_pc(0x00)
    5555                      .dwattr $C$DW$372, DW_AT_name("GPIO_setQualificationPeriod")
    5556                      .dwattr $C$DW$372, DW_AT_TI_call
    5557              
    5558 0000021c 7640!         LCR       #||GPIO_setQualificationPeriod|| ; [CPU_ALU] |992| 
         0000021d 0000 
    5559                      ; call occurs [#||GPIO_setQualificationPeriod||] ; [] |992| 
    5560                      .dwpsn  file "../sources/dual_axis_servo_drive_hal.c",line 995,column 5,is_stmt,isa 0
    5561 0000021e FF29          MOV       ACC,#8967 << 9        ; [CPU_ALU] |995| 
         0000021f 2307 
    5562              $C$DW$373       .dwtag  DW_TAG_TI_branch
    5563                      .dwattr $C$DW$373, DW_AT_low_pc(0x00)
    5564                      .dwattr $C$DW$373, DW_AT_name("GPIO_setPinConfig")
    5565                      .dwattr $C$DW$373, DW_AT_TI_call
    5566              
    5567 00000220 7640!         LCR       #||GPIO_setPinConfig|| ; [CPU_ALU] |995| 
         00000221 0000 
    5568                      ; call occurs [#||GPIO_setPinConfig||] ; [] |995| 
    5569                      .dwpsn  file "C:/ti/C2000Ware_MotorControl_SDK_5_04_00_00/c2000ware/driverlib/f28002x/driverlib/gpio.
    5570 00000222 0280          MOVB      ACC,#128              ; [CPU_ALU] |485| 
    5571 00000223 BDA9          MOV32     *(0:0x7f0c),ACC       ; [CPU_FPU] |485| 
         00000224 7F0C 
    5572                      .dwpsn  file "../sources/dual_axis_servo_drive_hal.c",line 997,column 5,is_stmt,isa 0
    5573 00000225 D401          MOVB      XAR4,#1               ; [CPU_ALU] |997| 
    5574 00000226 0227          MOVB      ACC,#39               ; [CPU_ALU] |997| 
    5575              $C$DW$374       .dwtag  DW_TAG_TI_branch
    5576                      .dwattr $C$DW$374, DW_AT_low_pc(0x00)
    5577                      .dwattr $C$DW$374, DW_AT_name("GPIO_setDirectionMode")
    5578                      .dwattr $C$DW$374, DW_AT_TI_call
    5579              
    5580 00000227 7640!         LCR       #||GPIO_setDirectionMode|| ; [CPU_ALU] |997| 
         00000228 0000 
    5581                      ; call occurs [#||GPIO_setDirectionMode||] ; [] |997| 
    5582                      .dwpsn  file "../sources/dual_axis_servo_drive_hal.c",line 998,column 5,is_stmt,isa 0
    5583 00000229 0201          MOVB      ACC,#1                ; [CPU_ALU] |998| 
    5584 0000022a 1E42          MOVL      *-SP[2],ACC           ; [CPU_ALU] |998| 
    5585 0000022b 0227          MOVB      ACC,#39               ; [CPU_ALU] |998| 
    5586              $C$DW$375       .dwtag  DW_TAG_TI_branch
    5587                      .dwattr $C$DW$375, DW_AT_low_pc(0x00)
    5588                      .dwattr $C$DW$375, DW_AT_name("GPIO_setPadConfig")
TMS320C2000 Assembler PC v22.6.2 Wed Dec 10 14:45:02 2025

Copyright (c) 1996-2018 Texas Instruments Incorporated
dual_axis_servo_drive_hal.asm                                        PAGE  111

    5589                      .dwattr $C$DW$375, DW_AT_TI_call
    5590              
    5591 0000022c 7640!         LCR       #||GPIO_setPadConfig|| ; [CPU_ALU] |998| 
         0000022d 0000 
    5592                      ; call occurs [#||GPIO_setPadConfig||] ; [] |998| 
    5593                      .dwpsn  file "../sources/dual_axis_servo_drive_hal.c",line 1001,column 5,is_stmt,isa 0
    5594 0000022e FF2C          MOV       ACC,#1121 << 12       ; [CPU_ALU] |1001| 
         0000022f 0461 
    5595              $C$DW$376       .dwtag  DW_TAG_TI_branch
    5596                      .dwattr $C$DW$376, DW_AT_low_pc(0x00)
    5597                      .dwattr $C$DW$376, DW_AT_name("GPIO_setPinConfig")
    5598                      .dwattr $C$DW$376, DW_AT_TI_call
    5599              
    5600 00000230 7640!         LCR       #||GPIO_setPinConfig|| ; [CPU_ALU] |1001| 
         00000231 0000 
    5601                      ; call occurs [#||GPIO_setPinConfig||] ; [] |1001| 
    5602                      .dwpsn  file "../sources/dual_axis_servo_drive_hal.c",line 1002,column 5,is_stmt,isa 0
    5603 00000232 D400          MOVB      XAR4,#0               ; [CPU_ALU] |1002| 
    5604 00000233 0228          MOVB      ACC,#40               ; [CPU_ALU] |1002| 
    5605              $C$DW$377       .dwtag  DW_TAG_TI_branch
    5606                      .dwattr $C$DW$377, DW_AT_low_pc(0x00)
    5607                      .dwattr $C$DW$377, DW_AT_name("GPIO_setDirectionMode")
    5608                      .dwattr $C$DW$377, DW_AT_TI_call
    5609              
    5610 00000234 7640!         LCR       #||GPIO_setDirectionMode|| ; [CPU_ALU] |1002| 
         00000235 0000 
    5611                      ; call occurs [#||GPIO_setDirectionMode||] ; [] |1002| 
    5612                      .dwpsn  file "../sources/dual_axis_servo_drive_hal.c",line 1003,column 5,is_stmt,isa 0
    5613 00000236 0200          MOVB      ACC,#0                ; [CPU_ALU] |1003| 
    5614 00000237 1E42          MOVL      *-SP[2],ACC           ; [CPU_ALU] |1003| 
    5615 00000238 0228          MOVB      ACC,#40               ; [CPU_ALU] |1003| 
    5616              $C$DW$378       .dwtag  DW_TAG_TI_branch
    5617                      .dwattr $C$DW$378, DW_AT_low_pc(0x00)
    5618                      .dwattr $C$DW$378, DW_AT_name("GPIO_setPadConfig")
    5619                      .dwattr $C$DW$378, DW_AT_TI_call
    5620              
    5621 00000239 7640!         LCR       #||GPIO_setPadConfig|| ; [CPU_ALU] |1003| 
         0000023a 0000 
    5622                      ; call occurs [#||GPIO_setPadConfig||] ; [] |1003| 
    5623                      .dwpsn  file "../sources/dual_axis_servo_drive_hal.c",line 1006,column 5,is_stmt,isa 0
    5624 0000023b FF29          MOV       ACC,#8969 << 9        ; [CPU_ALU] |1006| 
         0000023c 2309 
    5625              $C$DW$379       .dwtag  DW_TAG_TI_branch
    5626                      .dwattr $C$DW$379, DW_AT_low_pc(0x00)
    5627                      .dwattr $C$DW$379, DW_AT_name("GPIO_setPinConfig")
    5628                      .dwattr $C$DW$379, DW_AT_TI_call
    5629              
    5630 0000023d 7640!         LCR       #||GPIO_setPinConfig|| ; [CPU_ALU] |1006| 
         0000023e 0000 
    5631                      ; call occurs [#||GPIO_setPinConfig||] ; [] |1006| 
    5632                      .dwpsn  file "../sources/dual_axis_servo_drive_hal.c",line 1007,column 5,is_stmt,isa 0
    5633 0000023f D400          MOVB      XAR4,#0               ; [CPU_ALU] |1007| 
    5634 00000240 0229          MOVB      ACC,#41               ; [CPU_ALU] |1007| 
    5635              $C$DW$380       .dwtag  DW_TAG_TI_branch
    5636                      .dwattr $C$DW$380, DW_AT_low_pc(0x00)
TMS320C2000 Assembler PC v22.6.2 Wed Dec 10 14:45:02 2025

Copyright (c) 1996-2018 Texas Instruments Incorporated
dual_axis_servo_drive_hal.asm                                        PAGE  112

    5637                      .dwattr $C$DW$380, DW_AT_name("GPIO_setDirectionMode")
    5638                      .dwattr $C$DW$380, DW_AT_TI_call
    5639              
    5640 00000241 7640!         LCR       #||GPIO_setDirectionMode|| ; [CPU_ALU] |1007| 
         00000242 0000 
    5641                      ; call occurs [#||GPIO_setDirectionMode||] ; [] |1007| 
    5642                      .dwpsn  file "../sources/dual_axis_servo_drive_hal.c",line 1008,column 5,is_stmt,isa 0
    5643 00000243 0200          MOVB      ACC,#0                ; [CPU_ALU] |1008| 
    5644 00000244 1E42          MOVL      *-SP[2],ACC           ; [CPU_ALU] |1008| 
    5645 00000245 0229          MOVB      ACC,#41               ; [CPU_ALU] |1008| 
    5646              $C$DW$381       .dwtag  DW_TAG_TI_branch
    5647                      .dwattr $C$DW$381, DW_AT_low_pc(0x00)
    5648                      .dwattr $C$DW$381, DW_AT_name("GPIO_setPadConfig")
    5649                      .dwattr $C$DW$381, DW_AT_TI_call
    5650              
    5651 00000246 7640!         LCR       #||GPIO_setPadConfig|| ; [CPU_ALU] |1008| 
         00000247 0000 
    5652                      ; call occurs [#||GPIO_setPadConfig||] ; [] |1008| 
    5653                      .dwpsn  file "../sources/dual_axis_servo_drive_hal.c",line 1011,column 5,is_stmt,isa 0
    5654 00000248 FF2A          MOV       ACC,#4485 << 10       ; [CPU_ALU] |1011| 
         00000249 1185 
    5655              $C$DW$382       .dwtag  DW_TAG_TI_branch
    5656                      .dwattr $C$DW$382, DW_AT_low_pc(0x00)
    5657                      .dwattr $C$DW$382, DW_AT_name("GPIO_setPinConfig")
    5658                      .dwattr $C$DW$382, DW_AT_TI_call
    5659              
    5660 0000024a 7640!         LCR       #||GPIO_setPinConfig|| ; [CPU_ALU] |1011| 
         0000024b 0000 
    5661                      ; call occurs [#||GPIO_setPinConfig||] ; [] |1011| 
    5662                      .dwpsn  file "../sources/dual_axis_servo_drive_hal.c",line 1012,column 5,is_stmt,isa 0
    5663 0000024c 022A          MOVB      ACC,#42               ; [CPU_ALU] |1012| 
    5664 0000024d D400          MOVB      XAR4,#0               ; [CPU_ALU] |1012| 
    5665              $C$DW$383       .dwtag  DW_TAG_TI_branch
    5666                      .dwattr $C$DW$383, DW_AT_low_pc(0x00)
    5667                      .dwattr $C$DW$383, DW_AT_name("GPIO_setDirectionMode")
    5668                      .dwattr $C$DW$383, DW_AT_TI_call
    5669              
    5670 0000024e 7640!         LCR       #||GPIO_setDirectionMode|| ; [CPU_ALU] |1012| 
         0000024f 0000 
    5671                      ; call occurs [#||GPIO_setDirectionMode||] ; [] |1012| 
    5672                      .dwpsn  file "../sources/dual_axis_servo_drive_hal.c",line 1013,column 5,is_stmt,isa 0
    5673 00000250 0201          MOVB      ACC,#1                ; [CPU_ALU] |1013| 
    5674 00000251 1E42          MOVL      *-SP[2],ACC           ; [CPU_ALU] |1013| 
    5675 00000252 022A          MOVB      ACC,#42               ; [CPU_ALU] |1013| 
    5676              $C$DW$384       .dwtag  DW_TAG_TI_branch
    5677                      .dwattr $C$DW$384, DW_AT_low_pc(0x00)
    5678                      .dwattr $C$DW$384, DW_AT_name("GPIO_setPadConfig")
    5679                      .dwattr $C$DW$384, DW_AT_TI_call
    5680              
    5681 00000253 7640!         LCR       #||GPIO_setPadConfig|| ; [CPU_ALU] |1013| 
         00000254 0000 
    5682                      ; call occurs [#||GPIO_setPadConfig||] ; [] |1013| 
    5683                      .dwpsn  file "../sources/dual_axis_servo_drive_hal.c",line 1016,column 5,is_stmt,isa 0
    5684 00000255 28A9          MOV       AL,#5642              ; [CPU_ALU] |1016| 
         00000256 160A 
TMS320C2000 Assembler PC v22.6.2 Wed Dec 10 14:45:02 2025

Copyright (c) 1996-2018 Texas Instruments Incorporated
dual_axis_servo_drive_hal.asm                                        PAGE  113

    5685 00000257 9B46          MOV       AH,#70                ; [CPU_ALU] |1016| 
    5686              $C$DW$385       .dwtag  DW_TAG_TI_branch
    5687                      .dwattr $C$DW$385, DW_AT_low_pc(0x00)
    5688                      .dwattr $C$DW$385, DW_AT_name("GPIO_setPinConfig")
    5689                      .dwattr $C$DW$385, DW_AT_TI_call
    5690              
    5691 00000258 7640!         LCR       #||GPIO_setPinConfig|| ; [CPU_ALU] |1016| 
         00000259 0000 
    5692                      ; call occurs [#||GPIO_setPinConfig||] ; [] |1016| 
    5693                      .dwpsn  file "../sources/dual_axis_servo_drive_hal.c",line 1017,column 5,is_stmt,isa 0
    5694 0000025a D400          MOVB      XAR4,#0               ; [CPU_ALU] |1017| 
    5695 0000025b 022B          MOVB      ACC,#43               ; [CPU_ALU] |1017| 
    5696              $C$DW$386       .dwtag  DW_TAG_TI_branch
    5697                      .dwattr $C$DW$386, DW_AT_low_pc(0x00)
    5698                      .dwattr $C$DW$386, DW_AT_name("GPIO_setDirectionMode")
    5699                      .dwattr $C$DW$386, DW_AT_TI_call
    5700              
    5701 0000025c 7640!         LCR       #||GPIO_setDirectionMode|| ; [CPU_ALU] |1017| 
         0000025d 0000 
    5702                      ; call occurs [#||GPIO_setDirectionMode||] ; [] |1017| 
    5703                      .dwpsn  file "../sources/dual_axis_servo_drive_hal.c",line 1018,column 5,is_stmt,isa 0
    5704 0000025e 0201          MOVB      ACC,#1                ; [CPU_ALU] |1018| 
    5705 0000025f 1E42          MOVL      *-SP[2],ACC           ; [CPU_ALU] |1018| 
    5706 00000260 022B          MOVB      ACC,#43               ; [CPU_ALU] |1018| 
    5707              $C$DW$387       .dwtag  DW_TAG_TI_branch
    5708                      .dwattr $C$DW$387, DW_AT_low_pc(0x00)
    5709                      .dwattr $C$DW$387, DW_AT_name("GPIO_setPadConfig")
    5710                      .dwattr $C$DW$387, DW_AT_TI_call
    5711              
    5712 00000261 7640!         LCR       #||GPIO_setPadConfig|| ; [CPU_ALU] |1018| 
         00000262 0000 
    5713                      ; call occurs [#||GPIO_setPadConfig||] ; [] |1018| 
    5714                      .dwpsn  file "../sources/dual_axis_servo_drive_hal.c",line 1019,column 5,is_stmt,isa 0
    5715 00000263 D401          MOVB      XAR4,#1               ; [CPU_ALU] |1019| 
    5716 00000264 022B          MOVB      ACC,#43               ; [CPU_ALU] |1019| 
    5717              $C$DW$388       .dwtag  DW_TAG_TI_branch
    5718                      .dwattr $C$DW$388, DW_AT_low_pc(0x00)
    5719                      .dwattr $C$DW$388, DW_AT_name("GPIO_setQualificationMode")
    5720                      .dwattr $C$DW$388, DW_AT_TI_call
    5721              
    5722 00000265 7640!         LCR       #||GPIO_setQualificationMode|| ; [CPU_ALU] |1019| 
         00000266 0000 
    5723                      ; call occurs [#||GPIO_setQualificationMode||] ; [] |1019| 
    5724                      .dwpsn  file "../sources/dual_axis_servo_drive_hal.c",line 1020,column 5,is_stmt,isa 0
    5725 00000267 0204          MOVB      ACC,#4                ; [CPU_ALU] |1020| 
    5726 00000268 1E42          MOVL      *-SP[2],ACC           ; [CPU_ALU] |1020| 
    5727 00000269 022B          MOVB      ACC,#43               ; [CPU_ALU] |1020| 
    5728              $C$DW$389       .dwtag  DW_TAG_TI_branch
    5729                      .dwattr $C$DW$389, DW_AT_low_pc(0x00)
    5730                      .dwattr $C$DW$389, DW_AT_name("GPIO_setQualificationPeriod")
    5731                      .dwattr $C$DW$389, DW_AT_TI_call
    5732              
    5733 0000026a 7640!         LCR       #||GPIO_setQualificationPeriod|| ; [CPU_ALU] |1020| 
         0000026b 0000 
    5734                      ; call occurs [#||GPIO_setQualificationPeriod||] ; [] |1020| 
TMS320C2000 Assembler PC v22.6.2 Wed Dec 10 14:45:02 2025

Copyright (c) 1996-2018 Texas Instruments Incorporated
dual_axis_servo_drive_hal.asm                                        PAGE  114

    5735                      .dwpsn  file "../sources/dual_axis_servo_drive_hal.c",line 1023,column 5,is_stmt,isa 0
    5736 0000026c 28A9          MOV       AL,#6149              ; [CPU_ALU] |1023| 
         0000026d 1805 
    5737 0000026e 9B46          MOV       AH,#70                ; [CPU_ALU] |1023| 
    5738              $C$DW$390       .dwtag  DW_TAG_TI_branch
    5739                      .dwattr $C$DW$390, DW_AT_low_pc(0x00)
    5740                      .dwattr $C$DW$390, DW_AT_name("GPIO_setPinConfig")
    5741                      .dwattr $C$DW$390, DW_AT_TI_call
    5742              
    5743 0000026f 7640!         LCR       #||GPIO_setPinConfig|| ; [CPU_ALU] |1023| 
         00000270 0000 
    5744                      ; call occurs [#||GPIO_setPinConfig||] ; [] |1023| 
    5745                      .dwpsn  file "../sources/dual_axis_servo_drive_hal.c",line 1024,column 5,is_stmt,isa 0
    5746 00000271 D400          MOVB      XAR4,#0               ; [CPU_ALU] |1024| 
    5747 00000272 022C          MOVB      ACC,#44               ; [CPU_ALU] |1024| 
    5748              $C$DW$391       .dwtag  DW_TAG_TI_branch
    5749                      .dwattr $C$DW$391, DW_AT_low_pc(0x00)
    5750                      .dwattr $C$DW$391, DW_AT_name("GPIO_setDirectionMode")
    5751                      .dwattr $C$DW$391, DW_AT_TI_call
    5752              
    5753 00000273 7640!         LCR       #||GPIO_setDirectionMode|| ; [CPU_ALU] |1024| 
         00000274 0000 
    5754                      ; call occurs [#||GPIO_setDirectionMode||] ; [] |1024| 
    5755                      .dwpsn  file "../sources/dual_axis_servo_drive_hal.c",line 1025,column 5,is_stmt,isa 0
    5756 00000275 0201          MOVB      ACC,#1                ; [CPU_ALU] |1025| 
    5757 00000276 1E42          MOVL      *-SP[2],ACC           ; [CPU_ALU] |1025| 
    5758 00000277 022C          MOVB      ACC,#44               ; [CPU_ALU] |1025| 
    5759              $C$DW$392       .dwtag  DW_TAG_TI_branch
    5760                      .dwattr $C$DW$392, DW_AT_low_pc(0x00)
    5761                      .dwattr $C$DW$392, DW_AT_name("GPIO_setPadConfig")
    5762                      .dwattr $C$DW$392, DW_AT_TI_call
    5763              
    5764 00000278 7640!         LCR       #||GPIO_setPadConfig|| ; [CPU_ALU] |1025| 
         00000279 0000 
    5765                      ; call occurs [#||GPIO_setPadConfig||] ; [] |1025| 
    5766                      .dwpsn  file "../sources/dual_axis_servo_drive_hal.c",line 1026,column 5,is_stmt,isa 0
    5767 0000027a D401          MOVB      XAR4,#1               ; [CPU_ALU] |1026| 
    5768 0000027b 022C          MOVB      ACC,#44               ; [CPU_ALU] |1026| 
    5769              $C$DW$393       .dwtag  DW_TAG_TI_branch
    5770                      .dwattr $C$DW$393, DW_AT_low_pc(0x00)
    5771                      .dwattr $C$DW$393, DW_AT_name("GPIO_setQualificationMode")
    5772                      .dwattr $C$DW$393, DW_AT_TI_call
    5773              
    5774 0000027c 7640!         LCR       #||GPIO_setQualificationMode|| ; [CPU_ALU] |1026| 
         0000027d 0000 
    5775                      ; call occurs [#||GPIO_setQualificationMode||] ; [] |1026| 
    5776                      .dwpsn  file "../sources/dual_axis_servo_drive_hal.c",line 1027,column 5,is_stmt,isa 0
    5777 0000027e 0204          MOVB      ACC,#4                ; [CPU_ALU] |1027| 
    5778 0000027f 1E42          MOVL      *-SP[2],ACC           ; [CPU_ALU] |1027| 
    5779 00000280 022C          MOVB      ACC,#44               ; [CPU_ALU] |1027| 
    5780              $C$DW$394       .dwtag  DW_TAG_TI_branch
    5781                      .dwattr $C$DW$394, DW_AT_low_pc(0x00)
    5782                      .dwattr $C$DW$394, DW_AT_name("GPIO_setQualificationPeriod")
    5783                      .dwattr $C$DW$394, DW_AT_TI_call
    5784              
TMS320C2000 Assembler PC v22.6.2 Wed Dec 10 14:45:02 2025

Copyright (c) 1996-2018 Texas Instruments Incorporated
dual_axis_servo_drive_hal.asm                                        PAGE  115

    5785 00000281 7640!         LCR       #||GPIO_setQualificationPeriod|| ; [CPU_ALU] |1027| 
         00000282 0000 
    5786                      ; call occurs [#||GPIO_setQualificationPeriod||] ; [] |1027| 
    5787                      .dwpsn  file "../sources/dual_axis_servo_drive_hal.c",line 1030,column 5,is_stmt,isa 0
    5788 00000283 FF29          MOV       ACC,#8973 << 9        ; [CPU_ALU] |1030| 
         00000284 230D 
    5789              $C$DW$395       .dwtag  DW_TAG_TI_branch
    5790                      .dwattr $C$DW$395, DW_AT_low_pc(0x00)
    5791                      .dwattr $C$DW$395, DW_AT_name("GPIO_setPinConfig")
    5792                      .dwattr $C$DW$395, DW_AT_TI_call
    5793              
    5794 00000285 7640!         LCR       #||GPIO_setPinConfig|| ; [CPU_ALU] |1030| 
         00000286 0000 
    5795                      ; call occurs [#||GPIO_setPinConfig||] ; [] |1030| 
    5796                      .dwpsn  file "../sources/dual_axis_servo_drive_hal.c",line 1031,column 5,is_stmt,isa 0
    5797 00000287 D400          MOVB      XAR4,#0               ; [CPU_ALU] |1031| 
    5798 00000288 022D          MOVB      ACC,#45               ; [CPU_ALU] |1031| 
    5799              $C$DW$396       .dwtag  DW_TAG_TI_branch
    5800                      .dwattr $C$DW$396, DW_AT_low_pc(0x00)
    5801                      .dwattr $C$DW$396, DW_AT_name("GPIO_setDirectionMode")
    5802                      .dwattr $C$DW$396, DW_AT_TI_call
    5803              
    5804 00000289 7640!         LCR       #||GPIO_setDirectionMode|| ; [CPU_ALU] |1031| 
         0000028a 0000 
    5805                      ; call occurs [#||GPIO_setDirectionMode||] ; [] |1031| 
    5806                      .dwpsn  file "../sources/dual_axis_servo_drive_hal.c",line 1032,column 5,is_stmt,isa 0
    5807 0000028b 0201          MOVB      ACC,#1                ; [CPU_ALU] |1032| 
    5808 0000028c 1E42          MOVL      *-SP[2],ACC           ; [CPU_ALU] |1032| 
    5809 0000028d 022D          MOVB      ACC,#45               ; [CPU_ALU] |1032| 
    5810              $C$DW$397       .dwtag  DW_TAG_TI_branch
    5811                      .dwattr $C$DW$397, DW_AT_low_pc(0x00)
    5812                      .dwattr $C$DW$397, DW_AT_name("GPIO_setPadConfig")
    5813                      .dwattr $C$DW$397, DW_AT_TI_call
    5814              
    5815 0000028e 7640!         LCR       #||GPIO_setPadConfig|| ; [CPU_ALU] |1032| 
         0000028f 0000 
    5816                      ; call occurs [#||GPIO_setPadConfig||] ; [] |1032| 
    5817                      .dwpsn  file "../sources/dual_axis_servo_drive_hal.c",line 1035,column 5,is_stmt,isa 0
    5818 00000290 FF2A          MOV       ACC,#4487 << 10       ; [CPU_ALU] |1035| 
         00000291 1187 
    5819              $C$DW$398       .dwtag  DW_TAG_TI_branch
    5820                      .dwattr $C$DW$398, DW_AT_low_pc(0x00)
    5821                      .dwattr $C$DW$398, DW_AT_name("GPIO_setPinConfig")
    5822                      .dwattr $C$DW$398, DW_AT_TI_call
    5823              
    5824 00000292 7640!         LCR       #||GPIO_setPinConfig|| ; [CPU_ALU] |1035| 
         00000293 0000 
    5825                      ; call occurs [#||GPIO_setPinConfig||] ; [] |1035| 
    5826                      .dwpsn  file "../sources/dual_axis_servo_drive_hal.c",line 1036,column 5,is_stmt,isa 0
    5827 00000294 D400          MOVB      XAR4,#0               ; [CPU_ALU] |1036| 
    5828 00000295 022E          MOVB      ACC,#46               ; [CPU_ALU] |1036| 
    5829              $C$DW$399       .dwtag  DW_TAG_TI_branch
    5830                      .dwattr $C$DW$399, DW_AT_low_pc(0x00)
    5831                      .dwattr $C$DW$399, DW_AT_name("GPIO_setDirectionMode")
    5832                      .dwattr $C$DW$399, DW_AT_TI_call
TMS320C2000 Assembler PC v22.6.2 Wed Dec 10 14:45:02 2025

Copyright (c) 1996-2018 Texas Instruments Incorporated
dual_axis_servo_drive_hal.asm                                        PAGE  116

    5833              
    5834 00000296 7640!         LCR       #||GPIO_setDirectionMode|| ; [CPU_ALU] |1036| 
         00000297 0000 
    5835                      ; call occurs [#||GPIO_setDirectionMode||] ; [] |1036| 
    5836                      .dwpsn  file "../sources/dual_axis_servo_drive_hal.c",line 1037,column 5,is_stmt,isa 0
    5837 00000298 0200          MOVB      ACC,#0                ; [CPU_ALU] |1037| 
    5838 00000299 1E42          MOVL      *-SP[2],ACC           ; [CPU_ALU] |1037| 
    5839 0000029a 022E          MOVB      ACC,#46               ; [CPU_ALU] |1037| 
    5840              $C$DW$400       .dwtag  DW_TAG_TI_branch
    5841                      .dwattr $C$DW$400, DW_AT_low_pc(0x00)
    5842                      .dwattr $C$DW$400, DW_AT_name("GPIO_setPadConfig")
    5843                      .dwattr $C$DW$400, DW_AT_TI_call
    5844              
    5845 0000029b 7640!         LCR       #||GPIO_setPadConfig|| ; [CPU_ALU] |1037| 
         0000029c 0000 
    5846                      ; call occurs [#||GPIO_setPadConfig||] ; [] |1037| 
    5847 0000029d FE82          SUBB      SP,#2                 ; [CPU_ARAU] 
    5848                      .dwcfi  cfa_offset, -2
    5849              $C$DW$401       .dwtag  DW_TAG_TI_branch
    5850                      .dwattr $C$DW$401, DW_AT_low_pc(0x00)
    5851                      .dwattr $C$DW$401, DW_AT_TI_return
    5852              
    5853 0000029e 0006          LRETR     ; [CPU_ALU] 
    5854                      ; return occurs ; [] 
    5855                      .dwattr $C$DW$255, DW_AT_TI_end_file("../sources/dual_axis_servo_drive_hal.c")
    5856                      .dwattr $C$DW$255, DW_AT_TI_end_line(0x411)
    5857                      .dwattr $C$DW$255, DW_AT_TI_end_column(0x01)
    5858                      .dwendentry
    5859                      .dwendtag $C$DW$255
    5860              
    5861 00000000               .sect   ".text:HAL_setupCpuTimer"
    5862                      .clink
    5863                      .global ||HAL_setupCpuTimer||
    5864              
    5865              $C$DW$402       .dwtag  DW_TAG_subprogram
    5866                      .dwattr $C$DW$402, DW_AT_name("HAL_setupCpuTimer")
    5867                      .dwattr $C$DW$402, DW_AT_low_pc(||HAL_setupCpuTimer||)
    5868                      .dwattr $C$DW$402, DW_AT_high_pc(0x00)
    5869                      .dwattr $C$DW$402, DW_AT_linkage_name("HAL_setupCpuTimer")
    5870                      .dwattr $C$DW$402, DW_AT_external
    5871                      .dwattr $C$DW$402, DW_AT_decl_file("../sources/dual_axis_servo_drive_hal.c")
    5872                      .dwattr $C$DW$402, DW_AT_decl_line(0x2d7)
    5873                      .dwattr $C$DW$402, DW_AT_decl_column(0x06)
    5874                      .dwattr $C$DW$402, DW_AT_TI_max_frame_size(-4)
    5875                      .dwpsn  file "../sources/dual_axis_servo_drive_hal.c",line 728,column 1,is_stmt,address ||HAL_setupCp
    5876              
    5877                      .dwfde $C$DW$CIE, ||HAL_setupCpuTimer||
    5878              $C$DW$403       .dwtag  DW_TAG_formal_parameter
    5879                      .dwattr $C$DW$403, DW_AT_name("base")
    5880                      .dwattr $C$DW$403, DW_AT_type(*$C$DW$T$28)
    5881                      .dwattr $C$DW$403, DW_AT_location[DW_OP_reg0]
    5882              
    5883              $C$DW$404       .dwtag  DW_TAG_formal_parameter
    5884                      .dwattr $C$DW$404, DW_AT_name("periodCount")
    5885                      .dwattr $C$DW$404, DW_AT_type(*$C$DW$T$28)
TMS320C2000 Assembler PC v22.6.2 Wed Dec 10 14:45:02 2025

Copyright (c) 1996-2018 Texas Instruments Incorporated
dual_axis_servo_drive_hal.asm                                        PAGE  117

    5886                      .dwattr $C$DW$404, DW_AT_location[DW_OP_breg20 -6]
    5887              
    5888              
    5889              ;***************************************************************
    5890              ;* FNAME: HAL_setupCpuTimer             FR SIZE:   2           *
    5891              ;*                                                             *
    5892              ;* FUNCTION ENVIRONMENT                                        *
    5893              ;*                                                             *
    5894              ;* FUNCTION PROPERTIES                                         *
    5895              ;*                            0 Parameter,  0 Auto,  2 SOE     *
    5896              ;***************************************************************
    5897              
    5898              ||HAL_setupCpuTimer||:
    5899              ;* AR1   assigned to base
    5900              $C$DW$405       .dwtag  DW_TAG_variable
    5901                      .dwattr $C$DW$405, DW_AT_name("base")
    5902                      .dwattr $C$DW$405, DW_AT_type(*$C$DW$T$240)
    5903                      .dwattr $C$DW$405, DW_AT_location[DW_OP_reg6]
    5904              
    5905              ;* AR7   assigned to periodCount
    5906              $C$DW$406       .dwtag  DW_TAG_variable
    5907                      .dwattr $C$DW$406, DW_AT_name("periodCount")
    5908                      .dwattr $C$DW$406, DW_AT_type(*$C$DW$T$240)
    5909                      .dwattr $C$DW$406, DW_AT_location[DW_OP_reg18]
    5910              
    5911              ;* AL    assigned to tcrValue
    5912              $C$DW$407       .dwtag  DW_TAG_variable
    5913                      .dwattr $C$DW$407, DW_AT_name("tcrValue")
    5914                      .dwattr $C$DW$407, DW_AT_type(*$C$DW$T$172)
    5915                      .dwattr $C$DW$407, DW_AT_location[DW_OP_reg0]
    5916              
    5917              ;* AL    assigned to tcrValue
    5918              $C$DW$408       .dwtag  DW_TAG_variable
    5919                      .dwattr $C$DW$408, DW_AT_name("tcrValue")
    5920                      .dwattr $C$DW$408, DW_AT_type(*$C$DW$T$172)
    5921                      .dwattr $C$DW$408, DW_AT_location[DW_OP_reg0]
    5922              
    5923                      .dwcfi  cfa_offset, -2
    5924                      .dwcfi  save_reg_to_mem, 26, 0
    5925 00000000 B2BD          MOVL      *SP++,XAR1            ; [CPU_ALU] 
    5926                      .dwcfi  save_reg_to_mem, 7, 2
    5927                      .dwcfi  cfa_offset, -4
    5928                      .dwpsn  file "C:/ti/C2000Ware_MotorControl_SDK_5_04_00_00/c2000ware/driverlib/f28002x/driverlib/cputi
    5929 00000001 BE00          MOVB      XAR6,#0               ; [CPU_ALU] |375| 
    5930                      .dwpsn  file "../sources/dual_axis_servo_drive_hal.c",line 728,column 1,is_stmt,isa 0
    5931 00000002 8BA9          MOVL      XAR1,ACC              ; [CPU_ALU] |728| 
    5932                      .dwpsn  file "C:/ti/C2000Ware_MotorControl_SDK_5_04_00_00/c2000ware/driverlib/f28002x/driverlib/cputi
    5933 00000003 F4A6          MOV       *(0:0x0c07),AR6       ; [CPU_ALU] |375| 
         00000004 0C07 
    5934                      .dwpsn  file "../sources/dual_axis_servo_drive_hal.c",line 728,column 1,is_stmt,isa 0
    5935 00000005 C546          MOVL      XAR7,*-SP[6]          ; [CPU_ALU] |728| 
    5936                      .dwpsn  file "C:/ti/C2000Ware_MotorControl_SDK_5_04_00_00/c2000ware/driverlib/f28002x/driverlib/cputi
    5937 00000006 9A00          MOVB      AL,#0                 ; [CPU_ALU] |376| 
    5938 00000007 F4A9          MOV       *(0:0x0c06),AL        ; [CPU_ALU] |376| 
         00000008 0C06 
TMS320C2000 Assembler PC v22.6.2 Wed Dec 10 14:45:02 2025

Copyright (c) 1996-2018 Texas Instruments Incorporated
dual_axis_servo_drive_hal.asm                                        PAGE  118

    5939                      .dwpsn  file "../sources/dual_axis_servo_drive_hal.c",line 732,column 5,is_stmt,isa 0
    5940 00000009 D400          MOVB      XAR4,#0               ; [CPU_ALU] |732| 
    5941                      .dwpsn  file "C:/ti/C2000Ware_MotorControl_SDK_5_04_00_00/c2000ware/driverlib/f28002x/driverlib/cputi
    5942 0000000a C3D1          MOVL      *+XAR1[2],XAR7        ; [CPU_ALU] |331| 
    5943                      .dwpsn  file "C:/ti/C2000Ware_MotorControl_SDK_5_04_00_00/c2000ware/driverlib/f28002x/driverlib/cputi
    5944 0000000b CCE1          AND       AL,*+XAR1[4],#0x7fff  ; [CPU_ALU] |255| 
         0000000c 7FFF 
    5945                      .dwpsn  file "C:/ti/C2000Ware_MotorControl_SDK_5_04_00_00/c2000ware/driverlib/f28002x/driverlib/cputi
    5946 0000000d 5010          ORB       AL,#0x10              ; [CPU_ALU] |256| 
    5947 0000000e 96E1          MOV       *+XAR1[4],AL          ; [CPU_ALU] |256| 
    5948                      .dwpsn  file "../sources/dual_axis_servo_drive_hal.c",line 732,column 5,is_stmt,isa 0
    5949 0000000f B2A9          MOVL      ACC,XAR1              ; [CPU_ALU] |732| 
    5950              $C$DW$409       .dwtag  DW_TAG_TI_branch
    5951                      .dwattr $C$DW$409, DW_AT_low_pc(0x00)
    5952                      .dwattr $C$DW$409, DW_AT_name("CPUTimer_setEmulationMode")
    5953                      .dwattr $C$DW$409, DW_AT_TI_call
    5954              
    5955 00000010 7640!         LCR       #||CPUTimer_setEmulationMode|| ; [CPU_ALU] |732| 
         00000011 0000 
    5956                      ; call occurs [#||CPUTimer_setEmulationMode||] ; [] |732| 
    5957                      .dwpsn  file "C:/ti/C2000Ware_MotorControl_SDK_5_04_00_00/c2000ware/driverlib/f28002x/driverlib/cputi
    5958 00000012 CCE1          AND       AL,*+XAR1[4],#0x7fff  ; [CPU_ALU] |232| 
         00000013 7FFF 
    5959                      .dwpsn  file "C:/ti/C2000Ware_MotorControl_SDK_5_04_00_00/c2000ware/driverlib/f28002x/driverlib/cputi
    5960 00000014 5020          ORB       AL,#0x20              ; [CPU_ALU] |233| 
    5961 00000015 96E1          MOV       *+XAR1[4],AL          ; [CPU_ALU] |233| 
    5962                      .dwpsn  file "C:/ti/C2000Ware_MotorControl_SDK_5_04_00_00/c2000ware/driverlib/f28002x/driverlib/cputi
    5963 00000016 18E1          AND       *+XAR1[4],#0xffef     ; [CPU_ALU] |279| 
         00000017 FFEF 
    5964 00000018 8BBE          MOVL      XAR1,*--SP            ; [CPU_ALU] 
    5965                      .dwcfi  cfa_offset, -2
    5966                      .dwcfi  restore_reg, 7
    5967              $C$DW$410       .dwtag  DW_TAG_TI_branch
    5968                      .dwattr $C$DW$410, DW_AT_low_pc(0x00)
    5969                      .dwattr $C$DW$410, DW_AT_TI_return
    5970              
    5971 00000019 0006          LRETR     ; [CPU_ALU] 
    5972                      ; return occurs ; [] 
    5973                      .dwattr $C$DW$402, DW_AT_TI_end_file("../sources/dual_axis_servo_drive_hal.c")
    5974                      .dwattr $C$DW$402, DW_AT_TI_end_line(0x2e2)
    5975                      .dwattr $C$DW$402, DW_AT_TI_end_column(0x01)
    5976                      .dwendentry
    5977                      .dwendtag $C$DW$402
    5978              
    5979 00000000               .sect   ".text:HAL_setupCMPSS_DACValue"
    5980                      .clink
    5981                      .global ||HAL_setupCMPSS_DACValue||
    5982              
    5983              $C$DW$411       .dwtag  DW_TAG_subprogram
    5984                      .dwattr $C$DW$411, DW_AT_name("HAL_setupCMPSS_DACValue")
    5985                      .dwattr $C$DW$411, DW_AT_low_pc(||HAL_setupCMPSS_DACValue||)
    5986                      .dwattr $C$DW$411, DW_AT_high_pc(0x00)
    5987                      .dwattr $C$DW$411, DW_AT_linkage_name("HAL_setupCMPSS_DACValue")
    5988                      .dwattr $C$DW$411, DW_AT_external
    5989                      .dwattr $C$DW$411, DW_AT_decl_file("../sources/dual_axis_servo_drive_hal.c")
TMS320C2000 Assembler PC v22.6.2 Wed Dec 10 14:45:02 2025

Copyright (c) 1996-2018 Texas Instruments Incorporated
dual_axis_servo_drive_hal.asm                                        PAGE  119

    5990                      .dwattr $C$DW$411, DW_AT_decl_line(0x28e)
    5991                      .dwattr $C$DW$411, DW_AT_decl_column(0x06)
    5992                      .dwattr $C$DW$411, DW_AT_TI_max_frame_size(-2)
    5993                      .dwpsn  file "../sources/dual_axis_servo_drive_hal.c",line 655,column 1,is_stmt,address ||HAL_setupCM
    5994              
    5995                      .dwfde $C$DW$CIE, ||HAL_setupCMPSS_DACValue||
    5996              $C$DW$412       .dwtag  DW_TAG_formal_parameter
    5997                      .dwattr $C$DW$412, DW_AT_name("handle")
    5998                      .dwattr $C$DW$412, DW_AT_type(*$C$DW$T$142)
    5999                      .dwattr $C$DW$412, DW_AT_location[DW_OP_reg12]
    6000              
    6001              $C$DW$413       .dwtag  DW_TAG_formal_parameter
    6002                      .dwattr $C$DW$413, DW_AT_name("curHi")
    6003                      .dwattr $C$DW$413, DW_AT_type(*$C$DW$T$172)
    6004                      .dwattr $C$DW$413, DW_AT_location[DW_OP_reg0]
    6005              
    6006              $C$DW$414       .dwtag  DW_TAG_formal_parameter
    6007                      .dwattr $C$DW$414, DW_AT_name("curLo")
    6008                      .dwattr $C$DW$414, DW_AT_type(*$C$DW$T$172)
    6009                      .dwattr $C$DW$414, DW_AT_location[DW_OP_reg1]
    6010              
    6011              
    6012              ;***************************************************************
    6013              ;* FNAME: HAL_setupCMPSS_DACValue       FR SIZE:   0           *
    6014              ;*                                                             *
    6015              ;* FUNCTION ENVIRONMENT                                        *
    6016              ;*                                                             *
    6017              ;* FUNCTION PROPERTIES                                         *
    6018              ;*                            0 Parameter,  0 Auto,  0 SOE     *
    6019              ;***************************************************************
    6020              
    6021              ||HAL_setupCMPSS_DACValue||:
    6022              ;* AR4   assigned to handle
    6023              $C$DW$415       .dwtag  DW_TAG_variable
    6024                      .dwattr $C$DW$415, DW_AT_name("handle")
    6025                      .dwattr $C$DW$415, DW_AT_type(*$C$DW$T$143)
    6026                      .dwattr $C$DW$415, DW_AT_location[DW_OP_reg12]
    6027              
    6028              ;* AL    assigned to curHi
    6029              $C$DW$416       .dwtag  DW_TAG_variable
    6030                      .dwattr $C$DW$416, DW_AT_name("curHi")
    6031                      .dwattr $C$DW$416, DW_AT_type(*$C$DW$T$233)
    6032                      .dwattr $C$DW$416, DW_AT_location[DW_OP_reg0]
    6033              
    6034              ;* AR6   assigned to curLo
    6035              $C$DW$417       .dwtag  DW_TAG_variable
    6036                      .dwattr $C$DW$417, DW_AT_name("curLo")
    6037                      .dwattr $C$DW$417, DW_AT_type(*$C$DW$T$233)
    6038                      .dwattr $C$DW$417, DW_AT_location[DW_OP_reg16]
    6039              
    6040                      .dwcfi  cfa_offset, -2
    6041                      .dwcfi  save_reg_to_mem, 26, 0
    6042                      .dwpsn  file "C:/ti/C2000Ware_MotorControl_SDK_5_04_00_00/c2000ware/driverlib/f28002x/driverlib/cmpss
    6043 00000000 83F4          MOVL      XAR5,*+XAR4[6]        ; [CPU_ALU] |590| 
    6044 00000001 D008          MOVB      XAR0,#8               ; [CPU_ALU] |590| 
TMS320C2000 Assembler PC v22.6.2 Wed Dec 10 14:45:02 2025

Copyright (c) 1996-2018 Texas Instruments Incorporated
dual_axis_servo_drive_hal.asm                                        PAGE  120

    6045 00000002 96F5          MOV       *+XAR5[6],AL          ; [CPU_ALU] |590| 
    6046 00000003 8394          MOVL      XAR5,*+XAR4[AR0]      ; [CPU_ALU] |590| 
    6047                      .dwpsn  file "../sources/dual_axis_servo_drive_hal.c",line 655,column 1,is_stmt,isa 0
    6048 00000004 88A8          MOVZ      AR6,AH                ; [CPU_ALU] |655| 
    6049                      .dwpsn  file "C:/ti/C2000Ware_MotorControl_SDK_5_04_00_00/c2000ware/driverlib/f28002x/driverlib/cmpss
    6050 00000005 D008          MOVB      XAR0,#8               ; [CPU_ALU] |620| 
    6051                      .dwpsn  file "C:/ti/C2000Ware_MotorControl_SDK_5_04_00_00/c2000ware/driverlib/f28002x/driverlib/cmpss
    6052 00000006 96F5          MOV       *+XAR5[6],AL          ; [CPU_ALU] |590| 
    6053                      .dwpsn  file "C:/ti/C2000Ware_MotorControl_SDK_5_04_00_00/c2000ware/driverlib/f28002x/driverlib/cmpss
    6054 00000007 0212          MOVB      ACC,#18               ; [CPU_ALU] |620| 
    6055 00000008 0794          ADDL      ACC,*+XAR4[AR0]       ; [CPU_ALU] |620| 
    6056                      .dwpsn  file "../sources/dual_axis_servo_drive_hal.c",line 655,column 1,is_stmt,isa 0
    6057 00000009 83A9          MOVL      XAR5,ACC              ; [CPU_ALU] |655| 
    6058                      .dwpsn  file "C:/ti/C2000Ware_MotorControl_SDK_5_04_00_00/c2000ware/driverlib/f28002x/driverlib/cmpss
    6059 0000000a D00A          MOVB      XAR0,#10              ; [CPU_ALU] |620| 
    6060 0000000b 0212          MOVB      ACC,#18               ; [CPU_ALU] |620| 
    6061 0000000c 7EC5          MOV       *+XAR5[0],AR6         ; [CPU_ALU] |620| 
    6062 0000000d 0794          ADDL      ACC,*+XAR4[AR0]       ; [CPU_ALU] |620| 
    6063 0000000e 8AA9          MOVL      XAR4,ACC              ; [CPU_ALU] |620| 
    6064 0000000f 7EC4          MOV       *+XAR4[0],AR6         ; [CPU_ALU] |620| 
    6065              $C$DW$418       .dwtag  DW_TAG_TI_branch
    6066                      .dwattr $C$DW$418, DW_AT_low_pc(0x00)
    6067                      .dwattr $C$DW$418, DW_AT_TI_return
    6068              
    6069 00000010 0006          LRETR     ; [CPU_ALU] 
    6070                      ; return occurs ; [] 
    6071                      .dwattr $C$DW$411, DW_AT_TI_end_file("../sources/dual_axis_servo_drive_hal.c")
    6072                      .dwattr $C$DW$411, DW_AT_TI_end_line(0x29d)
    6073                      .dwattr $C$DW$411, DW_AT_TI_end_column(0x01)
    6074                      .dwendentry
    6075                      .dwendtag $C$DW$411
    6076              
    6077 00000000               .sect   ".text:HAL_setupCMPSS"
    6078                      .clink
    6079                      .global ||HAL_setupCMPSS||
    6080              
    6081              $C$DW$419       .dwtag  DW_TAG_subprogram
    6082                      .dwattr $C$DW$419, DW_AT_name("HAL_setupCMPSS")
    6083                      .dwattr $C$DW$419, DW_AT_low_pc(||HAL_setupCMPSS||)
    6084                      .dwattr $C$DW$419, DW_AT_high_pc(0x00)
    6085                      .dwattr $C$DW$419, DW_AT_linkage_name("HAL_setupCMPSS")
    6086                      .dwattr $C$DW$419, DW_AT_external
    6087                      .dwattr $C$DW$419, DW_AT_decl_file("../sources/dual_axis_servo_drive_hal.c")
    6088                      .dwattr $C$DW$419, DW_AT_decl_line(0x1ed)
    6089                      .dwattr $C$DW$419, DW_AT_decl_column(0x06)
    6090                      .dwattr $C$DW$419, DW_AT_TI_max_frame_size(-6)
    6091                      .dwpsn  file "../sources/dual_axis_servo_drive_hal.c",line 494,column 1,is_stmt,address ||HAL_setupCM
    6092              
    6093                      .dwfde $C$DW$CIE, ||HAL_setupCMPSS||
    6094              $C$DW$420       .dwtag  DW_TAG_formal_parameter
    6095                      .dwattr $C$DW$420, DW_AT_name("handle")
    6096                      .dwattr $C$DW$420, DW_AT_type(*$C$DW$T$142)
    6097                      .dwattr $C$DW$420, DW_AT_location[DW_OP_reg12]
    6098              
    6099              
TMS320C2000 Assembler PC v22.6.2 Wed Dec 10 14:45:02 2025

Copyright (c) 1996-2018 Texas Instruments Incorporated
dual_axis_servo_drive_hal.asm                                        PAGE  121

    6100              ;***************************************************************
    6101              ;* FNAME: HAL_setupCMPSS                FR SIZE:   4           *
    6102              ;*                                                             *
    6103              ;* FUNCTION ENVIRONMENT                                        *
    6104              ;*                                                             *
    6105              ;* FUNCTION PROPERTIES                                         *
    6106              ;*                            1 Parameter,  0 Auto,  2 SOE     *
    6107              ;***************************************************************
    6108              
    6109              ||HAL_setupCMPSS||:
    6110              ;* AL    assigned to $O$K2
    6111              ;* AR1   assigned to handle
    6112              $C$DW$421       .dwtag  DW_TAG_variable
    6113                      .dwattr $C$DW$421, DW_AT_name("handle")
    6114                      .dwattr $C$DW$421, DW_AT_type(*$C$DW$T$143)
    6115                      .dwattr $C$DW$421, DW_AT_location[DW_OP_reg6]
    6116              
    6117              ;* AR4   assigned to base
    6118              $C$DW$422       .dwtag  DW_TAG_variable
    6119                      .dwattr $C$DW$422, DW_AT_name("base")
    6120                      .dwattr $C$DW$422, DW_AT_type(*$C$DW$T$28)
    6121                      .dwattr $C$DW$422, DW_AT_location[DW_OP_reg12]
    6122              
    6123              ;* AR4   assigned to base
    6124              $C$DW$423       .dwtag  DW_TAG_variable
    6125                      .dwattr $C$DW$423, DW_AT_name("base")
    6126                      .dwattr $C$DW$423, DW_AT_type(*$C$DW$T$28)
    6127                      .dwattr $C$DW$423, DW_AT_location[DW_OP_reg12]
    6128              
    6129              ;* AR4   assigned to base
    6130              $C$DW$424       .dwtag  DW_TAG_variable
    6131                      .dwattr $C$DW$424, DW_AT_name("base")
    6132                      .dwattr $C$DW$424, DW_AT_type(*$C$DW$T$28)
    6133                      .dwattr $C$DW$424, DW_AT_location[DW_OP_reg12]
    6134              
    6135              ;* AR4   assigned to base
    6136              $C$DW$425       .dwtag  DW_TAG_variable
    6137                      .dwattr $C$DW$425, DW_AT_name("base")
    6138                      .dwattr $C$DW$425, DW_AT_type(*$C$DW$T$28)
    6139                      .dwattr $C$DW$425, DW_AT_location[DW_OP_reg12]
    6140              
    6141              ;* AR4   assigned to base
    6142              $C$DW$426       .dwtag  DW_TAG_variable
    6143                      .dwattr $C$DW$426, DW_AT_name("base")
    6144                      .dwattr $C$DW$426, DW_AT_type(*$C$DW$T$28)
    6145                      .dwattr $C$DW$426, DW_AT_location[DW_OP_reg12]
    6146              
    6147              ;* AR4   assigned to base
    6148              $C$DW$427       .dwtag  DW_TAG_variable
    6149                      .dwattr $C$DW$427, DW_AT_name("base")
    6150                      .dwattr $C$DW$427, DW_AT_type(*$C$DW$T$28)
    6151                      .dwattr $C$DW$427, DW_AT_location[DW_OP_reg12]
    6152              
    6153              ;* AR4   assigned to base
    6154              $C$DW$428       .dwtag  DW_TAG_variable
TMS320C2000 Assembler PC v22.6.2 Wed Dec 10 14:45:02 2025

Copyright (c) 1996-2018 Texas Instruments Incorporated
dual_axis_servo_drive_hal.asm                                        PAGE  122

    6155                      .dwattr $C$DW$428, DW_AT_name("base")
    6156                      .dwattr $C$DW$428, DW_AT_type(*$C$DW$T$28)
    6157                      .dwattr $C$DW$428, DW_AT_location[DW_OP_reg12]
    6158              
    6159              ;* AR4   assigned to base
    6160              $C$DW$429       .dwtag  DW_TAG_variable
    6161                      .dwattr $C$DW$429, DW_AT_name("base")
    6162                      .dwattr $C$DW$429, DW_AT_type(*$C$DW$T$28)
    6163                      .dwattr $C$DW$429, DW_AT_location[DW_OP_reg12]
    6164              
    6165              ;* AR4   assigned to base
    6166              $C$DW$430       .dwtag  DW_TAG_variable
    6167                      .dwattr $C$DW$430, DW_AT_name("base")
    6168                      .dwattr $C$DW$430, DW_AT_type(*$C$DW$T$28)
    6169                      .dwattr $C$DW$430, DW_AT_location[DW_OP_reg12]
    6170              
    6171              ;* AR4   assigned to base
    6172              $C$DW$431       .dwtag  DW_TAG_variable
    6173                      .dwattr $C$DW$431, DW_AT_name("base")
    6174                      .dwattr $C$DW$431, DW_AT_type(*$C$DW$T$28)
    6175                      .dwattr $C$DW$431, DW_AT_location[DW_OP_reg12]
    6176              
    6177              ;* AR4   assigned to base
    6178              $C$DW$432       .dwtag  DW_TAG_variable
    6179                      .dwattr $C$DW$432, DW_AT_name("base")
    6180                      .dwattr $C$DW$432, DW_AT_type(*$C$DW$T$28)
    6181                      .dwattr $C$DW$432, DW_AT_location[DW_OP_reg12]
    6182              
    6183              ;* AR4   assigned to base
    6184              $C$DW$433       .dwtag  DW_TAG_variable
    6185                      .dwattr $C$DW$433, DW_AT_name("base")
    6186                      .dwattr $C$DW$433, DW_AT_type(*$C$DW$T$28)
    6187                      .dwattr $C$DW$433, DW_AT_location[DW_OP_reg12]
    6188              
    6189              ;* AR4   assigned to base
    6190              $C$DW$434       .dwtag  DW_TAG_variable
    6191                      .dwattr $C$DW$434, DW_AT_name("base")
    6192                      .dwattr $C$DW$434, DW_AT_type(*$C$DW$T$28)
    6193                      .dwattr $C$DW$434, DW_AT_location[DW_OP_reg12]
    6194              
    6195              ;* AR4   assigned to base
    6196              $C$DW$435       .dwtag  DW_TAG_variable
    6197                      .dwattr $C$DW$435, DW_AT_name("base")
    6198                      .dwattr $C$DW$435, DW_AT_type(*$C$DW$T$28)
    6199                      .dwattr $C$DW$435, DW_AT_location[DW_OP_reg12]
    6200              
    6201              ;* AR4   assigned to base
    6202              $C$DW$436       .dwtag  DW_TAG_variable
    6203                      .dwattr $C$DW$436, DW_AT_name("base")
    6204                      .dwattr $C$DW$436, DW_AT_type(*$C$DW$T$28)
    6205                      .dwattr $C$DW$436, DW_AT_location[DW_OP_reg12]
    6206              
    6207              ;* AR4   assigned to base
    6208              $C$DW$437       .dwtag  DW_TAG_variable
    6209                      .dwattr $C$DW$437, DW_AT_name("base")
TMS320C2000 Assembler PC v22.6.2 Wed Dec 10 14:45:02 2025

Copyright (c) 1996-2018 Texas Instruments Incorporated
dual_axis_servo_drive_hal.asm                                        PAGE  123

    6210                      .dwattr $C$DW$437, DW_AT_type(*$C$DW$T$28)
    6211                      .dwattr $C$DW$437, DW_AT_location[DW_OP_reg12]
    6212              
    6213              ;* AR4   assigned to base
    6214              $C$DW$438       .dwtag  DW_TAG_variable
    6215                      .dwattr $C$DW$438, DW_AT_name("base")
    6216                      .dwattr $C$DW$438, DW_AT_type(*$C$DW$T$28)
    6217                      .dwattr $C$DW$438, DW_AT_location[DW_OP_reg12]
    6218              
    6219              ;* AR4   assigned to base
    6220              $C$DW$439       .dwtag  DW_TAG_variable
    6221                      .dwattr $C$DW$439, DW_AT_name("base")
    6222                      .dwattr $C$DW$439, DW_AT_type(*$C$DW$T$28)
    6223                      .dwattr $C$DW$439, DW_AT_location[DW_OP_reg12]
    6224              
    6225              ;* AR4   assigned to base
    6226              $C$DW$440       .dwtag  DW_TAG_variable
    6227                      .dwattr $C$DW$440, DW_AT_name("base")
    6228                      .dwattr $C$DW$440, DW_AT_type(*$C$DW$T$28)
    6229                      .dwattr $C$DW$440, DW_AT_location[DW_OP_reg12]
    6230              
    6231              ;* AR4   assigned to base
    6232              $C$DW$441       .dwtag  DW_TAG_variable
    6233                      .dwattr $C$DW$441, DW_AT_name("base")
    6234                      .dwattr $C$DW$441, DW_AT_type(*$C$DW$T$28)
    6235                      .dwattr $C$DW$441, DW_AT_location[DW_OP_reg12]
    6236              
    6237              ;* AR4   assigned to base
    6238              $C$DW$442       .dwtag  DW_TAG_variable
    6239                      .dwattr $C$DW$442, DW_AT_name("base")
    6240                      .dwattr $C$DW$442, DW_AT_type(*$C$DW$T$28)
    6241                      .dwattr $C$DW$442, DW_AT_location[DW_OP_reg12]
    6242              
    6243              ;* AR4   assigned to base
    6244              $C$DW$443       .dwtag  DW_TAG_variable
    6245                      .dwattr $C$DW$443, DW_AT_name("base")
    6246                      .dwattr $C$DW$443, DW_AT_type(*$C$DW$T$28)
    6247                      .dwattr $C$DW$443, DW_AT_location[DW_OP_reg12]
    6248              
    6249              ;* AR4   assigned to base
    6250              $C$DW$444       .dwtag  DW_TAG_variable
    6251                      .dwattr $C$DW$444, DW_AT_name("base")
    6252                      .dwattr $C$DW$444, DW_AT_type(*$C$DW$T$28)
    6253                      .dwattr $C$DW$444, DW_AT_location[DW_OP_reg12]
    6254              
    6255              ;* AR4   assigned to base
    6256              $C$DW$445       .dwtag  DW_TAG_variable
    6257                      .dwattr $C$DW$445, DW_AT_name("base")
    6258                      .dwattr $C$DW$445, DW_AT_type(*$C$DW$T$28)
    6259                      .dwattr $C$DW$445, DW_AT_location[DW_OP_reg12]
    6260              
    6261              ;* AR4   assigned to base
    6262              $C$DW$446       .dwtag  DW_TAG_variable
    6263                      .dwattr $C$DW$446, DW_AT_name("base")
    6264                      .dwattr $C$DW$446, DW_AT_type(*$C$DW$T$28)
TMS320C2000 Assembler PC v22.6.2 Wed Dec 10 14:45:02 2025

Copyright (c) 1996-2018 Texas Instruments Incorporated
dual_axis_servo_drive_hal.asm                                        PAGE  124

    6265                      .dwattr $C$DW$446, DW_AT_location[DW_OP_reg12]
    6266              
    6267                      .dwcfi  cfa_offset, -2
    6268                      .dwcfi  save_reg_to_mem, 26, 0
    6269 00000000 B2BD          MOVL      *SP++,XAR1            ; [CPU_ALU] 
    6270                      .dwcfi  save_reg_to_mem, 7, 2
    6271                      .dwcfi  cfa_offset, -4
    6272 00000001 FE02          ADDB      SP,#2                 ; [CPU_ARAU] 
    6273                      .dwcfi  cfa_offset, -6
    6274 00000002 8BA4          MOVL      XAR1,XAR4             ; [CPU_ALU] |494| 
    6275                      .dwpsn  file "../sources/dual_axis_servo_drive_hal.c",line 501,column 5,is_stmt,isa 0
    6276 00000003 8F00!         MOVL      XAR4,#||halMtr||      ; [CPU_ARAU] |501| 
         00000004 0000 
    6277 00000005 A8A9          MOVL      ACC,XAR4              ; [CPU_ALU] |501| 
    6278 00000006 0FA1          CMPL      ACC,XAR1              ; [CPU_ALU] |501| 
    6279 00000007 611C          B         ||$C$L41||,EQ         ; [CPU_ALU] |501| 
    6280                      ; branchcc occurs ; [] |501| 
    6281                      .dwpsn  file "../sources/dual_axis_servo_drive_hal.c",line 510,column 10,is_stmt,isa 0
    6282 00000008 0912          ADDB      ACC,#18               ; [CPU_ALU] |510| 
    6283 00000009 0FA1          CMPL      ACC,XAR1              ; [CPU_ALU] |510| 
    6284 0000000a 6035          B         ||$C$L43||,NEQ        ; [CPU_ALU] |510| 
    6285                      ; branchcc occurs ; [] |510| 
    6286                      .dwpsn  file "C:/ti/C2000Ware_MotorControl_SDK_5_04_00_00/c2000ware/driverlib/f28002x/driverlib/asysc
    6287 0000000b 7622          EALLOW    ; [CPU_ALU] |476| 
    6288                      .dwpsn  file "C:/ti/C2000Ware_MotorControl_SDK_5_04_00_00/c2000ware/driverlib/f28002x/driverlib/asysc
    6289 0000000c 8F05          MOVL      XAR4,#382850          ; [CPU_ARAU] |481| 
         0000000d D782 
    6290 0000000e 06C4          MOVL      ACC,*+XAR4[0]         ; [CPU_ALU] |481| 
    6291 0000000f 18A9          AND       AL,#61951             ; [CPU_ALU] |481| 
         00000010 F1FF 
    6292 00000011 1EC4          MOVL      *+XAR4[0],ACC         ; [CPU_ALU] |481| 
    6293 00000012 06C4          MOVL      ACC,*+XAR4[0]         ; [CPU_ALU] |481| 
    6294 00000013 18A9          AND       AL,#65503             ; [CPU_ALU] |481| 
         00000014 FFDF 
    6295 00000015 5018          ORB       AL,#0x18              ; [CPU_ALU] |481| 
    6296 00000016 1EC4          MOVL      *+XAR4[0],ACC         ; [CPU_ALU] |481| 
    6297                      .dwpsn  file "C:/ti/C2000Ware_MotorControl_SDK_5_04_00_00/c2000ware/driverlib/f28002x/driverlib/asysc
    6298 00000017 8F05          MOVL      XAR4,#382852          ; [CPU_ARAU] |517| 
         00000018 D784 
    6299 00000019 06C4          MOVL      ACC,*+XAR4[0]         ; [CPU_ALU] |517| 
    6300 0000001a 18A9          AND       AL,#65503             ; [CPU_ALU] |517| 
         0000001b FFDF 
    6301 0000001c 5018          ORB       AL,#0x18              ; [CPU_ALU] |517| 
    6302 0000001d 1EC4          MOVL      *+XAR4[0],ACC         ; [CPU_ALU] |517| 
    6303 0000001e 06C4          MOVL      ACC,*+XAR4[0]         ; [CPU_ALU] |517| 
    6304 0000001f 18A9          AND       AL,#65087             ; [CPU_ALU] |517| 
         00000020 FE3F 
    6305 00000021 5080          ORB       AL,#0x80              ; [CPU_ALU] |517| 
    6306                      .dwpsn  file "../sources/dual_axis_servo_drive_hal.c",line 517,column 9,is_stmt,isa 0
    6307 00000022 6F1B          B         ||$C$L42||,UNC        ; [CPU_ALU] |517| 
    6308                      ; branch occurs ; [] |517| 
    6309 00000023       ||$C$L41||:    
    6310                      .dwpsn  file "C:/ti/C2000Ware_MotorControl_SDK_5_04_00_00/c2000ware/driverlib/f28002x/driverlib/asysc
    6311 00000023 7622          EALLOW    ; [CPU_ALU] |476| 
    6312                      .dwpsn  file "C:/ti/C2000Ware_MotorControl_SDK_5_04_00_00/c2000ware/driverlib/f28002x/driverlib/asysc
TMS320C2000 Assembler PC v22.6.2 Wed Dec 10 14:45:02 2025

Copyright (c) 1996-2018 Texas Instruments Incorporated
dual_axis_servo_drive_hal.asm                                        PAGE  125

    6313 00000024 8F05          MOVL      XAR4,#382850          ; [CPU_ARAU] |481| 
         00000025 D782 
    6314 00000026 06C4          MOVL      ACC,*+XAR4[0]         ; [CPU_ALU] |481| 
    6315 00000027 18A9          AND       AL,#65343             ; [CPU_ALU] |481| 
         00000028 FF3F 
    6316 00000029 1AA9          OR        AL,#256               ; [CPU_ALU] |481| 
         0000002a 0100 
    6317 0000002b 1EC4          MOVL      *+XAR4[0],ACC         ; [CPU_ALU] |481| 
    6318 0000002c 06C4          MOVL      ACC,*+XAR4[0]         ; [CPU_ALU] |481| 
    6319 0000002d 18A9          AND       AL,#65528             ; [CPU_ALU] |481| 
         0000002e FFF8 
    6320 0000002f 5001          ORB       AL,#0x01              ; [CPU_ALU] |481| 
    6321 00000030 1EC4          MOVL      *+XAR4[0],ACC         ; [CPU_ALU] |481| 
    6322                      .dwpsn  file "C:/ti/C2000Ware_MotorControl_SDK_5_04_00_00/c2000ware/driverlib/f28002x/driverlib/asysc
    6323 00000031 8F05          MOVL      XAR4,#382852          ; [CPU_ARAU] |517| 
         00000032 D784 
    6324 00000033 06C4          MOVL      ACC,*+XAR4[0]         ; [CPU_ALU] |517| 
    6325 00000034 18A9          AND       AL,#65528             ; [CPU_ALU] |517| 
         00000035 FFF8 
    6326 00000036 5001          ORB       AL,#0x01              ; [CPU_ALU] |517| 
    6327 00000037 1EC4          MOVL      *+XAR4[0],ACC         ; [CPU_ALU] |517| 
    6328 00000038 06C4          MOVL      ACC,*+XAR4[0]         ; [CPU_ALU] |517| 
    6329 00000039 18A9          AND       AL,#61951             ; [CPU_ALU] |517| 
         0000003a F1FF 
    6330 0000003b 1AA9          OR        AL,#1024              ; [CPU_ALU] |517| 
         0000003c 0400 
    6331 0000003d       ||$C$L42||:    
    6332 0000003d 1EC4          MOVL      *+XAR4[0],ACC         ; [CPU_ALU] |517| 
    6333                      .dwpsn  file "C:/ti/C2000Ware_MotorControl_SDK_5_04_00_00/c2000ware/driverlib/f28002x/driverlib/asysc
    6334 0000003e 761A          EDIS      ; [CPU_ALU] |522| 
    6335 0000003f       ||$C$L43||:    
    6336                      .dwpsn  file "../sources/dual_axis_servo_drive_hal.c",line 520,column 5,is_stmt,isa 0
    6337 0000003f FF20          MOV       ACC,#9998             ; [CPU_ALU] |520| 
         00000040 270E 
    6338              $C$DW$447       .dwtag  DW_TAG_TI_branch
    6339                      .dwattr $C$DW$447, DW_AT_low_pc(0x00)
    6340                      .dwattr $C$DW$447, DW_AT_name("SysCtl_delay")
    6341                      .dwattr $C$DW$447, DW_AT_TI_call
    6342              
    6343 00000041 7640!         LCR       #||SysCtl_delay||     ; [CPU_ALU] |520| 
         00000042 0000 
    6344                      ; call occurs [#||SysCtl_delay||] ; [] |520| 
    6345                      .dwpsn  file "C:/ti/C2000Ware_MotorControl_SDK_5_04_00_00/c2000ware/driverlib/f28002x/driverlib/cmpss
    6346 00000043 8AF1          MOVL      XAR4,*+XAR1[6]        ; [CPU_ALU] |317| 
    6347                      .dwpsn  file "C:/ti/C2000Ware_MotorControl_SDK_5_04_00_00/c2000ware/driverlib/f28002x/driverlib/cmpss
    6348 00000044 7622          EALLOW    ; [CPU_ALU] |326| 
    6349                      .dwpsn  file "C:/ti/C2000Ware_MotorControl_SDK_5_04_00_00/c2000ware/driverlib/f28002x/driverlib/cmpss
    6350 00000045 18C4          AND       *+XAR4[0],#0xffbc     ; [CPU_ALU] |328| 
         00000046 FFBC 
    6351                      .dwpsn  file "C:/ti/C2000Ware_MotorControl_SDK_5_04_00_00/c2000ware/driverlib/f28002x/driverlib/cmpss
    6352 00000047 761A          EDIS      ; [CPU_ALU] |331| 
    6353                      .dwpsn  file "C:/ti/C2000Ware_MotorControl_SDK_5_04_00_00/c2000ware/driverlib/f28002x/driverlib/cmpss
    6354 00000048 8AF1          MOVL      XAR4,*+XAR1[6]        ; [CPU_ALU] |410| 
    6355                      .dwpsn  file "C:/ti/C2000Ware_MotorControl_SDK_5_04_00_00/c2000ware/driverlib/f28002x/driverlib/cmpss
    6356 00000049 7622          EALLOW    ; [CPU_ALU] |419| 
TMS320C2000 Assembler PC v22.6.2 Wed Dec 10 14:45:02 2025

Copyright (c) 1996-2018 Texas Instruments Incorporated
dual_axis_servo_drive_hal.asm                                        PAGE  126

    6357                      .dwpsn  file "C:/ti/C2000Ware_MotorControl_SDK_5_04_00_00/c2000ware/driverlib/f28002x/driverlib/cmpss
    6358 0000004a CCC4          AND       AL,*+XAR4[0],#0xffe3  ; [CPU_ALU] |421| 
         0000004b FFE3 
    6359 0000004c 5028          ORB       AL,#0x28              ; [CPU_ALU] |421| 
    6360 0000004d 96C4          MOV       *+XAR4[0],AL          ; [CPU_ALU] |421| 
    6361                      .dwpsn  file "C:/ti/C2000Ware_MotorControl_SDK_5_04_00_00/c2000ware/driverlib/f28002x/driverlib/cmpss
    6362 0000004e 761A          EDIS      ; [CPU_ALU] |426| 
    6363                      .dwpsn  file "C:/ti/C2000Ware_MotorControl_SDK_5_04_00_00/c2000ware/driverlib/f28002x/driverlib/cmpss
    6364 0000004f 8AF1          MOVL      XAR4,*+XAR1[6]        ; [CPU_ALU] |1015| 
    6365                      .dwpsn  file "C:/ti/C2000Ware_MotorControl_SDK_5_04_00_00/c2000ware/driverlib/f28002x/driverlib/cmpss
    6366 00000050 7622          EALLOW    ; [CPU_ALU] |1025| 
    6367                      .dwpsn  file "C:/ti/C2000Ware_MotorControl_SDK_5_04_00_00/c2000ware/driverlib/f28002x/driverlib/cmpss
    6368 00000051 56BF          MOVB      *+XAR4[1],#2,UNC      ; [CPU_ALU] |1027| 
         00000052 02CC 
    6369                      .dwpsn  file "C:/ti/C2000Ware_MotorControl_SDK_5_04_00_00/c2000ware/driverlib/f28002x/driverlib/cmpss
    6370 00000053 761A          EDIS      ; [CPU_ALU] |1029| 
    6371                      .dwpsn  file "C:/ti/C2000Ware_MotorControl_SDK_5_04_00_00/c2000ware/driverlib/f28002x/driverlib/cmpss
    6372 00000054 8AF1          MOVL      XAR4,*+XAR1[6]        ; [CPU_ALU] |545| 
    6373                      .dwpsn  file "C:/ti/C2000Ware_MotorControl_SDK_5_04_00_00/c2000ware/driverlib/f28002x/driverlib/cmpss
    6374 00000055 7622          EALLOW    ; [CPU_ALU] |554| 
    6375                      .dwpsn  file "C:/ti/C2000Ware_MotorControl_SDK_5_04_00_00/c2000ware/driverlib/f28002x/driverlib/cmpss
    6376 00000056 18E4          AND       *+XAR4[4],#0xff5e     ; [CPU_ALU] |556| 
         00000057 FF5E 
    6377                      .dwpsn  file "C:/ti/C2000Ware_MotorControl_SDK_5_04_00_00/c2000ware/driverlib/f28002x/driverlib/cmpss
    6378 00000058 761A          EDIS      ; [CPU_ALU] |560| 
    6379                      .dwpsn  file "C:/ti/C2000Ware_MotorControl_SDK_5_04_00_00/c2000ware/driverlib/f28002x/driverlib/cmpss
    6380 00000059 8AF1          MOVL      XAR4,*+XAR1[6]        ; [CPU_ALU] |590| 
    6381                      .dwpsn  file "../sources/dual_axis_servo_drive_hal.c",line 549,column 5,is_stmt,isa 0
    6382 0000005a D51E          MOVB      XAR5,#30              ; [CPU_ALU] |549| 
    6383                      .dwpsn  file "C:/ti/C2000Ware_MotorControl_SDK_5_04_00_00/c2000ware/driverlib/f28002x/driverlib/cmpss
    6384 0000005b 28F4          MOV       *+XAR4[6],#1024       ; [CPU_ALU] |590| 
         0000005c 0400 
    6385                      .dwpsn  file "../sources/dual_axis_servo_drive_hal.c",line 549,column 5,is_stmt,isa 0
    6386 0000005d D414          MOVB      XAR4,#20              ; [CPU_ALU] |549| 
    6387 0000005e 56BF          MOVB      *-SP[1],#18,UNC       ; [CPU_ALU] |549| 
         0000005f 1241 
    6388 00000060 06F1          MOVL      ACC,*+XAR1[6]         ; [CPU_ALU] |549| 
    6389              $C$DW$448       .dwtag  DW_TAG_TI_branch
    6390                      .dwattr $C$DW$448, DW_AT_low_pc(0x00)
    6391                      .dwattr $C$DW$448, DW_AT_name("CMPSS_configFilterHigh")
    6392                      .dwattr $C$DW$448, DW_AT_TI_call
    6393              
    6394 00000061 7640!         LCR       #||CMPSS_configFilterHigh|| ; [CPU_ALU] |549| 
         00000062 0000 
    6395                      ; call occurs [#||CMPSS_configFilterHigh||] ; [] |549| 
    6396                      .dwpsn  file "C:/ti/C2000Ware_MotorControl_SDK_5_04_00_00/c2000ware/driverlib/f28002x/driverlib/cmpss
    6397 00000063 8AF1          MOVL      XAR4,*+XAR1[6]        ; [CPU_ALU] |640| 
    6398                      .dwpsn  file "C:/ti/C2000Ware_MotorControl_SDK_5_04_00_00/c2000ware/driverlib/f28002x/driverlib/cmpss
    6399 00000064 7622          EALLOW    ; [CPU_ALU] |649| 
    6400                      .dwpsn  file "C:/ti/C2000Ware_MotorControl_SDK_5_04_00_00/c2000ware/driverlib/f28002x/driverlib/cmpss
    6401 00000065 DC18          ADDB      XAR4,#24              ; [CPU_ALU] |651| 
    6402 00000066 1AC4          OR        *+XAR4[0],#0x8000     ; [CPU_ALU] |651| 
         00000067 8000 
    6403                      .dwpsn  file "C:/ti/C2000Ware_MotorControl_SDK_5_04_00_00/c2000ware/driverlib/f28002x/driverlib/cmpss
    6404 00000068 761A          EDIS      ; [CPU_ALU] |653| 
TMS320C2000 Assembler PC v22.6.2 Wed Dec 10 14:45:02 2025

Copyright (c) 1996-2018 Texas Instruments Incorporated
dual_axis_servo_drive_hal.asm                                        PAGE  127

    6405                      .dwpsn  file "C:/ti/C2000Ware_MotorControl_SDK_5_04_00_00/c2000ware/driverlib/f28002x/driverlib/cmpss
    6406 00000069 8AF1          MOVL      XAR4,*+XAR1[6]        ; [CPU_ALU] |757| 
    6407                      .dwpsn  file "C:/ti/C2000Ware_MotorControl_SDK_5_04_00_00/c2000ware/driverlib/f28002x/driverlib/cmpss
    6408 0000006a 7622          EALLOW    ; [CPU_ALU] |766| 
    6409                      .dwpsn  file "C:/ti/C2000Ware_MotorControl_SDK_5_04_00_00/c2000ware/driverlib/f28002x/driverlib/cmpss
    6410 0000006b 1ADC          OR        *+XAR4[3],#0x0002     ; [CPU_ALU] |768| 
         0000006c 0002 
    6411                      .dwpsn  file "C:/ti/C2000Ware_MotorControl_SDK_5_04_00_00/c2000ware/driverlib/f28002x/driverlib/cmpss
    6412 0000006d 761A          EDIS      ; [CPU_ALU] |770| 
    6413                      .dwpsn  file "C:/ti/C2000Ware_MotorControl_SDK_5_04_00_00/c2000ware/driverlib/f28002x/driverlib/cmpss
    6414 0000006e 8AF1          MOVL      XAR4,*+XAR1[6]        ; [CPU_ALU] |243| 
    6415                      .dwpsn  file "C:/ti/C2000Ware_MotorControl_SDK_5_04_00_00/c2000ware/driverlib/f28002x/driverlib/cmpss
    6416 0000006f 7622          EALLOW    ; [CPU_ALU] |252| 
    6417                      .dwpsn  file "C:/ti/C2000Ware_MotorControl_SDK_5_04_00_00/c2000ware/driverlib/f28002x/driverlib/cmpss
    6418 00000070 1AC4          OR        *+XAR4[0],#0x8000     ; [CPU_ALU] |254| 
         00000071 8000 
    6419                      .dwpsn  file "C:/ti/C2000Ware_MotorControl_SDK_5_04_00_00/c2000ware/driverlib/f28002x/driverlib/cmpss
    6420 00000072 761A          EDIS      ; [CPU_ALU] |256| 
    6421                      .dwpsn  file "C:/ti/C2000Ware_MotorControl_SDK_5_04_00_00/c2000ware/driverlib/f28002x/driverlib/cmpss
    6422 00000073 8AF1          MOVL      XAR4,*+XAR1[6]        ; [CPU_ALU] |317| 
    6423                      .dwpsn  file "C:/ti/C2000Ware_MotorControl_SDK_5_04_00_00/c2000ware/driverlib/f28002x/driverlib/cmpss
    6424 00000074 7622          EALLOW    ; [CPU_ALU] |326| 
    6425                      .dwpsn  file "C:/ti/C2000Ware_MotorControl_SDK_5_04_00_00/c2000ware/driverlib/f28002x/driverlib/cmpss
    6426 00000075 18C4          AND       *+XAR4[0],#0xffbc     ; [CPU_ALU] |328| 
         00000076 FFBC 
    6427                      .dwpsn  file "C:/ti/C2000Ware_MotorControl_SDK_5_04_00_00/c2000ware/driverlib/f28002x/driverlib/cmpss
    6428 00000077 761A          EDIS      ; [CPU_ALU] |331| 
    6429                      .dwpsn  file "C:/ti/C2000Ware_MotorControl_SDK_5_04_00_00/c2000ware/driverlib/f28002x/driverlib/cmpss
    6430 00000078 8AF1          MOVL      XAR4,*+XAR1[6]        ; [CPU_ALU] |363| 
    6431                      .dwpsn  file "C:/ti/C2000Ware_MotorControl_SDK_5_04_00_00/c2000ware/driverlib/f28002x/driverlib/cmpss
    6432 00000079 7622          EALLOW    ; [CPU_ALU] |372| 
    6433                      .dwpsn  file "C:/ti/C2000Ware_MotorControl_SDK_5_04_00_00/c2000ware/driverlib/f28002x/driverlib/cmpss
    6434 0000007a CCC4          AND       AL,*+XAR4[0],#0xbeff  ; [CPU_ALU] |374| 
         0000007b BEFF 
    6435 0000007c 1AA9          OR        AL,#0x0200            ; [CPU_ALU] |374| 
         0000007d 0200 
    6436 0000007e 96C4          MOV       *+XAR4[0],AL          ; [CPU_ALU] |374| 
    6437                      .dwpsn  file "C:/ti/C2000Ware_MotorControl_SDK_5_04_00_00/c2000ware/driverlib/f28002x/driverlib/cmpss
    6438 0000007f 761A          EDIS      ; [CPU_ALU] |377| 
    6439                      .dwpsn  file "C:/ti/C2000Ware_MotorControl_SDK_5_04_00_00/c2000ware/driverlib/f28002x/driverlib/cmpss
    6440 00000080 8AF1          MOVL      XAR4,*+XAR1[6]        ; [CPU_ALU] |410| 
    6441                      .dwpsn  file "C:/ti/C2000Ware_MotorControl_SDK_5_04_00_00/c2000ware/driverlib/f28002x/driverlib/cmpss
    6442 00000081 7622          EALLOW    ; [CPU_ALU] |419| 
    6443                      .dwpsn  file "C:/ti/C2000Ware_MotorControl_SDK_5_04_00_00/c2000ware/driverlib/f28002x/driverlib/cmpss
    6444 00000082 CCC4          AND       AL,*+XAR4[0],#0xffe3  ; [CPU_ALU] |421| 
         00000083 FFE3 
    6445 00000084 5028          ORB       AL,#0x28              ; [CPU_ALU] |421| 
    6446 00000085 96C4          MOV       *+XAR4[0],AL          ; [CPU_ALU] |421| 
    6447                      .dwpsn  file "C:/ti/C2000Ware_MotorControl_SDK_5_04_00_00/c2000ware/driverlib/f28002x/driverlib/cmpss
    6448 00000086 761A          EDIS      ; [CPU_ALU] |426| 
    6449                      .dwpsn  file "C:/ti/C2000Ware_MotorControl_SDK_5_04_00_00/c2000ware/driverlib/f28002x/driverlib/cmpss
    6450 00000087 8AF1          MOVL      XAR4,*+XAR1[6]        ; [CPU_ALU] |459| 
    6451                      .dwpsn  file "C:/ti/C2000Ware_MotorControl_SDK_5_04_00_00/c2000ware/driverlib/f28002x/driverlib/cmpss
    6452 00000088 7622          EALLOW    ; [CPU_ALU] |468| 
    6453                      .dwpsn  file "C:/ti/C2000Ware_MotorControl_SDK_5_04_00_00/c2000ware/driverlib/f28002x/driverlib/cmpss
TMS320C2000 Assembler PC v22.6.2 Wed Dec 10 14:45:02 2025

Copyright (c) 1996-2018 Texas Instruments Incorporated
dual_axis_servo_drive_hal.asm                                        PAGE  128

    6454 00000089 CCC4          AND       AL,*+XAR4[0],#0xe3ff  ; [CPU_ALU] |470| 
         0000008a E3FF 
    6455 0000008b 1AA9          OR        AL,#0x2800            ; [CPU_ALU] |470| 
         0000008c 2800 
    6456 0000008d 96C4          MOV       *+XAR4[0],AL          ; [CPU_ALU] |470| 
    6457                      .dwpsn  file "C:/ti/C2000Ware_MotorControl_SDK_5_04_00_00/c2000ware/driverlib/f28002x/driverlib/cmpss
    6458 0000008e 761A          EDIS      ; [CPU_ALU] |475| 
    6459                      .dwpsn  file "C:/ti/C2000Ware_MotorControl_SDK_5_04_00_00/c2000ware/driverlib/f28002x/driverlib/cmpss
    6460 0000008f 8AF1          MOVL      XAR4,*+XAR1[6]        ; [CPU_ALU] |1015| 
    6461                      .dwpsn  file "C:/ti/C2000Ware_MotorControl_SDK_5_04_00_00/c2000ware/driverlib/f28002x/driverlib/cmpss
    6462 00000090 7622          EALLOW    ; [CPU_ALU] |1025| 
    6463                      .dwpsn  file "C:/ti/C2000Ware_MotorControl_SDK_5_04_00_00/c2000ware/driverlib/f28002x/driverlib/cmpss
    6464 00000091 56BF          MOVB      *+XAR4[1],#2,UNC      ; [CPU_ALU] |1027| 
         00000092 02CC 
    6465                      .dwpsn  file "C:/ti/C2000Ware_MotorControl_SDK_5_04_00_00/c2000ware/driverlib/f28002x/driverlib/cmpss
    6466 00000093 761A          EDIS      ; [CPU_ALU] |1029| 
    6467                      .dwpsn  file "C:/ti/C2000Ware_MotorControl_SDK_5_04_00_00/c2000ware/driverlib/f28002x/driverlib/cmpss
    6468 00000094 8AF1          MOVL      XAR4,*+XAR1[6]        ; [CPU_ALU] |545| 
    6469                      .dwpsn  file "C:/ti/C2000Ware_MotorControl_SDK_5_04_00_00/c2000ware/driverlib/f28002x/driverlib/cmpss
    6470 00000095 7622          EALLOW    ; [CPU_ALU] |554| 
    6471                      .dwpsn  file "C:/ti/C2000Ware_MotorControl_SDK_5_04_00_00/c2000ware/driverlib/f28002x/driverlib/cmpss
    6472 00000096 18E4          AND       *+XAR4[4],#0xff5e     ; [CPU_ALU] |556| 
         00000097 FF5E 
    6473                      .dwpsn  file "C:/ti/C2000Ware_MotorControl_SDK_5_04_00_00/c2000ware/driverlib/f28002x/driverlib/cmpss
    6474 00000098 761A          EDIS      ; [CPU_ALU] |560| 
    6475                      .dwpsn  file "C:/ti/C2000Ware_MotorControl_SDK_5_04_00_00/c2000ware/driverlib/f28002x/driverlib/cmpss
    6476 00000099 8AF1          MOVL      XAR4,*+XAR1[6]        ; [CPU_ALU] |590| 
    6477                      .dwpsn  file "C:/ti/C2000Ware_MotorControl_SDK_5_04_00_00/c2000ware/driverlib/f28002x/driverlib/cmpss
    6478 0000009a 0212          MOVB      ACC,#18               ; [CPU_ALU] |620| 
    6479                      .dwpsn  file "C:/ti/C2000Ware_MotorControl_SDK_5_04_00_00/c2000ware/driverlib/f28002x/driverlib/cmpss
    6480 0000009b 28F4          MOV       *+XAR4[6],#1024       ; [CPU_ALU] |590| 
         0000009c 0400 
    6481                      .dwpsn  file "C:/ti/C2000Ware_MotorControl_SDK_5_04_00_00/c2000ware/driverlib/f28002x/driverlib/cmpss
    6482 0000009d 07F1          ADDL      ACC,*+XAR1[6]         ; [CPU_ALU] |620| 
    6483 0000009e 8AA9          MOVL      XAR4,ACC              ; [CPU_ALU] |620| 
    6484                      .dwpsn  file "../sources/dual_axis_servo_drive_hal.c",line 595,column 5,is_stmt,isa 0
    6485 0000009f D51E          MOVB      XAR5,#30              ; [CPU_ALU] |595| 
    6486                      .dwpsn  file "C:/ti/C2000Ware_MotorControl_SDK_5_04_00_00/c2000ware/driverlib/f28002x/driverlib/cmpss
    6487 000000a0 28C4          MOV       *+XAR4[0],#1024       ; [CPU_ALU] |620| 
         000000a1 0400 
    6488                      .dwpsn  file "../sources/dual_axis_servo_drive_hal.c",line 595,column 5,is_stmt,isa 0
    6489 000000a2 D414          MOVB      XAR4,#20              ; [CPU_ALU] |595| 
    6490 000000a3 56BF          MOVB      *-SP[1],#18,UNC       ; [CPU_ALU] |595| 
         000000a4 1241 
    6491 000000a5 06F1          MOVL      ACC,*+XAR1[6]         ; [CPU_ALU] |595| 
    6492              $C$DW$449       .dwtag  DW_TAG_TI_branch
    6493                      .dwattr $C$DW$449, DW_AT_low_pc(0x00)
    6494                      .dwattr $C$DW$449, DW_AT_name("CMPSS_configFilterHigh")
    6495                      .dwattr $C$DW$449, DW_AT_TI_call
    6496              
    6497 000000a6 7640!         LCR       #||CMPSS_configFilterHigh|| ; [CPU_ALU] |595| 
         000000a7 0000 
    6498                      ; call occurs [#||CMPSS_configFilterHigh||] ; [] |595| 
    6499                      .dwpsn  file "C:/ti/C2000Ware_MotorControl_SDK_5_04_00_00/c2000ware/driverlib/f28002x/driverlib/cmpss
    6500 000000a8 8AF1          MOVL      XAR4,*+XAR1[6]        ; [CPU_ALU] |640| 
TMS320C2000 Assembler PC v22.6.2 Wed Dec 10 14:45:02 2025

Copyright (c) 1996-2018 Texas Instruments Incorporated
dual_axis_servo_drive_hal.asm                                        PAGE  129

    6501                      .dwpsn  file "C:/ti/C2000Ware_MotorControl_SDK_5_04_00_00/c2000ware/driverlib/f28002x/driverlib/cmpss
    6502 000000a9 7622          EALLOW    ; [CPU_ALU] |649| 
    6503                      .dwpsn  file "C:/ti/C2000Ware_MotorControl_SDK_5_04_00_00/c2000ware/driverlib/f28002x/driverlib/cmpss
    6504 000000aa DC18          ADDB      XAR4,#24              ; [CPU_ALU] |651| 
    6505 000000ab 1AC4          OR        *+XAR4[0],#0x8000     ; [CPU_ALU] |651| 
         000000ac 8000 
    6506                      .dwpsn  file "C:/ti/C2000Ware_MotorControl_SDK_5_04_00_00/c2000ware/driverlib/f28002x/driverlib/cmpss
    6507 000000ad 761A          EDIS      ; [CPU_ALU] |653| 
    6508                      .dwpsn  file "../sources/dual_axis_servo_drive_hal.c",line 602,column 5,is_stmt,isa 0
    6509 000000ae 56BF          MOVB      *-SP[1],#18,UNC       ; [CPU_ALU] |602| 
         000000af 1241 
    6510 000000b0 D51E          MOVB      XAR5,#30              ; [CPU_ALU] |602| 
    6511 000000b1 D414          MOVB      XAR4,#20              ; [CPU_ALU] |602| 
    6512 000000b2 06F1          MOVL      ACC,*+XAR1[6]         ; [CPU_ALU] |602| 
    6513              $C$DW$450       .dwtag  DW_TAG_TI_branch
    6514                      .dwattr $C$DW$450, DW_AT_low_pc(0x00)
    6515                      .dwattr $C$DW$450, DW_AT_name("CMPSS_configFilterLow")
    6516                      .dwattr $C$DW$450, DW_AT_TI_call
    6517              
    6518 000000b3 7640!         LCR       #||CMPSS_configFilterLow|| ; [CPU_ALU] |602| 
         000000b4 0000 
    6519                      ; call occurs [#||CMPSS_configFilterLow||] ; [] |602| 
    6520                      .dwpsn  file "C:/ti/C2000Ware_MotorControl_SDK_5_04_00_00/c2000ware/driverlib/f28002x/driverlib/cmpss
    6521 000000b5 8AF1          MOVL      XAR4,*+XAR1[6]        ; [CPU_ALU] |673| 
    6522                      .dwpsn  file "C:/ti/C2000Ware_MotorControl_SDK_5_04_00_00/c2000ware/driverlib/f28002x/driverlib/cmpss
    6523 000000b6 7622          EALLOW    ; [CPU_ALU] |682| 
    6524                      .dwpsn  file "C:/ti/C2000Ware_MotorControl_SDK_5_04_00_00/c2000ware/driverlib/f28002x/driverlib/cmpss
    6525 000000b7 DC16          ADDB      XAR4,#22              ; [CPU_ALU] |684| 
    6526 000000b8 1AC4          OR        *+XAR4[0],#0x8000     ; [CPU_ALU] |684| 
         000000b9 8000 
    6527                      .dwpsn  file "C:/ti/C2000Ware_MotorControl_SDK_5_04_00_00/c2000ware/driverlib/f28002x/driverlib/cmpss
    6528 000000ba 761A          EDIS      ; [CPU_ALU] |686| 
    6529                      .dwpsn  file "C:/ti/C2000Ware_MotorControl_SDK_5_04_00_00/c2000ware/driverlib/f28002x/driverlib/cmpss
    6530 000000bb 8AF1          MOVL      XAR4,*+XAR1[6]        ; [CPU_ALU] |757| 
    6531                      .dwpsn  file "C:/ti/C2000Ware_MotorControl_SDK_5_04_00_00/c2000ware/driverlib/f28002x/driverlib/cmpss
    6532 000000bc 7622          EALLOW    ; [CPU_ALU] |766| 
    6533                      .dwpsn  file "C:/ti/C2000Ware_MotorControl_SDK_5_04_00_00/c2000ware/driverlib/f28002x/driverlib/cmpss
    6534 000000bd 1ADC          OR        *+XAR4[3],#0x0002     ; [CPU_ALU] |768| 
         000000be 0002 
    6535                      .dwpsn  file "C:/ti/C2000Ware_MotorControl_SDK_5_04_00_00/c2000ware/driverlib/f28002x/driverlib/cmpss
    6536 000000bf 761A          EDIS      ; [CPU_ALU] |770| 
    6537                      .dwpsn  file "C:/ti/C2000Ware_MotorControl_SDK_5_04_00_00/c2000ware/driverlib/f28002x/driverlib/cmpss
    6538 000000c0 8AF1          MOVL      XAR4,*+XAR1[6]        ; [CPU_ALU] |787| 
    6539                      .dwpsn  file "C:/ti/C2000Ware_MotorControl_SDK_5_04_00_00/c2000ware/driverlib/f28002x/driverlib/cmpss
    6540 000000c1 7622          EALLOW    ; [CPU_ALU] |796| 
    6541                      .dwpsn  file "C:/ti/C2000Ware_MotorControl_SDK_5_04_00_00/c2000ware/driverlib/f28002x/driverlib/cmpss
    6542 000000c2 1ADC          OR        *+XAR4[3],#0x0200     ; [CPU_ALU] |798| 
         000000c3 0200 
    6543                      .dwpsn  file "C:/ti/C2000Ware_MotorControl_SDK_5_04_00_00/c2000ware/driverlib/f28002x/driverlib/cmpss
    6544 000000c4 761A          EDIS      ; [CPU_ALU] |800| 
    6545                      .dwpsn  file "C:/ti/C2000Ware_MotorControl_SDK_5_04_00_00/c2000ware/driverlib/f28002x/driverlib/cmpss
    6546 000000c5 8AF1          MOVL      XAR4,*+XAR1[6]        ; [CPU_ALU] |243| 
    6547                      .dwpsn  file "C:/ti/C2000Ware_MotorControl_SDK_5_04_00_00/c2000ware/driverlib/f28002x/driverlib/cmpss
    6548 000000c6 7622          EALLOW    ; [CPU_ALU] |252| 
    6549                      .dwpsn  file "C:/ti/C2000Ware_MotorControl_SDK_5_04_00_00/c2000ware/driverlib/f28002x/driverlib/cmpss
TMS320C2000 Assembler PC v22.6.2 Wed Dec 10 14:45:02 2025

Copyright (c) 1996-2018 Texas Instruments Incorporated
dual_axis_servo_drive_hal.asm                                        PAGE  130

    6550 000000c7 1AC4          OR        *+XAR4[0],#0x8000     ; [CPU_ALU] |254| 
         000000c8 8000 
    6551                      .dwpsn  file "C:/ti/C2000Ware_MotorControl_SDK_5_04_00_00/c2000ware/driverlib/f28002x/driverlib/cmpss
    6552 000000c9 761A          EDIS      ; [CPU_ALU] |256| 
    6553                      .dwpsn  file "C:/ti/C2000Ware_MotorControl_SDK_5_04_00_00/c2000ware/driverlib/f28002x/driverlib/cmpss
    6554 000000ca D00A          MOVB      XAR0,#10              ; [CPU_ALU] |363| 
    6555 000000cb 8A91          MOVL      XAR4,*+XAR1[AR0]      ; [CPU_ALU] |363| 
    6556                      .dwpsn  file "C:/ti/C2000Ware_MotorControl_SDK_5_04_00_00/c2000ware/driverlib/f28002x/driverlib/cmpss
    6557 000000cc 7622          EALLOW    ; [CPU_ALU] |372| 
    6558                      .dwpsn  file "C:/ti/C2000Ware_MotorControl_SDK_5_04_00_00/c2000ware/driverlib/f28002x/driverlib/cmpss
    6559 000000cd CCC4          AND       AL,*+XAR4[0],#0xbeff  ; [CPU_ALU] |374| 
         000000ce BEFF 
    6560 000000cf 1AA9          OR        AL,#0x0200            ; [CPU_ALU] |374| 
         000000d0 0200 
    6561 000000d1 96C4          MOV       *+XAR4[0],AL          ; [CPU_ALU] |374| 
    6562                      .dwpsn  file "C:/ti/C2000Ware_MotorControl_SDK_5_04_00_00/c2000ware/driverlib/f28002x/driverlib/cmpss
    6563 000000d2 761A          EDIS      ; [CPU_ALU] |377| 
    6564                      .dwpsn  file "C:/ti/C2000Ware_MotorControl_SDK_5_04_00_00/c2000ware/driverlib/f28002x/driverlib/cmpss
    6565 000000d3 D00A          MOVB      XAR0,#10              ; [CPU_ALU] |459| 
    6566 000000d4 8A91          MOVL      XAR4,*+XAR1[AR0]      ; [CPU_ALU] |459| 
    6567                      .dwpsn  file "C:/ti/C2000Ware_MotorControl_SDK_5_04_00_00/c2000ware/driverlib/f28002x/driverlib/cmpss
    6568 000000d5 7622          EALLOW    ; [CPU_ALU] |468| 
    6569                      .dwpsn  file "C:/ti/C2000Ware_MotorControl_SDK_5_04_00_00/c2000ware/driverlib/f28002x/driverlib/cmpss
    6570 000000d6 CCC4          AND       AL,*+XAR4[0],#0xe3ff  ; [CPU_ALU] |470| 
         000000d7 E3FF 
    6571 000000d8 1AA9          OR        AL,#0x2800            ; [CPU_ALU] |470| 
         000000d9 2800 
    6572 000000da 96C4          MOV       *+XAR4[0],AL          ; [CPU_ALU] |470| 
    6573                      .dwpsn  file "C:/ti/C2000Ware_MotorControl_SDK_5_04_00_00/c2000ware/driverlib/f28002x/driverlib/cmpss
    6574 000000db 761A          EDIS      ; [CPU_ALU] |475| 
    6575                      .dwpsn  file "C:/ti/C2000Ware_MotorControl_SDK_5_04_00_00/c2000ware/driverlib/f28002x/driverlib/cmpss
    6576 000000dc D00A          MOVB      XAR0,#10              ; [CPU_ALU] |1015| 
    6577 000000dd 8A91          MOVL      XAR4,*+XAR1[AR0]      ; [CPU_ALU] |1015| 
    6578                      .dwpsn  file "C:/ti/C2000Ware_MotorControl_SDK_5_04_00_00/c2000ware/driverlib/f28002x/driverlib/cmpss
    6579 000000de 7622          EALLOW    ; [CPU_ALU] |1025| 
    6580                      .dwpsn  file "C:/ti/C2000Ware_MotorControl_SDK_5_04_00_00/c2000ware/driverlib/f28002x/driverlib/cmpss
    6581 000000df 56BF          MOVB      *+XAR4[1],#2,UNC      ; [CPU_ALU] |1027| 
         000000e0 02CC 
    6582                      .dwpsn  file "C:/ti/C2000Ware_MotorControl_SDK_5_04_00_00/c2000ware/driverlib/f28002x/driverlib/cmpss
    6583 000000e1 761A          EDIS      ; [CPU_ALU] |1029| 
    6584                      .dwpsn  file "C:/ti/C2000Ware_MotorControl_SDK_5_04_00_00/c2000ware/driverlib/f28002x/driverlib/cmpss
    6585 000000e2 D00A          MOVB      XAR0,#10              ; [CPU_ALU] |545| 
    6586 000000e3 8A91          MOVL      XAR4,*+XAR1[AR0]      ; [CPU_ALU] |545| 
    6587                      .dwpsn  file "C:/ti/C2000Ware_MotorControl_SDK_5_04_00_00/c2000ware/driverlib/f28002x/driverlib/cmpss
    6588 000000e4 7622          EALLOW    ; [CPU_ALU] |554| 
    6589                      .dwpsn  file "C:/ti/C2000Ware_MotorControl_SDK_5_04_00_00/c2000ware/driverlib/f28002x/driverlib/cmpss
    6590 000000e5 18E4          AND       *+XAR4[4],#0xff5e     ; [CPU_ALU] |556| 
         000000e6 FF5E 
    6591                      .dwpsn  file "C:/ti/C2000Ware_MotorControl_SDK_5_04_00_00/c2000ware/driverlib/f28002x/driverlib/cmpss
    6592 000000e7 761A          EDIS      ; [CPU_ALU] |560| 
    6593                      .dwpsn  file "C:/ti/C2000Ware_MotorControl_SDK_5_04_00_00/c2000ware/driverlib/f28002x/driverlib/cmpss
    6594 000000e8 D00A          MOVB      XAR0,#10              ; [CPU_ALU] |620| 
    6595 000000e9 0212          MOVB      ACC,#18               ; [CPU_ALU] |620| 
    6596 000000ea 0791          ADDL      ACC,*+XAR1[AR0]       ; [CPU_ALU] |620| 
    6597 000000eb 8AA9          MOVL      XAR4,ACC              ; [CPU_ALU] |620| 
TMS320C2000 Assembler PC v22.6.2 Wed Dec 10 14:45:02 2025

Copyright (c) 1996-2018 Texas Instruments Incorporated
dual_axis_servo_drive_hal.asm                                        PAGE  131

    6598                      .dwpsn  file "../sources/dual_axis_servo_drive_hal.c",line 639,column 5,is_stmt,isa 0
    6599 000000ec D00A          MOVB      XAR0,#10              ; [CPU_ALU] |639| 
    6600 000000ed D51E          MOVB      XAR5,#30              ; [CPU_ALU] |639| 
    6601                      .dwpsn  file "C:/ti/C2000Ware_MotorControl_SDK_5_04_00_00/c2000ware/driverlib/f28002x/driverlib/cmpss
    6602 000000ee 28C4          MOV       *+XAR4[0],#1024       ; [CPU_ALU] |620| 
         000000ef 0400 
    6603                      .dwpsn  file "../sources/dual_axis_servo_drive_hal.c",line 639,column 5,is_stmt,isa 0
    6604 000000f0 D414          MOVB      XAR4,#20              ; [CPU_ALU] |639| 
    6605 000000f1 56BF          MOVB      *-SP[1],#18,UNC       ; [CPU_ALU] |639| 
         000000f2 1241 
    6606 000000f3 0691          MOVL      ACC,*+XAR1[AR0]       ; [CPU_ALU] |639| 
    6607              $C$DW$451       .dwtag  DW_TAG_TI_branch
    6608                      .dwattr $C$DW$451, DW_AT_low_pc(0x00)
    6609                      .dwattr $C$DW$451, DW_AT_name("CMPSS_configFilterLow")
    6610                      .dwattr $C$DW$451, DW_AT_TI_call
    6611              
    6612 000000f4 7640!         LCR       #||CMPSS_configFilterLow|| ; [CPU_ALU] |639| 
         000000f5 0000 
    6613                      ; call occurs [#||CMPSS_configFilterLow||] ; [] |639| 
    6614                      .dwpsn  file "C:/ti/C2000Ware_MotorControl_SDK_5_04_00_00/c2000ware/driverlib/f28002x/driverlib/cmpss
    6615 000000f6 D00A          MOVB      XAR0,#10              ; [CPU_ALU] |673| 
    6616 000000f7 8A91          MOVL      XAR4,*+XAR1[AR0]      ; [CPU_ALU] |673| 
    6617                      .dwpsn  file "C:/ti/C2000Ware_MotorControl_SDK_5_04_00_00/c2000ware/driverlib/f28002x/driverlib/cmpss
    6618 000000f8 7622          EALLOW    ; [CPU_ALU] |682| 
    6619                      .dwpsn  file "C:/ti/C2000Ware_MotorControl_SDK_5_04_00_00/c2000ware/driverlib/f28002x/driverlib/cmpss
    6620 000000f9 DC16          ADDB      XAR4,#22              ; [CPU_ALU] |684| 
    6621 000000fa 1AC4          OR        *+XAR4[0],#0x8000     ; [CPU_ALU] |684| 
         000000fb 8000 
    6622                      .dwpsn  file "C:/ti/C2000Ware_MotorControl_SDK_5_04_00_00/c2000ware/driverlib/f28002x/driverlib/cmpss
    6623 000000fc 761A          EDIS      ; [CPU_ALU] |686| 
    6624                      .dwpsn  file "C:/ti/C2000Ware_MotorControl_SDK_5_04_00_00/c2000ware/driverlib/f28002x/driverlib/cmpss
    6625 000000fd D00A          MOVB      XAR0,#10              ; [CPU_ALU] |787| 
    6626 000000fe 8A91          MOVL      XAR4,*+XAR1[AR0]      ; [CPU_ALU] |787| 
    6627                      .dwpsn  file "C:/ti/C2000Ware_MotorControl_SDK_5_04_00_00/c2000ware/driverlib/f28002x/driverlib/cmpss
    6628 000000ff 7622          EALLOW    ; [CPU_ALU] |796| 
    6629                      .dwpsn  file "C:/ti/C2000Ware_MotorControl_SDK_5_04_00_00/c2000ware/driverlib/f28002x/driverlib/cmpss
    6630 00000100 1ADC          OR        *+XAR4[3],#0x0200     ; [CPU_ALU] |798| 
         00000101 0200 
    6631                      .dwpsn  file "C:/ti/C2000Ware_MotorControl_SDK_5_04_00_00/c2000ware/driverlib/f28002x/driverlib/cmpss
    6632 00000102 761A          EDIS      ; [CPU_ALU] |800| 
    6633                      .dwpsn  file "C:/ti/C2000Ware_MotorControl_SDK_5_04_00_00/c2000ware/driverlib/f28002x/driverlib/cmpss
    6634 00000103 D00A          MOVB      XAR0,#10              ; [CPU_ALU] |243| 
    6635 00000104 8A91          MOVL      XAR4,*+XAR1[AR0]      ; [CPU_ALU] |243| 
    6636                      .dwpsn  file "C:/ti/C2000Ware_MotorControl_SDK_5_04_00_00/c2000ware/driverlib/f28002x/driverlib/cmpss
    6637 00000105 7622          EALLOW    ; [CPU_ALU] |252| 
    6638                      .dwpsn  file "C:/ti/C2000Ware_MotorControl_SDK_5_04_00_00/c2000ware/driverlib/f28002x/driverlib/cmpss
    6639 00000106 1AC4          OR        *+XAR4[0],#0x8000     ; [CPU_ALU] |254| 
         00000107 8000 
    6640                      .dwpsn  file "C:/ti/C2000Ware_MotorControl_SDK_5_04_00_00/c2000ware/driverlib/f28002x/driverlib/cmpss
    6641 00000108 761A          EDIS      ; [CPU_ALU] |256| 
    6642 00000109 FE82          SUBB      SP,#2                 ; [CPU_ARAU] 
    6643                      .dwcfi  cfa_offset, -4
    6644 0000010a 8BBE          MOVL      XAR1,*--SP            ; [CPU_ALU] 
    6645                      .dwcfi  cfa_offset, -2
    6646                      .dwcfi  restore_reg, 7
TMS320C2000 Assembler PC v22.6.2 Wed Dec 10 14:45:02 2025

Copyright (c) 1996-2018 Texas Instruments Incorporated
dual_axis_servo_drive_hal.asm                                        PAGE  132

    6647              $C$DW$452       .dwtag  DW_TAG_TI_branch
    6648                      .dwattr $C$DW$452, DW_AT_low_pc(0x00)
    6649                      .dwattr $C$DW$452, DW_AT_TI_return
    6650              
    6651 0000010b 0006          LRETR     ; [CPU_ALU] 
    6652                      ; return occurs ; [] 
    6653                      .dwattr $C$DW$419, DW_AT_TI_end_file("../sources/dual_axis_servo_drive_hal.c")
    6654                      .dwattr $C$DW$419, DW_AT_TI_end_line(0x289)
    6655                      .dwattr $C$DW$419, DW_AT_TI_end_column(0x01)
    6656                      .dwendentry
    6657                      .dwendtag $C$DW$419
    6658              
    6659 00000000               .sect   ".text:HAL_setupADCs"
    6660                      .clink
    6661                      .global ||HAL_setupADCs||
    6662              
    6663              $C$DW$453       .dwtag  DW_TAG_subprogram
    6664                      .dwattr $C$DW$453, DW_AT_name("HAL_setupADCs")
    6665                      .dwattr $C$DW$453, DW_AT_low_pc(||HAL_setupADCs||)
    6666                      .dwattr $C$DW$453, DW_AT_high_pc(0x00)
    6667                      .dwattr $C$DW$453, DW_AT_linkage_name("HAL_setupADCs")
    6668                      .dwattr $C$DW$453, DW_AT_external
    6669                      .dwattr $C$DW$453, DW_AT_decl_file("../sources/dual_axis_servo_drive_hal.c")
    6670                      .dwattr $C$DW$453, DW_AT_decl_line(0x159)
    6671                      .dwattr $C$DW$453, DW_AT_decl_column(0x06)
    6672                      .dwattr $C$DW$453, DW_AT_TI_max_frame_size(-4)
    6673                      .dwpsn  file "../sources/dual_axis_servo_drive_hal.c",line 346,column 1,is_stmt,address ||HAL_setupAD
    6674              
    6675                      .dwfde $C$DW$CIE, ||HAL_setupADCs||
    6676              $C$DW$454       .dwtag  DW_TAG_formal_parameter
    6677                      .dwattr $C$DW$454, DW_AT_name("handle")
    6678                      .dwattr $C$DW$454, DW_AT_type(*$C$DW$T$152)
    6679                      .dwattr $C$DW$454, DW_AT_location[DW_OP_reg12]
    6680              
    6681              
    6682              ;***************************************************************
    6683              ;* FNAME: HAL_setupADCs                 FR SIZE:   2           *
    6684              ;*                                                             *
    6685              ;* FUNCTION ENVIRONMENT                                        *
    6686              ;*                                                             *
    6687              ;* FUNCTION PROPERTIES                                         *
    6688              ;*                            0 Parameter,  0 Auto,  2 SOE     *
    6689              ;***************************************************************
    6690              
    6691              ||HAL_setupADCs||:
    6692              ;* AR1   assigned to $O$U14
    6693              ;* AR1   assigned to handle
    6694              $C$DW$455       .dwtag  DW_TAG_variable
    6695                      .dwattr $C$DW$455, DW_AT_name("handle")
    6696                      .dwattr $C$DW$455, DW_AT_type(*$C$DW$T$153)
    6697                      .dwattr $C$DW$455, DW_AT_location[DW_OP_reg6]
    6698              
    6699              ;* AR4   assigned to base
    6700              $C$DW$456       .dwtag  DW_TAG_variable
    6701                      .dwattr $C$DW$456, DW_AT_name("base")
TMS320C2000 Assembler PC v22.6.2 Wed Dec 10 14:45:02 2025

Copyright (c) 1996-2018 Texas Instruments Incorporated
dual_axis_servo_drive_hal.asm                                        PAGE  133

    6702                      .dwattr $C$DW$456, DW_AT_type(*$C$DW$T$28)
    6703                      .dwattr $C$DW$456, DW_AT_location[DW_OP_reg12]
    6704              
    6705              ;* AR4   assigned to base
    6706              $C$DW$457       .dwtag  DW_TAG_variable
    6707                      .dwattr $C$DW$457, DW_AT_name("base")
    6708                      .dwattr $C$DW$457, DW_AT_type(*$C$DW$T$28)
    6709                      .dwattr $C$DW$457, DW_AT_location[DW_OP_reg12]
    6710              
    6711              ;* AR4   assigned to base
    6712              $C$DW$458       .dwtag  DW_TAG_variable
    6713                      .dwattr $C$DW$458, DW_AT_name("base")
    6714                      .dwattr $C$DW$458, DW_AT_type(*$C$DW$T$28)
    6715                      .dwattr $C$DW$458, DW_AT_location[DW_OP_reg12]
    6716              
    6717              ;* AR4   assigned to base
    6718              $C$DW$459       .dwtag  DW_TAG_variable
    6719                      .dwattr $C$DW$459, DW_AT_name("base")
    6720                      .dwattr $C$DW$459, DW_AT_type(*$C$DW$T$28)
    6721                      .dwattr $C$DW$459, DW_AT_location[DW_OP_reg12]
    6722              
    6723                      .dwcfi  cfa_offset, -2
    6724                      .dwcfi  save_reg_to_mem, 26, 0
    6725 00000000 B2BD          MOVL      *SP++,XAR1            ; [CPU_ALU] 
    6726                      .dwcfi  save_reg_to_mem, 7, 2
    6727                      .dwcfi  cfa_offset, -4
    6728                      .dwpsn  file "../sources/dual_axis_servo_drive_hal.c",line 352,column 5,is_stmt,isa 0
    6729 00000001 0264          MOVB      ACC,#100              ; [CPU_ALU] |352| 
    6730                      .dwpsn  file "../sources/dual_axis_servo_drive_hal.c",line 346,column 1,is_stmt,isa 0
    6731 00000002 8BA4          MOVL      XAR1,XAR4             ; [CPU_ALU] |346| 
    6732                      .dwpsn  file "../sources/dual_axis_servo_drive_hal.c",line 352,column 5,is_stmt,isa 0
    6733              $C$DW$460       .dwtag  DW_TAG_TI_branch
    6734                      .dwattr $C$DW$460, DW_AT_low_pc(0x00)
    6735                      .dwattr $C$DW$460, DW_AT_name("SysCtl_delay")
    6736                      .dwattr $C$DW$460, DW_AT_TI_call
    6737              
    6738 00000003 7640!         LCR       #||SysCtl_delay||     ; [CPU_ALU] |352| 
         00000004 0000 
    6739                      ; call occurs [#||SysCtl_delay||] ; [] |352| 
    6740                      .dwpsn  file "../sources/dual_axis_servo_drive_hal.c",line 353,column 5,is_stmt,isa 0
    6741 00000005 D00A          MOVB      XAR0,#10              ; [CPU_ALU] |353| 
    6742 00000006 D400          MOVB      XAR4,#0               ; [CPU_ALU] |353| 
    6743 00000007 D500          MOVB      XAR5,#0               ; [CPU_ALU] |353| 
    6744 00000008 0691          MOVL      ACC,*+XAR1[AR0]       ; [CPU_ALU] |353| 
    6745              $C$DW$461       .dwtag  DW_TAG_TI_branch
    6746                      .dwattr $C$DW$461, DW_AT_low_pc(0x00)
    6747                      .dwattr $C$DW$461, DW_AT_name("ADC_setVREF")
    6748                      .dwattr $C$DW$461, DW_AT_TI_call
    6749              
    6750 00000009 7640!         LCR       #||ADC_setVREF||      ; [CPU_ALU] |353| 
         0000000a 0000 
    6751                      ; call occurs [#||ADC_setVREF||] ; [] |353| 
    6752                      .dwpsn  file "../sources/dual_axis_servo_drive_hal.c",line 354,column 5,is_stmt,isa 0
    6753 0000000b D00C          MOVB      XAR0,#12              ; [CPU_ALU] |354| 
    6754 0000000c D400          MOVB      XAR4,#0               ; [CPU_ALU] |354| 
TMS320C2000 Assembler PC v22.6.2 Wed Dec 10 14:45:02 2025

Copyright (c) 1996-2018 Texas Instruments Incorporated
dual_axis_servo_drive_hal.asm                                        PAGE  134

    6755 0000000d D500          MOVB      XAR5,#0               ; [CPU_ALU] |354| 
    6756 0000000e 0691          MOVL      ACC,*+XAR1[AR0]       ; [CPU_ALU] |354| 
    6757              $C$DW$462       .dwtag  DW_TAG_TI_branch
    6758                      .dwattr $C$DW$462, DW_AT_low_pc(0x00)
    6759                      .dwattr $C$DW$462, DW_AT_name("ADC_setVREF")
    6760                      .dwattr $C$DW$462, DW_AT_TI_call
    6761              
    6762 0000000f 7640!         LCR       #||ADC_setVREF||      ; [CPU_ALU] |354| 
         00000010 0000 
    6763                      ; call occurs [#||ADC_setVREF||] ; [] |354| 
    6764                      .dwpsn  file "../sources/dual_axis_servo_drive_hal.c",line 355,column 5,is_stmt,isa 0
    6765 00000011 0264          MOVB      ACC,#100              ; [CPU_ALU] |355| 
    6766              $C$DW$463       .dwtag  DW_TAG_TI_branch
    6767                      .dwattr $C$DW$463, DW_AT_low_pc(0x00)
    6768                      .dwattr $C$DW$463, DW_AT_name("SysCtl_delay")
    6769                      .dwattr $C$DW$463, DW_AT_TI_call
    6770              
    6771 00000012 7640!         LCR       #||SysCtl_delay||     ; [CPU_ALU] |355| 
         00000013 0000 
    6772                      ; call occurs [#||SysCtl_delay||] ; [] |355| 
    6773 00000014 D90A          ADDB      XAR1,#10              ; [CPU_ALU] 
    6774 00000015 BE01          MOVB      XAR6,#1               ; [CPU_FPU] 
    6775                      .dwpsn  file "../sources/dual_axis_servo_drive_hal.c",line 358,column 18,is_stmt,isa 0
    6776 00000016 B51A          RPTB      ||$C$L45||,AR6        ; [CPU_ALU] |358| 
         00000017 00A6 
    6777                      ; repeat block starts ; [] 
    6778 00000018       ||$C$L44||:    
    6779                      .dwpsn  file "C:/ti/C2000Ware_MotorControl_SDK_5_04_00_00/c2000ware/driverlib/f28002x/driverlib/adc.h
    6780 00000018 8AC1          MOVL      XAR4,*+XAR1[0]        ; [CPU_ALU] |425| 
    6781                      .dwpsn  file "C:/ti/C2000Ware_MotorControl_SDK_5_04_00_00/c2000ware/driverlib/f28002x/driverlib/adc.h
    6782 00000019 7622          EALLOW    ; [CPU_ALU] |434| 
    6783                      .dwpsn  file "C:/ti/C2000Ware_MotorControl_SDK_5_04_00_00/c2000ware/driverlib/f28002x/driverlib/adc.h
    6784 0000001a CCCC          AND       AL,*+XAR4[1],#0xfff0  ; [CPU_ALU] |435| 
         0000001b FFF0 
    6785 0000001c 5002          ORB       AL,#0x02              ; [CPU_ALU] |435| 
    6786 0000001d 96CC          MOV       *+XAR4[1],AL          ; [CPU_ALU] |435| 
    6787                      .dwpsn  file "C:/ti/C2000Ware_MotorControl_SDK_5_04_00_00/c2000ware/driverlib/f28002x/driverlib/adc.h
    6788 0000001e 761A          EDIS      ; [CPU_ALU] |437| 
    6789                      .dwpsn  file "C:/ti/C2000Ware_MotorControl_SDK_5_04_00_00/c2000ware/driverlib/f28002x/driverlib/adc.h
    6790 0000001f 8AC1          MOVL      XAR4,*+XAR1[0]        ; [CPU_ALU] |581| 
    6791                      .dwpsn  file "C:/ti/C2000Ware_MotorControl_SDK_5_04_00_00/c2000ware/driverlib/f28002x/driverlib/adc.h
    6792 00000020 7622          EALLOW    ; [CPU_ALU] |590| 
    6793                      .dwpsn  file "C:/ti/C2000Ware_MotorControl_SDK_5_04_00_00/c2000ware/driverlib/f28002x/driverlib/adc.h
    6794 00000021 1AC4          OR        *+XAR4[0],#0x0004     ; [CPU_ALU] |591| 
         00000022 0004 
    6795                      .dwpsn  file "C:/ti/C2000Ware_MotorControl_SDK_5_04_00_00/c2000ware/driverlib/f28002x/driverlib/adc.h
    6796 00000023 761A          EDIS      ; [CPU_ALU] |593| 
    6797                      .dwpsn  file "C:/ti/C2000Ware_MotorControl_SDK_5_04_00_00/c2000ware/driverlib/f28002x/driverlib/adc.h
    6798 00000024 8AC1          MOVL      XAR4,*+XAR1[0]        ; [CPU_ALU] |651| 
    6799                      .dwpsn  file "C:/ti/C2000Ware_MotorControl_SDK_5_04_00_00/c2000ware/driverlib/f28002x/driverlib/adc.h
    6800 00000025 7622          EALLOW    ; [CPU_ALU] |660| 
    6801                      .dwpsn  file "C:/ti/C2000Ware_MotorControl_SDK_5_04_00_00/c2000ware/driverlib/f28002x/driverlib/adc.h
    6802 00000026 1AC4          OR        *+XAR4[0],#0x0080     ; [CPU_ALU] |661| 
         00000027 0080 
    6803                      .dwpsn  file "C:/ti/C2000Ware_MotorControl_SDK_5_04_00_00/c2000ware/driverlib/f28002x/driverlib/adc.h
TMS320C2000 Assembler PC v22.6.2 Wed Dec 10 14:45:02 2025

Copyright (c) 1996-2018 Texas Instruments Incorporated
dual_axis_servo_drive_hal.asm                                        PAGE  135

    6804 00000028 761A          EDIS      ; [CPU_ALU] |662| 
    6805                      .dwpsn  file "C:/ti/C2000Ware_MotorControl_SDK_5_04_00_00/c2000ware/driverlib/f28002x/driverlib/adc.h
    6806 00000029 8A81          MOVL      XAR4,*XAR1++          ; [CPU_ALU] |1086| 
    6807                      .dwpsn  file "C:/ti/C2000Ware_MotorControl_SDK_5_04_00_00/c2000ware/driverlib/f28002x/driverlib/adc.h
    6808 0000002a 7622          EALLOW    ; [CPU_ALU] |1092| 
    6809                      .dwpsn  file "C:/ti/C2000Ware_MotorControl_SDK_5_04_00_00/c2000ware/driverlib/f28002x/driverlib/adc.h
    6810 0000002b D009          MOVB      XAR0,#9               ; [CPU_ALU] |1094| 
    6811 0000002c CC94          AND       AL,*+XAR4[AR0],#0xfff0 ; [CPU_ALU] |1094| 
         0000002d FFF0 
    6812 0000002e D009          MOVB      XAR0,#9               ; [CPU_ALU] |1094| 
    6813 0000002f 5010          ORB       AL,#0x10              ; [CPU_ALU] |1094| 
    6814 00000030 9694          MOV       *+XAR4[AR0],AL        ; [CPU_ALU] |1094| 
    6815                      .dwpsn  file "C:/ti/C2000Ware_MotorControl_SDK_5_04_00_00/c2000ware/driverlib/f28002x/driverlib/adc.h
    6816 00000031 761A          EDIS      ; [CPU_ALU] |1098| 
    6817                      ; repeat block ends ; [] 
    6818 00000032       ||$C$L45||:    
    6819                      .dwpsn  file "../sources/dual_axis_servo_drive_hal.c",line 374,column 5,is_stmt,isa 0
    6820 00000032 FF20          MOV       ACC,#1000             ; [CPU_ALU] |374| 
         00000033 03E8 
    6821              $C$DW$464       .dwtag  DW_TAG_TI_branch
    6822                      .dwattr $C$DW$464, DW_AT_low_pc(0x00)
    6823                      .dwattr $C$DW$464, DW_AT_name("SysCtl_delay")
    6824                      .dwattr $C$DW$464, DW_AT_TI_call
    6825              
    6826 00000034 7640!         LCR       #||SysCtl_delay||     ; [CPU_ALU] |374| 
         00000035 0000 
    6827                      ; call occurs [#||SysCtl_delay||] ; [] |374| 
    6828                      .dwpsn  file "C:/ti/C2000Ware_MotorControl_SDK_5_04_00_00/c2000ware/driverlib/f28002x/driverlib/adc.h
    6829 00000036 7622          EALLOW    ; [CPU_ALU] |497| 
    6830                      .dwpsn  file "C:/ti/C2000Ware_MotorControl_SDK_5_04_00_00/c2000ware/driverlib/f28002x/driverlib/adc.h
    6831 00000037 BFA9          MOV32     ACC,*(0:0x7512)       ; [CPU_FPU] |499| 
         00000038 7512 
    6832 00000039 18A9          AND       AL,#32256             ; [CPU_ALU] |499| 
         0000003a 7E00 
    6833 0000003b 18A8          AND       AH,#65048             ; [CPU_ALU] |499| 
         0000003c FE18 
    6834 0000003d 500B          OR        AL,#11                ; [CPU_ALU] |499| 
    6835 0000003e 5152          OR        AH,#82                ; [CPU_ALU] |499| 
    6836 0000003f BDA9          MOV32     *(0:0x7512),ACC       ; [CPU_FPU] |499| 
         00000040 7512 
    6837                      .dwpsn  file "C:/ti/C2000Ware_MotorControl_SDK_5_04_00_00/c2000ware/driverlib/f28002x/driverlib/adc.h
    6838 00000041 F5A9          MOV       AL,*(0:0x7548)        ; [CPU_ALU] |1171| 
         00000042 7548 
    6839 00000043 CCA9          AND       AL,AL,#0xfff0         ; [CPU_ALU] |1171| 
         00000044 FFF0 
    6840 00000045 5001          ORB       AL,#0x01              ; [CPU_ALU] |1171| 
    6841 00000046 F4A9          MOV       *(0:0x7548),AL        ; [CPU_ALU] |1171| 
         00000047 7548 
    6842                      .dwpsn  file "C:/ti/C2000Ware_MotorControl_SDK_5_04_00_00/c2000ware/driverlib/f28002x/driverlib/adc.h
    6843 00000048 F5A9          MOV       AL,*(0:0x754a)        ; [CPU_ALU] |1565| 
         00000049 754A 
    6844 0000004a 18A9          AND       AL,#0xfc00            ; [CPU_ALU] |1565| 
         0000004b FC00 
    6845 0000004c F4A9          MOV       *(0:0x754a),AL        ; [CPU_ALU] |1565| 
         0000004d 754A 
TMS320C2000 Assembler PC v22.6.2 Wed Dec 10 14:45:02 2025

Copyright (c) 1996-2018 Texas Instruments Incorporated
dual_axis_servo_drive_hal.asm                                        PAGE  136

    6846                      .dwpsn  file "C:/ti/C2000Ware_MotorControl_SDK_5_04_00_00/c2000ware/driverlib/f28002x/driverlib/adc.h
    6847 0000004e BFA9          MOV32     ACC,*(0:0x7510)       ; [CPU_FPU] |499| 
         0000004f 7510 
    6848 00000050 18A9          AND       AL,#32256             ; [CPU_ALU] |499| 
         00000051 7E00 
    6849 00000052 18A8          AND       AH,#65048             ; [CPU_ALU] |499| 
         00000053 FE18 
    6850 00000054 500B          OR        AL,#11                ; [CPU_ALU] |499| 
    6851 00000055 5150          OR        AH,#80                ; [CPU_ALU] |499| 
    6852 00000056 BDA9          MOV32     *(0:0x7510),ACC       ; [CPU_FPU] |499| 
         00000057 7510 
    6853                      .dwpsn  file "C:/ti/C2000Ware_MotorControl_SDK_5_04_00_00/c2000ware/driverlib/f28002x/driverlib/adc.h
    6854 00000058 F5A9          MOV       AL,*(0:0x7540)        ; [CPU_ALU] |1171| 
         00000059 7540 
    6855 0000005a 18A9          AND       AL,#0xfff0            ; [CPU_ALU] |1171| 
         0000005b FFF0 
    6856 0000005c F4A9          MOV       *(0:0x7540),AL        ; [CPU_ALU] |1171| 
         0000005d 7540 
    6857                      .dwpsn  file "C:/ti/C2000Ware_MotorControl_SDK_5_04_00_00/c2000ware/driverlib/f28002x/driverlib/adc.h
    6858 0000005e F5A9          MOV       AL,*(0:0x7542)        ; [CPU_ALU] |1565| 
         0000005f 7542 
    6859 00000060 18A9          AND       AL,#0xfc00            ; [CPU_ALU] |1565| 
         00000061 FC00 
    6860 00000062 F4A9          MOV       *(0:0x7542),AL        ; [CPU_ALU] |1565| 
         00000063 7542 
    6861                      .dwpsn  file "C:/ti/C2000Ware_MotorControl_SDK_5_04_00_00/c2000ware/driverlib/f28002x/driverlib/adc.h
    6862 00000064 BFA9          MOV32     ACC,*(0:0x7410)       ; [CPU_FPU] |499| 
         00000065 7410 
    6863 00000066 18A9          AND       AL,#32256             ; [CPU_ALU] |499| 
         00000067 7E00 
    6864 00000068 18A8          AND       AH,#65054             ; [CPU_ALU] |499| 
         00000069 FE1E 
    6865 0000006a 500B          OR        AL,#11                ; [CPU_ALU] |499| 
    6866 0000006b 5156          OR        AH,#86                ; [CPU_ALU] |499| 
    6867 0000006c BDA9          MOV32     *(0:0x7410),ACC       ; [CPU_FPU] |499| 
         0000006d 7410 
    6868                      .dwpsn  file "C:/ti/C2000Ware_MotorControl_SDK_5_04_00_00/c2000ware/driverlib/f28002x/driverlib/adc.h
    6869 0000006e F5A9          MOV       AL,*(0:0x7440)        ; [CPU_ALU] |1171| 
         0000006f 7440 
    6870 00000070 18A9          AND       AL,#0xfff0            ; [CPU_ALU] |1171| 
         00000071 FFF0 
    6871 00000072 F4A9          MOV       *(0:0x7440),AL        ; [CPU_ALU] |1171| 
         00000073 7440 
    6872                      .dwpsn  file "C:/ti/C2000Ware_MotorControl_SDK_5_04_00_00/c2000ware/driverlib/f28002x/driverlib/adc.h
    6873 00000074 F5A9          MOV       AL,*(0:0x7442)        ; [CPU_ALU] |1565| 
         00000075 7442 
    6874 00000076 18A9          AND       AL,#0xfc00            ; [CPU_ALU] |1565| 
         00000077 FC00 
    6875 00000078 F4A9          MOV       *(0:0x7442),AL        ; [CPU_ALU] |1565| 
         00000079 7442 
    6876                      .dwpsn  file "C:/ti/C2000Ware_MotorControl_SDK_5_04_00_00/c2000ware/driverlib/f28002x/driverlib/adc.h
    6877 0000007a BFA9          MOV32     ACC,*(0:0x7412)       ; [CPU_FPU] |499| 
         0000007b 7412 
    6878 0000007c 18A9          AND       AL,#32256             ; [CPU_ALU] |499| 
         0000007d 7E00 
TMS320C2000 Assembler PC v22.6.2 Wed Dec 10 14:45:02 2025

Copyright (c) 1996-2018 Texas Instruments Incorporated
dual_axis_servo_drive_hal.asm                                        PAGE  137

    6879 0000007e 18A8          AND       AH,#65048             ; [CPU_ALU] |499| 
         0000007f FE18 
    6880 00000080 500B          OR        AL,#11                ; [CPU_ALU] |499| 
    6881 00000081 5153          OR        AH,#83                ; [CPU_ALU] |499| 
    6882 00000082 BDA9          MOV32     *(0:0x7412),ACC       ; [CPU_FPU] |499| 
         00000083 7412 
    6883                      .dwpsn  file "C:/ti/C2000Ware_MotorControl_SDK_5_04_00_00/c2000ware/driverlib/f28002x/driverlib/adc.h
    6884 00000084 F5A9          MOV       AL,*(0:0x7448)        ; [CPU_ALU] |1171| 
         00000085 7448 
    6885 00000086 CCA9          AND       AL,AL,#0xfff0         ; [CPU_ALU] |1171| 
         00000087 FFF0 
    6886 00000088 5001          ORB       AL,#0x01              ; [CPU_ALU] |1171| 
    6887 00000089 F4A9          MOV       *(0:0x7448),AL        ; [CPU_ALU] |1171| 
         0000008a 7448 
    6888                      .dwpsn  file "C:/ti/C2000Ware_MotorControl_SDK_5_04_00_00/c2000ware/driverlib/f28002x/driverlib/adc.h
    6889 0000008b F5A9          MOV       AL,*(0:0x744a)        ; [CPU_ALU] |1565| 
         0000008c 744A 
    6890 0000008d 18A9          AND       AL,#0xfc00            ; [CPU_ALU] |1565| 
         0000008e FC00 
    6891 0000008f F4A9          MOV       *(0:0x744a),AL        ; [CPU_ALU] |1565| 
         00000090 744A 
    6892                      .dwpsn  file "C:/ti/C2000Ware_MotorControl_SDK_5_04_00_00/c2000ware/driverlib/f28002x/driverlib/adc.h
    6893 00000091 BFA9          MOV32     ACC,*(0:0x7416)       ; [CPU_FPU] |499| 
         00000092 7416 
    6894 00000093 18A9          AND       AL,#65024             ; [CPU_ALU] |499| 
         00000094 FE00 
    6895 00000095 18A8          AND       AH,#65308             ; [CPU_ALU] |499| 
         00000096 FF1C 
    6896 00000097 1AA9          OR        AL,#32779             ; [CPU_ALU] |499| 
         00000098 800B 
    6897 00000099 1AA8          OR        AH,#276               ; [CPU_ALU] |499| 
         0000009a 0114 
    6898 0000009b BDA9          MOV32     *(0:0x7416),ACC       ; [CPU_FPU] |499| 
         0000009c 7416 
    6899                      .dwpsn  file "C:/ti/C2000Ware_MotorControl_SDK_5_04_00_00/c2000ware/driverlib/f28002x/driverlib/adc.h
    6900 0000009d F5A9          MOV       AL,*(0:0x7458)        ; [CPU_ALU] |1171| 
         0000009e 7458 
    6901 0000009f CCA9          AND       AL,AL,#0xfff0         ; [CPU_ALU] |1171| 
         000000a0 FFF0 
    6902 000000a1 5003          ORB       AL,#0x03              ; [CPU_ALU] |1171| 
    6903 000000a2 F4A9          MOV       *(0:0x7458),AL        ; [CPU_ALU] |1171| 
         000000a3 7458 
    6904                      .dwpsn  file "C:/ti/C2000Ware_MotorControl_SDK_5_04_00_00/c2000ware/driverlib/f28002x/driverlib/adc.h
    6905 000000a4 F5A9          MOV       AL,*(0:0x745a)        ; [CPU_ALU] |1565| 
         000000a5 745A 
    6906 000000a6 18A9          AND       AL,#0xfc00            ; [CPU_ALU] |1565| 
         000000a7 FC00 
    6907 000000a8 F4A9          MOV       *(0:0x745a),AL        ; [CPU_ALU] |1565| 
         000000a9 745A 
    6908                      .dwpsn  file "C:/ti/C2000Ware_MotorControl_SDK_5_04_00_00/c2000ware/driverlib/f28002x/driverlib/adc.h
    6909 000000aa BFA9          MOV32     ACC,*(0:0x7414)       ; [CPU_FPU] |499| 
         000000ab 7414 
    6910 000000ac 18A9          AND       AL,#32256             ; [CPU_ALU] |499| 
         000000ad 7E00 
    6911 000000ae 18A8          AND       AH,#65308             ; [CPU_ALU] |499| 
TMS320C2000 Assembler PC v22.6.2 Wed Dec 10 14:45:02 2025

Copyright (c) 1996-2018 Texas Instruments Incorporated
dual_axis_servo_drive_hal.asm                                        PAGE  138

         000000af FF1C 
    6912 000000b0 500B          OR        AL,#11                ; [CPU_ALU] |499| 
    6913 000000b1 1AA8          OR        AH,#277               ; [CPU_ALU] |499| 
         000000b2 0115 
    6914 000000b3 BDA9          MOV32     *(0:0x7414),ACC       ; [CPU_FPU] |499| 
         000000b4 7414 
    6915                      .dwpsn  file "C:/ti/C2000Ware_MotorControl_SDK_5_04_00_00/c2000ware/driverlib/f28002x/driverlib/adc.h
    6916 000000b5 F5A9          MOV       AL,*(0:0x7450)        ; [CPU_ALU] |1171| 
         000000b6 7450 
    6917 000000b7 CCA9          AND       AL,AL,#0xfff0         ; [CPU_ALU] |1171| 
         000000b8 FFF0 
    6918 000000b9 5002          ORB       AL,#0x02              ; [CPU_ALU] |1171| 
    6919 000000ba F4A9          MOV       *(0:0x7450),AL        ; [CPU_ALU] |1171| 
         000000bb 7450 
    6920                      .dwpsn  file "C:/ti/C2000Ware_MotorControl_SDK_5_04_00_00/c2000ware/driverlib/f28002x/driverlib/adc.h
    6921 000000bc F5A9          MOV       AL,*(0:0x7452)        ; [CPU_ALU] |1565| 
         000000bd 7452 
    6922 000000be 18A9          AND       AL,#0xfc00            ; [CPU_ALU] |1565| 
         000000bf FC00 
    6923 000000c0 F4A9          MOV       *(0:0x7452),AL        ; [CPU_ALU] |1565| 
         000000c1 7452 
    6924                      .dwpsn  file "C:/ti/C2000Ware_MotorControl_SDK_5_04_00_00/c2000ware/driverlib/f28002x/driverlib/adc.h
    6925 000000c2 BFA9          MOV32     ACC,*(0:0x7514)       ; [CPU_FPU] |499| 
         000000c3 7514 
    6926 000000c4 18A9          AND       AL,#65024             ; [CPU_ALU] |499| 
         000000c5 FE00 
    6927 000000c6 18A8          AND       AH,#65311             ; [CPU_ALU] |499| 
         000000c7 FF1F 
    6928 000000c8 1AA9          OR        AL,#32779             ; [CPU_ALU] |499| 
         000000c9 800B 
    6929 000000ca 1AA8          OR        AH,#279               ; [CPU_ALU] |499| 
         000000cb 0117 
    6930 000000cc BDA9          MOV32     *(0:0x7514),ACC       ; [CPU_FPU] |499| 
         000000cd 7514 
    6931                      .dwpsn  file "C:/ti/C2000Ware_MotorControl_SDK_5_04_00_00/c2000ware/driverlib/f28002x/driverlib/adc.h
    6932 000000ce F5A9          MOV       AL,*(0:0x7550)        ; [CPU_ALU] |1171| 
         000000cf 7550 
    6933 000000d0 CCA9          AND       AL,AL,#0xfff0         ; [CPU_ALU] |1171| 
         000000d1 FFF0 
    6934 000000d2 5002          ORB       AL,#0x02              ; [CPU_ALU] |1171| 
    6935 000000d3 F4A9          MOV       *(0:0x7550),AL        ; [CPU_ALU] |1171| 
         000000d4 7550 
    6936                      .dwpsn  file "C:/ti/C2000Ware_MotorControl_SDK_5_04_00_00/c2000ware/driverlib/f28002x/driverlib/adc.h
    6937 000000d5 F5A9          MOV       AL,*(0:0x7552)        ; [CPU_ALU] |1565| 
         000000d6 7552 
    6938 000000d7 18A9          AND       AL,#0xfc00            ; [CPU_ALU] |1565| 
         000000d8 FC00 
    6939 000000d9 F4A9          MOV       *(0:0x7552),AL        ; [CPU_ALU] |1565| 
         000000da 7552 
    6940                      .dwpsn  file "C:/ti/C2000Ware_MotorControl_SDK_5_04_00_00/c2000ware/driverlib/f28002x/driverlib/adc.h
    6941 000000db BFA9          MOV32     ACC,*(0:0x7516)       ; [CPU_FPU] |499| 
         000000dc 7516 
    6942 000000dd 18A9          AND       AL,#32256             ; [CPU_ALU] |499| 
         000000de 7E00 
    6943 000000df 18A8          AND       AH,#65304             ; [CPU_ALU] |499| 
TMS320C2000 Assembler PC v22.6.2 Wed Dec 10 14:45:02 2025

Copyright (c) 1996-2018 Texas Instruments Incorporated
dual_axis_servo_drive_hal.asm                                        PAGE  139

         000000e0 FF18 
    6944 000000e1 500B          OR        AL,#11                ; [CPU_ALU] |499| 
    6945 000000e2 1AA8          OR        AH,#273               ; [CPU_ALU] |499| 
         000000e3 0111 
    6946 000000e4 BDA9          MOV32     *(0:0x7516),ACC       ; [CPU_FPU] |499| 
         000000e5 7516 
    6947                      .dwpsn  file "C:/ti/C2000Ware_MotorControl_SDK_5_04_00_00/c2000ware/driverlib/f28002x/driverlib/adc.h
    6948 000000e6 F5A9          MOV       AL,*(0:0x7558)        ; [CPU_ALU] |1171| 
         000000e7 7558 
    6949 000000e8 CCA9          AND       AL,AL,#0xfff0         ; [CPU_ALU] |1171| 
         000000e9 FFF0 
    6950 000000ea 5003          ORB       AL,#0x03              ; [CPU_ALU] |1171| 
    6951 000000eb F4A9          MOV       *(0:0x7558),AL        ; [CPU_ALU] |1171| 
         000000ec 7558 
    6952                      .dwpsn  file "C:/ti/C2000Ware_MotorControl_SDK_5_04_00_00/c2000ware/driverlib/f28002x/driverlib/adc.h
    6953 000000ed F5A9          MOV       AL,*(0:0x755a)        ; [CPU_ALU] |1565| 
         000000ee 755A 
    6954 000000ef 18A9          AND       AL,#0xfc00            ; [CPU_ALU] |1565| 
         000000f0 FC00 
    6955 000000f1 F4A9          MOV       *(0:0x755a),AL        ; [CPU_ALU] |1565| 
         000000f2 755A 
    6956                      .dwpsn  file "C:/ti/C2000Ware_MotorControl_SDK_5_04_00_00/c2000ware/driverlib/f28002x/driverlib/adc.h
    6957 000000f3 761A          EDIS      ; [CPU_ALU] |1568| 
    6958 000000f4 8BBE          MOVL      XAR1,*--SP            ; [CPU_ALU] 
    6959                      .dwcfi  cfa_offset, -2
    6960                      .dwcfi  restore_reg, 7
    6961              $C$DW$465       .dwtag  DW_TAG_TI_branch
    6962                      .dwattr $C$DW$465, DW_AT_low_pc(0x00)
    6963                      .dwattr $C$DW$465, DW_AT_TI_return
    6964              
    6965 000000f5 0006          LRETR     ; [CPU_ALU] 
    6966                      ; return occurs ; [] 
    6967                      .dwattr $C$DW$453, DW_AT_TI_end_file("../sources/dual_axis_servo_drive_hal.c")
    6968                      .dwattr $C$DW$453, DW_AT_TI_end_line(0x1e8)
    6969                      .dwattr $C$DW$453, DW_AT_TI_end_column(0x01)
    6970                      .dwendentry
    6971                      .dwendtag $C$DW$453
    6972              
    6973 00000000               .sect   ".text:HAL_setParams"
    6974                      .clink
    6975                      .global ||HAL_setParams||
    6976              
    6977              $C$DW$466       .dwtag  DW_TAG_subprogram
    6978                      .dwattr $C$DW$466, DW_AT_name("HAL_setParams")
    6979                      .dwattr $C$DW$466, DW_AT_low_pc(||HAL_setParams||)
    6980                      .dwattr $C$DW$466, DW_AT_high_pc(0x00)
    6981                      .dwattr $C$DW$466, DW_AT_linkage_name("HAL_setParams")
    6982                      .dwattr $C$DW$466, DW_AT_external
    6983                      .dwattr $C$DW$466, DW_AT_decl_file("../sources/dual_axis_servo_drive_hal.c")
    6984                      .dwattr $C$DW$466, DW_AT_decl_line(0x11f)
    6985                      .dwattr $C$DW$466, DW_AT_decl_column(0x06)
    6986                      .dwattr $C$DW$466, DW_AT_TI_max_frame_size(-6)
    6987                      .dwpsn  file "../sources/dual_axis_servo_drive_hal.c",line 288,column 1,is_stmt,address ||HAL_setPara
    6988              
    6989                      .dwfde $C$DW$CIE, ||HAL_setParams||
TMS320C2000 Assembler PC v22.6.2 Wed Dec 10 14:45:02 2025

Copyright (c) 1996-2018 Texas Instruments Incorporated
dual_axis_servo_drive_hal.asm                                        PAGE  140

    6990              $C$DW$467       .dwtag  DW_TAG_formal_parameter
    6991                      .dwattr $C$DW$467, DW_AT_name("handle")
    6992                      .dwattr $C$DW$467, DW_AT_type(*$C$DW$T$152)
    6993                      .dwattr $C$DW$467, DW_AT_location[DW_OP_reg12]
    6994              
    6995              
    6996              ;***************************************************************
    6997              ;* FNAME: HAL_setParams                 FR SIZE:   4           *
    6998              ;*                                                             *
    6999              ;* FUNCTION ENVIRONMENT                                        *
    7000              ;*                                                             *
    7001              ;* FUNCTION PROPERTIES                                         *
    7002              ;*                            2 Parameter,  0 Auto,  2 SOE     *
    7003              ;***************************************************************
    7004              
    7005              ||HAL_setParams||:
    7006              ;* AR1   assigned to handle
    7007              $C$DW$468       .dwtag  DW_TAG_variable
    7008                      .dwattr $C$DW$468, DW_AT_name("handle")
    7009                      .dwattr $C$DW$468, DW_AT_type(*$C$DW$T$153)
    7010                      .dwattr $C$DW$468, DW_AT_location[DW_OP_reg6]
    7011              
    7012                      .dwcfi  cfa_offset, -2
    7013                      .dwcfi  save_reg_to_mem, 26, 0
    7014 00000000 B2BD          MOVL      *SP++,XAR1            ; [CPU_ALU] 
    7015                      .dwcfi  save_reg_to_mem, 7, 2
    7016                      .dwcfi  cfa_offset, -4
    7017 00000001 FE02          ADDB      SP,#2                 ; [CPU_ARAU] 
    7018                      .dwcfi  cfa_offset, -6
    7019 00000002 8BA4          MOVL      XAR1,XAR4             ; [CPU_ALU] |288| 
    7020                      .dwpsn  file "C:\ti\C2000Ware_MotorControl_SDK_5_04_00_00\c2000ware\driverlib\f28002x\driverlib\sysct
    7021 00000003 7622          EALLOW    ; [CPU_ALU] |1118| 
    7022                      .dwpsn  file "C:\ti\C2000Ware_MotorControl_SDK_5_04_00_00\c2000ware\driverlib\f28002x\driverlib\sysct
    7023 00000004 8F05          MOVL      XAR4,#381484          ; [CPU_ARAU] |1119| 
         00000005 D22C 
    7024 00000006 06C4          MOVL      ACC,*+XAR4[0]         ; [CPU_ALU] |1119| 
    7025 00000007 18A9          AND       AL,#65528             ; [CPU_ALU] |1119| 
         00000008 FFF8 
    7026 00000009 5001          ORB       AL,#0x01              ; [CPU_ALU] |1119| 
    7027 0000000a 1EC4          MOVL      *+XAR4[0],ACC         ; [CPU_ALU] |1119| 
    7028                      .dwpsn  file "C:\ti\C2000Ware_MotorControl_SDK_5_04_00_00\c2000ware\driverlib\f28002x\driverlib\sysct
    7029 0000000b 761A          EDIS      ; [CPU_ALU] |1122| 
    7030                      .dwpsn  file "../sources/dual_axis_servo_drive_hal.c",line 300,column 5,is_stmt,isa 0
    7031              $C$DW$469       .dwtag  DW_TAG_TI_branch
    7032                      .dwattr $C$DW$469, DW_AT_low_pc(0x00)
    7033                      .dwattr $C$DW$469, DW_AT_name("Device_initGPIO")
    7034                      .dwattr $C$DW$469, DW_AT_TI_call
    7035              
    7036 0000000c 7640!         LCR       #||Device_initGPIO||  ; [CPU_ALU] |300| 
         0000000d 0000 
    7037                      ; call occurs [#||Device_initGPIO||] ; [] |300| 
    7038                      .dwpsn  file "../sources/dual_axis_servo_drive_hal.c",line 307,column 5,is_stmt,isa 0
    7039              $C$DW$470       .dwtag  DW_TAG_TI_branch
    7040                      .dwattr $C$DW$470, DW_AT_low_pc(0x00)
    7041                      .dwattr $C$DW$470, DW_AT_name("Interrupt_initModule")
TMS320C2000 Assembler PC v22.6.2 Wed Dec 10 14:45:02 2025

Copyright (c) 1996-2018 Texas Instruments Incorporated
dual_axis_servo_drive_hal.asm                                        PAGE  141

    7042                      .dwattr $C$DW$470, DW_AT_TI_call
    7043              
    7044 0000000e 7640!         LCR       #||Interrupt_initModule|| ; [CPU_ALU] |307| 
         0000000f 0000 
    7045                      ; call occurs [#||Interrupt_initModule||] ; [] |307| 
    7046                      .dwpsn  file "../sources/dual_axis_servo_drive_hal.c",line 317,column 5,is_stmt,isa 0
    7047              $C$DW$471       .dwtag  DW_TAG_TI_branch
    7048                      .dwattr $C$DW$471, DW_AT_low_pc(0x00)
    7049                      .dwattr $C$DW$471, DW_AT_name("Interrupt_initVectorTable")
    7050                      .dwattr $C$DW$471, DW_AT_TI_call
    7051              
    7052 00000010 7640!         LCR       #||Interrupt_initVectorTable|| ; [CPU_ALU] |317| 
         00000011 0000 
    7053                      ; call occurs [#||Interrupt_initVectorTable||] ; [] |317| 
    7054                      .dwpsn  file "../sources/dual_axis_servo_drive_hal.c",line 322,column 5,is_stmt,isa 0
    7055 00000012 8F00          MOVL      XAR4,#5000            ; [CPU_ARAU] |322| 
         00000013 1388 
    7056 00000014 A842          MOVL      *-SP[2],XAR4          ; [CPU_ALU] |322| 
    7057 00000015 06C1          MOVL      ACC,*+XAR1[0]         ; [CPU_ALU] |322| 
    7058              $C$DW$472       .dwtag  DW_TAG_TI_branch
    7059                      .dwattr $C$DW$472, DW_AT_low_pc(0x00)
    7060                      .dwattr $C$DW$472, DW_AT_name("HAL_setupCpuTimer")
    7061                      .dwattr $C$DW$472, DW_AT_TI_call
    7062              
    7063 00000016 7640!         LCR       #||HAL_setupCpuTimer|| ; [CPU_ALU] |322| 
         00000017 0000 
    7064                      ; call occurs [#||HAL_setupCpuTimer||] ; [] |322| 
    7065                      .dwpsn  file "../sources/dual_axis_servo_drive_hal.c",line 323,column 5,is_stmt,isa 0
    7066 00000018 8F00          MOVL      XAR4,#10000           ; [CPU_ARAU] |323| 
         00000019 2710 
    7067 0000001a A842          MOVL      *-SP[2],XAR4          ; [CPU_ALU] |323| 
    7068 0000001b 06D1          MOVL      ACC,*+XAR1[2]         ; [CPU_ALU] |323| 
    7069              $C$DW$473       .dwtag  DW_TAG_TI_branch
    7070                      .dwattr $C$DW$473, DW_AT_low_pc(0x00)
    7071                      .dwattr $C$DW$473, DW_AT_name("HAL_setupCpuTimer")
    7072                      .dwattr $C$DW$473, DW_AT_TI_call
    7073              
    7074 0000001c 7640!         LCR       #||HAL_setupCpuTimer|| ; [CPU_ALU] |323| 
         0000001d 0000 
    7075                      ; call occurs [#||HAL_setupCpuTimer||] ; [] |323| 
    7076                      .dwpsn  file "../sources/dual_axis_servo_drive_hal.c",line 324,column 5,is_stmt,isa 0
    7077 0000001e 8F00          MOVL      XAR4,#15000           ; [CPU_ARAU] |324| 
         0000001f 3A98 
    7078 00000020 A842          MOVL      *-SP[2],XAR4          ; [CPU_ALU] |324| 
    7079 00000021 06E1          MOVL      ACC,*+XAR1[4]         ; [CPU_ALU] |324| 
    7080              $C$DW$474       .dwtag  DW_TAG_TI_branch
    7081                      .dwattr $C$DW$474, DW_AT_low_pc(0x00)
    7082                      .dwattr $C$DW$474, DW_AT_name("HAL_setupCpuTimer")
    7083                      .dwattr $C$DW$474, DW_AT_TI_call
    7084              
    7085 00000022 7640!         LCR       #||HAL_setupCpuTimer|| ; [CPU_ALU] |324| 
         00000023 0000 
    7086                      ; call occurs [#||HAL_setupCpuTimer||] ; [] |324| 
    7087                      .dwpsn  file "../sources/dual_axis_servo_drive_hal.c",line 329,column 5,is_stmt,isa 0
    7088              $C$DW$475       .dwtag  DW_TAG_TI_branch
TMS320C2000 Assembler PC v22.6.2 Wed Dec 10 14:45:02 2025

Copyright (c) 1996-2018 Texas Instruments Incorporated
dual_axis_servo_drive_hal.asm                                        PAGE  142

    7089                      .dwattr $C$DW$475, DW_AT_low_pc(0x00)
    7090                      .dwattr $C$DW$475, DW_AT_name("HAL_setupGPIOs")
    7091                      .dwattr $C$DW$475, DW_AT_TI_call
    7092              
    7093 00000024 7640!         LCR       #||HAL_setupGPIOs||   ; [CPU_ALU] |329| 
         00000025 0000 
    7094                      ; call occurs [#||HAL_setupGPIOs||] ; [] |329| 
    7095                      .dwpsn  file "../sources/dual_axis_servo_drive_hal.c",line 334,column 5,is_stmt,isa 0
    7096 00000026 8AA1          MOVL      XAR4,XAR1             ; [CPU_ALU] |334| 
    7097              $C$DW$476       .dwtag  DW_TAG_TI_branch
    7098                      .dwattr $C$DW$476, DW_AT_low_pc(0x00)
    7099                      .dwattr $C$DW$476, DW_AT_name("HAL_setupADCs")
    7100                      .dwattr $C$DW$476, DW_AT_TI_call
    7101              
    7102 00000027 7640!         LCR       #||HAL_setupADCs||    ; [CPU_ALU] |334| 
         00000028 0000 
    7103                      ; call occurs [#||HAL_setupADCs||] ; [] |334| 
    7104 00000029 FE82          SUBB      SP,#2                 ; [CPU_ARAU] 
    7105                      .dwcfi  cfa_offset, -4
    7106 0000002a 8BBE          MOVL      XAR1,*--SP            ; [CPU_ALU] 
    7107                      .dwcfi  cfa_offset, -2
    7108                      .dwcfi  restore_reg, 7
    7109              $C$DW$477       .dwtag  DW_TAG_TI_branch
    7110                      .dwattr $C$DW$477, DW_AT_low_pc(0x00)
    7111                      .dwattr $C$DW$477, DW_AT_TI_return
    7112              
    7113 0000002b 0006          LRETR     ; [CPU_ALU] 
    7114                      ; return occurs ; [] 
    7115                      .dwattr $C$DW$466, DW_AT_TI_end_file("../sources/dual_axis_servo_drive_hal.c")
    7116                      .dwattr $C$DW$466, DW_AT_TI_end_line(0x153)
    7117                      .dwattr $C$DW$466, DW_AT_TI_end_column(0x01)
    7118                      .dwendentry
    7119                      .dwendtag $C$DW$466
    7120              
    7121 00000000               .sect   ".text:HAL_setMotorParams"
    7122                      .clink
    7123                      .global ||HAL_setMotorParams||
    7124              
    7125              $C$DW$478       .dwtag  DW_TAG_subprogram
    7126                      .dwattr $C$DW$478, DW_AT_name("HAL_setMotorParams")
    7127                      .dwattr $C$DW$478, DW_AT_low_pc(||HAL_setMotorParams||)
    7128                      .dwattr $C$DW$478, DW_AT_high_pc(0x00)
    7129                      .dwattr $C$DW$478, DW_AT_linkage_name("HAL_setMotorParams")
    7130                      .dwattr $C$DW$478, DW_AT_external
    7131                      .dwattr $C$DW$478, DW_AT_decl_file("../sources/dual_axis_servo_drive_hal.c")
    7132                      .dwattr $C$DW$478, DW_AT_decl_line(0x107)
    7133                      .dwattr $C$DW$478, DW_AT_decl_column(0x06)
    7134                      .dwattr $C$DW$478, DW_AT_TI_max_frame_size(-4)
    7135                      .dwpsn  file "../sources/dual_axis_servo_drive_hal.c",line 264,column 1,is_stmt,address ||HAL_setMoto
    7136              
    7137                      .dwfde $C$DW$CIE, ||HAL_setMotorParams||
    7138              $C$DW$479       .dwtag  DW_TAG_formal_parameter
    7139                      .dwattr $C$DW$479, DW_AT_name("handle")
    7140                      .dwattr $C$DW$479, DW_AT_type(*$C$DW$T$142)
    7141                      .dwattr $C$DW$479, DW_AT_location[DW_OP_reg12]
TMS320C2000 Assembler PC v22.6.2 Wed Dec 10 14:45:02 2025

Copyright (c) 1996-2018 Texas Instruments Incorporated
dual_axis_servo_drive_hal.asm                                        PAGE  143

    7142              
    7143              
    7144              ;***************************************************************
    7145              ;* FNAME: HAL_setMotorParams            FR SIZE:   2           *
    7146              ;*                                                             *
    7147              ;* FUNCTION ENVIRONMENT                                        *
    7148              ;*                                                             *
    7149              ;* FUNCTION PROPERTIES                                         *
    7150              ;*                            0 Parameter,  0 Auto,  2 SOE     *
    7151              ;***************************************************************
    7152              
    7153              ||HAL_setMotorParams||:
    7154              ;* AR1   assigned to handle
    7155              $C$DW$480       .dwtag  DW_TAG_variable
    7156                      .dwattr $C$DW$480, DW_AT_name("handle")
    7157                      .dwattr $C$DW$480, DW_AT_type(*$C$DW$T$143)
    7158                      .dwattr $C$DW$480, DW_AT_location[DW_OP_reg6]
    7159              
    7160                      .dwcfi  cfa_offset, -2
    7161                      .dwcfi  save_reg_to_mem, 26, 0
    7162 00000000 B2BD          MOVL      *SP++,XAR1            ; [CPU_ALU] 
    7163                      .dwcfi  save_reg_to_mem, 7, 2
    7164                      .dwcfi  cfa_offset, -4
    7165 00000001 8BA4          MOVL      XAR1,XAR4             ; [CPU_ALU] |264| 
    7166                      .dwpsn  file "../sources/dual_axis_servo_drive_hal.c",line 268,column 5,is_stmt,isa 0
    7167              $C$DW$481       .dwtag  DW_TAG_TI_branch
    7168                      .dwattr $C$DW$481, DW_AT_low_pc(0x00)
    7169                      .dwattr $C$DW$481, DW_AT_name("HAL_setupMotorPWMs")
    7170                      .dwattr $C$DW$481, DW_AT_TI_call
    7171              
    7172 00000002 7640!         LCR       #||HAL_setupMotorPWMs|| ; [CPU_ALU] |268| 
         00000003 0000 
    7173                      ; call occurs [#||HAL_setupMotorPWMs||] ; [] |268| 
    7174                      .dwpsn  file "../sources/dual_axis_servo_drive_hal.c",line 273,column 5,is_stmt,isa 0
    7175 00000004 8AA1          MOVL      XAR4,XAR1             ; [CPU_ALU] |273| 
    7176              $C$DW$482       .dwtag  DW_TAG_TI_branch
    7177                      .dwattr $C$DW$482, DW_AT_low_pc(0x00)
    7178                      .dwattr $C$DW$482, DW_AT_name("HAL_setupCMPSS")
    7179                      .dwattr $C$DW$482, DW_AT_TI_call
    7180              
    7181 00000005 7640!         LCR       #||HAL_setupCMPSS||   ; [CPU_ALU] |273| 
         00000006 0000 
    7182                      ; call occurs [#||HAL_setupCMPSS||] ; [] |273| 
    7183                      .dwpsn  file "../sources/dual_axis_servo_drive_hal.c",line 278,column 5,is_stmt,isa 0
    7184 00000007 8AA1          MOVL      XAR4,XAR1             ; [CPU_ALU] |278| 
    7185              $C$DW$483       .dwtag  DW_TAG_TI_branch
    7186                      .dwattr $C$DW$483, DW_AT_low_pc(0x00)
    7187                      .dwattr $C$DW$483, DW_AT_name("HAL_setupQEP")
    7188                      .dwattr $C$DW$483, DW_AT_TI_call
    7189              
    7190 00000008 7640!         LCR       #||HAL_setupQEP||     ; [CPU_ALU] |278| 
         00000009 0000 
    7191                      ; call occurs [#||HAL_setupQEP||] ; [] |278| 
    7192 0000000a 8BBE          MOVL      XAR1,*--SP            ; [CPU_ALU] 
    7193                      .dwcfi  cfa_offset, -2
TMS320C2000 Assembler PC v22.6.2 Wed Dec 10 14:45:02 2025

Copyright (c) 1996-2018 Texas Instruments Incorporated
dual_axis_servo_drive_hal.asm                                        PAGE  144

    7194                      .dwcfi  restore_reg, 7
    7195              $C$DW$484       .dwtag  DW_TAG_TI_branch
    7196                      .dwattr $C$DW$484, DW_AT_low_pc(0x00)
    7197                      .dwattr $C$DW$484, DW_AT_TI_return
    7198              
    7199 0000000b 0006          LRETR     ; [CPU_ALU] 
    7200                      ; return occurs ; [] 
    7201                      .dwattr $C$DW$478, DW_AT_TI_end_file("../sources/dual_axis_servo_drive_hal.c")
    7202                      .dwattr $C$DW$478, DW_AT_TI_end_line(0x119)
    7203                      .dwattr $C$DW$478, DW_AT_TI_end_column(0x01)
    7204                      .dwendentry
    7205                      .dwendtag $C$DW$478
    7206              
    7207 00000000               .sect   ".text:HAL_init"
    7208                      .clink
    7209                      .global ||HAL_init||
    7210              
    7211              $C$DW$485       .dwtag  DW_TAG_subprogram
    7212                      .dwattr $C$DW$485, DW_AT_name("HAL_init")
    7213                      .dwattr $C$DW$485, DW_AT_low_pc(||HAL_init||)
    7214                      .dwattr $C$DW$485, DW_AT_high_pc(0x00)
    7215                      .dwattr $C$DW$485, DW_AT_linkage_name("HAL_init")
    7216                      .dwattr $C$DW$485, DW_AT_external
    7217                      .dwattr $C$DW$485, DW_AT_type(*$C$DW$T$152)
    7218                      .dwattr $C$DW$485, DW_AT_decl_file("../sources/dual_axis_servo_drive_hal.c")
    7219                      .dwattr $C$DW$485, DW_AT_decl_line(0x7b)
    7220                      .dwattr $C$DW$485, DW_AT_decl_column(0x0c)
    7221                      .dwattr $C$DW$485, DW_AT_TI_max_frame_size(-4)
    7222                      .dwpsn  file "../sources/dual_axis_servo_drive_hal.c",line 124,column 1,is_stmt,address ||HAL_init||,
    7223              
    7224                      .dwfde $C$DW$CIE, ||HAL_init||
    7225              $C$DW$486       .dwtag  DW_TAG_formal_parameter
    7226                      .dwattr $C$DW$486, DW_AT_name("pMemory")
    7227                      .dwattr $C$DW$486, DW_AT_type(*$C$DW$T$3)
    7228                      .dwattr $C$DW$486, DW_AT_location[DW_OP_reg12]
    7229              
    7230              $C$DW$487       .dwtag  DW_TAG_formal_parameter
    7231                      .dwattr $C$DW$487, DW_AT_name("numBytes")
    7232                      .dwattr $C$DW$487, DW_AT_type(*$C$DW$T$144)
    7233                      .dwattr $C$DW$487, DW_AT_location[DW_OP_reg0]
    7234              
    7235              
    7236              ;***************************************************************
    7237              ;* FNAME: HAL_init                      FR SIZE:   2           *
    7238              ;*                                                             *
    7239              ;* FUNCTION ENVIRONMENT                                        *
    7240              ;*                                                             *
    7241              ;* FUNCTION PROPERTIES                                         *
    7242              ;*                            0 Parameter,  0 Auto,  2 SOE     *
    7243              ;***************************************************************
    7244              
    7245              ||HAL_init||:
    7246              ;* AR4   assigned to pMemory
    7247              $C$DW$488       .dwtag  DW_TAG_variable
    7248                      .dwattr $C$DW$488, DW_AT_name("pMemory")
TMS320C2000 Assembler PC v22.6.2 Wed Dec 10 14:45:02 2025

Copyright (c) 1996-2018 Texas Instruments Incorporated
dual_axis_servo_drive_hal.asm                                        PAGE  145

    7249                      .dwattr $C$DW$488, DW_AT_type(*$C$DW$T$157)
    7250                      .dwattr $C$DW$488, DW_AT_location[DW_OP_reg12]
    7251              
    7252              ;* AR6   assigned to numBytes
    7253              $C$DW$489       .dwtag  DW_TAG_variable
    7254                      .dwattr $C$DW$489, DW_AT_name("numBytes")
    7255                      .dwattr $C$DW$489, DW_AT_type(*$C$DW$T$145)
    7256                      .dwattr $C$DW$489, DW_AT_location[DW_OP_reg16]
    7257              
    7258                      .dwcfi  cfa_offset, -2
    7259                      .dwcfi  save_reg_to_mem, 26, 0
    7260 00000000 1EA6          MOVL      XAR6,ACC              ; [CPU_ALU] |124| 
    7261                      .dwpsn  file "../sources/dual_axis_servo_drive_hal.c",line 128,column 5,is_stmt,isa 0
    7262 00000001 0212          MOVB      ACC,#18               ; [CPU_ALU] |128| 
    7263 00000002 B2BD          MOVL      *SP++,XAR1            ; [CPU_ALU] 
    7264                      .dwcfi  save_reg_to_mem, 7, 2
    7265                      .dwcfi  cfa_offset, -4
    7266 00000003 0FA6          CMPL      ACC,XAR6              ; [CPU_ALU] |128| 
    7267 00000004 6903          B         ||$C$L46||,LOS        ; [CPU_ALU] |128| 
    7268                      ; branchcc occurs ; [] |128| 
    7269                      .dwpsn  file "../sources/dual_axis_servo_drive_hal.c",line 130,column 9,is_stmt,isa 0
    7270 00000005 D400          MOVB      XAR4,#0               ; [CPU_ALU] |130| 
    7271 00000006 6F26          B         ||$C$L47||,UNC        ; [CPU_ALU] |130| 
    7272                      ; branch occurs ; [] |130| 
    7273 00000007       ||$C$L46||:    
    7274                      .dwpsn  file "C:\ti\C2000Ware_MotorControl_SDK_5_04_00_00\c2000ware\driverlib\f28002x\driverlib\sysct
    7275 00000007 7622          EALLOW    ; [CPU_ALU] |1742| 
    7276                      .dwpsn  file "C:\ti\C2000Ware_MotorControl_SDK_5_04_00_00\c2000ware\driverlib\f28002x\driverlib\sysct
    7277 00000008 F5A9          MOV       AL,*(0:0x7029)        ; [CPU_ALU] |1747| 
         00000009 7029 
    7278 0000000a 5068          ORB       AL,#0x68              ; [CPU_ALU] |1747| 
    7279 0000000b F4A9          MOV       *(0:0x7029),AL        ; [CPU_ALU] |1747| 
         0000000c 7029 
    7280 0000000d F627   RPT #39 || NOP
         0000000e 7700 
    7281                      .dwpsn  file "C:\ti\C2000Ware_MotorControl_SDK_5_04_00_00\c2000ware\driverlib\f28002x\driverlib\sysct
    7282 0000000f 761A          EDIS      ; [CPU_ALU] |1750| 
    7283                      .dwpsn  file "../sources/dual_axis_servo_drive_hal.c",line 171,column 5,is_stmt,isa 0
    7284 00000010 D00A          MOVB      XAR0,#10              ; [CPU_ALU] |171| 
    7285 00000011 8F40          MOVL      XAR5,#29696           ; [CPU_ARAU] |171| 
         00000012 7400 
    7286                      .dwpsn  file "../sources/dual_axis_servo_drive_hal.c",line 177,column 5,is_stmt,isa 0
    7287 00000013 7680          MOVL      XAR6,#2816            ; [CPU_ARAU] |177| 
         00000014 0B00 
    7288 00000015 D10E          MOVB      XAR1,#14              ; [CPU_ALU] |177| 
    7289                      .dwpsn  file "../sources/dual_axis_servo_drive_hal.c",line 171,column 5,is_stmt,isa 0
    7290 00000016 A094          MOVL      *+XAR4[AR0],XAR5      ; [CPU_ALU] |171| 
    7291                      .dwpsn  file "../sources/dual_axis_servo_drive_hal.c",line 172,column 5,is_stmt,isa 0
    7292 00000017 D00C          MOVB      XAR0,#12              ; [CPU_ALU] |172| 
    7293 00000018 8F40          MOVL      XAR5,#29952           ; [CPU_ARAU] |172| 
         00000019 7500 
    7294                      .dwpsn  file "../sources/dual_axis_servo_drive_hal.c",line 177,column 5,is_stmt,isa 0
    7295 0000001a C29C          MOVL      *+XAR4[AR1],XAR6      ; [CPU_ALU] |177| 
    7296                      .dwpsn  file "../sources/dual_axis_servo_drive_hal.c",line 172,column 5,is_stmt,isa 0
    7297 0000001b A094          MOVL      *+XAR4[AR0],XAR5      ; [CPU_ALU] |172| 
TMS320C2000 Assembler PC v22.6.2 Wed Dec 10 14:45:02 2025

Copyright (c) 1996-2018 Texas Instruments Incorporated
dual_axis_servo_drive_hal.asm                                        PAGE  146

    7298                      .dwpsn  file "../sources/dual_axis_servo_drive_hal.c",line 159,column 5,is_stmt,isa 0
    7299 0000001c 8F40          MOVL      XAR5,#29184           ; [CPU_ARAU] |159| 
         0000001d 7200 
    7300                      .dwpsn  file "../sources/dual_axis_servo_drive_hal.c",line 178,column 5,is_stmt,isa 0
    7301 0000001e D010          MOVB      XAR0,#16              ; [CPU_ALU] |178| 
    7302                      .dwpsn  file "../sources/dual_axis_servo_drive_hal.c",line 159,column 5,is_stmt,isa 0
    7303 0000001f A0F4          MOVL      *+XAR4[6],XAR5        ; [CPU_ALU] |159| 
    7304                      .dwpsn  file "../sources/dual_axis_servo_drive_hal.c",line 164,column 5,is_stmt,isa 0
    7305 00000020 8F40          MOVL      XAR5,#3072            ; [CPU_ARAU] |164| 
         00000021 0C00 
    7306 00000022 A0C4          MOVL      *+XAR4[0],XAR5        ; [CPU_ALU] |164| 
    7307                      .dwpsn  file "../sources/dual_axis_servo_drive_hal.c",line 165,column 5,is_stmt,isa 0
    7308 00000023 8F40          MOVL      XAR5,#3080            ; [CPU_ARAU] |165| 
         00000024 0C08 
    7309 00000025 A0D4          MOVL      *+XAR4[2],XAR5        ; [CPU_ALU] |165| 
    7310                      .dwpsn  file "../sources/dual_axis_servo_drive_hal.c",line 166,column 5,is_stmt,isa 0
    7311 00000026 8F40          MOVL      XAR5,#3088            ; [CPU_ARAU] |166| 
         00000027 0C10 
    7312 00000028 A0E4          MOVL      *+XAR4[4],XAR5        ; [CPU_ALU] |166| 
    7313                      .dwpsn  file "../sources/dual_axis_servo_drive_hal.c",line 178,column 5,is_stmt,isa 0
    7314 00000029 8F40          MOVL      XAR5,#2880            ; [CPU_ARAU] |178| 
         0000002a 0B40 
    7315 0000002b A094          MOVL      *+XAR4[AR0],XAR5      ; [CPU_ALU] |178| 
    7316 0000002c       ||$C$L47||:    
    7317 0000002c 8BBE          MOVL      XAR1,*--SP            ; [CPU_ALU] 
    7318                      .dwcfi  cfa_offset, -2
    7319                      .dwcfi  restore_reg, 7
    7320 0000002d FF69          SPM       #0                    ; [CPU_ALU] 
    7321              $C$DW$490       .dwtag  DW_TAG_TI_branch
    7322                      .dwattr $C$DW$490, DW_AT_low_pc(0x00)
    7323                      .dwattr $C$DW$490, DW_AT_TI_return
    7324              
    7325 0000002e 0006          LRETR     ; [CPU_ALU] 
    7326                      ; return occurs ; [] 
    7327                      .dwattr $C$DW$485, DW_AT_TI_end_file("../sources/dual_axis_servo_drive_hal.c")
    7328                      .dwattr $C$DW$485, DW_AT_TI_end_line(0xb5)
    7329                      .dwattr $C$DW$485, DW_AT_TI_end_column(0x01)
    7330                      .dwendentry
    7331                      .dwendtag $C$DW$485
    7332              
    7333 00000000               .sect   ".text:HAL_enableInterrupts"
    7334                      .clink
    7335                      .global ||HAL_enableInterrupts||
    7336              
    7337              $C$DW$491       .dwtag  DW_TAG_subprogram
    7338                      .dwattr $C$DW$491, DW_AT_name("HAL_enableInterrupts")
    7339                      .dwattr $C$DW$491, DW_AT_low_pc(||HAL_enableInterrupts||)
    7340                      .dwattr $C$DW$491, DW_AT_high_pc(0x00)
    7341                      .dwattr $C$DW$491, DW_AT_linkage_name("HAL_enableInterrupts")
    7342                      .dwattr $C$DW$491, DW_AT_external
    7343                      .dwattr $C$DW$491, DW_AT_decl_file("../sources/dual_axis_servo_drive_hal.c")
    7344                      .dwattr $C$DW$491, DW_AT_decl_line(0x61)
    7345                      .dwattr $C$DW$491, DW_AT_decl_column(0x06)
    7346                      .dwattr $C$DW$491, DW_AT_TI_max_frame_size(-2)
    7347                      .dwpsn  file "../sources/dual_axis_servo_drive_hal.c",line 98,column 1,is_stmt,address ||HAL_enableIn
TMS320C2000 Assembler PC v22.6.2 Wed Dec 10 14:45:02 2025

Copyright (c) 1996-2018 Texas Instruments Incorporated
dual_axis_servo_drive_hal.asm                                        PAGE  147

    7348              
    7349                      .dwfde $C$DW$CIE, ||HAL_enableInterrupts||
    7350              $C$DW$492       .dwtag  DW_TAG_formal_parameter
    7351                      .dwattr $C$DW$492, DW_AT_name("handle")
    7352                      .dwattr $C$DW$492, DW_AT_type(*$C$DW$T$142)
    7353                      .dwattr $C$DW$492, DW_AT_location[DW_OP_reg12]
    7354              
    7355              
    7356              ;***************************************************************
    7357              ;* FNAME: HAL_enableInterrupts          FR SIZE:   0           *
    7358              ;*                                                             *
    7359              ;* FUNCTION ENVIRONMENT                                        *
    7360              ;*                                                             *
    7361              ;* FUNCTION PROPERTIES                                         *
    7362              ;*                            0 Parameter,  0 Auto,  0 SOE     *
    7363              ;***************************************************************
    7364              
    7365              ||HAL_enableInterrupts||:
    7366              ;* AL    assigned to $O$K7
    7367              ;* AR4   assigned to handle
    7368              $C$DW$493       .dwtag  DW_TAG_variable
    7369                      .dwattr $C$DW$493, DW_AT_name("handle")
    7370                      .dwattr $C$DW$493, DW_AT_type(*$C$DW$T$143)
    7371                      .dwattr $C$DW$493, DW_AT_location[DW_OP_reg12]
    7372              
    7373                      .dwcfi  cfa_offset, -2
    7374                      .dwcfi  save_reg_to_mem, 26, 0
    7375                      .dwpsn  file "C:/ti/C2000Ware_MotorControl_SDK_5_04_00_00/c2000ware/driverlib/f28002x/driverlib/epwm.
    7376 00000000 02AA          MOVB      ACC,#170              ; [CPU_ALU] |5070| 
    7377 00000001 07C4          ADDL      ACC,*+XAR4[0]         ; [CPU_ALU] |5070| 
    7378 00000002 1EA6          MOVL      XAR6,ACC              ; [CPU_ALU] |5070| 
    7379                      .dwpsn  file "../sources/dual_axis_servo_drive_hal.c",line 104,column 5,is_stmt,isa 0
    7380 00000003 8F40!         MOVL      XAR5,#||halMtr||      ; [CPU_ARAU] |104| 
         00000004 0000 
    7381 00000005 A0A9          MOVL      ACC,XAR5              ; [CPU_ALU] |104| 
    7382                      .dwpsn  file "C:/ti/C2000Ware_MotorControl_SDK_5_04_00_00/c2000ware/driverlib/f28002x/driverlib/epwm.
    7383 00000006 1AC6          OR        *+XAR6[0],#0x0001     ; [CPU_ALU] |5070| 
         00000007 0001 
    7384                      .dwpsn  file "../sources/dual_axis_servo_drive_hal.c",line 104,column 5,is_stmt,isa 0
    7385 00000008 0FA4          CMPL      ACC,XAR4              ; [CPU_ALU] |104| 
    7386 00000009 6107          B         ||$C$L48||,EQ         ; [CPU_ALU] |104| 
    7387                      ; branchcc occurs ; [] |104| 
    7388                      .dwpsn  file "../sources/dual_axis_servo_drive_hal.c",line 109,column 10,is_stmt,isa 0
    7389 0000000a 0912          ADDB      ACC,#18               ; [CPU_ALU] |109| 
    7390 0000000b 0FA4          CMPL      ACC,XAR4              ; [CPU_ALU] |109| 
    7391 0000000c 6009          B         ||$C$L50||,NEQ        ; [CPU_ALU] |109| 
    7392                      ; branchcc occurs ; [] |109| 
    7393                      .dwpsn  file "../sources/dual_axis_servo_drive_hal.c",line 111,column 9,is_stmt,isa 0
    7394 0000000d 8F36          MOVL      XAR4,#3539719         ; [CPU_ARAU] |111| 
         0000000e 0307 
    7395 0000000f 6F03          B         ||$C$L49||,UNC        ; [CPU_ALU] |111| 
    7396                      ; branch occurs ; [] |111| 
    7397 00000010       ||$C$L48||:    
    7398                      .dwpsn  file "../sources/dual_axis_servo_drive_hal.c",line 107,column 9,is_stmt,isa 0
    7399 00000010 8F30          MOVL      XAR4,#3146497         ; [CPU_ARAU] |107| 
TMS320C2000 Assembler PC v22.6.2 Wed Dec 10 14:45:02 2025

Copyright (c) 1996-2018 Texas Instruments Incorporated
dual_axis_servo_drive_hal.asm                                        PAGE  148

         00000011 0301 
    7400 00000012       ||$C$L49||:    
    7401 00000012 A8A9          MOVL      ACC,XAR4              ; [CPU_ALU] |107| 
    7402              $C$DW$494       .dwtag  DW_TAG_TI_branch
    7403                      .dwattr $C$DW$494, DW_AT_low_pc(0x00)
    7404                      .dwattr $C$DW$494, DW_AT_name("Interrupt_enable")
    7405                      .dwattr $C$DW$494, DW_AT_TI_call
    7406              
    7407 00000013 7640!         LCR       #||Interrupt_enable|| ; [CPU_ALU] |107| 
         00000014 0000 
    7408                      ; call occurs [#||Interrupt_enable||] ; [] |107| 
    7409 00000015       ||$C$L50||:    
    7410                      .dwpsn  file "C:\ti\C2000Ware_MotorControl_SDK_5_04_00_00\c2000ware\driverlib\f28002x\driverlib\inter
    7411 00000015 7623          OR        IER,#0x0004           ; [CPU_ALU] |323| 
         00000016 0004 
    7412              $C$DW$495       .dwtag  DW_TAG_TI_branch
    7413                      .dwattr $C$DW$495, DW_AT_low_pc(0x00)
    7414                      .dwattr $C$DW$495, DW_AT_TI_return
    7415              
    7416 00000017 0006          LRETR     ; [CPU_ALU] 
    7417                      ; return occurs ; [] 
    7418                      .dwattr $C$DW$491, DW_AT_TI_end_file("../sources/dual_axis_servo_drive_hal.c")
    7419                      .dwattr $C$DW$491, DW_AT_TI_end_line(0x76)
    7420                      .dwattr $C$DW$491, DW_AT_TI_end_column(0x01)
    7421                      .dwendentry
    7422                      .dwendtag $C$DW$491
    7423              
    7424 00000000               .sect   ".text:HAL_clearDataRAM"
    7425                      .clink
    7426                      .global ||HAL_clearDataRAM||
    7427              
    7428              $C$DW$496       .dwtag  DW_TAG_subprogram
    7429                      .dwattr $C$DW$496, DW_AT_name("HAL_clearDataRAM")
    7430                      .dwattr $C$DW$496, DW_AT_low_pc(||HAL_clearDataRAM||)
    7431                      .dwattr $C$DW$496, DW_AT_high_pc(0x00)
    7432                      .dwattr $C$DW$496, DW_AT_linkage_name("HAL_clearDataRAM")
    7433                      .dwattr $C$DW$496, DW_AT_external
    7434                      .dwattr $C$DW$496, DW_AT_decl_file("../sources/dual_axis_servo_drive_hal.c")
    7435                      .dwattr $C$DW$496, DW_AT_decl_line(0x567)
    7436                      .dwattr $C$DW$496, DW_AT_decl_column(0x06)
    7437                      .dwattr $C$DW$496, DW_AT_TI_max_frame_size(-2)
    7438                      .dwpsn  file "../sources/dual_axis_servo_drive_hal.c",line 1384,column 1,is_stmt,address ||HAL_clearD
    7439              
    7440                      .dwfde $C$DW$CIE, ||HAL_clearDataRAM||
    7441              $C$DW$497       .dwtag  DW_TAG_formal_parameter
    7442                      .dwattr $C$DW$497, DW_AT_name("pMemory")
    7443                      .dwattr $C$DW$497, DW_AT_type(*$C$DW$T$3)
    7444                      .dwattr $C$DW$497, DW_AT_location[DW_OP_reg12]
    7445              
    7446              $C$DW$498       .dwtag  DW_TAG_formal_parameter
    7447                      .dwattr $C$DW$498, DW_AT_name("lengthMemory")
    7448                      .dwattr $C$DW$498, DW_AT_type(*$C$DW$T$172)
    7449                      .dwattr $C$DW$498, DW_AT_location[DW_OP_reg0]
    7450              
    7451              
TMS320C2000 Assembler PC v22.6.2 Wed Dec 10 14:45:02 2025

Copyright (c) 1996-2018 Texas Instruments Incorporated
dual_axis_servo_drive_hal.asm                                        PAGE  149

    7452              ;***************************************************************
    7453              ;* FNAME: HAL_clearDataRAM              FR SIZE:   0           *
    7454              ;*                                                             *
    7455              ;* FUNCTION ENVIRONMENT                                        *
    7456              ;*                                                             *
    7457              ;* FUNCTION PROPERTIES                                         *
    7458              ;*                            0 Parameter,  0 Auto,  0 SOE     *
    7459              ;***************************************************************
    7460              
    7461              ||HAL_clearDataRAM||:
    7462              ;* AR4   assigned to $O$U7
    7463              ;* AR5   assigned to $O$L1
    7464              ;* AL    assigned to lengthMemory
    7465              $C$DW$499       .dwtag  DW_TAG_variable
    7466                      .dwattr $C$DW$499, DW_AT_name("lengthMemory")
    7467                      .dwattr $C$DW$499, DW_AT_type(*$C$DW$T$233)
    7468                      .dwattr $C$DW$499, DW_AT_location[DW_OP_reg0]
    7469              
    7470                      .dwcfi  cfa_offset, -2
    7471                      .dwcfi  save_reg_to_mem, 26, 0
    7472                      .dwpsn  file "../sources/dual_axis_servo_drive_hal.c",line 1391,column 22,is_stmt,isa 0
    7473 00000000 5200          CMPB      AL,#0                 ; [CPU_ALU] |1391| 
    7474 00000001 6105          B         ||$C$L51||,EQ         ; [CPU_ALU] |1391| 
    7475                      ; branchcc occurs ; [] |1391| 
    7476 00000002 9CFF          ADDB      AL,#-1                ; [CPU_ALU] 
    7477 00000003 5DA9          MOVZ      AR5,AL                ; [CPU_ALU] 
    7478                      .dwpsn  file "../sources/dual_axis_servo_drive_hal.c",line 1393,column 9,is_stmt,isa 0
    7479 00000004 F7A5          RPT       AR5
    7480 00000005 2B84  ||     MOV       *XAR4++,#0            ; [CPU_ALU] |1393| 
    7481              ||$C$L51||:    
    7482              $C$DW$500       .dwtag  DW_TAG_TI_branch
    7483                      .dwattr $C$DW$500, DW_AT_low_pc(0x00)
    7484                      .dwattr $C$DW$500, DW_AT_TI_return
    7485              
    7486 00000006 0006          LRETR     ; [CPU_ALU] 
    7487                      ; return occurs ; [] 
    7488                      .dwattr $C$DW$496, DW_AT_TI_end_file("../sources/dual_axis_servo_drive_hal.c")
    7489                      .dwattr $C$DW$496, DW_AT_TI_end_line(0x575)
    7490                      .dwattr $C$DW$496, DW_AT_TI_end_column(0x01)
    7491                      .dwendentry
    7492                      .dwendtag $C$DW$496
    7493              
    7494 00000000               .sect   ".text:HAL_MTR_init"
    7495                      .clink
    7496                      .global ||HAL_MTR_init||
    7497              
    7498              $C$DW$501       .dwtag  DW_TAG_subprogram
    7499                      .dwattr $C$DW$501, DW_AT_name("HAL_MTR_init")
    7500                      .dwattr $C$DW$501, DW_AT_low_pc(||HAL_MTR_init||)
    7501                      .dwattr $C$DW$501, DW_AT_high_pc(0x00)
    7502                      .dwattr $C$DW$501, DW_AT_linkage_name("HAL_MTR_init")
    7503                      .dwattr $C$DW$501, DW_AT_external
    7504                      .dwattr $C$DW$501, DW_AT_type(*$C$DW$T$142)
    7505                      .dwattr $C$DW$501, DW_AT_decl_file("../sources/dual_axis_servo_drive_hal.c")
    7506                      .dwattr $C$DW$501, DW_AT_decl_line(0xba)
TMS320C2000 Assembler PC v22.6.2 Wed Dec 10 14:45:02 2025

Copyright (c) 1996-2018 Texas Instruments Incorporated
dual_axis_servo_drive_hal.asm                                        PAGE  150

    7507                      .dwattr $C$DW$501, DW_AT_decl_column(0x10)
    7508                      .dwattr $C$DW$501, DW_AT_TI_max_frame_size(-4)
    7509                      .dwpsn  file "../sources/dual_axis_servo_drive_hal.c",line 187,column 1,is_stmt,address ||HAL_MTR_ini
    7510              
    7511                      .dwfde $C$DW$CIE, ||HAL_MTR_init||
    7512              $C$DW$502       .dwtag  DW_TAG_formal_parameter
    7513                      .dwattr $C$DW$502, DW_AT_name("pMemory")
    7514                      .dwattr $C$DW$502, DW_AT_type(*$C$DW$T$3)
    7515                      .dwattr $C$DW$502, DW_AT_location[DW_OP_reg12]
    7516              
    7517              $C$DW$503       .dwtag  DW_TAG_formal_parameter
    7518                      .dwattr $C$DW$503, DW_AT_name("numBytes")
    7519                      .dwattr $C$DW$503, DW_AT_type(*$C$DW$T$144)
    7520                      .dwattr $C$DW$503, DW_AT_location[DW_OP_reg0]
    7521              
    7522              
    7523              ;***************************************************************
    7524              ;* FNAME: HAL_MTR_init                  FR SIZE:   2           *
    7525              ;*                                                             *
    7526              ;* FUNCTION ENVIRONMENT                                        *
    7527              ;*                                                             *
    7528              ;* FUNCTION PROPERTIES                                         *
    7529              ;*                            0 Parameter,  0 Auto,  2 SOE     *
    7530              ;***************************************************************
    7531              
    7532              ||HAL_MTR_init||:
    7533              ;* AL    assigned to $O$K11
    7534              ;* AR5   assigned to pMemory
    7535              $C$DW$504       .dwtag  DW_TAG_variable
    7536                      .dwattr $C$DW$504, DW_AT_name("pMemory")
    7537                      .dwattr $C$DW$504, DW_AT_type(*$C$DW$T$157)
    7538                      .dwattr $C$DW$504, DW_AT_location[DW_OP_reg14]
    7539              
    7540              ;* AR6   assigned to numBytes
    7541              $C$DW$505       .dwtag  DW_TAG_variable
    7542                      .dwattr $C$DW$505, DW_AT_name("numBytes")
    7543                      .dwattr $C$DW$505, DW_AT_type(*$C$DW$T$145)
    7544                      .dwattr $C$DW$505, DW_AT_location[DW_OP_reg16]
    7545              
    7546              ;* AR4   assigned to obj
    7547              $C$DW$506       .dwtag  DW_TAG_variable
    7548                      .dwattr $C$DW$506, DW_AT_name("obj")
    7549                      .dwattr $C$DW$506, DW_AT_type(*$C$DW$T$140)
    7550                      .dwattr $C$DW$506, DW_AT_location[DW_OP_reg12]
    7551              
    7552                      .dwcfi  cfa_offset, -2
    7553                      .dwcfi  save_reg_to_mem, 26, 0
    7554 00000000 1EA6          MOVL      XAR6,ACC              ; [CPU_ALU] |187| 
    7555                      .dwpsn  file "../sources/dual_axis_servo_drive_hal.c",line 191,column 5,is_stmt,isa 0
    7556 00000001 0212          MOVB      ACC,#18               ; [CPU_ALU] |191| 
    7557 00000002 B2BD          MOVL      *SP++,XAR1            ; [CPU_ALU] 
    7558                      .dwcfi  save_reg_to_mem, 7, 2
    7559                      .dwcfi  cfa_offset, -4
    7560                      .dwpsn  file "../sources/dual_axis_servo_drive_hal.c",line 187,column 1,is_stmt,isa 0
    7561 00000003 83A4          MOVL      XAR5,XAR4             ; [CPU_ALU] |187| 
TMS320C2000 Assembler PC v22.6.2 Wed Dec 10 14:45:02 2025

Copyright (c) 1996-2018 Texas Instruments Incorporated
dual_axis_servo_drive_hal.asm                                        PAGE  151

    7562                      .dwpsn  file "../sources/dual_axis_servo_drive_hal.c",line 191,column 5,is_stmt,isa 0
    7563 00000004 0FA6          CMPL      ACC,XAR6              ; [CPU_ALU] |191| 
    7564 00000005 6903          B         ||$C$L52||,LOS        ; [CPU_ALU] |191| 
    7565                      ; branchcc occurs ; [] |191| 
    7566                      .dwpsn  file "../sources/dual_axis_servo_drive_hal.c",line 193,column 9,is_stmt,isa 0
    7567 00000006 D400          MOVB      XAR4,#0               ; [CPU_ALU] |193| 
    7568 00000007 6F40          B         ||$C$L55||,UNC        ; [CPU_ALU] |193| 
    7569                      ; branch occurs ; [] |193| 
    7570 00000008       ||$C$L52||:    
    7571                      .dwpsn  file "../sources/dual_axis_servo_drive_hal.c",line 206,column 5,is_stmt,isa 0
    7572 00000008 7680!         MOVL      XAR6,#||halMtr||      ; [CPU_ARAU] |206| 
         00000009 0000 
    7573 0000000a 06A6          MOVL      ACC,XAR6              ; [CPU_ALU] |206| 
    7574 0000000b 0FA4          CMPL      ACC,XAR4              ; [CPU_ALU] |206| 
    7575 0000000c 611F          B         ||$C$L53||,EQ         ; [CPU_ALU] |206| 
    7576                      ; branchcc occurs ; [] |206| 
    7577                      .dwpsn  file "../sources/dual_axis_servo_drive_hal.c",line 230,column 10,is_stmt,isa 0
    7578 0000000d 0912          ADDB      ACC,#18               ; [CPU_ALU] |230| 
    7579 0000000e 0FA4          CMPL      ACC,XAR4              ; [CPU_ALU] |230| 
    7580 0000000f 6038          B         ||$C$L55||,NEQ        ; [CPU_ALU] |230| 
    7581                      ; branchcc occurs ; [] |230| 
    7582                      .dwpsn  file "../sources/dual_axis_servo_drive_hal.c",line 235,column 9,is_stmt,isa 0
    7583 00000010 D00C          MOVB      XAR0,#12              ; [CPU_ALU] |235| 
    7584 00000011 7680          MOVL      XAR6,#24848           ; [CPU_ARAU] |235| 
         00000012 6110 
    7585                      .dwpsn  file "../sources/dual_axis_servo_drive_hal.c",line 249,column 9,is_stmt,isa 0
    7586 00000013 D10A          MOVB      XAR1,#10              ; [CPU_ALU] |249| 
    7587 00000014 76C0          MOVL      XAR7,#23744           ; [CPU_ARAU] |249| 
         00000015 5CC0 
    7588                      .dwpsn  file "../sources/dual_axis_servo_drive_hal.c",line 235,column 9,is_stmt,isa 0
    7589 00000016 C294          MOVL      *+XAR4[AR0],XAR6      ; [CPU_ALU] |235| 
    7590                      .dwpsn  file "../sources/dual_axis_servo_drive_hal.c",line 248,column 9,is_stmt,isa 0
    7591 00000017 D008          MOVB      XAR0,#8               ; [CPU_ALU] |248| 
    7592 00000018 7680          MOVL      XAR6,#23712           ; [CPU_ARAU] |248| 
         00000019 5CA0 
    7593 0000001a C295          MOVL      *+XAR5[AR0],XAR6      ; [CPU_ALU] |248| 
    7594                      .dwpsn  file "../sources/dual_axis_servo_drive_hal.c",line 249,column 9,is_stmt,isa 0
    7595 0000001b C39D          MOVL      *+XAR5[AR1],XAR7      ; [CPU_ALU] |249| 
    7596                      .dwpsn  file "../sources/dual_axis_servo_drive_hal.c",line 240,column 9,is_stmt,isa 0
    7597 0000001c 7680          MOVL      XAR6,#17920           ; [CPU_ARAU] |240| 
         0000001d 4600 
    7598 0000001e C2C5          MOVL      *+XAR5[0],XAR6        ; [CPU_ALU] |240| 
    7599                      .dwpsn  file "../sources/dual_axis_servo_drive_hal.c",line 241,column 9,is_stmt,isa 0
    7600 0000001f 7680          MOVL      XAR6,#17152           ; [CPU_ARAU] |241| 
         00000020 4300 
    7601 00000021 C2D5          MOVL      *+XAR5[2],XAR6        ; [CPU_ALU] |241| 
    7602                      .dwpsn  file "../sources/dual_axis_servo_drive_hal.c",line 242,column 9,is_stmt,isa 0
    7603 00000022 7680          MOVL      XAR6,#17408           ; [CPU_ARAU] |242| 
         00000023 4400 
    7604 00000024 C2E5          MOVL      *+XAR5[4],XAR6        ; [CPU_ALU] |242| 
    7605                      .dwpsn  file "../sources/dual_axis_servo_drive_hal.c",line 247,column 9,is_stmt,isa 0
    7606 00000025 7680          MOVL      XAR6,#23776           ; [CPU_ARAU] |247| 
         00000026 5CE0 
    7607 00000027 C2F5          MOVL      *+XAR5[6],XAR6        ; [CPU_ALU] |247| 
    7608                      .dwpsn  file "../sources/dual_axis_servo_drive_hal.c",line 254,column 9,is_stmt,isa 0
TMS320C2000 Assembler PC v22.6.2 Wed Dec 10 14:45:02 2025

Copyright (c) 1996-2018 Texas Instruments Incorporated
dual_axis_servo_drive_hal.asm                                        PAGE  152

    7609 00000028 7680          MOVL      XAR6,#20800           ; [CPU_ARAU] |254| 
         00000029 5140 
    7610                      .dwpsn  file "../sources/dual_axis_servo_drive_hal.c",line 257,column 6,is_stmt,isa 0
    7611 0000002a 6F1B          B         ||$C$L54||,UNC        ; [CPU_ALU] |257| 
    7612                      ; branch occurs ; [] |257| 
    7613 0000002b       ||$C$L53||:    
    7614                      .dwpsn  file "../sources/dual_axis_servo_drive_hal.c",line 211,column 9,is_stmt,isa 0
    7615 0000002b D00C          MOVB      XAR0,#12              ; [CPU_ALU] |211| 
    7616 0000002c 76C0          MOVL      XAR7,#24832           ; [CPU_ARAU] |211| 
         0000002d 6100 
    7617                      .dwpsn  file "../sources/dual_axis_servo_drive_hal.c",line 216,column 9,is_stmt,isa 0
    7618 0000002e 7680          MOVL      XAR6,#16384           ; [CPU_ARAU] |216| 
         0000002f 4000 
    7619                      .dwpsn  file "../sources/dual_axis_servo_drive_hal.c",line 217,column 9,is_stmt,isa 0
    7620 00000030 8D40          MOVL      XAR1,#16640           ; [CPU_ARAU] |217| 
         00000031 4100 
    7621                      .dwpsn  file "../sources/dual_axis_servo_drive_hal.c",line 211,column 9,is_stmt,isa 0
    7622 00000032 C394          MOVL      *+XAR4[AR0],XAR7      ; [CPU_ALU] |211| 
    7623                      .dwpsn  file "../sources/dual_axis_servo_drive_hal.c",line 218,column 9,is_stmt,isa 0
    7624 00000033 8D00          MOVL      XAR0,#16896           ; [CPU_ARAU] |218| 
         00000034 4200 
    7625                      .dwpsn  file "../sources/dual_axis_servo_drive_hal.c",line 216,column 9,is_stmt,isa 0
    7626 00000035 C2C4          MOVL      *+XAR4[0],XAR6        ; [CPU_ALU] |216| 
    7627                      .dwpsn  file "../sources/dual_axis_servo_drive_hal.c",line 223,column 9,is_stmt,isa 0
    7628 00000036 76C0          MOVL      XAR7,#23744           ; [CPU_ARAU] |223| 
         00000037 5CC0 
    7629                      .dwpsn  file "../sources/dual_axis_servo_drive_hal.c",line 217,column 9,is_stmt,isa 0
    7630 00000038 B2D4          MOVL      *+XAR4[2],XAR1        ; [CPU_ALU] |217| 
    7631                      .dwpsn  file "../sources/dual_axis_servo_drive_hal.c",line 224,column 9,is_stmt,isa 0
    7632 00000039 7680          MOVL      XAR6,#23680           ; [CPU_ARAU] |224| 
         0000003a 5C80 
    7633                      .dwpsn  file "../sources/dual_axis_servo_drive_hal.c",line 225,column 9,is_stmt,isa 0
    7634 0000003b D10A          MOVB      XAR1,#10              ; [CPU_ALU] |225| 
    7635                      .dwpsn  file "../sources/dual_axis_servo_drive_hal.c",line 218,column 9,is_stmt,isa 0
    7636 0000003c 3AE4          MOVL      *+XAR4[4],XAR0        ; [CPU_ALU] |218| 
    7637                      .dwpsn  file "../sources/dual_axis_servo_drive_hal.c",line 224,column 9,is_stmt,isa 0
    7638 0000003d D008          MOVB      XAR0,#8               ; [CPU_ALU] |224| 
    7639                      .dwpsn  file "../sources/dual_axis_servo_drive_hal.c",line 223,column 9,is_stmt,isa 0
    7640 0000003e C3F4          MOVL      *+XAR4[6],XAR7        ; [CPU_ALU] |223| 
    7641                      .dwpsn  file "../sources/dual_axis_servo_drive_hal.c",line 225,column 9,is_stmt,isa 0
    7642 0000003f 76C0          MOVL      XAR7,#23776           ; [CPU_ARAU] |225| 
         00000040 5CE0 
    7643                      .dwpsn  file "../sources/dual_axis_servo_drive_hal.c",line 224,column 9,is_stmt,isa 0
    7644 00000041 C294          MOVL      *+XAR4[AR0],XAR6      ; [CPU_ALU] |224| 
    7645                      .dwpsn  file "../sources/dual_axis_servo_drive_hal.c",line 228,column 9,is_stmt,isa 0
    7646 00000042 7680          MOVL      XAR6,#20736           ; [CPU_ARAU] |228| 
         00000043 5100 
    7647                      .dwpsn  file "../sources/dual_axis_servo_drive_hal.c",line 225,column 9,is_stmt,isa 0
    7648 00000044 C39C          MOVL      *+XAR4[AR1],XAR7      ; [CPU_ALU] |225| 
    7649 00000045       ||$C$L54||:    
    7650                      .dwpsn  file "../sources/dual_axis_servo_drive_hal.c",line 228,column 9,is_stmt,isa 0
    7651 00000045 D00E          MOVB      XAR0,#14              ; [CPU_ALU] |228| 
    7652 00000046 C294          MOVL      *+XAR4[AR0],XAR6      ; [CPU_ALU] |228| 
    7653 00000047       ||$C$L55||:    
    7654 00000047 8BBE          MOVL      XAR1,*--SP            ; [CPU_ALU] 
TMS320C2000 Assembler PC v22.6.2 Wed Dec 10 14:45:02 2025

Copyright (c) 1996-2018 Texas Instruments Incorporated
dual_axis_servo_drive_hal.asm                                        PAGE  153

    7655                      .dwcfi  cfa_offset, -2
    7656                      .dwcfi  restore_reg, 7
    7657              $C$DW$507       .dwtag  DW_TAG_TI_branch
    7658                      .dwattr $C$DW$507, DW_AT_low_pc(0x00)
    7659                      .dwattr $C$DW$507, DW_AT_TI_return
    7660              
    7661 00000048 0006          LRETR     ; [CPU_ALU] 
    7662                      ; return occurs ; [] 
    7663                      .dwattr $C$DW$501, DW_AT_TI_end_file("../sources/dual_axis_servo_drive_hal.c")
    7664                      .dwattr $C$DW$501, DW_AT_TI_end_line(0x102)
    7665                      .dwattr $C$DW$501, DW_AT_TI_end_column(0x01)
    7666                      .dwendentry
    7667                      .dwendtag $C$DW$501
    7668              
    7669              ;**************************************************************
    7670              ;* UNDEFINED EXTERNAL REFERENCES                              *
    7671              ;**************************************************************
    7672                      .global ||Interrupt_enable||
    7673                      .global ||Device_initGPIO||
    7674                      .global ||Interrupt_initModule||
    7675                      .global ||Interrupt_initVectorTable||
    7676                      .global ||SysCtl_delay||
    7677                      .global ||ADC_setVREF||
    7678                      .global ||CMPSS_configFilterHigh||
    7679                      .global ||CMPSS_configFilterLow||
    7680                      .global ||motor1ControlISR||
    7681                      .global ||motor2ControlISR||
    7682                      .global ||CPUTimer_setEmulationMode||
    7683                      .global ||GPIO_setPinConfig||
    7684                      .global ||GPIO_setDirectionMode||
    7685                      .global ||GPIO_setPadConfig||
    7686                      .global ||GPIO_setQualificationMode||
    7687                      .global ||GPIO_setQualificationPeriod||
    7688                      .global ||XBAR_setEPWMMuxConfig||
    7689                      .global ||halMtr||
    7690                      .global ||__c28xabi_cmpull||
    7691              ;**************************************************************
    7692              ;* SECTION GROUPS                                             *
    7693              ;**************************************************************
    7694                      .group    "__fast_ldiv", 1
    7695                      .gmember  ".text:__fast_ldiv"
    7696                      .endgroup
    7697                      .group    "__fast_lldiv", 1
    7698                      .gmember  ".text:__fast_lldiv"
    7699                      .endgroup
    7700                      .group    "__fpclassify", 1
    7701                      .gmember  ".text:__fpclassify"
    7702                      .endgroup
    7703                      .group    "__fpclassifyf", 1
    7704                      .gmember  ".text:__fpclassifyf"
    7705                      .endgroup
    7706                      .group    "__fpclassifyl", 1
    7707                      .gmember  ".text:__fpclassifyl"
    7708                      .endgroup
    7709                      .group    "__isfinite", 1
TMS320C2000 Assembler PC v22.6.2 Wed Dec 10 14:45:02 2025

Copyright (c) 1996-2018 Texas Instruments Incorporated
dual_axis_servo_drive_hal.asm                                        PAGE  154

    7710                      .gmember  ".text:__isfinite"
    7711                      .endgroup
    7712                      .group    "__isfinitef", 1
    7713                      .gmember  ".text:__isfinitef"
    7714                      .endgroup
    7715                      .group    "__isfinitel", 1
    7716                      .gmember  ".text:__isfinitel"
    7717                      .endgroup
    7718                      .group    "__isinf", 1
    7719                      .gmember  ".text:__isinf"
    7720                      .endgroup
    7721                      .group    "__isinff", 1
    7722                      .gmember  ".text:__isinff"
    7723                      .endgroup
    7724                      .group    "__isinfl", 1
    7725                      .gmember  ".text:__isinfl"
    7726                      .endgroup
    7727                      .group    "__isnan", 1
    7728                      .gmember  ".text:__isnan"
    7729                      .endgroup
    7730                      .group    "__isnanf", 1
    7731                      .gmember  ".text:__isnanf"
    7732                      .endgroup
    7733                      .group    "__isnanl", 1
    7734                      .gmember  ".text:__isnanl"
    7735                      .endgroup
    7736                      .group    "__isnormal", 1
    7737                      .gmember  ".text:__isnormal"
    7738                      .endgroup
    7739                      .group    "__isnormalf", 1
    7740                      .gmember  ".text:__isnormalf"
    7741                      .endgroup
    7742                      .group    "__isnormall", 1
    7743                      .gmember  ".text:__isnormall"
    7744                      .endgroup
    7745                      .group    "__relaxed_atan2f", 1
    7746                      .gmember  ".text:__relaxed_atan2f"
    7747                      .endgroup
    7748                      .group    "__relaxed_atanf", 1
    7749                      .gmember  ".text:__relaxed_atanf"
    7750                      .endgroup
    7751                      .group    "__relaxed_cosf", 1
    7752                      .gmember  ".text:__relaxed_cosf"
    7753                      .endgroup
    7754                      .group    "__relaxed_expf", 1
    7755                      .gmember  ".text:__relaxed_expf"
    7756                      .endgroup
    7757                      .group    "__relaxed_fmaxf", 1
    7758                      .gmember  ".text:__relaxed_fmaxf"
    7759                      .endgroup
    7760                      .group    "__relaxed_fminf", 1
    7761                      .gmember  ".text:__relaxed_fminf"
    7762                      .endgroup
    7763                      .group    "__relaxed_fmodf", 1
    7764                      .gmember  ".text:__relaxed_fmodf"
TMS320C2000 Assembler PC v22.6.2 Wed Dec 10 14:45:02 2025

Copyright (c) 1996-2018 Texas Instruments Incorporated
dual_axis_servo_drive_hal.asm                                        PAGE  155

    7765                      .endgroup
    7766                      .group    "__relaxed_log2f", 1
    7767                      .gmember  ".text:__relaxed_log2f"
    7768                      .endgroup
    7769                      .group    "__relaxed_logf", 1
    7770                      .gmember  ".text:__relaxed_logf"
    7771                      .endgroup
    7772                      .group    "__relaxed_powf", 1
    7773                      .gmember  ".text:__relaxed_powf"
    7774                      .endgroup
    7775                      .group    "__relaxed_sinf", 1
    7776                      .gmember  ".text:__relaxed_sinf"
    7777                      .endgroup
    7778                      .group    "__relaxed_sqrtf", 1
    7779                      .gmember  ".text:__relaxed_sqrtf"
    7780                      .endgroup
    7781                      .group    "__signbit", 1
    7782                      .gmember  ".text:__signbit"
    7783                      .endgroup
    7784                      .group    "__signbitf", 1
    7785                      .gmember  ".text:__signbitf"
    7786                      .endgroup
    7787                      .group    "__signbitl", 1
    7788                      .gmember  ".text:__signbitl"
    7789                      .endgroup
    7790              
    7791              
    7792              ;***************************************************************
    7793              ;* BUILD ATTRIBUTES                                            *
    7794              ;***************************************************************
    7795                      .battr "c28xabi", Tag_File, 1, Tag_float_args(1)
    7796                      .battr "c28xabi", Tag_File, 1, Tag_double_args(1)
    7797                      .dwattr $C$DW$CU, DW_AT_language(DW_LANG_C)
    7798              
    7799              ;***************************************************************
    7800              ;* DWARF CIE ENTRIES                                           *
    7801              ;***************************************************************
    7802              
    7803              $C$DW$CIE       .dwcie 26
    7804                      .dwcfi  cfa_register, 20
    7805                      .dwcfi  cfa_offset, 0
    7806                      .dwcfi  same_value, 28
    7807                      .dwcfi  same_value, 6
    7808                      .dwcfi  same_value, 7
    7809                      .dwcfi  same_value, 8
    7810                      .dwcfi  same_value, 9
    7811                      .dwcfi  same_value, 10
    7812                      .dwcfi  same_value, 11
    7813                      .dwcfi  same_value, 59
    7814                      .dwcfi  same_value, 63
    7815                      .dwcfi  same_value, 67
    7816                      .dwcfi  same_value, 71
    7817                      .dwendentry
    7818                      .dwendtag $C$DW$CU
    7819              
TMS320C2000 Assembler PC v22.6.2 Wed Dec 10 14:45:02 2025

Copyright (c) 1996-2018 Texas Instruments Incorporated
dual_axis_servo_drive_hal.asm                                        PAGE  156

    7820              
    7821              ;***************************************************************
    7822              ;* TYPE INFORMATION                                            *
    7823              ;***************************************************************
    7824              
    7825              $C$DW$TU$30     .dwtag  DW_TAG_type_unit
    7826                      .dwmtype  $C$DW$T$30
    7827              
    7828              $C$DW$T$30      .dwtag  DW_TAG_enumeration_type
    7829                      .dwattr $C$DW$T$30, DW_AT_byte_size(0x01)
    7830              $C$DW$508       .dwtag  DW_TAG_enumerator
    7831                      .dwattr $C$DW$508, DW_AT_name("MTR_1")
    7832                      .dwattr $C$DW$508, DW_AT_const_value(0x00)
    7833                      .dwattr $C$DW$508, DW_AT_decl_file("C:/ti/C2000Ware_MotorControl_SDK_5_04_00_00/solutions/boostxl_3ph
    7834                      .dwattr $C$DW$508, DW_AT_decl_line(0x87)
    7835                      .dwattr $C$DW$508, DW_AT_decl_column(0x05)
    7836              
    7837              $C$DW$509       .dwtag  DW_TAG_enumerator
    7838                      .dwattr $C$DW$509, DW_AT_name("MTR_2")
    7839                      .dwattr $C$DW$509, DW_AT_const_value(0x01)
    7840                      .dwattr $C$DW$509, DW_AT_decl_file("C:/ti/C2000Ware_MotorControl_SDK_5_04_00_00/solutions/boostxl_3ph
    7841                      .dwattr $C$DW$509, DW_AT_decl_line(0x88)
    7842                      .dwattr $C$DW$509, DW_AT_decl_column(0x05)
    7843              
    7844                      .dwattr $C$DW$T$30, DW_AT_decl_file("C:/ti/C2000Ware_MotorControl_SDK_5_04_00_00/solutions/boostxl_3p
    7845                      .dwattr $C$DW$T$30, DW_AT_decl_line(0x86)
    7846                      .dwattr $C$DW$T$30, DW_AT_decl_column(0x01)
    7847                      .dwendtag $C$DW$T$30
    7848              
    7849                      .dwendtag $C$DW$TU$30
    7850              
    7851              
    7852              $C$DW$TU$31     .dwtag  DW_TAG_type_unit
    7853                      .dwmtype  $C$DW$T$31
    7854              $C$DW$T$31      .dwtag  DW_TAG_typedef
    7855                      .dwattr $C$DW$T$31, DW_AT_name("MotorNum_e")
    7856                      .dwattr $C$DW$T$31, DW_AT_type(*$C$DW$T$30)
    7857                      .dwattr $C$DW$T$31, DW_AT_decl_file("C:/ti/C2000Ware_MotorControl_SDK_5_04_00_00/solutions/boostxl_3p
    7858                      .dwattr $C$DW$T$31, DW_AT_decl_line(0x89)
    7859                      .dwattr $C$DW$T$31, DW_AT_decl_column(0x03)
    7860              
    7861                      .dwendtag $C$DW$TU$31
    7862              
    7863              
    7864              $C$DW$TU$36     .dwtag  DW_TAG_type_unit
    7865                      .dwmtype  $C$DW$T$36
    7866              
    7867              $C$DW$T$36      .dwtag  DW_TAG_enumeration_type
    7868                      .dwattr $C$DW$T$36, DW_AT_byte_size(0x01)
    7869              $C$DW$510       .dwtag  DW_TAG_enumerator
    7870                      .dwattr $C$DW$510, DW_AT_name("ADC_CLK_DIV_1_0")
    7871                      .dwattr $C$DW$510, DW_AT_const_value(0x00)
    7872                      .dwattr $C$DW$510, DW_AT_decl_file("C:/ti/C2000Ware_MotorControl_SDK_5_04_00_00/c2000ware/driverlib/f
    7873                      .dwattr $C$DW$510, DW_AT_decl_line(0x8f)
    7874                      .dwattr $C$DW$510, DW_AT_decl_column(0x05)
TMS320C2000 Assembler PC v22.6.2 Wed Dec 10 14:45:02 2025

Copyright (c) 1996-2018 Texas Instruments Incorporated
dual_axis_servo_drive_hal.asm                                        PAGE  157

    7875              
    7876              $C$DW$511       .dwtag  DW_TAG_enumerator
    7877                      .dwattr $C$DW$511, DW_AT_name("ADC_CLK_DIV_2_0")
    7878                      .dwattr $C$DW$511, DW_AT_const_value(0x02)
    7879                      .dwattr $C$DW$511, DW_AT_decl_file("C:/ti/C2000Ware_MotorControl_SDK_5_04_00_00/c2000ware/driverlib/f
    7880                      .dwattr $C$DW$511, DW_AT_decl_line(0x90)
    7881                      .dwattr $C$DW$511, DW_AT_decl_column(0x05)
    7882              
    7883              $C$DW$512       .dwtag  DW_TAG_enumerator
    7884                      .dwattr $C$DW$512, DW_AT_name("ADC_CLK_DIV_3_0")
    7885                      .dwattr $C$DW$512, DW_AT_const_value(0x04)
    7886                      .dwattr $C$DW$512, DW_AT_decl_file("C:/ti/C2000Ware_MotorControl_SDK_5_04_00_00/c2000ware/driverlib/f
    7887                      .dwattr $C$DW$512, DW_AT_decl_line(0x91)
    7888                      .dwattr $C$DW$512, DW_AT_decl_column(0x05)
    7889              
    7890              $C$DW$513       .dwtag  DW_TAG_enumerator
    7891                      .dwattr $C$DW$513, DW_AT_name("ADC_CLK_DIV_4_0")
    7892                      .dwattr $C$DW$513, DW_AT_const_value(0x06)
    7893                      .dwattr $C$DW$513, DW_AT_decl_file("C:/ti/C2000Ware_MotorControl_SDK_5_04_00_00/c2000ware/driverlib/f
    7894                      .dwattr $C$DW$513, DW_AT_decl_line(0x92)
    7895                      .dwattr $C$DW$513, DW_AT_decl_column(0x05)
    7896              
    7897              $C$DW$514       .dwtag  DW_TAG_enumerator
    7898                      .dwattr $C$DW$514, DW_AT_name("ADC_CLK_DIV_5_0")
    7899                      .dwattr $C$DW$514, DW_AT_const_value(0x08)
    7900                      .dwattr $C$DW$514, DW_AT_decl_file("C:/ti/C2000Ware_MotorControl_SDK_5_04_00_00/c2000ware/driverlib/f
    7901                      .dwattr $C$DW$514, DW_AT_decl_line(0x93)
    7902                      .dwattr $C$DW$514, DW_AT_decl_column(0x05)
    7903              
    7904              $C$DW$515       .dwtag  DW_TAG_enumerator
    7905                      .dwattr $C$DW$515, DW_AT_name("ADC_CLK_DIV_6_0")
    7906                      .dwattr $C$DW$515, DW_AT_const_value(0x0a)
    7907                      .dwattr $C$DW$515, DW_AT_decl_file("C:/ti/C2000Ware_MotorControl_SDK_5_04_00_00/c2000ware/driverlib/f
    7908                      .dwattr $C$DW$515, DW_AT_decl_line(0x94)
    7909                      .dwattr $C$DW$515, DW_AT_decl_column(0x05)
    7910              
    7911              $C$DW$516       .dwtag  DW_TAG_enumerator
    7912                      .dwattr $C$DW$516, DW_AT_name("ADC_CLK_DIV_7_0")
    7913                      .dwattr $C$DW$516, DW_AT_const_value(0x0c)
    7914                      .dwattr $C$DW$516, DW_AT_decl_file("C:/ti/C2000Ware_MotorControl_SDK_5_04_00_00/c2000ware/driverlib/f
    7915                      .dwattr $C$DW$516, DW_AT_decl_line(0x95)
    7916                      .dwattr $C$DW$516, DW_AT_decl_column(0x05)
    7917              
    7918              $C$DW$517       .dwtag  DW_TAG_enumerator
    7919                      .dwattr $C$DW$517, DW_AT_name("ADC_CLK_DIV_8_0")
    7920                      .dwattr $C$DW$517, DW_AT_const_value(0x0e)
    7921                      .dwattr $C$DW$517, DW_AT_decl_file("C:/ti/C2000Ware_MotorControl_SDK_5_04_00_00/c2000ware/driverlib/f
    7922                      .dwattr $C$DW$517, DW_AT_decl_line(0x96)
    7923                      .dwattr $C$DW$517, DW_AT_decl_column(0x05)
    7924              
    7925                      .dwattr $C$DW$T$36, DW_AT_decl_file("C:/ti/C2000Ware_MotorControl_SDK_5_04_00_00/c2000ware/driverlib/
    7926                      .dwattr $C$DW$T$36, DW_AT_decl_line(0x8e)
    7927                      .dwattr $C$DW$T$36, DW_AT_decl_column(0x01)
    7928                      .dwendtag $C$DW$T$36
    7929              
TMS320C2000 Assembler PC v22.6.2 Wed Dec 10 14:45:02 2025

Copyright (c) 1996-2018 Texas Instruments Incorporated
dual_axis_servo_drive_hal.asm                                        PAGE  158

    7930                      .dwendtag $C$DW$TU$36
    7931              
    7932              
    7933              $C$DW$TU$37     .dwtag  DW_TAG_type_unit
    7934                      .dwmtype  $C$DW$T$37
    7935              $C$DW$T$37      .dwtag  DW_TAG_typedef
    7936                      .dwattr $C$DW$T$37, DW_AT_name("ADC_ClkPrescale")
    7937                      .dwattr $C$DW$T$37, DW_AT_type(*$C$DW$T$36)
    7938                      .dwattr $C$DW$T$37, DW_AT_decl_file("C:/ti/C2000Ware_MotorControl_SDK_5_04_00_00/c2000ware/driverlib/
    7939                      .dwattr $C$DW$T$37, DW_AT_decl_line(0x97)
    7940                      .dwattr $C$DW$T$37, DW_AT_decl_column(0x03)
    7941              
    7942                      .dwendtag $C$DW$TU$37
    7943              
    7944              
    7945              $C$DW$TU$38     .dwtag  DW_TAG_type_unit
    7946                      .dwmtype  $C$DW$T$38
    7947              
    7948              $C$DW$T$38      .dwtag  DW_TAG_enumeration_type
    7949                      .dwattr $C$DW$T$38, DW_AT_byte_size(0x01)
    7950              $C$DW$518       .dwtag  DW_TAG_enumerator
    7951                      .dwattr $C$DW$518, DW_AT_name("ADC_SOC_NUMBER0")
    7952                      .dwattr $C$DW$518, DW_AT_const_value(0x00)
    7953                      .dwattr $C$DW$518, DW_AT_decl_file("C:/ti/C2000Ware_MotorControl_SDK_5_04_00_00/c2000ware/driverlib/f
    7954                      .dwattr $C$DW$518, DW_AT_decl_line(0x108)
    7955                      .dwattr $C$DW$518, DW_AT_decl_column(0x05)
    7956              
    7957              $C$DW$519       .dwtag  DW_TAG_enumerator
    7958                      .dwattr $C$DW$519, DW_AT_name("ADC_SOC_NUMBER1")
    7959                      .dwattr $C$DW$519, DW_AT_const_value(0x01)
    7960                      .dwattr $C$DW$519, DW_AT_decl_file("C:/ti/C2000Ware_MotorControl_SDK_5_04_00_00/c2000ware/driverlib/f
    7961                      .dwattr $C$DW$519, DW_AT_decl_line(0x109)
    7962                      .dwattr $C$DW$519, DW_AT_decl_column(0x05)
    7963              
    7964              $C$DW$520       .dwtag  DW_TAG_enumerator
    7965                      .dwattr $C$DW$520, DW_AT_name("ADC_SOC_NUMBER2")
    7966                      .dwattr $C$DW$520, DW_AT_const_value(0x02)
    7967                      .dwattr $C$DW$520, DW_AT_decl_file("C:/ti/C2000Ware_MotorControl_SDK_5_04_00_00/c2000ware/driverlib/f
    7968                      .dwattr $C$DW$520, DW_AT_decl_line(0x10a)
    7969                      .dwattr $C$DW$520, DW_AT_decl_column(0x05)
    7970              
    7971              $C$DW$521       .dwtag  DW_TAG_enumerator
    7972                      .dwattr $C$DW$521, DW_AT_name("ADC_SOC_NUMBER3")
    7973                      .dwattr $C$DW$521, DW_AT_const_value(0x03)
    7974                      .dwattr $C$DW$521, DW_AT_decl_file("C:/ti/C2000Ware_MotorControl_SDK_5_04_00_00/c2000ware/driverlib/f
    7975                      .dwattr $C$DW$521, DW_AT_decl_line(0x10b)
    7976                      .dwattr $C$DW$521, DW_AT_decl_column(0x05)
    7977              
    7978              $C$DW$522       .dwtag  DW_TAG_enumerator
    7979                      .dwattr $C$DW$522, DW_AT_name("ADC_SOC_NUMBER4")
    7980                      .dwattr $C$DW$522, DW_AT_const_value(0x04)
    7981                      .dwattr $C$DW$522, DW_AT_decl_file("C:/ti/C2000Ware_MotorControl_SDK_5_04_00_00/c2000ware/driverlib/f
    7982                      .dwattr $C$DW$522, DW_AT_decl_line(0x10c)
    7983                      .dwattr $C$DW$522, DW_AT_decl_column(0x05)
    7984              
TMS320C2000 Assembler PC v22.6.2 Wed Dec 10 14:45:02 2025

Copyright (c) 1996-2018 Texas Instruments Incorporated
dual_axis_servo_drive_hal.asm                                        PAGE  159

    7985              $C$DW$523       .dwtag  DW_TAG_enumerator
    7986                      .dwattr $C$DW$523, DW_AT_name("ADC_SOC_NUMBER5")
    7987                      .dwattr $C$DW$523, DW_AT_const_value(0x05)
    7988                      .dwattr $C$DW$523, DW_AT_decl_file("C:/ti/C2000Ware_MotorControl_SDK_5_04_00_00/c2000ware/driverlib/f
    7989                      .dwattr $C$DW$523, DW_AT_decl_line(0x10d)
    7990                      .dwattr $C$DW$523, DW_AT_decl_column(0x05)
    7991              
    7992              $C$DW$524       .dwtag  DW_TAG_enumerator
    7993                      .dwattr $C$DW$524, DW_AT_name("ADC_SOC_NUMBER6")
    7994                      .dwattr $C$DW$524, DW_AT_const_value(0x06)
    7995                      .dwattr $C$DW$524, DW_AT_decl_file("C:/ti/C2000Ware_MotorControl_SDK_5_04_00_00/c2000ware/driverlib/f
    7996                      .dwattr $C$DW$524, DW_AT_decl_line(0x10e)
    7997                      .dwattr $C$DW$524, DW_AT_decl_column(0x05)
    7998              
    7999              $C$DW$525       .dwtag  DW_TAG_enumerator
    8000                      .dwattr $C$DW$525, DW_AT_name("ADC_SOC_NUMBER7")
    8001                      .dwattr $C$DW$525, DW_AT_const_value(0x07)
    8002                      .dwattr $C$DW$525, DW_AT_decl_file("C:/ti/C2000Ware_MotorControl_SDK_5_04_00_00/c2000ware/driverlib/f
    8003                      .dwattr $C$DW$525, DW_AT_decl_line(0x10f)
    8004                      .dwattr $C$DW$525, DW_AT_decl_column(0x05)
    8005              
    8006              $C$DW$526       .dwtag  DW_TAG_enumerator
    8007                      .dwattr $C$DW$526, DW_AT_name("ADC_SOC_NUMBER8")
    8008                      .dwattr $C$DW$526, DW_AT_const_value(0x08)
    8009                      .dwattr $C$DW$526, DW_AT_decl_file("C:/ti/C2000Ware_MotorControl_SDK_5_04_00_00/c2000ware/driverlib/f
    8010                      .dwattr $C$DW$526, DW_AT_decl_line(0x110)
    8011                      .dwattr $C$DW$526, DW_AT_decl_column(0x05)
    8012              
    8013              $C$DW$527       .dwtag  DW_TAG_enumerator
    8014                      .dwattr $C$DW$527, DW_AT_name("ADC_SOC_NUMBER9")
    8015                      .dwattr $C$DW$527, DW_AT_const_value(0x09)
    8016                      .dwattr $C$DW$527, DW_AT_decl_file("C:/ti/C2000Ware_MotorControl_SDK_5_04_00_00/c2000ware/driverlib/f
    8017                      .dwattr $C$DW$527, DW_AT_decl_line(0x111)
    8018                      .dwattr $C$DW$527, DW_AT_decl_column(0x05)
    8019              
    8020              $C$DW$528       .dwtag  DW_TAG_enumerator
    8021                      .dwattr $C$DW$528, DW_AT_name("ADC_SOC_NUMBER10")
    8022                      .dwattr $C$DW$528, DW_AT_const_value(0x0a)
    8023                      .dwattr $C$DW$528, DW_AT_decl_file("C:/ti/C2000Ware_MotorControl_SDK_5_04_00_00/c2000ware/driverlib/f
    8024                      .dwattr $C$DW$528, DW_AT_decl_line(0x112)
    8025                      .dwattr $C$DW$528, DW_AT_decl_column(0x05)
    8026              
    8027              $C$DW$529       .dwtag  DW_TAG_enumerator
    8028                      .dwattr $C$DW$529, DW_AT_name("ADC_SOC_NUMBER11")
    8029                      .dwattr $C$DW$529, DW_AT_const_value(0x0b)
    8030                      .dwattr $C$DW$529, DW_AT_decl_file("C:/ti/C2000Ware_MotorControl_SDK_5_04_00_00/c2000ware/driverlib/f
    8031                      .dwattr $C$DW$529, DW_AT_decl_line(0x113)
    8032                      .dwattr $C$DW$529, DW_AT_decl_column(0x05)
    8033              
    8034              $C$DW$530       .dwtag  DW_TAG_enumerator
    8035                      .dwattr $C$DW$530, DW_AT_name("ADC_SOC_NUMBER12")
    8036                      .dwattr $C$DW$530, DW_AT_const_value(0x0c)
    8037                      .dwattr $C$DW$530, DW_AT_decl_file("C:/ti/C2000Ware_MotorControl_SDK_5_04_00_00/c2000ware/driverlib/f
    8038                      .dwattr $C$DW$530, DW_AT_decl_line(0x114)
    8039                      .dwattr $C$DW$530, DW_AT_decl_column(0x05)
TMS320C2000 Assembler PC v22.6.2 Wed Dec 10 14:45:02 2025

Copyright (c) 1996-2018 Texas Instruments Incorporated
dual_axis_servo_drive_hal.asm                                        PAGE  160

    8040              
    8041              $C$DW$531       .dwtag  DW_TAG_enumerator
    8042                      .dwattr $C$DW$531, DW_AT_name("ADC_SOC_NUMBER13")
    8043                      .dwattr $C$DW$531, DW_AT_const_value(0x0d)
    8044                      .dwattr $C$DW$531, DW_AT_decl_file("C:/ti/C2000Ware_MotorControl_SDK_5_04_00_00/c2000ware/driverlib/f
    8045                      .dwattr $C$DW$531, DW_AT_decl_line(0x115)
    8046                      .dwattr $C$DW$531, DW_AT_decl_column(0x05)
    8047              
    8048              $C$DW$532       .dwtag  DW_TAG_enumerator
    8049                      .dwattr $C$DW$532, DW_AT_name("ADC_SOC_NUMBER14")
    8050                      .dwattr $C$DW$532, DW_AT_const_value(0x0e)
    8051                      .dwattr $C$DW$532, DW_AT_decl_file("C:/ti/C2000Ware_MotorControl_SDK_5_04_00_00/c2000ware/driverlib/f
    8052                      .dwattr $C$DW$532, DW_AT_decl_line(0x116)
    8053                      .dwattr $C$DW$532, DW_AT_decl_column(0x05)
    8054              
    8055              $C$DW$533       .dwtag  DW_TAG_enumerator
    8056                      .dwattr $C$DW$533, DW_AT_name("ADC_SOC_NUMBER15")
    8057                      .dwattr $C$DW$533, DW_AT_const_value(0x0f)
    8058                      .dwattr $C$DW$533, DW_AT_decl_file("C:/ti/C2000Ware_MotorControl_SDK_5_04_00_00/c2000ware/driverlib/f
    8059                      .dwattr $C$DW$533, DW_AT_decl_line(0x117)
    8060                      .dwattr $C$DW$533, DW_AT_decl_column(0x05)
    8061              
    8062                      .dwattr $C$DW$T$38, DW_AT_decl_file("C:/ti/C2000Ware_MotorControl_SDK_5_04_00_00/c2000ware/driverlib/
    8063                      .dwattr $C$DW$T$38, DW_AT_decl_line(0x107)
    8064                      .dwattr $C$DW$T$38, DW_AT_decl_column(0x01)
    8065                      .dwendtag $C$DW$T$38
    8066              
    8067                      .dwendtag $C$DW$TU$38
    8068              
    8069              
    8070              $C$DW$TU$39     .dwtag  DW_TAG_type_unit
    8071                      .dwmtype  $C$DW$T$39
    8072              $C$DW$T$39      .dwtag  DW_TAG_typedef
    8073                      .dwattr $C$DW$T$39, DW_AT_name("ADC_SOCNumber")
    8074                      .dwattr $C$DW$T$39, DW_AT_type(*$C$DW$T$38)
    8075                      .dwattr $C$DW$T$39, DW_AT_decl_file("C:/ti/C2000Ware_MotorControl_SDK_5_04_00_00/c2000ware/driverlib/
    8076                      .dwattr $C$DW$T$39, DW_AT_decl_line(0x118)
    8077                      .dwattr $C$DW$T$39, DW_AT_decl_column(0x03)
    8078              
    8079                      .dwendtag $C$DW$TU$39
    8080              
    8081              
    8082              $C$DW$TU$40     .dwtag  DW_TAG_type_unit
    8083                      .dwmtype  $C$DW$T$40
    8084              
    8085              $C$DW$T$40      .dwtag  DW_TAG_enumeration_type
    8086                      .dwattr $C$DW$T$40, DW_AT_byte_size(0x01)
    8087              $C$DW$534       .dwtag  DW_TAG_enumerator
    8088                      .dwattr $C$DW$534, DW_AT_name("ADC_TRIGGER_SW_ONLY")
    8089                      .dwattr $C$DW$534, DW_AT_const_value(0x00)
    8090                      .dwattr $C$DW$534, DW_AT_decl_file("C:/ti/C2000Ware_MotorControl_SDK_5_04_00_00/c2000ware/driverlib/f
    8091                      .dwattr $C$DW$534, DW_AT_decl_line(0xa3)
    8092                      .dwattr $C$DW$534, DW_AT_decl_column(0x05)
    8093              
    8094              $C$DW$535       .dwtag  DW_TAG_enumerator
TMS320C2000 Assembler PC v22.6.2 Wed Dec 10 14:45:02 2025

Copyright (c) 1996-2018 Texas Instruments Incorporated
dual_axis_servo_drive_hal.asm                                        PAGE  161

    8095                      .dwattr $C$DW$535, DW_AT_name("ADC_TRIGGER_CPU1_TINT0")
    8096                      .dwattr $C$DW$535, DW_AT_const_value(0x01)
    8097                      .dwattr $C$DW$535, DW_AT_decl_file("C:/ti/C2000Ware_MotorControl_SDK_5_04_00_00/c2000ware/driverlib/f
    8098                      .dwattr $C$DW$535, DW_AT_decl_line(0xa4)
    8099                      .dwattr $C$DW$535, DW_AT_decl_column(0x05)
    8100              
    8101              $C$DW$536       .dwtag  DW_TAG_enumerator
    8102                      .dwattr $C$DW$536, DW_AT_name("ADC_TRIGGER_CPU1_TINT1")
    8103                      .dwattr $C$DW$536, DW_AT_const_value(0x02)
    8104                      .dwattr $C$DW$536, DW_AT_decl_file("C:/ti/C2000Ware_MotorControl_SDK_5_04_00_00/c2000ware/driverlib/f
    8105                      .dwattr $C$DW$536, DW_AT_decl_line(0xa5)
    8106                      .dwattr $C$DW$536, DW_AT_decl_column(0x05)
    8107              
    8108              $C$DW$537       .dwtag  DW_TAG_enumerator
    8109                      .dwattr $C$DW$537, DW_AT_name("ADC_TRIGGER_CPU1_TINT2")
    8110                      .dwattr $C$DW$537, DW_AT_const_value(0x03)
    8111                      .dwattr $C$DW$537, DW_AT_decl_file("C:/ti/C2000Ware_MotorControl_SDK_5_04_00_00/c2000ware/driverlib/f
    8112                      .dwattr $C$DW$537, DW_AT_decl_line(0xa6)
    8113                      .dwattr $C$DW$537, DW_AT_decl_column(0x05)
    8114              
    8115              $C$DW$538       .dwtag  DW_TAG_enumerator
    8116                      .dwattr $C$DW$538, DW_AT_name("ADC_TRIGGER_GPIO")
    8117                      .dwattr $C$DW$538, DW_AT_const_value(0x04)
    8118                      .dwattr $C$DW$538, DW_AT_decl_file("C:/ti/C2000Ware_MotorControl_SDK_5_04_00_00/c2000ware/driverlib/f
    8119                      .dwattr $C$DW$538, DW_AT_decl_line(0xa7)
    8120                      .dwattr $C$DW$538, DW_AT_decl_column(0x05)
    8121              
    8122              $C$DW$539       .dwtag  DW_TAG_enumerator
    8123                      .dwattr $C$DW$539, DW_AT_name("ADC_TRIGGER_EPWM1_SOCA")
    8124                      .dwattr $C$DW$539, DW_AT_const_value(0x05)
    8125                      .dwattr $C$DW$539, DW_AT_decl_file("C:/ti/C2000Ware_MotorControl_SDK_5_04_00_00/c2000ware/driverlib/f
    8126                      .dwattr $C$DW$539, DW_AT_decl_line(0xa8)
    8127                      .dwattr $C$DW$539, DW_AT_decl_column(0x05)
    8128              
    8129              $C$DW$540       .dwtag  DW_TAG_enumerator
    8130                      .dwattr $C$DW$540, DW_AT_name("ADC_TRIGGER_EPWM1_SOCB")
    8131                      .dwattr $C$DW$540, DW_AT_const_value(0x06)
    8132                      .dwattr $C$DW$540, DW_AT_decl_file("C:/ti/C2000Ware_MotorControl_SDK_5_04_00_00/c2000ware/driverlib/f
    8133                      .dwattr $C$DW$540, DW_AT_decl_line(0xa9)
    8134                      .dwattr $C$DW$540, DW_AT_decl_column(0x05)
    8135              
    8136              $C$DW$541       .dwtag  DW_TAG_enumerator
    8137                      .dwattr $C$DW$541, DW_AT_name("ADC_TRIGGER_EPWM2_SOCA")
    8138                      .dwattr $C$DW$541, DW_AT_const_value(0x07)
    8139                      .dwattr $C$DW$541, DW_AT_decl_file("C:/ti/C2000Ware_MotorControl_SDK_5_04_00_00/c2000ware/driverlib/f
    8140                      .dwattr $C$DW$541, DW_AT_decl_line(0xaa)
    8141                      .dwattr $C$DW$541, DW_AT_decl_column(0x05)
    8142              
    8143              $C$DW$542       .dwtag  DW_TAG_enumerator
    8144                      .dwattr $C$DW$542, DW_AT_name("ADC_TRIGGER_EPWM2_SOCB")
    8145                      .dwattr $C$DW$542, DW_AT_const_value(0x08)
    8146                      .dwattr $C$DW$542, DW_AT_decl_file("C:/ti/C2000Ware_MotorControl_SDK_5_04_00_00/c2000ware/driverlib/f
    8147                      .dwattr $C$DW$542, DW_AT_decl_line(0xab)
    8148                      .dwattr $C$DW$542, DW_AT_decl_column(0x05)
    8149              
TMS320C2000 Assembler PC v22.6.2 Wed Dec 10 14:45:02 2025

Copyright (c) 1996-2018 Texas Instruments Incorporated
dual_axis_servo_drive_hal.asm                                        PAGE  162

    8150              $C$DW$543       .dwtag  DW_TAG_enumerator
    8151                      .dwattr $C$DW$543, DW_AT_name("ADC_TRIGGER_EPWM3_SOCA")
    8152                      .dwattr $C$DW$543, DW_AT_const_value(0x09)
    8153                      .dwattr $C$DW$543, DW_AT_decl_file("C:/ti/C2000Ware_MotorControl_SDK_5_04_00_00/c2000ware/driverlib/f
    8154                      .dwattr $C$DW$543, DW_AT_decl_line(0xac)
    8155                      .dwattr $C$DW$543, DW_AT_decl_column(0x05)
    8156              
    8157              $C$DW$544       .dwtag  DW_TAG_enumerator
    8158                      .dwattr $C$DW$544, DW_AT_name("ADC_TRIGGER_EPWM3_SOCB")
    8159                      .dwattr $C$DW$544, DW_AT_const_value(0x0a)
    8160                      .dwattr $C$DW$544, DW_AT_decl_file("C:/ti/C2000Ware_MotorControl_SDK_5_04_00_00/c2000ware/driverlib/f
    8161                      .dwattr $C$DW$544, DW_AT_decl_line(0xad)
    8162                      .dwattr $C$DW$544, DW_AT_decl_column(0x05)
    8163              
    8164              $C$DW$545       .dwtag  DW_TAG_enumerator
    8165                      .dwattr $C$DW$545, DW_AT_name("ADC_TRIGGER_EPWM4_SOCA")
    8166                      .dwattr $C$DW$545, DW_AT_const_value(0x0b)
    8167                      .dwattr $C$DW$545, DW_AT_decl_file("C:/ti/C2000Ware_MotorControl_SDK_5_04_00_00/c2000ware/driverlib/f
    8168                      .dwattr $C$DW$545, DW_AT_decl_line(0xae)
    8169                      .dwattr $C$DW$545, DW_AT_decl_column(0x05)
    8170              
    8171              $C$DW$546       .dwtag  DW_TAG_enumerator
    8172                      .dwattr $C$DW$546, DW_AT_name("ADC_TRIGGER_EPWM4_SOCB")
    8173                      .dwattr $C$DW$546, DW_AT_const_value(0x0c)
    8174                      .dwattr $C$DW$546, DW_AT_decl_file("C:/ti/C2000Ware_MotorControl_SDK_5_04_00_00/c2000ware/driverlib/f
    8175                      .dwattr $C$DW$546, DW_AT_decl_line(0xaf)
    8176                      .dwattr $C$DW$546, DW_AT_decl_column(0x05)
    8177              
    8178              $C$DW$547       .dwtag  DW_TAG_enumerator
    8179                      .dwattr $C$DW$547, DW_AT_name("ADC_TRIGGER_EPWM5_SOCA")
    8180                      .dwattr $C$DW$547, DW_AT_const_value(0x0d)
    8181                      .dwattr $C$DW$547, DW_AT_decl_file("C:/ti/C2000Ware_MotorControl_SDK_5_04_00_00/c2000ware/driverlib/f
    8182                      .dwattr $C$DW$547, DW_AT_decl_line(0xb0)
    8183                      .dwattr $C$DW$547, DW_AT_decl_column(0x05)
    8184              
    8185              $C$DW$548       .dwtag  DW_TAG_enumerator
    8186                      .dwattr $C$DW$548, DW_AT_name("ADC_TRIGGER_EPWM5_SOCB")
    8187                      .dwattr $C$DW$548, DW_AT_const_value(0x0e)
    8188                      .dwattr $C$DW$548, DW_AT_decl_file("C:/ti/C2000Ware_MotorControl_SDK_5_04_00_00/c2000ware/driverlib/f
    8189                      .dwattr $C$DW$548, DW_AT_decl_line(0xb1)
    8190                      .dwattr $C$DW$548, DW_AT_decl_column(0x05)
    8191              
    8192              $C$DW$549       .dwtag  DW_TAG_enumerator
    8193                      .dwattr $C$DW$549, DW_AT_name("ADC_TRIGGER_EPWM6_SOCA")
    8194                      .dwattr $C$DW$549, DW_AT_const_value(0x0f)
    8195                      .dwattr $C$DW$549, DW_AT_decl_file("C:/ti/C2000Ware_MotorControl_SDK_5_04_00_00/c2000ware/driverlib/f
    8196                      .dwattr $C$DW$549, DW_AT_decl_line(0xb2)
    8197                      .dwattr $C$DW$549, DW_AT_decl_column(0x05)
    8198              
    8199              $C$DW$550       .dwtag  DW_TAG_enumerator
    8200                      .dwattr $C$DW$550, DW_AT_name("ADC_TRIGGER_EPWM6_SOCB")
    8201                      .dwattr $C$DW$550, DW_AT_const_value(0x10)
    8202                      .dwattr $C$DW$550, DW_AT_decl_file("C:/ti/C2000Ware_MotorControl_SDK_5_04_00_00/c2000ware/driverlib/f
    8203                      .dwattr $C$DW$550, DW_AT_decl_line(0xb3)
    8204                      .dwattr $C$DW$550, DW_AT_decl_column(0x05)
TMS320C2000 Assembler PC v22.6.2 Wed Dec 10 14:45:02 2025

Copyright (c) 1996-2018 Texas Instruments Incorporated
dual_axis_servo_drive_hal.asm                                        PAGE  163

    8205              
    8206              $C$DW$551       .dwtag  DW_TAG_enumerator
    8207                      .dwattr $C$DW$551, DW_AT_name("ADC_TRIGGER_EPWM7_SOCA")
    8208                      .dwattr $C$DW$551, DW_AT_const_value(0x11)
    8209                      .dwattr $C$DW$551, DW_AT_decl_file("C:/ti/C2000Ware_MotorControl_SDK_5_04_00_00/c2000ware/driverlib/f
    8210                      .dwattr $C$DW$551, DW_AT_decl_line(0xb4)
    8211                      .dwattr $C$DW$551, DW_AT_decl_column(0x05)
    8212              
    8213              $C$DW$552       .dwtag  DW_TAG_enumerator
    8214                      .dwattr $C$DW$552, DW_AT_name("ADC_TRIGGER_EPWM7_SOCB")
    8215                      .dwattr $C$DW$552, DW_AT_const_value(0x12)
    8216                      .dwattr $C$DW$552, DW_AT_decl_file("C:/ti/C2000Ware_MotorControl_SDK_5_04_00_00/c2000ware/driverlib/f
    8217                      .dwattr $C$DW$552, DW_AT_decl_line(0xb5)
    8218                      .dwattr $C$DW$552, DW_AT_decl_column(0x05)
    8219              
    8220                      .dwattr $C$DW$T$40, DW_AT_decl_file("C:/ti/C2000Ware_MotorControl_SDK_5_04_00_00/c2000ware/driverlib/
    8221                      .dwattr $C$DW$T$40, DW_AT_decl_line(0xa2)
    8222                      .dwattr $C$DW$T$40, DW_AT_decl_column(0x01)
    8223                      .dwendtag $C$DW$T$40
    8224              
    8225                      .dwendtag $C$DW$TU$40
    8226              
    8227              
    8228              $C$DW$TU$41     .dwtag  DW_TAG_type_unit
    8229                      .dwmtype  $C$DW$T$41
    8230              $C$DW$T$41      .dwtag  DW_TAG_typedef
    8231                      .dwattr $C$DW$T$41, DW_AT_name("ADC_Trigger")
    8232                      .dwattr $C$DW$T$41, DW_AT_type(*$C$DW$T$40)
    8233                      .dwattr $C$DW$T$41, DW_AT_decl_file("C:/ti/C2000Ware_MotorControl_SDK_5_04_00_00/c2000ware/driverlib/
    8234                      .dwattr $C$DW$T$41, DW_AT_decl_line(0xb6)
    8235                      .dwattr $C$DW$T$41, DW_AT_decl_column(0x03)
    8236              
    8237                      .dwendtag $C$DW$TU$41
    8238              
    8239              
    8240              $C$DW$TU$42     .dwtag  DW_TAG_type_unit
    8241                      .dwmtype  $C$DW$T$42
    8242              
    8243              $C$DW$T$42      .dwtag  DW_TAG_enumeration_type
    8244                      .dwattr $C$DW$T$42, DW_AT_byte_size(0x01)
    8245              $C$DW$553       .dwtag  DW_TAG_enumerator
    8246                      .dwattr $C$DW$553, DW_AT_name("ADC_CH_ADCIN0")
    8247                      .dwattr $C$DW$553, DW_AT_const_value(0x00)
    8248                      .dwattr $C$DW$553, DW_AT_decl_file("C:/ti/C2000Ware_MotorControl_SDK_5_04_00_00/c2000ware/driverlib/f
    8249                      .dwattr $C$DW$553, DW_AT_decl_line(0xc1)
    8250                      .dwattr $C$DW$553, DW_AT_decl_column(0x05)
    8251              
    8252              $C$DW$554       .dwtag  DW_TAG_enumerator
    8253                      .dwattr $C$DW$554, DW_AT_name("ADC_CH_ADCIN1")
    8254                      .dwattr $C$DW$554, DW_AT_const_value(0x01)
    8255                      .dwattr $C$DW$554, DW_AT_decl_file("C:/ti/C2000Ware_MotorControl_SDK_5_04_00_00/c2000ware/driverlib/f
    8256                      .dwattr $C$DW$554, DW_AT_decl_line(0xc2)
    8257                      .dwattr $C$DW$554, DW_AT_decl_column(0x05)
    8258              
    8259              $C$DW$555       .dwtag  DW_TAG_enumerator
TMS320C2000 Assembler PC v22.6.2 Wed Dec 10 14:45:02 2025

Copyright (c) 1996-2018 Texas Instruments Incorporated
dual_axis_servo_drive_hal.asm                                        PAGE  164

    8260                      .dwattr $C$DW$555, DW_AT_name("ADC_CH_ADCIN2")
    8261                      .dwattr $C$DW$555, DW_AT_const_value(0x02)
    8262                      .dwattr $C$DW$555, DW_AT_decl_file("C:/ti/C2000Ware_MotorControl_SDK_5_04_00_00/c2000ware/driverlib/f
    8263                      .dwattr $C$DW$555, DW_AT_decl_line(0xc3)
    8264                      .dwattr $C$DW$555, DW_AT_decl_column(0x05)
    8265              
    8266              $C$DW$556       .dwtag  DW_TAG_enumerator
    8267                      .dwattr $C$DW$556, DW_AT_name("ADC_CH_ADCIN3")
    8268                      .dwattr $C$DW$556, DW_AT_const_value(0x03)
    8269                      .dwattr $C$DW$556, DW_AT_decl_file("C:/ti/C2000Ware_MotorControl_SDK_5_04_00_00/c2000ware/driverlib/f
    8270                      .dwattr $C$DW$556, DW_AT_decl_line(0xc4)
    8271                      .dwattr $C$DW$556, DW_AT_decl_column(0x05)
    8272              
    8273              $C$DW$557       .dwtag  DW_TAG_enumerator
    8274                      .dwattr $C$DW$557, DW_AT_name("ADC_CH_ADCIN4")
    8275                      .dwattr $C$DW$557, DW_AT_const_value(0x04)
    8276                      .dwattr $C$DW$557, DW_AT_decl_file("C:/ti/C2000Ware_MotorControl_SDK_5_04_00_00/c2000ware/driverlib/f
    8277                      .dwattr $C$DW$557, DW_AT_decl_line(0xc5)
    8278                      .dwattr $C$DW$557, DW_AT_decl_column(0x05)
    8279              
    8280              $C$DW$558       .dwtag  DW_TAG_enumerator
    8281                      .dwattr $C$DW$558, DW_AT_name("ADC_CH_ADCIN5")
    8282                      .dwattr $C$DW$558, DW_AT_const_value(0x05)
    8283                      .dwattr $C$DW$558, DW_AT_decl_file("C:/ti/C2000Ware_MotorControl_SDK_5_04_00_00/c2000ware/driverlib/f
    8284                      .dwattr $C$DW$558, DW_AT_decl_line(0xc6)
    8285                      .dwattr $C$DW$558, DW_AT_decl_column(0x05)
    8286              
    8287              $C$DW$559       .dwtag  DW_TAG_enumerator
    8288                      .dwattr $C$DW$559, DW_AT_name("ADC_CH_ADCIN6")
    8289                      .dwattr $C$DW$559, DW_AT_const_value(0x06)
    8290                      .dwattr $C$DW$559, DW_AT_decl_file("C:/ti/C2000Ware_MotorControl_SDK_5_04_00_00/c2000ware/driverlib/f
    8291                      .dwattr $C$DW$559, DW_AT_decl_line(0xc7)
    8292                      .dwattr $C$DW$559, DW_AT_decl_column(0x05)
    8293              
    8294              $C$DW$560       .dwtag  DW_TAG_enumerator
    8295                      .dwattr $C$DW$560, DW_AT_name("ADC_CH_ADCIN7")
    8296                      .dwattr $C$DW$560, DW_AT_const_value(0x07)
    8297                      .dwattr $C$DW$560, DW_AT_decl_file("C:/ti/C2000Ware_MotorControl_SDK_5_04_00_00/c2000ware/driverlib/f
    8298                      .dwattr $C$DW$560, DW_AT_decl_line(0xc8)
    8299                      .dwattr $C$DW$560, DW_AT_decl_column(0x05)
    8300              
    8301              $C$DW$561       .dwtag  DW_TAG_enumerator
    8302                      .dwattr $C$DW$561, DW_AT_name("ADC_CH_ADCIN8")
    8303                      .dwattr $C$DW$561, DW_AT_const_value(0x08)
    8304                      .dwattr $C$DW$561, DW_AT_decl_file("C:/ti/C2000Ware_MotorControl_SDK_5_04_00_00/c2000ware/driverlib/f
    8305                      .dwattr $C$DW$561, DW_AT_decl_line(0xc9)
    8306                      .dwattr $C$DW$561, DW_AT_decl_column(0x05)
    8307              
    8308              $C$DW$562       .dwtag  DW_TAG_enumerator
    8309                      .dwattr $C$DW$562, DW_AT_name("ADC_CH_ADCIN9")
    8310                      .dwattr $C$DW$562, DW_AT_const_value(0x09)
    8311                      .dwattr $C$DW$562, DW_AT_decl_file("C:/ti/C2000Ware_MotorControl_SDK_5_04_00_00/c2000ware/driverlib/f
    8312                      .dwattr $C$DW$562, DW_AT_decl_line(0xca)
    8313                      .dwattr $C$DW$562, DW_AT_decl_column(0x05)
    8314              
TMS320C2000 Assembler PC v22.6.2 Wed Dec 10 14:45:02 2025

Copyright (c) 1996-2018 Texas Instruments Incorporated
dual_axis_servo_drive_hal.asm                                        PAGE  165

    8315              $C$DW$563       .dwtag  DW_TAG_enumerator
    8316                      .dwattr $C$DW$563, DW_AT_name("ADC_CH_ADCIN10")
    8317                      .dwattr $C$DW$563, DW_AT_const_value(0x0a)
    8318                      .dwattr $C$DW$563, DW_AT_decl_file("C:/ti/C2000Ware_MotorControl_SDK_5_04_00_00/c2000ware/driverlib/f
    8319                      .dwattr $C$DW$563, DW_AT_decl_line(0xcb)
    8320                      .dwattr $C$DW$563, DW_AT_decl_column(0x05)
    8321              
    8322              $C$DW$564       .dwtag  DW_TAG_enumerator
    8323                      .dwattr $C$DW$564, DW_AT_name("ADC_CH_ADCIN11")
    8324                      .dwattr $C$DW$564, DW_AT_const_value(0x0b)
    8325                      .dwattr $C$DW$564, DW_AT_decl_file("C:/ti/C2000Ware_MotorControl_SDK_5_04_00_00/c2000ware/driverlib/f
    8326                      .dwattr $C$DW$564, DW_AT_decl_line(0xcc)
    8327                      .dwattr $C$DW$564, DW_AT_decl_column(0x05)
    8328              
    8329              $C$DW$565       .dwtag  DW_TAG_enumerator
    8330                      .dwattr $C$DW$565, DW_AT_name("ADC_CH_ADCIN12")
    8331                      .dwattr $C$DW$565, DW_AT_const_value(0x0c)
    8332                      .dwattr $C$DW$565, DW_AT_decl_file("C:/ti/C2000Ware_MotorControl_SDK_5_04_00_00/c2000ware/driverlib/f
    8333                      .dwattr $C$DW$565, DW_AT_decl_line(0xcd)
    8334                      .dwattr $C$DW$565, DW_AT_decl_column(0x05)
    8335              
    8336              $C$DW$566       .dwtag  DW_TAG_enumerator
    8337                      .dwattr $C$DW$566, DW_AT_name("ADC_CH_ADCIN13")
    8338                      .dwattr $C$DW$566, DW_AT_const_value(0x0d)
    8339                      .dwattr $C$DW$566, DW_AT_decl_file("C:/ti/C2000Ware_MotorControl_SDK_5_04_00_00/c2000ware/driverlib/f
    8340                      .dwattr $C$DW$566, DW_AT_decl_line(0xce)
    8341                      .dwattr $C$DW$566, DW_AT_decl_column(0x05)
    8342              
    8343              $C$DW$567       .dwtag  DW_TAG_enumerator
    8344                      .dwattr $C$DW$567, DW_AT_name("ADC_CH_ADCIN14")
    8345                      .dwattr $C$DW$567, DW_AT_const_value(0x0e)
    8346                      .dwattr $C$DW$567, DW_AT_decl_file("C:/ti/C2000Ware_MotorControl_SDK_5_04_00_00/c2000ware/driverlib/f
    8347                      .dwattr $C$DW$567, DW_AT_decl_line(0xcf)
    8348                      .dwattr $C$DW$567, DW_AT_decl_column(0x05)
    8349              
    8350              $C$DW$568       .dwtag  DW_TAG_enumerator
    8351                      .dwattr $C$DW$568, DW_AT_name("ADC_CH_ADCIN15")
    8352                      .dwattr $C$DW$568, DW_AT_const_value(0x0f)
    8353                      .dwattr $C$DW$568, DW_AT_decl_file("C:/ti/C2000Ware_MotorControl_SDK_5_04_00_00/c2000ware/driverlib/f
    8354                      .dwattr $C$DW$568, DW_AT_decl_line(0xd0)
    8355                      .dwattr $C$DW$568, DW_AT_decl_column(0x05)
    8356              
    8357                      .dwattr $C$DW$T$42, DW_AT_decl_file("C:/ti/C2000Ware_MotorControl_SDK_5_04_00_00/c2000ware/driverlib/
    8358                      .dwattr $C$DW$T$42, DW_AT_decl_line(0xc0)
    8359                      .dwattr $C$DW$T$42, DW_AT_decl_column(0x01)
    8360                      .dwendtag $C$DW$T$42
    8361              
    8362                      .dwendtag $C$DW$TU$42
    8363              
    8364              
    8365              $C$DW$TU$43     .dwtag  DW_TAG_type_unit
    8366                      .dwmtype  $C$DW$T$43
    8367              $C$DW$T$43      .dwtag  DW_TAG_typedef
    8368                      .dwattr $C$DW$T$43, DW_AT_name("ADC_Channel")
    8369                      .dwattr $C$DW$T$43, DW_AT_type(*$C$DW$T$42)
TMS320C2000 Assembler PC v22.6.2 Wed Dec 10 14:45:02 2025

Copyright (c) 1996-2018 Texas Instruments Incorporated
dual_axis_servo_drive_hal.asm                                        PAGE  166

    8370                      .dwattr $C$DW$T$43, DW_AT_decl_file("C:/ti/C2000Ware_MotorControl_SDK_5_04_00_00/c2000ware/driverlib/
    8371                      .dwattr $C$DW$T$43, DW_AT_decl_line(0xd1)
    8372                      .dwattr $C$DW$T$43, DW_AT_decl_column(0x03)
    8373              
    8374                      .dwendtag $C$DW$TU$43
    8375              
    8376              
    8377              $C$DW$TU$44     .dwtag  DW_TAG_type_unit
    8378                      .dwmtype  $C$DW$T$44
    8379              
    8380              $C$DW$T$44      .dwtag  DW_TAG_enumeration_type
    8381                      .dwattr $C$DW$T$44, DW_AT_byte_size(0x01)
    8382              $C$DW$569       .dwtag  DW_TAG_enumerator
    8383                      .dwattr $C$DW$569, DW_AT_name("ADC_PULSE_END_OF_ACQ_WIN")
    8384                      .dwattr $C$DW$569, DW_AT_const_value(0x00)
    8385                      .dwattr $C$DW$569, DW_AT_decl_file("C:/ti/C2000Ware_MotorControl_SDK_5_04_00_00/c2000ware/driverlib/f
    8386                      .dwattr $C$DW$569, DW_AT_decl_line(0xdc)
    8387                      .dwattr $C$DW$569, DW_AT_decl_column(0x05)
    8388              
    8389              $C$DW$570       .dwtag  DW_TAG_enumerator
    8390                      .dwattr $C$DW$570, DW_AT_name("ADC_PULSE_END_OF_CONV")
    8391                      .dwattr $C$DW$570, DW_AT_const_value(0x04)
    8392                      .dwattr $C$DW$570, DW_AT_decl_file("C:/ti/C2000Ware_MotorControl_SDK_5_04_00_00/c2000ware/driverlib/f
    8393                      .dwattr $C$DW$570, DW_AT_decl_line(0xde)
    8394                      .dwattr $C$DW$570, DW_AT_decl_column(0x05)
    8395              
    8396                      .dwattr $C$DW$T$44, DW_AT_decl_file("C:/ti/C2000Ware_MotorControl_SDK_5_04_00_00/c2000ware/driverlib/
    8397                      .dwattr $C$DW$T$44, DW_AT_decl_line(0xda)
    8398                      .dwattr $C$DW$T$44, DW_AT_decl_column(0x01)
    8399                      .dwendtag $C$DW$T$44
    8400              
    8401                      .dwendtag $C$DW$TU$44
    8402              
    8403              
    8404              $C$DW$TU$45     .dwtag  DW_TAG_type_unit
    8405                      .dwmtype  $C$DW$T$45
    8406              $C$DW$T$45      .dwtag  DW_TAG_typedef
    8407                      .dwattr $C$DW$T$45, DW_AT_name("ADC_PulseMode")
    8408                      .dwattr $C$DW$T$45, DW_AT_type(*$C$DW$T$44)
    8409                      .dwattr $C$DW$T$45, DW_AT_decl_file("C:/ti/C2000Ware_MotorControl_SDK_5_04_00_00/c2000ware/driverlib/
    8410                      .dwattr $C$DW$T$45, DW_AT_decl_line(0xdf)
    8411                      .dwattr $C$DW$T$45, DW_AT_decl_column(0x03)
    8412              
    8413                      .dwendtag $C$DW$TU$45
    8414              
    8415              
    8416              $C$DW$TU$46     .dwtag  DW_TAG_type_unit
    8417                      .dwmtype  $C$DW$T$46
    8418              
    8419              $C$DW$T$46      .dwtag  DW_TAG_enumeration_type
    8420                      .dwattr $C$DW$T$46, DW_AT_byte_size(0x01)
    8421              $C$DW$571       .dwtag  DW_TAG_enumerator
    8422                      .dwattr $C$DW$571, DW_AT_name("ADC_PRI_ALL_ROUND_ROBIN")
    8423                      .dwattr $C$DW$571, DW_AT_const_value(0x00)
    8424                      .dwattr $C$DW$571, DW_AT_decl_file("C:/ti/C2000Ware_MotorControl_SDK_5_04_00_00/c2000ware/driverlib/f
TMS320C2000 Assembler PC v22.6.2 Wed Dec 10 14:45:02 2025

Copyright (c) 1996-2018 Texas Instruments Incorporated
dual_axis_servo_drive_hal.asm                                        PAGE  167

    8425                      .dwattr $C$DW$571, DW_AT_decl_line(0x12f)
    8426                      .dwattr $C$DW$571, DW_AT_decl_column(0x05)
    8427              
    8428              $C$DW$572       .dwtag  DW_TAG_enumerator
    8429                      .dwattr $C$DW$572, DW_AT_name("ADC_PRI_SOC0_HIPRI")
    8430                      .dwattr $C$DW$572, DW_AT_const_value(0x01)
    8431                      .dwattr $C$DW$572, DW_AT_decl_file("C:/ti/C2000Ware_MotorControl_SDK_5_04_00_00/c2000ware/driverlib/f
    8432                      .dwattr $C$DW$572, DW_AT_decl_line(0x130)
    8433                      .dwattr $C$DW$572, DW_AT_decl_column(0x05)
    8434              
    8435              $C$DW$573       .dwtag  DW_TAG_enumerator
    8436                      .dwattr $C$DW$573, DW_AT_name("ADC_PRI_THRU_SOC1_HIPRI")
    8437                      .dwattr $C$DW$573, DW_AT_const_value(0x02)
    8438                      .dwattr $C$DW$573, DW_AT_decl_file("C:/ti/C2000Ware_MotorControl_SDK_5_04_00_00/c2000ware/driverlib/f
    8439                      .dwattr $C$DW$573, DW_AT_decl_line(0x131)
    8440                      .dwattr $C$DW$573, DW_AT_decl_column(0x05)
    8441              
    8442              $C$DW$574       .dwtag  DW_TAG_enumerator
    8443                      .dwattr $C$DW$574, DW_AT_name("ADC_PRI_THRU_SOC2_HIPRI")
    8444                      .dwattr $C$DW$574, DW_AT_const_value(0x03)
    8445                      .dwattr $C$DW$574, DW_AT_decl_file("C:/ti/C2000Ware_MotorControl_SDK_5_04_00_00/c2000ware/driverlib/f
    8446                      .dwattr $C$DW$574, DW_AT_decl_line(0x132)
    8447                      .dwattr $C$DW$574, DW_AT_decl_column(0x05)
    8448              
    8449              $C$DW$575       .dwtag  DW_TAG_enumerator
    8450                      .dwattr $C$DW$575, DW_AT_name("ADC_PRI_THRU_SOC3_HIPRI")
    8451                      .dwattr $C$DW$575, DW_AT_const_value(0x04)
    8452                      .dwattr $C$DW$575, DW_AT_decl_file("C:/ti/C2000Ware_MotorControl_SDK_5_04_00_00/c2000ware/driverlib/f
    8453                      .dwattr $C$DW$575, DW_AT_decl_line(0x133)
    8454                      .dwattr $C$DW$575, DW_AT_decl_column(0x05)
    8455              
    8456              $C$DW$576       .dwtag  DW_TAG_enumerator
    8457                      .dwattr $C$DW$576, DW_AT_name("ADC_PRI_THRU_SOC4_HIPRI")
    8458                      .dwattr $C$DW$576, DW_AT_const_value(0x05)
    8459                      .dwattr $C$DW$576, DW_AT_decl_file("C:/ti/C2000Ware_MotorControl_SDK_5_04_00_00/c2000ware/driverlib/f
    8460                      .dwattr $C$DW$576, DW_AT_decl_line(0x134)
    8461                      .dwattr $C$DW$576, DW_AT_decl_column(0x05)
    8462              
    8463              $C$DW$577       .dwtag  DW_TAG_enumerator
    8464                      .dwattr $C$DW$577, DW_AT_name("ADC_PRI_THRU_SOC5_HIPRI")
    8465                      .dwattr $C$DW$577, DW_AT_const_value(0x06)
    8466                      .dwattr $C$DW$577, DW_AT_decl_file("C:/ti/C2000Ware_MotorControl_SDK_5_04_00_00/c2000ware/driverlib/f
    8467                      .dwattr $C$DW$577, DW_AT_decl_line(0x135)
    8468                      .dwattr $C$DW$577, DW_AT_decl_column(0x05)
    8469              
    8470              $C$DW$578       .dwtag  DW_TAG_enumerator
    8471                      .dwattr $C$DW$578, DW_AT_name("ADC_PRI_THRU_SOC6_HIPRI")
    8472                      .dwattr $C$DW$578, DW_AT_const_value(0x07)
    8473                      .dwattr $C$DW$578, DW_AT_decl_file("C:/ti/C2000Ware_MotorControl_SDK_5_04_00_00/c2000ware/driverlib/f
    8474                      .dwattr $C$DW$578, DW_AT_decl_line(0x136)
    8475                      .dwattr $C$DW$578, DW_AT_decl_column(0x05)
    8476              
    8477              $C$DW$579       .dwtag  DW_TAG_enumerator
    8478                      .dwattr $C$DW$579, DW_AT_name("ADC_PRI_THRU_SOC7_HIPRI")
    8479                      .dwattr $C$DW$579, DW_AT_const_value(0x08)
TMS320C2000 Assembler PC v22.6.2 Wed Dec 10 14:45:02 2025

Copyright (c) 1996-2018 Texas Instruments Incorporated
dual_axis_servo_drive_hal.asm                                        PAGE  168

    8480                      .dwattr $C$DW$579, DW_AT_decl_file("C:/ti/C2000Ware_MotorControl_SDK_5_04_00_00/c2000ware/driverlib/f
    8481                      .dwattr $C$DW$579, DW_AT_decl_line(0x137)
    8482                      .dwattr $C$DW$579, DW_AT_decl_column(0x05)
    8483              
    8484              $C$DW$580       .dwtag  DW_TAG_enumerator
    8485                      .dwattr $C$DW$580, DW_AT_name("ADC_PRI_THRU_SOC8_HIPRI")
    8486                      .dwattr $C$DW$580, DW_AT_const_value(0x09)
    8487                      .dwattr $C$DW$580, DW_AT_decl_file("C:/ti/C2000Ware_MotorControl_SDK_5_04_00_00/c2000ware/driverlib/f
    8488                      .dwattr $C$DW$580, DW_AT_decl_line(0x138)
    8489                      .dwattr $C$DW$580, DW_AT_decl_column(0x05)
    8490              
    8491              $C$DW$581       .dwtag  DW_TAG_enumerator
    8492                      .dwattr $C$DW$581, DW_AT_name("ADC_PRI_THRU_SOC9_HIPRI")
    8493                      .dwattr $C$DW$581, DW_AT_const_value(0x0a)
    8494                      .dwattr $C$DW$581, DW_AT_decl_file("C:/ti/C2000Ware_MotorControl_SDK_5_04_00_00/c2000ware/driverlib/f
    8495                      .dwattr $C$DW$581, DW_AT_decl_line(0x139)
    8496                      .dwattr $C$DW$581, DW_AT_decl_column(0x05)
    8497              
    8498              $C$DW$582       .dwtag  DW_TAG_enumerator
    8499                      .dwattr $C$DW$582, DW_AT_name("ADC_PRI_THRU_SOC10_HIPRI")
    8500                      .dwattr $C$DW$582, DW_AT_const_value(0x0b)
    8501                      .dwattr $C$DW$582, DW_AT_decl_file("C:/ti/C2000Ware_MotorControl_SDK_5_04_00_00/c2000ware/driverlib/f
    8502                      .dwattr $C$DW$582, DW_AT_decl_line(0x13a)
    8503                      .dwattr $C$DW$582, DW_AT_decl_column(0x05)
    8504              
    8505              $C$DW$583       .dwtag  DW_TAG_enumerator
    8506                      .dwattr $C$DW$583, DW_AT_name("ADC_PRI_THRU_SOC11_HIPRI")
    8507                      .dwattr $C$DW$583, DW_AT_const_value(0x0c)
    8508                      .dwattr $C$DW$583, DW_AT_decl_file("C:/ti/C2000Ware_MotorControl_SDK_5_04_00_00/c2000ware/driverlib/f
    8509                      .dwattr $C$DW$583, DW_AT_decl_line(0x13b)
    8510                      .dwattr $C$DW$583, DW_AT_decl_column(0x05)
    8511              
    8512              $C$DW$584       .dwtag  DW_TAG_enumerator
    8513                      .dwattr $C$DW$584, DW_AT_name("ADC_PRI_THRU_SOC12_HIPRI")
    8514                      .dwattr $C$DW$584, DW_AT_const_value(0x0d)
    8515                      .dwattr $C$DW$584, DW_AT_decl_file("C:/ti/C2000Ware_MotorControl_SDK_5_04_00_00/c2000ware/driverlib/f
    8516                      .dwattr $C$DW$584, DW_AT_decl_line(0x13c)
    8517                      .dwattr $C$DW$584, DW_AT_decl_column(0x05)
    8518              
    8519              $C$DW$585       .dwtag  DW_TAG_enumerator
    8520                      .dwattr $C$DW$585, DW_AT_name("ADC_PRI_THRU_SOC13_HIPRI")
    8521                      .dwattr $C$DW$585, DW_AT_const_value(0x0e)
    8522                      .dwattr $C$DW$585, DW_AT_decl_file("C:/ti/C2000Ware_MotorControl_SDK_5_04_00_00/c2000ware/driverlib/f
    8523                      .dwattr $C$DW$585, DW_AT_decl_line(0x13d)
    8524                      .dwattr $C$DW$585, DW_AT_decl_column(0x05)
    8525              
    8526              $C$DW$586       .dwtag  DW_TAG_enumerator
    8527                      .dwattr $C$DW$586, DW_AT_name("ADC_PRI_THRU_SOC14_HIPRI")
    8528                      .dwattr $C$DW$586, DW_AT_const_value(0x0f)
    8529                      .dwattr $C$DW$586, DW_AT_decl_file("C:/ti/C2000Ware_MotorControl_SDK_5_04_00_00/c2000ware/driverlib/f
    8530                      .dwattr $C$DW$586, DW_AT_decl_line(0x13e)
    8531                      .dwattr $C$DW$586, DW_AT_decl_column(0x05)
    8532              
    8533              $C$DW$587       .dwtag  DW_TAG_enumerator
    8534                      .dwattr $C$DW$587, DW_AT_name("ADC_PRI_ALL_HIPRI")
TMS320C2000 Assembler PC v22.6.2 Wed Dec 10 14:45:02 2025

Copyright (c) 1996-2018 Texas Instruments Incorporated
dual_axis_servo_drive_hal.asm                                        PAGE  169

    8535                      .dwattr $C$DW$587, DW_AT_const_value(0x10)
    8536                      .dwattr $C$DW$587, DW_AT_decl_file("C:/ti/C2000Ware_MotorControl_SDK_5_04_00_00/c2000ware/driverlib/f
    8537                      .dwattr $C$DW$587, DW_AT_decl_line(0x13f)
    8538                      .dwattr $C$DW$587, DW_AT_decl_column(0x05)
    8539              
    8540                      .dwattr $C$DW$T$46, DW_AT_decl_file("C:/ti/C2000Ware_MotorControl_SDK_5_04_00_00/c2000ware/driverlib/
    8541                      .dwattr $C$DW$T$46, DW_AT_decl_line(0x12e)
    8542                      .dwattr $C$DW$T$46, DW_AT_decl_column(0x01)
    8543                      .dwendtag $C$DW$T$46
    8544              
    8545                      .dwendtag $C$DW$TU$46
    8546              
    8547              
    8548              $C$DW$TU$47     .dwtag  DW_TAG_type_unit
    8549                      .dwmtype  $C$DW$T$47
    8550              $C$DW$T$47      .dwtag  DW_TAG_typedef
    8551                      .dwattr $C$DW$T$47, DW_AT_name("ADC_PriorityMode")
    8552                      .dwattr $C$DW$T$47, DW_AT_type(*$C$DW$T$46)
    8553                      .dwattr $C$DW$T$47, DW_AT_decl_file("C:/ti/C2000Ware_MotorControl_SDK_5_04_00_00/c2000ware/driverlib/
    8554                      .dwattr $C$DW$T$47, DW_AT_decl_line(0x140)
    8555                      .dwattr $C$DW$T$47, DW_AT_decl_column(0x03)
    8556              
    8557                      .dwendtag $C$DW$TU$47
    8558              
    8559              
    8560              $C$DW$TU$48     .dwtag  DW_TAG_type_unit
    8561                      .dwmtype  $C$DW$T$48
    8562              
    8563              $C$DW$T$48      .dwtag  DW_TAG_enumeration_type
    8564                      .dwattr $C$DW$T$48, DW_AT_byte_size(0x01)
    8565              $C$DW$588       .dwtag  DW_TAG_enumerator
    8566                      .dwattr $C$DW$588, DW_AT_name("ADC_PPB_NUMBER1")
    8567                      .dwattr $C$DW$588, DW_AT_const_value(0x00)
    8568                      .dwattr $C$DW$588, DW_AT_decl_file("C:/ti/C2000Ware_MotorControl_SDK_5_04_00_00/c2000ware/driverlib/f
    8569                      .dwattr $C$DW$588, DW_AT_decl_line(0xf7)
    8570                      .dwattr $C$DW$588, DW_AT_decl_column(0x05)
    8571              
    8572              $C$DW$589       .dwtag  DW_TAG_enumerator
    8573                      .dwattr $C$DW$589, DW_AT_name("ADC_PPB_NUMBER2")
    8574                      .dwattr $C$DW$589, DW_AT_const_value(0x01)
    8575                      .dwattr $C$DW$589, DW_AT_decl_file("C:/ti/C2000Ware_MotorControl_SDK_5_04_00_00/c2000ware/driverlib/f
    8576                      .dwattr $C$DW$589, DW_AT_decl_line(0xf8)
    8577                      .dwattr $C$DW$589, DW_AT_decl_column(0x05)
    8578              
    8579              $C$DW$590       .dwtag  DW_TAG_enumerator
    8580                      .dwattr $C$DW$590, DW_AT_name("ADC_PPB_NUMBER3")
    8581                      .dwattr $C$DW$590, DW_AT_const_value(0x02)
    8582                      .dwattr $C$DW$590, DW_AT_decl_file("C:/ti/C2000Ware_MotorControl_SDK_5_04_00_00/c2000ware/driverlib/f
    8583                      .dwattr $C$DW$590, DW_AT_decl_line(0xf9)
    8584                      .dwattr $C$DW$590, DW_AT_decl_column(0x05)
    8585              
    8586              $C$DW$591       .dwtag  DW_TAG_enumerator
    8587                      .dwattr $C$DW$591, DW_AT_name("ADC_PPB_NUMBER4")
    8588                      .dwattr $C$DW$591, DW_AT_const_value(0x03)
    8589                      .dwattr $C$DW$591, DW_AT_decl_file("C:/ti/C2000Ware_MotorControl_SDK_5_04_00_00/c2000ware/driverlib/f
TMS320C2000 Assembler PC v22.6.2 Wed Dec 10 14:45:02 2025

Copyright (c) 1996-2018 Texas Instruments Incorporated
dual_axis_servo_drive_hal.asm                                        PAGE  170

    8590                      .dwattr $C$DW$591, DW_AT_decl_line(0xfa)
    8591                      .dwattr $C$DW$591, DW_AT_decl_column(0x05)
    8592              
    8593                      .dwattr $C$DW$T$48, DW_AT_decl_file("C:/ti/C2000Ware_MotorControl_SDK_5_04_00_00/c2000ware/driverlib/
    8594                      .dwattr $C$DW$T$48, DW_AT_decl_line(0xf6)
    8595                      .dwattr $C$DW$T$48, DW_AT_decl_column(0x01)
    8596                      .dwendtag $C$DW$T$48
    8597              
    8598                      .dwendtag $C$DW$TU$48
    8599              
    8600              
    8601              $C$DW$TU$49     .dwtag  DW_TAG_type_unit
    8602                      .dwmtype  $C$DW$T$49
    8603              $C$DW$T$49      .dwtag  DW_TAG_typedef
    8604                      .dwattr $C$DW$T$49, DW_AT_name("ADC_PPBNumber")
    8605                      .dwattr $C$DW$T$49, DW_AT_type(*$C$DW$T$48)
    8606                      .dwattr $C$DW$T$49, DW_AT_decl_file("C:/ti/C2000Ware_MotorControl_SDK_5_04_00_00/c2000ware/driverlib/
    8607                      .dwattr $C$DW$T$49, DW_AT_decl_line(0xfb)
    8608                      .dwattr $C$DW$T$49, DW_AT_decl_column(0x03)
    8609              
    8610                      .dwendtag $C$DW$TU$49
    8611              
    8612              
    8613              $C$DW$TU$50     .dwtag  DW_TAG_type_unit
    8614                      .dwmtype  $C$DW$T$50
    8615              
    8616              $C$DW$T$50      .dwtag  DW_TAG_enumeration_type
    8617                      .dwattr $C$DW$T$50, DW_AT_byte_size(0x01)
    8618              $C$DW$592       .dwtag  DW_TAG_enumerator
    8619                      .dwattr $C$DW$592, DW_AT_name("ADC_INT_NUMBER1")
    8620                      .dwattr $C$DW$592, DW_AT_const_value(0x00)
    8621                      .dwattr $C$DW$592, DW_AT_decl_file("C:/ti/C2000Ware_MotorControl_SDK_5_04_00_00/c2000ware/driverlib/f
    8622                      .dwattr $C$DW$592, DW_AT_decl_line(0xe9)
    8623                      .dwattr $C$DW$592, DW_AT_decl_column(0x05)
    8624              
    8625              $C$DW$593       .dwtag  DW_TAG_enumerator
    8626                      .dwattr $C$DW$593, DW_AT_name("ADC_INT_NUMBER2")
    8627                      .dwattr $C$DW$593, DW_AT_const_value(0x01)
    8628                      .dwattr $C$DW$593, DW_AT_decl_file("C:/ti/C2000Ware_MotorControl_SDK_5_04_00_00/c2000ware/driverlib/f
    8629                      .dwattr $C$DW$593, DW_AT_decl_line(0xea)
    8630                      .dwattr $C$DW$593, DW_AT_decl_column(0x05)
    8631              
    8632              $C$DW$594       .dwtag  DW_TAG_enumerator
    8633                      .dwattr $C$DW$594, DW_AT_name("ADC_INT_NUMBER3")
    8634                      .dwattr $C$DW$594, DW_AT_const_value(0x02)
    8635                      .dwattr $C$DW$594, DW_AT_decl_file("C:/ti/C2000Ware_MotorControl_SDK_5_04_00_00/c2000ware/driverlib/f
    8636                      .dwattr $C$DW$594, DW_AT_decl_line(0xeb)
    8637                      .dwattr $C$DW$594, DW_AT_decl_column(0x05)
    8638              
    8639              $C$DW$595       .dwtag  DW_TAG_enumerator
    8640                      .dwattr $C$DW$595, DW_AT_name("ADC_INT_NUMBER4")
    8641                      .dwattr $C$DW$595, DW_AT_const_value(0x03)
    8642                      .dwattr $C$DW$595, DW_AT_decl_file("C:/ti/C2000Ware_MotorControl_SDK_5_04_00_00/c2000ware/driverlib/f
    8643                      .dwattr $C$DW$595, DW_AT_decl_line(0xec)
    8644                      .dwattr $C$DW$595, DW_AT_decl_column(0x05)
TMS320C2000 Assembler PC v22.6.2 Wed Dec 10 14:45:02 2025

Copyright (c) 1996-2018 Texas Instruments Incorporated
dual_axis_servo_drive_hal.asm                                        PAGE  171

    8645              
    8646                      .dwattr $C$DW$T$50, DW_AT_decl_file("C:/ti/C2000Ware_MotorControl_SDK_5_04_00_00/c2000ware/driverlib/
    8647                      .dwattr $C$DW$T$50, DW_AT_decl_line(0xe8)
    8648                      .dwattr $C$DW$T$50, DW_AT_decl_column(0x01)
    8649                      .dwendtag $C$DW$T$50
    8650              
    8651                      .dwendtag $C$DW$TU$50
    8652              
    8653              
    8654              $C$DW$TU$51     .dwtag  DW_TAG_type_unit
    8655                      .dwmtype  $C$DW$T$51
    8656              $C$DW$T$51      .dwtag  DW_TAG_typedef
    8657                      .dwattr $C$DW$T$51, DW_AT_name("ADC_IntNumber")
    8658                      .dwattr $C$DW$T$51, DW_AT_type(*$C$DW$T$50)
    8659                      .dwattr $C$DW$T$51, DW_AT_decl_file("C:/ti/C2000Ware_MotorControl_SDK_5_04_00_00/c2000ware/driverlib/
    8660                      .dwattr $C$DW$T$51, DW_AT_decl_line(0xed)
    8661                      .dwattr $C$DW$T$51, DW_AT_decl_column(0x03)
    8662              
    8663                      .dwendtag $C$DW$TU$51
    8664              
    8665              
    8666              $C$DW$TU$52     .dwtag  DW_TAG_type_unit
    8667                      .dwmtype  $C$DW$T$52
    8668              
    8669              $C$DW$T$52      .dwtag  DW_TAG_enumeration_type
    8670                      .dwattr $C$DW$T$52, DW_AT_byte_size(0x01)
    8671              $C$DW$596       .dwtag  DW_TAG_enumerator
    8672                      .dwattr $C$DW$596, DW_AT_name("ADC_REFERENCE_INTERNAL")
    8673                      .dwattr $C$DW$596, DW_AT_const_value(0x00)
    8674                      .dwattr $C$DW$596, DW_AT_decl_file("C:/ti/C2000Ware_MotorControl_SDK_5_04_00_00/c2000ware/driverlib/f
    8675                      .dwattr $C$DW$596, DW_AT_decl_line(0x14a)
    8676                      .dwattr $C$DW$596, DW_AT_decl_column(0x05)
    8677              
    8678              $C$DW$597       .dwtag  DW_TAG_enumerator
    8679                      .dwattr $C$DW$597, DW_AT_name("ADC_REFERENCE_EXTERNAL")
    8680                      .dwattr $C$DW$597, DW_AT_const_value(0x01)
    8681                      .dwattr $C$DW$597, DW_AT_decl_file("C:/ti/C2000Ware_MotorControl_SDK_5_04_00_00/c2000ware/driverlib/f
    8682                      .dwattr $C$DW$597, DW_AT_decl_line(0x14b)
    8683                      .dwattr $C$DW$597, DW_AT_decl_column(0x05)
    8684              
    8685                      .dwattr $C$DW$T$52, DW_AT_decl_file("C:/ti/C2000Ware_MotorControl_SDK_5_04_00_00/c2000ware/driverlib/
    8686                      .dwattr $C$DW$T$52, DW_AT_decl_line(0x149)
    8687                      .dwattr $C$DW$T$52, DW_AT_decl_column(0x01)
    8688                      .dwendtag $C$DW$T$52
    8689              
    8690                      .dwendtag $C$DW$TU$52
    8691              
    8692              
    8693              $C$DW$TU$53     .dwtag  DW_TAG_type_unit
    8694                      .dwmtype  $C$DW$T$53
    8695              $C$DW$T$53      .dwtag  DW_TAG_typedef
    8696                      .dwattr $C$DW$T$53, DW_AT_name("ADC_ReferenceMode")
    8697                      .dwattr $C$DW$T$53, DW_AT_type(*$C$DW$T$52)
    8698                      .dwattr $C$DW$T$53, DW_AT_decl_file("C:/ti/C2000Ware_MotorControl_SDK_5_04_00_00/c2000ware/driverlib/
    8699                      .dwattr $C$DW$T$53, DW_AT_decl_line(0x14c)
TMS320C2000 Assembler PC v22.6.2 Wed Dec 10 14:45:02 2025

Copyright (c) 1996-2018 Texas Instruments Incorporated
dual_axis_servo_drive_hal.asm                                        PAGE  172

    8700                      .dwattr $C$DW$T$53, DW_AT_decl_column(0x03)
    8701              
    8702                      .dwendtag $C$DW$TU$53
    8703              
    8704              
    8705              $C$DW$TU$54     .dwtag  DW_TAG_type_unit
    8706                      .dwmtype  $C$DW$T$54
    8707              
    8708              $C$DW$T$54      .dwtag  DW_TAG_enumeration_type
    8709                      .dwattr $C$DW$T$54, DW_AT_byte_size(0x01)
    8710              $C$DW$598       .dwtag  DW_TAG_enumerator
    8711                      .dwattr $C$DW$598, DW_AT_name("ADC_REFERENCE_3_3V")
    8712                      .dwattr $C$DW$598, DW_AT_const_value(0x00)
    8713                      .dwattr $C$DW$598, DW_AT_decl_file("C:/ti/C2000Ware_MotorControl_SDK_5_04_00_00/c2000ware/driverlib/f
    8714                      .dwattr $C$DW$598, DW_AT_decl_line(0x157)
    8715                      .dwattr $C$DW$598, DW_AT_decl_column(0x05)
    8716              
    8717              $C$DW$599       .dwtag  DW_TAG_enumerator
    8718                      .dwattr $C$DW$599, DW_AT_name("ADC_REFERENCE_2_5V")
    8719                      .dwattr $C$DW$599, DW_AT_const_value(0x01)
    8720                      .dwattr $C$DW$599, DW_AT_decl_file("C:/ti/C2000Ware_MotorControl_SDK_5_04_00_00/c2000ware/driverlib/f
    8721                      .dwattr $C$DW$599, DW_AT_decl_line(0x158)
    8722                      .dwattr $C$DW$599, DW_AT_decl_column(0x05)
    8723              
    8724              $C$DW$600       .dwtag  DW_TAG_enumerator
    8725                      .dwattr $C$DW$600, DW_AT_name("ADC_REFERENCE_VREFHI")
    8726                      .dwattr $C$DW$600, DW_AT_const_value(0x00)
    8727                      .dwattr $C$DW$600, DW_AT_decl_file("C:/ti/C2000Ware_MotorControl_SDK_5_04_00_00/c2000ware/driverlib/f
    8728                      .dwattr $C$DW$600, DW_AT_decl_line(0x159)
    8729                      .dwattr $C$DW$600, DW_AT_decl_column(0x05)
    8730              
    8731                      .dwattr $C$DW$T$54, DW_AT_decl_file("C:/ti/C2000Ware_MotorControl_SDK_5_04_00_00/c2000ware/driverlib/
    8732                      .dwattr $C$DW$T$54, DW_AT_decl_line(0x156)
    8733                      .dwattr $C$DW$T$54, DW_AT_decl_column(0x01)
    8734                      .dwendtag $C$DW$T$54
    8735              
    8736                      .dwendtag $C$DW$TU$54
    8737              
    8738              
    8739              $C$DW$TU$55     .dwtag  DW_TAG_type_unit
    8740                      .dwmtype  $C$DW$T$55
    8741              $C$DW$T$55      .dwtag  DW_TAG_typedef
    8742                      .dwattr $C$DW$T$55, DW_AT_name("ADC_ReferenceVoltage")
    8743                      .dwattr $C$DW$T$55, DW_AT_type(*$C$DW$T$54)
    8744                      .dwattr $C$DW$T$55, DW_AT_decl_file("C:/ti/C2000Ware_MotorControl_SDK_5_04_00_00/c2000ware/driverlib/
    8745                      .dwattr $C$DW$T$55, DW_AT_decl_line(0x15b)
    8746                      .dwattr $C$DW$T$55, DW_AT_decl_column(0x03)
    8747              
    8748                      .dwendtag $C$DW$TU$55
    8749              
    8750              
    8751              $C$DW$TU$56     .dwtag  DW_TAG_type_unit
    8752                      .dwmtype  $C$DW$T$56
    8753              
    8754              $C$DW$T$56      .dwtag  DW_TAG_enumeration_type
TMS320C2000 Assembler PC v22.6.2 Wed Dec 10 14:45:02 2025

Copyright (c) 1996-2018 Texas Instruments Incorporated
dual_axis_servo_drive_hal.asm                                        PAGE  173

    8755                      .dwattr $C$DW$T$56, DW_AT_byte_size(0x01)
    8756              $C$DW$601       .dwtag  DW_TAG_enumerator
    8757                      .dwattr $C$DW$601, DW_AT_name("ASYSCTL_CMPHPMUX_SELECT_1")
    8758                      .dwattr $C$DW$601, DW_AT_const_value(0x00)
    8759                      .dwattr $C$DW$601, DW_AT_decl_file("C:/ti/C2000Ware_MotorControl_SDK_5_04_00_00/c2000ware/driverlib/f
    8760                      .dwattr $C$DW$601, DW_AT_decl_line(0x71)
    8761                      .dwattr $C$DW$601, DW_AT_decl_column(0x05)
    8762              
    8763              $C$DW$602       .dwtag  DW_TAG_enumerator
    8764                      .dwattr $C$DW$602, DW_AT_name("ASYSCTL_CMPHPMUX_SELECT_2")
    8765                      .dwattr $C$DW$602, DW_AT_const_value(0x03)
    8766                      .dwattr $C$DW$602, DW_AT_decl_file("C:/ti/C2000Ware_MotorControl_SDK_5_04_00_00/c2000ware/driverlib/f
    8767                      .dwattr $C$DW$602, DW_AT_decl_line(0x72)
    8768                      .dwattr $C$DW$602, DW_AT_decl_column(0x05)
    8769              
    8770              $C$DW$603       .dwtag  DW_TAG_enumerator
    8771                      .dwattr $C$DW$603, DW_AT_name("ASYSCTL_CMPHPMUX_SELECT_3")
    8772                      .dwattr $C$DW$603, DW_AT_const_value(0x06)
    8773                      .dwattr $C$DW$603, DW_AT_decl_file("C:/ti/C2000Ware_MotorControl_SDK_5_04_00_00/c2000ware/driverlib/f
    8774                      .dwattr $C$DW$603, DW_AT_decl_line(0x73)
    8775                      .dwattr $C$DW$603, DW_AT_decl_column(0x05)
    8776              
    8777              $C$DW$604       .dwtag  DW_TAG_enumerator
    8778                      .dwattr $C$DW$604, DW_AT_name("ASYSCTL_CMPHPMUX_SELECT_4")
    8779                      .dwattr $C$DW$604, DW_AT_const_value(0x09)
    8780                      .dwattr $C$DW$604, DW_AT_decl_file("C:/ti/C2000Ware_MotorControl_SDK_5_04_00_00/c2000ware/driverlib/f
    8781                      .dwattr $C$DW$604, DW_AT_decl_line(0x74)
    8782                      .dwattr $C$DW$604, DW_AT_decl_column(0x05)
    8783              
    8784                      .dwattr $C$DW$T$56, DW_AT_decl_file("C:/ti/C2000Ware_MotorControl_SDK_5_04_00_00/c2000ware/driverlib/
    8785                      .dwattr $C$DW$T$56, DW_AT_decl_line(0x70)
    8786                      .dwattr $C$DW$T$56, DW_AT_decl_column(0x01)
    8787                      .dwendtag $C$DW$T$56
    8788              
    8789                      .dwendtag $C$DW$TU$56
    8790              
    8791              
    8792              $C$DW$TU$57     .dwtag  DW_TAG_type_unit
    8793                      .dwmtype  $C$DW$T$57
    8794              $C$DW$T$57      .dwtag  DW_TAG_typedef
    8795                      .dwattr $C$DW$T$57, DW_AT_name("ASysCtl_CMPHPMuxSelect")
    8796                      .dwattr $C$DW$T$57, DW_AT_type(*$C$DW$T$56)
    8797                      .dwattr $C$DW$T$57, DW_AT_decl_file("C:/ti/C2000Ware_MotorControl_SDK_5_04_00_00/c2000ware/driverlib/
    8798                      .dwattr $C$DW$T$57, DW_AT_decl_line(0x75)
    8799                      .dwattr $C$DW$T$57, DW_AT_decl_column(0x03)
    8800              
    8801                      .dwendtag $C$DW$TU$57
    8802              
    8803              
    8804              $C$DW$TU$58     .dwtag  DW_TAG_type_unit
    8805                      .dwmtype  $C$DW$T$58
    8806              
    8807              $C$DW$T$58      .dwtag  DW_TAG_enumeration_type
    8808                      .dwattr $C$DW$T$58, DW_AT_byte_size(0x01)
    8809              $C$DW$605       .dwtag  DW_TAG_enumerator
TMS320C2000 Assembler PC v22.6.2 Wed Dec 10 14:45:02 2025

Copyright (c) 1996-2018 Texas Instruments Incorporated
dual_axis_servo_drive_hal.asm                                        PAGE  174

    8810                      .dwattr $C$DW$605, DW_AT_name("ASYSCTL_CMPLPMUX_SELECT_1")
    8811                      .dwattr $C$DW$605, DW_AT_const_value(0x00)
    8812                      .dwattr $C$DW$605, DW_AT_decl_file("C:/ti/C2000Ware_MotorControl_SDK_5_04_00_00/c2000ware/driverlib/f
    8813                      .dwattr $C$DW$605, DW_AT_decl_line(0x7e)
    8814                      .dwattr $C$DW$605, DW_AT_decl_column(0x05)
    8815              
    8816              $C$DW$606       .dwtag  DW_TAG_enumerator
    8817                      .dwattr $C$DW$606, DW_AT_name("ASYSCTL_CMPLPMUX_SELECT_2")
    8818                      .dwattr $C$DW$606, DW_AT_const_value(0x03)
    8819                      .dwattr $C$DW$606, DW_AT_decl_file("C:/ti/C2000Ware_MotorControl_SDK_5_04_00_00/c2000ware/driverlib/f
    8820                      .dwattr $C$DW$606, DW_AT_decl_line(0x7f)
    8821                      .dwattr $C$DW$606, DW_AT_decl_column(0x05)
    8822              
    8823              $C$DW$607       .dwtag  DW_TAG_enumerator
    8824                      .dwattr $C$DW$607, DW_AT_name("ASYSCTL_CMPLPMUX_SELECT_3")
    8825                      .dwattr $C$DW$607, DW_AT_const_value(0x06)
    8826                      .dwattr $C$DW$607, DW_AT_decl_file("C:/ti/C2000Ware_MotorControl_SDK_5_04_00_00/c2000ware/driverlib/f
    8827                      .dwattr $C$DW$607, DW_AT_decl_line(0x80)
    8828                      .dwattr $C$DW$607, DW_AT_decl_column(0x05)
    8829              
    8830              $C$DW$608       .dwtag  DW_TAG_enumerator
    8831                      .dwattr $C$DW$608, DW_AT_name("ASYSCTL_CMPLPMUX_SELECT_4")
    8832                      .dwattr $C$DW$608, DW_AT_const_value(0x09)
    8833                      .dwattr $C$DW$608, DW_AT_decl_file("C:/ti/C2000Ware_MotorControl_SDK_5_04_00_00/c2000ware/driverlib/f
    8834                      .dwattr $C$DW$608, DW_AT_decl_line(0x81)
    8835                      .dwattr $C$DW$608, DW_AT_decl_column(0x05)
    8836              
    8837                      .dwattr $C$DW$T$58, DW_AT_decl_file("C:/ti/C2000Ware_MotorControl_SDK_5_04_00_00/c2000ware/driverlib/
    8838                      .dwattr $C$DW$T$58, DW_AT_decl_line(0x7d)
    8839                      .dwattr $C$DW$T$58, DW_AT_decl_column(0x01)
    8840                      .dwendtag $C$DW$T$58
    8841              
    8842                      .dwendtag $C$DW$TU$58
    8843              
    8844              
    8845              $C$DW$TU$59     .dwtag  DW_TAG_type_unit
    8846                      .dwmtype  $C$DW$T$59
    8847              $C$DW$T$59      .dwtag  DW_TAG_typedef
    8848                      .dwattr $C$DW$T$59, DW_AT_name("ASysCtl_CMPLPMuxSelect")
    8849                      .dwattr $C$DW$T$59, DW_AT_type(*$C$DW$T$58)
    8850                      .dwattr $C$DW$T$59, DW_AT_decl_file("C:/ti/C2000Ware_MotorControl_SDK_5_04_00_00/c2000ware/driverlib/
    8851                      .dwattr $C$DW$T$59, DW_AT_decl_line(0x82)
    8852                      .dwattr $C$DW$T$59, DW_AT_decl_column(0x03)
    8853              
    8854                      .dwendtag $C$DW$TU$59
    8855              
    8856              
    8857              $C$DW$TU$60     .dwtag  DW_TAG_type_unit
    8858                      .dwmtype  $C$DW$T$60
    8859              
    8860              $C$DW$T$60      .dwtag  DW_TAG_enumeration_type
    8861                      .dwattr $C$DW$T$60, DW_AT_byte_size(0x01)
    8862              $C$DW$609       .dwtag  DW_TAG_enumerator
    8863                      .dwattr $C$DW$609, DW_AT_name("SYSCTL_PERIPH_CLK_DMA")
    8864                      .dwattr $C$DW$609, DW_AT_const_value(0x200)
TMS320C2000 Assembler PC v22.6.2 Wed Dec 10 14:45:02 2025

Copyright (c) 1996-2018 Texas Instruments Incorporated
dual_axis_servo_drive_hal.asm                                        PAGE  175

    8865                      .dwattr $C$DW$609, DW_AT_decl_file("C:\ti\C2000Ware_MotorControl_SDK_5_04_00_00\c2000ware\driverlib\f
    8866                      .dwattr $C$DW$609, DW_AT_decl_line(0x152)
    8867                      .dwattr $C$DW$609, DW_AT_decl_column(0x05)
    8868              
    8869              $C$DW$610       .dwtag  DW_TAG_enumerator
    8870                      .dwattr $C$DW$610, DW_AT_name("SYSCTL_PERIPH_CLK_TIMER0")
    8871                      .dwattr $C$DW$610, DW_AT_const_value(0x300)
    8872                      .dwattr $C$DW$610, DW_AT_decl_file("C:\ti\C2000Ware_MotorControl_SDK_5_04_00_00\c2000ware\driverlib\f
    8873                      .dwattr $C$DW$610, DW_AT_decl_line(0x153)
    8874                      .dwattr $C$DW$610, DW_AT_decl_column(0x05)
    8875              
    8876              $C$DW$611       .dwtag  DW_TAG_enumerator
    8877                      .dwattr $C$DW$611, DW_AT_name("SYSCTL_PERIPH_CLK_TIMER1")
    8878                      .dwattr $C$DW$611, DW_AT_const_value(0x400)
    8879                      .dwattr $C$DW$611, DW_AT_decl_file("C:\ti\C2000Ware_MotorControl_SDK_5_04_00_00\c2000ware\driverlib\f
    8880                      .dwattr $C$DW$611, DW_AT_decl_line(0x154)
    8881                      .dwattr $C$DW$611, DW_AT_decl_column(0x05)
    8882              
    8883              $C$DW$612       .dwtag  DW_TAG_enumerator
    8884                      .dwattr $C$DW$612, DW_AT_name("SYSCTL_PERIPH_CLK_TIMER2")
    8885                      .dwattr $C$DW$612, DW_AT_const_value(0x500)
    8886                      .dwattr $C$DW$612, DW_AT_decl_file("C:\ti\C2000Ware_MotorControl_SDK_5_04_00_00\c2000ware\driverlib\f
    8887                      .dwattr $C$DW$612, DW_AT_decl_line(0x155)
    8888                      .dwattr $C$DW$612, DW_AT_decl_column(0x05)
    8889              
    8890              $C$DW$613       .dwtag  DW_TAG_enumerator
    8891                      .dwattr $C$DW$613, DW_AT_name("SYSCTL_PERIPH_CLK_CPUBGCRC")
    8892                      .dwattr $C$DW$613, DW_AT_const_value(0xd00)
    8893                      .dwattr $C$DW$613, DW_AT_decl_file("C:\ti\C2000Ware_MotorControl_SDK_5_04_00_00\c2000ware\driverlib\f
    8894                      .dwattr $C$DW$613, DW_AT_decl_line(0x156)
    8895                      .dwattr $C$DW$613, DW_AT_decl_column(0x05)
    8896              
    8897              $C$DW$614       .dwtag  DW_TAG_enumerator
    8898                      .dwattr $C$DW$614, DW_AT_name("SYSCTL_PERIPH_CLK_HRCAL")
    8899                      .dwattr $C$DW$614, DW_AT_const_value(0x1000)
    8900                      .dwattr $C$DW$614, DW_AT_decl_file("C:\ti\C2000Ware_MotorControl_SDK_5_04_00_00\c2000ware\driverlib\f
    8901                      .dwattr $C$DW$614, DW_AT_decl_line(0x157)
    8902                      .dwattr $C$DW$614, DW_AT_decl_column(0x05)
    8903              
    8904              $C$DW$615       .dwtag  DW_TAG_enumerator
    8905                      .dwattr $C$DW$615, DW_AT_name("SYSCTL_PERIPH_CLK_TBCLKSYNC")
    8906                      .dwattr $C$DW$615, DW_AT_const_value(0x1200)
    8907                      .dwattr $C$DW$615, DW_AT_decl_file("C:\ti\C2000Ware_MotorControl_SDK_5_04_00_00\c2000ware\driverlib\f
    8908                      .dwattr $C$DW$615, DW_AT_decl_line(0x158)
    8909                      .dwattr $C$DW$615, DW_AT_decl_column(0x05)
    8910              
    8911              $C$DW$616       .dwtag  DW_TAG_enumerator
    8912                      .dwattr $C$DW$616, DW_AT_name("SYSCTL_PERIPH_CLK_ERAD")
    8913                      .dwattr $C$DW$616, DW_AT_const_value(0x1800)
    8914                      .dwattr $C$DW$616, DW_AT_decl_file("C:\ti\C2000Ware_MotorControl_SDK_5_04_00_00\c2000ware\driverlib\f
    8915                      .dwattr $C$DW$616, DW_AT_decl_line(0x159)
    8916                      .dwattr $C$DW$616, DW_AT_decl_column(0x05)
    8917              
    8918              $C$DW$617       .dwtag  DW_TAG_enumerator
    8919                      .dwattr $C$DW$617, DW_AT_name("SYSCTL_PERIPH_CLK_EPWM1")
TMS320C2000 Assembler PC v22.6.2 Wed Dec 10 14:45:02 2025

Copyright (c) 1996-2018 Texas Instruments Incorporated
dual_axis_servo_drive_hal.asm                                        PAGE  176

    8920                      .dwattr $C$DW$617, DW_AT_const_value(0x02)
    8921                      .dwattr $C$DW$617, DW_AT_decl_file("C:\ti\C2000Ware_MotorControl_SDK_5_04_00_00\c2000ware\driverlib\f
    8922                      .dwattr $C$DW$617, DW_AT_decl_line(0x15a)
    8923                      .dwattr $C$DW$617, DW_AT_decl_column(0x05)
    8924              
    8925              $C$DW$618       .dwtag  DW_TAG_enumerator
    8926                      .dwattr $C$DW$618, DW_AT_name("SYSCTL_PERIPH_CLK_EPWM2")
    8927                      .dwattr $C$DW$618, DW_AT_const_value(0x102)
    8928                      .dwattr $C$DW$618, DW_AT_decl_file("C:\ti\C2000Ware_MotorControl_SDK_5_04_00_00\c2000ware\driverlib\f
    8929                      .dwattr $C$DW$618, DW_AT_decl_line(0x15b)
    8930                      .dwattr $C$DW$618, DW_AT_decl_column(0x05)
    8931              
    8932              $C$DW$619       .dwtag  DW_TAG_enumerator
    8933                      .dwattr $C$DW$619, DW_AT_name("SYSCTL_PERIPH_CLK_EPWM3")
    8934                      .dwattr $C$DW$619, DW_AT_const_value(0x202)
    8935                      .dwattr $C$DW$619, DW_AT_decl_file("C:\ti\C2000Ware_MotorControl_SDK_5_04_00_00\c2000ware\driverlib\f
    8936                      .dwattr $C$DW$619, DW_AT_decl_line(0x15c)
    8937                      .dwattr $C$DW$619, DW_AT_decl_column(0x05)
    8938              
    8939              $C$DW$620       .dwtag  DW_TAG_enumerator
    8940                      .dwattr $C$DW$620, DW_AT_name("SYSCTL_PERIPH_CLK_EPWM4")
    8941                      .dwattr $C$DW$620, DW_AT_const_value(0x302)
    8942                      .dwattr $C$DW$620, DW_AT_decl_file("C:\ti\C2000Ware_MotorControl_SDK_5_04_00_00\c2000ware\driverlib\f
    8943                      .dwattr $C$DW$620, DW_AT_decl_line(0x15d)
    8944                      .dwattr $C$DW$620, DW_AT_decl_column(0x05)
    8945              
    8946              $C$DW$621       .dwtag  DW_TAG_enumerator
    8947                      .dwattr $C$DW$621, DW_AT_name("SYSCTL_PERIPH_CLK_EPWM5")
    8948                      .dwattr $C$DW$621, DW_AT_const_value(0x402)
    8949                      .dwattr $C$DW$621, DW_AT_decl_file("C:\ti\C2000Ware_MotorControl_SDK_5_04_00_00\c2000ware\driverlib\f
    8950                      .dwattr $C$DW$621, DW_AT_decl_line(0x15e)
    8951                      .dwattr $C$DW$621, DW_AT_decl_column(0x05)
    8952              
    8953              $C$DW$622       .dwtag  DW_TAG_enumerator
    8954                      .dwattr $C$DW$622, DW_AT_name("SYSCTL_PERIPH_CLK_EPWM6")
    8955                      .dwattr $C$DW$622, DW_AT_const_value(0x502)
    8956                      .dwattr $C$DW$622, DW_AT_decl_file("C:\ti\C2000Ware_MotorControl_SDK_5_04_00_00\c2000ware\driverlib\f
    8957                      .dwattr $C$DW$622, DW_AT_decl_line(0x15f)
    8958                      .dwattr $C$DW$622, DW_AT_decl_column(0x05)
    8959              
    8960              $C$DW$623       .dwtag  DW_TAG_enumerator
    8961                      .dwattr $C$DW$623, DW_AT_name("SYSCTL_PERIPH_CLK_EPWM7")
    8962                      .dwattr $C$DW$623, DW_AT_const_value(0x602)
    8963                      .dwattr $C$DW$623, DW_AT_decl_file("C:\ti\C2000Ware_MotorControl_SDK_5_04_00_00\c2000ware\driverlib\f
    8964                      .dwattr $C$DW$623, DW_AT_decl_line(0x160)
    8965                      .dwattr $C$DW$623, DW_AT_decl_column(0x05)
    8966              
    8967              $C$DW$624       .dwtag  DW_TAG_enumerator
    8968                      .dwattr $C$DW$624, DW_AT_name("SYSCTL_PERIPH_CLK_ECAP1")
    8969                      .dwattr $C$DW$624, DW_AT_const_value(0x03)
    8970                      .dwattr $C$DW$624, DW_AT_decl_file("C:\ti\C2000Ware_MotorControl_SDK_5_04_00_00\c2000ware\driverlib\f
    8971                      .dwattr $C$DW$624, DW_AT_decl_line(0x161)
    8972                      .dwattr $C$DW$624, DW_AT_decl_column(0x05)
    8973              
    8974              $C$DW$625       .dwtag  DW_TAG_enumerator
TMS320C2000 Assembler PC v22.6.2 Wed Dec 10 14:45:02 2025

Copyright (c) 1996-2018 Texas Instruments Incorporated
dual_axis_servo_drive_hal.asm                                        PAGE  177

    8975                      .dwattr $C$DW$625, DW_AT_name("SYSCTL_PERIPH_CLK_ECAP2")
    8976                      .dwattr $C$DW$625, DW_AT_const_value(0x103)
    8977                      .dwattr $C$DW$625, DW_AT_decl_file("C:\ti\C2000Ware_MotorControl_SDK_5_04_00_00\c2000ware\driverlib\f
    8978                      .dwattr $C$DW$625, DW_AT_decl_line(0x162)
    8979                      .dwattr $C$DW$625, DW_AT_decl_column(0x05)
    8980              
    8981              $C$DW$626       .dwtag  DW_TAG_enumerator
    8982                      .dwattr $C$DW$626, DW_AT_name("SYSCTL_PERIPH_CLK_ECAP3")
    8983                      .dwattr $C$DW$626, DW_AT_const_value(0x203)
    8984                      .dwattr $C$DW$626, DW_AT_decl_file("C:\ti\C2000Ware_MotorControl_SDK_5_04_00_00\c2000ware\driverlib\f
    8985                      .dwattr $C$DW$626, DW_AT_decl_line(0x163)
    8986                      .dwattr $C$DW$626, DW_AT_decl_column(0x05)
    8987              
    8988              $C$DW$627       .dwtag  DW_TAG_enumerator
    8989                      .dwattr $C$DW$627, DW_AT_name("SYSCTL_PERIPH_CLK_EQEP1")
    8990                      .dwattr $C$DW$627, DW_AT_const_value(0x04)
    8991                      .dwattr $C$DW$627, DW_AT_decl_file("C:\ti\C2000Ware_MotorControl_SDK_5_04_00_00\c2000ware\driverlib\f
    8992                      .dwattr $C$DW$627, DW_AT_decl_line(0x164)
    8993                      .dwattr $C$DW$627, DW_AT_decl_column(0x05)
    8994              
    8995              $C$DW$628       .dwtag  DW_TAG_enumerator
    8996                      .dwattr $C$DW$628, DW_AT_name("SYSCTL_PERIPH_CLK_EQEP2")
    8997                      .dwattr $C$DW$628, DW_AT_const_value(0x104)
    8998                      .dwattr $C$DW$628, DW_AT_decl_file("C:\ti\C2000Ware_MotorControl_SDK_5_04_00_00\c2000ware\driverlib\f
    8999                      .dwattr $C$DW$628, DW_AT_decl_line(0x165)
    9000                      .dwattr $C$DW$628, DW_AT_decl_column(0x05)
    9001              
    9002              $C$DW$629       .dwtag  DW_TAG_enumerator
    9003                      .dwattr $C$DW$629, DW_AT_name("SYSCTL_PERIPH_CLK_SCIA")
    9004                      .dwattr $C$DW$629, DW_AT_const_value(0x07)
    9005                      .dwattr $C$DW$629, DW_AT_decl_file("C:\ti\C2000Ware_MotorControl_SDK_5_04_00_00\c2000ware\driverlib\f
    9006                      .dwattr $C$DW$629, DW_AT_decl_line(0x166)
    9007                      .dwattr $C$DW$629, DW_AT_decl_column(0x05)
    9008              
    9009              $C$DW$630       .dwtag  DW_TAG_enumerator
    9010                      .dwattr $C$DW$630, DW_AT_name("SYSCTL_PERIPH_CLK_SPIA")
    9011                      .dwattr $C$DW$630, DW_AT_const_value(0x08)
    9012                      .dwattr $C$DW$630, DW_AT_decl_file("C:\ti\C2000Ware_MotorControl_SDK_5_04_00_00\c2000ware\driverlib\f
    9013                      .dwattr $C$DW$630, DW_AT_decl_line(0x167)
    9014                      .dwattr $C$DW$630, DW_AT_decl_column(0x05)
    9015              
    9016              $C$DW$631       .dwtag  DW_TAG_enumerator
    9017                      .dwattr $C$DW$631, DW_AT_name("SYSCTL_PERIPH_CLK_SPIB")
    9018                      .dwattr $C$DW$631, DW_AT_const_value(0x108)
    9019                      .dwattr $C$DW$631, DW_AT_decl_file("C:\ti\C2000Ware_MotorControl_SDK_5_04_00_00\c2000ware\driverlib\f
    9020                      .dwattr $C$DW$631, DW_AT_decl_line(0x168)
    9021                      .dwattr $C$DW$631, DW_AT_decl_column(0x05)
    9022              
    9023              $C$DW$632       .dwtag  DW_TAG_enumerator
    9024                      .dwattr $C$DW$632, DW_AT_name("SYSCTL_PERIPH_CLK_I2CA")
    9025                      .dwattr $C$DW$632, DW_AT_const_value(0x09)
    9026                      .dwattr $C$DW$632, DW_AT_decl_file("C:\ti\C2000Ware_MotorControl_SDK_5_04_00_00\c2000ware\driverlib\f
    9027                      .dwattr $C$DW$632, DW_AT_decl_line(0x169)
    9028                      .dwattr $C$DW$632, DW_AT_decl_column(0x05)
    9029              
TMS320C2000 Assembler PC v22.6.2 Wed Dec 10 14:45:02 2025

Copyright (c) 1996-2018 Texas Instruments Incorporated
dual_axis_servo_drive_hal.asm                                        PAGE  178

    9030              $C$DW$633       .dwtag  DW_TAG_enumerator
    9031                      .dwattr $C$DW$633, DW_AT_name("SYSCTL_PERIPH_CLK_I2CB")
    9032                      .dwattr $C$DW$633, DW_AT_const_value(0x109)
    9033                      .dwattr $C$DW$633, DW_AT_decl_file("C:\ti\C2000Ware_MotorControl_SDK_5_04_00_00\c2000ware\driverlib\f
    9034                      .dwattr $C$DW$633, DW_AT_decl_line(0x16a)
    9035                      .dwattr $C$DW$633, DW_AT_decl_column(0x05)
    9036              
    9037              $C$DW$634       .dwtag  DW_TAG_enumerator
    9038                      .dwattr $C$DW$634, DW_AT_name("SYSCTL_PERIPH_CLK_CANA")
    9039                      .dwattr $C$DW$634, DW_AT_const_value(0x0a)
    9040                      .dwattr $C$DW$634, DW_AT_decl_file("C:\ti\C2000Ware_MotorControl_SDK_5_04_00_00\c2000ware\driverlib\f
    9041                      .dwattr $C$DW$634, DW_AT_decl_line(0x16b)
    9042                      .dwattr $C$DW$634, DW_AT_decl_column(0x05)
    9043              
    9044              $C$DW$635       .dwtag  DW_TAG_enumerator
    9045                      .dwattr $C$DW$635, DW_AT_name("SYSCTL_PERIPH_CLK_ADCA")
    9046                      .dwattr $C$DW$635, DW_AT_const_value(0x0d)
    9047                      .dwattr $C$DW$635, DW_AT_decl_file("C:\ti\C2000Ware_MotorControl_SDK_5_04_00_00\c2000ware\driverlib\f
    9048                      .dwattr $C$DW$635, DW_AT_decl_line(0x16c)
    9049                      .dwattr $C$DW$635, DW_AT_decl_column(0x05)
    9050              
    9051              $C$DW$636       .dwtag  DW_TAG_enumerator
    9052                      .dwattr $C$DW$636, DW_AT_name("SYSCTL_PERIPH_CLK_ADCC")
    9053                      .dwattr $C$DW$636, DW_AT_const_value(0x20d)
    9054                      .dwattr $C$DW$636, DW_AT_decl_file("C:\ti\C2000Ware_MotorControl_SDK_5_04_00_00\c2000ware\driverlib\f
    9055                      .dwattr $C$DW$636, DW_AT_decl_line(0x16d)
    9056                      .dwattr $C$DW$636, DW_AT_decl_column(0x05)
    9057              
    9058              $C$DW$637       .dwtag  DW_TAG_enumerator
    9059                      .dwattr $C$DW$637, DW_AT_name("SYSCTL_PERIPH_CLK_CMPSS1")
    9060                      .dwattr $C$DW$637, DW_AT_const_value(0x0e)
    9061                      .dwattr $C$DW$637, DW_AT_decl_file("C:\ti\C2000Ware_MotorControl_SDK_5_04_00_00\c2000ware\driverlib\f
    9062                      .dwattr $C$DW$637, DW_AT_decl_line(0x16e)
    9063                      .dwattr $C$DW$637, DW_AT_decl_column(0x05)
    9064              
    9065              $C$DW$638       .dwtag  DW_TAG_enumerator
    9066                      .dwattr $C$DW$638, DW_AT_name("SYSCTL_PERIPH_CLK_CMPSS2")
    9067                      .dwattr $C$DW$638, DW_AT_const_value(0x10e)
    9068                      .dwattr $C$DW$638, DW_AT_decl_file("C:\ti\C2000Ware_MotorControl_SDK_5_04_00_00\c2000ware\driverlib\f
    9069                      .dwattr $C$DW$638, DW_AT_decl_line(0x16f)
    9070                      .dwattr $C$DW$638, DW_AT_decl_column(0x05)
    9071              
    9072              $C$DW$639       .dwtag  DW_TAG_enumerator
    9073                      .dwattr $C$DW$639, DW_AT_name("SYSCTL_PERIPH_CLK_CMPSS3")
    9074                      .dwattr $C$DW$639, DW_AT_const_value(0x20e)
    9075                      .dwattr $C$DW$639, DW_AT_decl_file("C:\ti\C2000Ware_MotorControl_SDK_5_04_00_00\c2000ware\driverlib\f
    9076                      .dwattr $C$DW$639, DW_AT_decl_line(0x170)
    9077                      .dwattr $C$DW$639, DW_AT_decl_column(0x05)
    9078              
    9079              $C$DW$640       .dwtag  DW_TAG_enumerator
    9080                      .dwattr $C$DW$640, DW_AT_name("SYSCTL_PERIPH_CLK_CMPSS4")
    9081                      .dwattr $C$DW$640, DW_AT_const_value(0x30e)
    9082                      .dwattr $C$DW$640, DW_AT_decl_file("C:\ti\C2000Ware_MotorControl_SDK_5_04_00_00\c2000ware\driverlib\f
    9083                      .dwattr $C$DW$640, DW_AT_decl_line(0x171)
    9084                      .dwattr $C$DW$640, DW_AT_decl_column(0x05)
TMS320C2000 Assembler PC v22.6.2 Wed Dec 10 14:45:02 2025

Copyright (c) 1996-2018 Texas Instruments Incorporated
dual_axis_servo_drive_hal.asm                                        PAGE  179

    9085              
    9086              $C$DW$641       .dwtag  DW_TAG_enumerator
    9087                      .dwattr $C$DW$641, DW_AT_name("SYSCTL_PERIPH_CLK_CLB1")
    9088                      .dwattr $C$DW$641, DW_AT_const_value(0x11)
    9089                      .dwattr $C$DW$641, DW_AT_decl_file("C:\ti\C2000Ware_MotorControl_SDK_5_04_00_00\c2000ware\driverlib\f
    9090                      .dwattr $C$DW$641, DW_AT_decl_line(0x172)
    9091                      .dwattr $C$DW$641, DW_AT_decl_column(0x05)
    9092              
    9093              $C$DW$642       .dwtag  DW_TAG_enumerator
    9094                      .dwattr $C$DW$642, DW_AT_name("SYSCTL_PERIPH_CLK_CLB2")
    9095                      .dwattr $C$DW$642, DW_AT_const_value(0x111)
    9096                      .dwattr $C$DW$642, DW_AT_decl_file("C:\ti\C2000Ware_MotorControl_SDK_5_04_00_00\c2000ware\driverlib\f
    9097                      .dwattr $C$DW$642, DW_AT_decl_line(0x173)
    9098                      .dwattr $C$DW$642, DW_AT_decl_column(0x05)
    9099              
    9100              $C$DW$643       .dwtag  DW_TAG_enumerator
    9101                      .dwattr $C$DW$643, DW_AT_name("SYSCTL_PERIPH_CLK_FSITXA")
    9102                      .dwattr $C$DW$643, DW_AT_const_value(0x12)
    9103                      .dwattr $C$DW$643, DW_AT_decl_file("C:\ti\C2000Ware_MotorControl_SDK_5_04_00_00\c2000ware\driverlib\f
    9104                      .dwattr $C$DW$643, DW_AT_decl_line(0x174)
    9105                      .dwattr $C$DW$643, DW_AT_decl_column(0x05)
    9106              
    9107              $C$DW$644       .dwtag  DW_TAG_enumerator
    9108                      .dwattr $C$DW$644, DW_AT_name("SYSCTL_PERIPH_CLK_FSIRXA")
    9109                      .dwattr $C$DW$644, DW_AT_const_value(0x112)
    9110                      .dwattr $C$DW$644, DW_AT_decl_file("C:\ti\C2000Ware_MotorControl_SDK_5_04_00_00\c2000ware\driverlib\f
    9111                      .dwattr $C$DW$644, DW_AT_decl_line(0x175)
    9112                      .dwattr $C$DW$644, DW_AT_decl_column(0x05)
    9113              
    9114              $C$DW$645       .dwtag  DW_TAG_enumerator
    9115                      .dwattr $C$DW$645, DW_AT_name("SYSCTL_PERIPH_CLK_LINA")
    9116                      .dwattr $C$DW$645, DW_AT_const_value(0x13)
    9117                      .dwattr $C$DW$645, DW_AT_decl_file("C:\ti\C2000Ware_MotorControl_SDK_5_04_00_00\c2000ware\driverlib\f
    9118                      .dwattr $C$DW$645, DW_AT_decl_line(0x176)
    9119                      .dwattr $C$DW$645, DW_AT_decl_column(0x05)
    9120              
    9121              $C$DW$646       .dwtag  DW_TAG_enumerator
    9122                      .dwattr $C$DW$646, DW_AT_name("SYSCTL_PERIPH_CLK_LINB")
    9123                      .dwattr $C$DW$646, DW_AT_const_value(0x113)
    9124                      .dwattr $C$DW$646, DW_AT_decl_file("C:\ti\C2000Ware_MotorControl_SDK_5_04_00_00\c2000ware\driverlib\f
    9125                      .dwattr $C$DW$646, DW_AT_decl_line(0x177)
    9126                      .dwattr $C$DW$646, DW_AT_decl_column(0x05)
    9127              
    9128              $C$DW$647       .dwtag  DW_TAG_enumerator
    9129                      .dwattr $C$DW$647, DW_AT_name("SYSCTL_PERIPH_CLK_PMBUSA")
    9130                      .dwattr $C$DW$647, DW_AT_const_value(0x14)
    9131                      .dwattr $C$DW$647, DW_AT_decl_file("C:\ti\C2000Ware_MotorControl_SDK_5_04_00_00\c2000ware\driverlib\f
    9132                      .dwattr $C$DW$647, DW_AT_decl_line(0x178)
    9133                      .dwattr $C$DW$647, DW_AT_decl_column(0x05)
    9134              
    9135              $C$DW$648       .dwtag  DW_TAG_enumerator
    9136                      .dwattr $C$DW$648, DW_AT_name("SYSCTL_PERIPH_CLK_DCC0")
    9137                      .dwattr $C$DW$648, DW_AT_const_value(0x15)
    9138                      .dwattr $C$DW$648, DW_AT_decl_file("C:\ti\C2000Ware_MotorControl_SDK_5_04_00_00\c2000ware\driverlib\f
    9139                      .dwattr $C$DW$648, DW_AT_decl_line(0x179)
TMS320C2000 Assembler PC v22.6.2 Wed Dec 10 14:45:02 2025

Copyright (c) 1996-2018 Texas Instruments Incorporated
dual_axis_servo_drive_hal.asm                                        PAGE  180

    9140                      .dwattr $C$DW$648, DW_AT_decl_column(0x05)
    9141              
    9142              $C$DW$649       .dwtag  DW_TAG_enumerator
    9143                      .dwattr $C$DW$649, DW_AT_name("SYSCTL_PERIPH_CLK_DCC1")
    9144                      .dwattr $C$DW$649, DW_AT_const_value(0x115)
    9145                      .dwattr $C$DW$649, DW_AT_decl_file("C:\ti\C2000Ware_MotorControl_SDK_5_04_00_00\c2000ware\driverlib\f
    9146                      .dwattr $C$DW$649, DW_AT_decl_line(0x17a)
    9147                      .dwattr $C$DW$649, DW_AT_decl_column(0x05)
    9148              
    9149              $C$DW$650       .dwtag  DW_TAG_enumerator
    9150                      .dwattr $C$DW$650, DW_AT_name("SYSCTL_PERIPH_CLK_MPOST0")
    9151                      .dwattr $C$DW$650, DW_AT_const_value(0x16)
    9152                      .dwattr $C$DW$650, DW_AT_decl_file("C:\ti\C2000Ware_MotorControl_SDK_5_04_00_00\c2000ware\driverlib\f
    9153                      .dwattr $C$DW$650, DW_AT_decl_line(0x17b)
    9154                      .dwattr $C$DW$650, DW_AT_decl_column(0x05)
    9155              
    9156              $C$DW$651       .dwtag  DW_TAG_enumerator
    9157                      .dwattr $C$DW$651, DW_AT_name("SYSCTL_PERIPH_CLK_HICA")
    9158                      .dwattr $C$DW$651, DW_AT_const_value(0x19)
    9159                      .dwattr $C$DW$651, DW_AT_decl_file("C:\ti\C2000Ware_MotorControl_SDK_5_04_00_00\c2000ware\driverlib\f
    9160                      .dwattr $C$DW$651, DW_AT_decl_line(0x17c)
    9161                      .dwattr $C$DW$651, DW_AT_decl_column(0x05)
    9162              
    9163                      .dwattr $C$DW$T$60, DW_AT_decl_file("C:\ti\C2000Ware_MotorControl_SDK_5_04_00_00\c2000ware\driverlib\
    9164                      .dwattr $C$DW$T$60, DW_AT_decl_line(0x151)
    9165                      .dwattr $C$DW$T$60, DW_AT_decl_column(0x01)
    9166                      .dwendtag $C$DW$T$60
    9167              
    9168                      .dwendtag $C$DW$TU$60
    9169              
    9170              
    9171              $C$DW$TU$61     .dwtag  DW_TAG_type_unit
    9172                      .dwmtype  $C$DW$T$61
    9173              $C$DW$T$61      .dwtag  DW_TAG_typedef
    9174                      .dwattr $C$DW$T$61, DW_AT_name("SysCtl_PeripheralPCLOCKCR")
    9175                      .dwattr $C$DW$T$61, DW_AT_type(*$C$DW$T$60)
    9176                      .dwattr $C$DW$T$61, DW_AT_decl_file("C:\ti\C2000Ware_MotorControl_SDK_5_04_00_00\c2000ware\driverlib\
    9177                      .dwattr $C$DW$T$61, DW_AT_decl_line(0x17d)
    9178                      .dwattr $C$DW$T$61, DW_AT_decl_column(0x03)
    9179              
    9180                      .dwendtag $C$DW$TU$61
    9181              
    9182              
    9183              $C$DW$TU$62     .dwtag  DW_TAG_type_unit
    9184                      .dwmtype  $C$DW$T$62
    9185              
    9186              $C$DW$T$62      .dwtag  DW_TAG_enumeration_type
    9187                      .dwattr $C$DW$T$62, DW_AT_byte_size(0x01)
    9188              $C$DW$652       .dwtag  DW_TAG_enumerator
    9189                      .dwattr $C$DW$652, DW_AT_name("SYSCTL_LSPCLK_PRESCALE_1")
    9190                      .dwattr $C$DW$652, DW_AT_const_value(0x00)
    9191                      .dwattr $C$DW$652, DW_AT_decl_file("C:\ti\C2000Ware_MotorControl_SDK_5_04_00_00\c2000ware\driverlib\f
    9192                      .dwattr $C$DW$652, DW_AT_decl_line(0x1ea)
    9193                      .dwattr $C$DW$652, DW_AT_decl_column(0x05)
    9194              
TMS320C2000 Assembler PC v22.6.2 Wed Dec 10 14:45:02 2025

Copyright (c) 1996-2018 Texas Instruments Incorporated
dual_axis_servo_drive_hal.asm                                        PAGE  181

    9195              $C$DW$653       .dwtag  DW_TAG_enumerator
    9196                      .dwattr $C$DW$653, DW_AT_name("SYSCTL_LSPCLK_PRESCALE_2")
    9197                      .dwattr $C$DW$653, DW_AT_const_value(0x01)
    9198                      .dwattr $C$DW$653, DW_AT_decl_file("C:\ti\C2000Ware_MotorControl_SDK_5_04_00_00\c2000ware\driverlib\f
    9199                      .dwattr $C$DW$653, DW_AT_decl_line(0x1eb)
    9200                      .dwattr $C$DW$653, DW_AT_decl_column(0x05)
    9201              
    9202              $C$DW$654       .dwtag  DW_TAG_enumerator
    9203                      .dwattr $C$DW$654, DW_AT_name("SYSCTL_LSPCLK_PRESCALE_4")
    9204                      .dwattr $C$DW$654, DW_AT_const_value(0x02)
    9205                      .dwattr $C$DW$654, DW_AT_decl_file("C:\ti\C2000Ware_MotorControl_SDK_5_04_00_00\c2000ware\driverlib\f
    9206                      .dwattr $C$DW$654, DW_AT_decl_line(0x1ec)
    9207                      .dwattr $C$DW$654, DW_AT_decl_column(0x05)
    9208              
    9209              $C$DW$655       .dwtag  DW_TAG_enumerator
    9210                      .dwattr $C$DW$655, DW_AT_name("SYSCTL_LSPCLK_PRESCALE_6")
    9211                      .dwattr $C$DW$655, DW_AT_const_value(0x03)
    9212                      .dwattr $C$DW$655, DW_AT_decl_file("C:\ti\C2000Ware_MotorControl_SDK_5_04_00_00\c2000ware\driverlib\f
    9213                      .dwattr $C$DW$655, DW_AT_decl_line(0x1ed)
    9214                      .dwattr $C$DW$655, DW_AT_decl_column(0x05)
    9215              
    9216              $C$DW$656       .dwtag  DW_TAG_enumerator
    9217                      .dwattr $C$DW$656, DW_AT_name("SYSCTL_LSPCLK_PRESCALE_8")
    9218                      .dwattr $C$DW$656, DW_AT_const_value(0x04)
    9219                      .dwattr $C$DW$656, DW_AT_decl_file("C:\ti\C2000Ware_MotorControl_SDK_5_04_00_00\c2000ware\driverlib\f
    9220                      .dwattr $C$DW$656, DW_AT_decl_line(0x1ee)
    9221                      .dwattr $C$DW$656, DW_AT_decl_column(0x05)
    9222              
    9223              $C$DW$657       .dwtag  DW_TAG_enumerator
    9224                      .dwattr $C$DW$657, DW_AT_name("SYSCTL_LSPCLK_PRESCALE_10")
    9225                      .dwattr $C$DW$657, DW_AT_const_value(0x05)
    9226                      .dwattr $C$DW$657, DW_AT_decl_file("C:\ti\C2000Ware_MotorControl_SDK_5_04_00_00\c2000ware\driverlib\f
    9227                      .dwattr $C$DW$657, DW_AT_decl_line(0x1ef)
    9228                      .dwattr $C$DW$657, DW_AT_decl_column(0x05)
    9229              
    9230              $C$DW$658       .dwtag  DW_TAG_enumerator
    9231                      .dwattr $C$DW$658, DW_AT_name("SYSCTL_LSPCLK_PRESCALE_12")
    9232                      .dwattr $C$DW$658, DW_AT_const_value(0x06)
    9233                      .dwattr $C$DW$658, DW_AT_decl_file("C:\ti\C2000Ware_MotorControl_SDK_5_04_00_00\c2000ware\driverlib\f
    9234                      .dwattr $C$DW$658, DW_AT_decl_line(0x1f0)
    9235                      .dwattr $C$DW$658, DW_AT_decl_column(0x05)
    9236              
    9237              $C$DW$659       .dwtag  DW_TAG_enumerator
    9238                      .dwattr $C$DW$659, DW_AT_name("SYSCTL_LSPCLK_PRESCALE_14")
    9239                      .dwattr $C$DW$659, DW_AT_const_value(0x07)
    9240                      .dwattr $C$DW$659, DW_AT_decl_file("C:\ti\C2000Ware_MotorControl_SDK_5_04_00_00\c2000ware\driverlib\f
    9241                      .dwattr $C$DW$659, DW_AT_decl_line(0x1f1)
    9242                      .dwattr $C$DW$659, DW_AT_decl_column(0x05)
    9243              
    9244                      .dwattr $C$DW$T$62, DW_AT_decl_file("C:\ti\C2000Ware_MotorControl_SDK_5_04_00_00\c2000ware\driverlib\
    9245                      .dwattr $C$DW$T$62, DW_AT_decl_line(0x1e9)
    9246                      .dwattr $C$DW$T$62, DW_AT_decl_column(0x01)
    9247                      .dwendtag $C$DW$T$62
    9248              
    9249                      .dwendtag $C$DW$TU$62
TMS320C2000 Assembler PC v22.6.2 Wed Dec 10 14:45:02 2025

Copyright (c) 1996-2018 Texas Instruments Incorporated
dual_axis_servo_drive_hal.asm                                        PAGE  182

    9250              
    9251              
    9252              $C$DW$TU$63     .dwtag  DW_TAG_type_unit
    9253                      .dwmtype  $C$DW$T$63
    9254              $C$DW$T$63      .dwtag  DW_TAG_typedef
    9255                      .dwattr $C$DW$T$63, DW_AT_name("SysCtl_LSPCLKPrescaler")
    9256                      .dwattr $C$DW$T$63, DW_AT_type(*$C$DW$T$62)
    9257                      .dwattr $C$DW$T$63, DW_AT_decl_file("C:\ti\C2000Ware_MotorControl_SDK_5_04_00_00\c2000ware\driverlib\
    9258                      .dwattr $C$DW$T$63, DW_AT_decl_line(0x1f2)
    9259                      .dwattr $C$DW$T$63, DW_AT_decl_column(0x03)
    9260              
    9261                      .dwendtag $C$DW$TU$63
    9262              
    9263              
    9264              $C$DW$TU$64     .dwtag  DW_TAG_type_unit
    9265                      .dwmtype  $C$DW$T$64
    9266              
    9267              $C$DW$T$64      .dwtag  DW_TAG_enumeration_type
    9268                      .dwattr $C$DW$T$64, DW_AT_byte_size(0x01)
    9269              $C$DW$660       .dwtag  DW_TAG_enumerator
    9270                      .dwattr $C$DW$660, DW_AT_name("SYSCTL_SYNC_OUT_SRC_EPWM1SYNCOUT")
    9271                      .dwattr $C$DW$660, DW_AT_const_value(0x00)
    9272                      .dwattr $C$DW$660, DW_AT_decl_file("C:\ti\C2000Ware_MotorControl_SDK_5_04_00_00\c2000ware\driverlib\f
    9273                      .dwattr $C$DW$660, DW_AT_decl_line(0x263)
    9274                      .dwattr $C$DW$660, DW_AT_decl_column(0x05)
    9275              
    9276              $C$DW$661       .dwtag  DW_TAG_enumerator
    9277                      .dwattr $C$DW$661, DW_AT_name("SYSCTL_SYNC_OUT_SRC_EPWM2SYNCOUT")
    9278                      .dwattr $C$DW$661, DW_AT_const_value(0x01)
    9279                      .dwattr $C$DW$661, DW_AT_decl_file("C:\ti\C2000Ware_MotorControl_SDK_5_04_00_00\c2000ware\driverlib\f
    9280                      .dwattr $C$DW$661, DW_AT_decl_line(0x264)
    9281                      .dwattr $C$DW$661, DW_AT_decl_column(0x05)
    9282              
    9283              $C$DW$662       .dwtag  DW_TAG_enumerator
    9284                      .dwattr $C$DW$662, DW_AT_name("SYSCTL_SYNC_OUT_SRC_EPWM3SYNCOUT")
    9285                      .dwattr $C$DW$662, DW_AT_const_value(0x02)
    9286                      .dwattr $C$DW$662, DW_AT_decl_file("C:\ti\C2000Ware_MotorControl_SDK_5_04_00_00\c2000ware\driverlib\f
    9287                      .dwattr $C$DW$662, DW_AT_decl_line(0x265)
    9288                      .dwattr $C$DW$662, DW_AT_decl_column(0x05)
    9289              
    9290              $C$DW$663       .dwtag  DW_TAG_enumerator
    9291                      .dwattr $C$DW$663, DW_AT_name("SYSCTL_SYNC_OUT_SRC_EPWM4SYNCOUT")
    9292                      .dwattr $C$DW$663, DW_AT_const_value(0x03)
    9293                      .dwattr $C$DW$663, DW_AT_decl_file("C:\ti\C2000Ware_MotorControl_SDK_5_04_00_00\c2000ware\driverlib\f
    9294                      .dwattr $C$DW$663, DW_AT_decl_line(0x266)
    9295                      .dwattr $C$DW$663, DW_AT_decl_column(0x05)
    9296              
    9297              $C$DW$664       .dwtag  DW_TAG_enumerator
    9298                      .dwattr $C$DW$664, DW_AT_name("SYSCTL_SYNC_OUT_SRC_EPWM5SYNCOUT")
    9299                      .dwattr $C$DW$664, DW_AT_const_value(0x04)
    9300                      .dwattr $C$DW$664, DW_AT_decl_file("C:\ti\C2000Ware_MotorControl_SDK_5_04_00_00\c2000ware\driverlib\f
    9301                      .dwattr $C$DW$664, DW_AT_decl_line(0x267)
    9302                      .dwattr $C$DW$664, DW_AT_decl_column(0x05)
    9303              
    9304              $C$DW$665       .dwtag  DW_TAG_enumerator
TMS320C2000 Assembler PC v22.6.2 Wed Dec 10 14:45:02 2025

Copyright (c) 1996-2018 Texas Instruments Incorporated
dual_axis_servo_drive_hal.asm                                        PAGE  183

    9305                      .dwattr $C$DW$665, DW_AT_name("SYSCTL_SYNC_OUT_SRC_EPWM6SYNCOUT")
    9306                      .dwattr $C$DW$665, DW_AT_const_value(0x05)
    9307                      .dwattr $C$DW$665, DW_AT_decl_file("C:\ti\C2000Ware_MotorControl_SDK_5_04_00_00\c2000ware\driverlib\f
    9308                      .dwattr $C$DW$665, DW_AT_decl_line(0x268)
    9309                      .dwattr $C$DW$665, DW_AT_decl_column(0x05)
    9310              
    9311              $C$DW$666       .dwtag  DW_TAG_enumerator
    9312                      .dwattr $C$DW$666, DW_AT_name("SYSCTL_SYNC_OUT_SRC_EPWM7SYNCOUT")
    9313                      .dwattr $C$DW$666, DW_AT_const_value(0x06)
    9314                      .dwattr $C$DW$666, DW_AT_decl_file("C:\ti\C2000Ware_MotorControl_SDK_5_04_00_00\c2000ware\driverlib\f
    9315                      .dwattr $C$DW$666, DW_AT_decl_line(0x269)
    9316                      .dwattr $C$DW$666, DW_AT_decl_column(0x05)
    9317              
    9318              $C$DW$667       .dwtag  DW_TAG_enumerator
    9319                      .dwattr $C$DW$667, DW_AT_name("SYSCTL_SYNC_OUT_SRC_ECAP1SYNCOUT")
    9320                      .dwattr $C$DW$667, DW_AT_const_value(0x18)
    9321                      .dwattr $C$DW$667, DW_AT_decl_file("C:\ti\C2000Ware_MotorControl_SDK_5_04_00_00\c2000ware\driverlib\f
    9322                      .dwattr $C$DW$667, DW_AT_decl_line(0x26a)
    9323                      .dwattr $C$DW$667, DW_AT_decl_column(0x05)
    9324              
    9325              $C$DW$668       .dwtag  DW_TAG_enumerator
    9326                      .dwattr $C$DW$668, DW_AT_name("SYSCTL_SYNC_OUT_SRC_ECAP2SYNCOUT")
    9327                      .dwattr $C$DW$668, DW_AT_const_value(0x19)
    9328                      .dwattr $C$DW$668, DW_AT_decl_file("C:\ti\C2000Ware_MotorControl_SDK_5_04_00_00\c2000ware\driverlib\f
    9329                      .dwattr $C$DW$668, DW_AT_decl_line(0x26b)
    9330                      .dwattr $C$DW$668, DW_AT_decl_column(0x05)
    9331              
    9332              $C$DW$669       .dwtag  DW_TAG_enumerator
    9333                      .dwattr $C$DW$669, DW_AT_name("SYSCTL_SYNC_OUT_SRC_ECAP3SYNCOUT")
    9334                      .dwattr $C$DW$669, DW_AT_const_value(0x20)
    9335                      .dwattr $C$DW$669, DW_AT_decl_file("C:\ti\C2000Ware_MotorControl_SDK_5_04_00_00\c2000ware\driverlib\f
    9336                      .dwattr $C$DW$669, DW_AT_decl_line(0x26c)
    9337                      .dwattr $C$DW$669, DW_AT_decl_column(0x05)
    9338              
    9339                      .dwattr $C$DW$T$64, DW_AT_decl_file("C:\ti\C2000Ware_MotorControl_SDK_5_04_00_00\c2000ware\driverlib\
    9340                      .dwattr $C$DW$T$64, DW_AT_decl_line(0x262)
    9341                      .dwattr $C$DW$T$64, DW_AT_decl_column(0x01)
    9342                      .dwendtag $C$DW$T$64
    9343              
    9344                      .dwendtag $C$DW$TU$64
    9345              
    9346              
    9347              $C$DW$TU$65     .dwtag  DW_TAG_type_unit
    9348                      .dwmtype  $C$DW$T$65
    9349              $C$DW$T$65      .dwtag  DW_TAG_typedef
    9350                      .dwattr $C$DW$T$65, DW_AT_name("SysCtl_SyncOutputSource")
    9351                      .dwattr $C$DW$T$65, DW_AT_type(*$C$DW$T$64)
    9352                      .dwattr $C$DW$T$65, DW_AT_decl_file("C:\ti\C2000Ware_MotorControl_SDK_5_04_00_00\c2000ware\driverlib\
    9353                      .dwattr $C$DW$T$65, DW_AT_decl_line(0x26e)
    9354                      .dwattr $C$DW$T$65, DW_AT_decl_column(0x03)
    9355              
    9356                      .dwendtag $C$DW$TU$65
    9357              
    9358              
    9359              $C$DW$TU$66     .dwtag  DW_TAG_type_unit
TMS320C2000 Assembler PC v22.6.2 Wed Dec 10 14:45:02 2025

Copyright (c) 1996-2018 Texas Instruments Incorporated
dual_axis_servo_drive_hal.asm                                        PAGE  184

    9360                      .dwmtype  $C$DW$T$66
    9361              
    9362              $C$DW$T$66      .dwtag  DW_TAG_enumeration_type
    9363                      .dwattr $C$DW$T$66, DW_AT_byte_size(0x01)
    9364              $C$DW$670       .dwtag  DW_TAG_enumerator
    9365                      .dwattr $C$DW$670, DW_AT_name("CPUTIMER_EMULATIONMODE_STOPAFTERNEXTDECREMENT")
    9366                      .dwattr $C$DW$670, DW_AT_const_value(0x00)
    9367                      .dwattr $C$DW$670, DW_AT_decl_file("C:/ti/C2000Ware_MotorControl_SDK_5_04_00_00/c2000ware/driverlib/f
    9368                      .dwattr $C$DW$670, DW_AT_decl_line(0x56)
    9369                      .dwattr $C$DW$670, DW_AT_decl_column(0x03)
    9370              
    9371              $C$DW$671       .dwtag  DW_TAG_enumerator
    9372                      .dwattr $C$DW$671, DW_AT_name("CPUTIMER_EMULATIONMODE_STOPATZERO")
    9373                      .dwattr $C$DW$671, DW_AT_const_value(0x400)
    9374                      .dwattr $C$DW$671, DW_AT_decl_file("C:/ti/C2000Ware_MotorControl_SDK_5_04_00_00/c2000ware/driverlib/f
    9375                      .dwattr $C$DW$671, DW_AT_decl_line(0x58)
    9376                      .dwattr $C$DW$671, DW_AT_decl_column(0x03)
    9377              
    9378              $C$DW$672       .dwtag  DW_TAG_enumerator
    9379                      .dwattr $C$DW$672, DW_AT_name("CPUTIMER_EMULATIONMODE_RUNFREE")
    9380                      .dwattr $C$DW$672, DW_AT_const_value(0x800)
    9381                      .dwattr $C$DW$672, DW_AT_decl_file("C:/ti/C2000Ware_MotorControl_SDK_5_04_00_00/c2000ware/driverlib/f
    9382                      .dwattr $C$DW$672, DW_AT_decl_line(0x5a)
    9383                      .dwattr $C$DW$672, DW_AT_decl_column(0x03)
    9384              
    9385                      .dwattr $C$DW$T$66, DW_AT_decl_file("C:/ti/C2000Ware_MotorControl_SDK_5_04_00_00/c2000ware/driverlib/
    9386                      .dwattr $C$DW$T$66, DW_AT_decl_line(0x54)
    9387                      .dwattr $C$DW$T$66, DW_AT_decl_column(0x01)
    9388                      .dwendtag $C$DW$T$66
    9389              
    9390                      .dwendtag $C$DW$TU$66
    9391              
    9392              
    9393              $C$DW$TU$67     .dwtag  DW_TAG_type_unit
    9394                      .dwmtype  $C$DW$T$67
    9395              $C$DW$T$67      .dwtag  DW_TAG_typedef
    9396                      .dwattr $C$DW$T$67, DW_AT_name("CPUTimer_EmulationMode")
    9397                      .dwattr $C$DW$T$67, DW_AT_type(*$C$DW$T$66)
    9398                      .dwattr $C$DW$T$67, DW_AT_decl_file("C:/ti/C2000Ware_MotorControl_SDK_5_04_00_00/c2000ware/driverlib/
    9399                      .dwattr $C$DW$T$67, DW_AT_decl_line(0x5b)
    9400                      .dwattr $C$DW$T$67, DW_AT_decl_column(0x02)
    9401              
    9402                      .dwendtag $C$DW$TU$67
    9403              
    9404              
    9405              $C$DW$TU$68     .dwtag  DW_TAG_type_unit
    9406                      .dwmtype  $C$DW$T$68
    9407              
    9408              $C$DW$T$68      .dwtag  DW_TAG_enumeration_type
    9409                      .dwattr $C$DW$T$68, DW_AT_byte_size(0x01)
    9410              $C$DW$673       .dwtag  DW_TAG_enumerator
    9411                      .dwattr $C$DW$673, DW_AT_name("EPWM_COUNT_MODE_DOWN_AFTER_SYNC")
    9412                      .dwattr $C$DW$673, DW_AT_const_value(0x00)
    9413                      .dwattr $C$DW$673, DW_AT_decl_file("C:/ti/C2000Ware_MotorControl_SDK_5_04_00_00/c2000ware/driverlib/f
    9414                      .dwattr $C$DW$673, DW_AT_decl_line(0x8c)
TMS320C2000 Assembler PC v22.6.2 Wed Dec 10 14:45:02 2025

Copyright (c) 1996-2018 Texas Instruments Incorporated
dual_axis_servo_drive_hal.asm                                        PAGE  185

    9415                      .dwattr $C$DW$673, DW_AT_decl_column(0x04)
    9416              
    9417              $C$DW$674       .dwtag  DW_TAG_enumerator
    9418                      .dwattr $C$DW$674, DW_AT_name("EPWM_COUNT_MODE_UP_AFTER_SYNC")
    9419                      .dwattr $C$DW$674, DW_AT_const_value(0x01)
    9420                      .dwattr $C$DW$674, DW_AT_decl_file("C:/ti/C2000Ware_MotorControl_SDK_5_04_00_00/c2000ware/driverlib/f
    9421                      .dwattr $C$DW$674, DW_AT_decl_line(0x8d)
    9422                      .dwattr $C$DW$674, DW_AT_decl_column(0x04)
    9423              
    9424                      .dwattr $C$DW$T$68, DW_AT_decl_file("C:/ti/C2000Ware_MotorControl_SDK_5_04_00_00/c2000ware/driverlib/
    9425                      .dwattr $C$DW$T$68, DW_AT_decl_line(0x8b)
    9426                      .dwattr $C$DW$T$68, DW_AT_decl_column(0x01)
    9427                      .dwendtag $C$DW$T$68
    9428              
    9429                      .dwendtag $C$DW$TU$68
    9430              
    9431              
    9432              $C$DW$TU$69     .dwtag  DW_TAG_type_unit
    9433                      .dwmtype  $C$DW$T$69
    9434              $C$DW$T$69      .dwtag  DW_TAG_typedef
    9435                      .dwattr $C$DW$T$69, DW_AT_name("EPWM_SyncCountMode")
    9436                      .dwattr $C$DW$T$69, DW_AT_type(*$C$DW$T$68)
    9437                      .dwattr $C$DW$T$69, DW_AT_decl_file("C:/ti/C2000Ware_MotorControl_SDK_5_04_00_00/c2000ware/driverlib/
    9438                      .dwattr $C$DW$T$69, DW_AT_decl_line(0x8e)
    9439                      .dwattr $C$DW$T$69, DW_AT_decl_column(0x03)
    9440              
    9441                      .dwendtag $C$DW$TU$69
    9442              
    9443              
    9444              $C$DW$TU$70     .dwtag  DW_TAG_type_unit
    9445                      .dwmtype  $C$DW$T$70
    9446              
    9447              $C$DW$T$70      .dwtag  DW_TAG_enumeration_type
    9448                      .dwattr $C$DW$T$70, DW_AT_byte_size(0x01)
    9449              $C$DW$675       .dwtag  DW_TAG_enumerator
    9450                      .dwattr $C$DW$675, DW_AT_name("EPWM_CLOCK_DIVIDER_1")
    9451                      .dwattr $C$DW$675, DW_AT_const_value(0x00)
    9452                      .dwattr $C$DW$675, DW_AT_decl_file("C:/ti/C2000Ware_MotorControl_SDK_5_04_00_00/c2000ware/driverlib/f
    9453                      .dwattr $C$DW$675, DW_AT_decl_line(0x98)
    9454                      .dwattr $C$DW$675, DW_AT_decl_column(0x05)
    9455              
    9456              $C$DW$676       .dwtag  DW_TAG_enumerator
    9457                      .dwattr $C$DW$676, DW_AT_name("EPWM_CLOCK_DIVIDER_2")
    9458                      .dwattr $C$DW$676, DW_AT_const_value(0x01)
    9459                      .dwattr $C$DW$676, DW_AT_decl_file("C:/ti/C2000Ware_MotorControl_SDK_5_04_00_00/c2000ware/driverlib/f
    9460                      .dwattr $C$DW$676, DW_AT_decl_line(0x99)
    9461                      .dwattr $C$DW$676, DW_AT_decl_column(0x05)
    9462              
    9463              $C$DW$677       .dwtag  DW_TAG_enumerator
    9464                      .dwattr $C$DW$677, DW_AT_name("EPWM_CLOCK_DIVIDER_4")
    9465                      .dwattr $C$DW$677, DW_AT_const_value(0x02)
    9466                      .dwattr $C$DW$677, DW_AT_decl_file("C:/ti/C2000Ware_MotorControl_SDK_5_04_00_00/c2000ware/driverlib/f
    9467                      .dwattr $C$DW$677, DW_AT_decl_line(0x9a)
    9468                      .dwattr $C$DW$677, DW_AT_decl_column(0x05)
    9469              
TMS320C2000 Assembler PC v22.6.2 Wed Dec 10 14:45:02 2025

Copyright (c) 1996-2018 Texas Instruments Incorporated
dual_axis_servo_drive_hal.asm                                        PAGE  186

    9470              $C$DW$678       .dwtag  DW_TAG_enumerator
    9471                      .dwattr $C$DW$678, DW_AT_name("EPWM_CLOCK_DIVIDER_8")
    9472                      .dwattr $C$DW$678, DW_AT_const_value(0x03)
    9473                      .dwattr $C$DW$678, DW_AT_decl_file("C:/ti/C2000Ware_MotorControl_SDK_5_04_00_00/c2000ware/driverlib/f
    9474                      .dwattr $C$DW$678, DW_AT_decl_line(0x9b)
    9475                      .dwattr $C$DW$678, DW_AT_decl_column(0x05)
    9476              
    9477              $C$DW$679       .dwtag  DW_TAG_enumerator
    9478                      .dwattr $C$DW$679, DW_AT_name("EPWM_CLOCK_DIVIDER_16")
    9479                      .dwattr $C$DW$679, DW_AT_const_value(0x04)
    9480                      .dwattr $C$DW$679, DW_AT_decl_file("C:/ti/C2000Ware_MotorControl_SDK_5_04_00_00/c2000ware/driverlib/f
    9481                      .dwattr $C$DW$679, DW_AT_decl_line(0x9c)
    9482                      .dwattr $C$DW$679, DW_AT_decl_column(0x05)
    9483              
    9484              $C$DW$680       .dwtag  DW_TAG_enumerator
    9485                      .dwattr $C$DW$680, DW_AT_name("EPWM_CLOCK_DIVIDER_32")
    9486                      .dwattr $C$DW$680, DW_AT_const_value(0x05)
    9487                      .dwattr $C$DW$680, DW_AT_decl_file("C:/ti/C2000Ware_MotorControl_SDK_5_04_00_00/c2000ware/driverlib/f
    9488                      .dwattr $C$DW$680, DW_AT_decl_line(0x9d)
    9489                      .dwattr $C$DW$680, DW_AT_decl_column(0x05)
    9490              
    9491              $C$DW$681       .dwtag  DW_TAG_enumerator
    9492                      .dwattr $C$DW$681, DW_AT_name("EPWM_CLOCK_DIVIDER_64")
    9493                      .dwattr $C$DW$681, DW_AT_const_value(0x06)
    9494                      .dwattr $C$DW$681, DW_AT_decl_file("C:/ti/C2000Ware_MotorControl_SDK_5_04_00_00/c2000ware/driverlib/f
    9495                      .dwattr $C$DW$681, DW_AT_decl_line(0x9e)
    9496                      .dwattr $C$DW$681, DW_AT_decl_column(0x05)
    9497              
    9498              $C$DW$682       .dwtag  DW_TAG_enumerator
    9499                      .dwattr $C$DW$682, DW_AT_name("EPWM_CLOCK_DIVIDER_128")
    9500                      .dwattr $C$DW$682, DW_AT_const_value(0x07)
    9501                      .dwattr $C$DW$682, DW_AT_decl_file("C:/ti/C2000Ware_MotorControl_SDK_5_04_00_00/c2000ware/driverlib/f
    9502                      .dwattr $C$DW$682, DW_AT_decl_line(0x9f)
    9503                      .dwattr $C$DW$682, DW_AT_decl_column(0x05)
    9504              
    9505                      .dwattr $C$DW$T$70, DW_AT_decl_file("C:/ti/C2000Ware_MotorControl_SDK_5_04_00_00/c2000ware/driverlib/
    9506                      .dwattr $C$DW$T$70, DW_AT_decl_line(0x97)
    9507                      .dwattr $C$DW$T$70, DW_AT_decl_column(0x01)
    9508                      .dwendtag $C$DW$T$70
    9509              
    9510                      .dwendtag $C$DW$TU$70
    9511              
    9512              
    9513              $C$DW$TU$71     .dwtag  DW_TAG_type_unit
    9514                      .dwmtype  $C$DW$T$71
    9515              $C$DW$T$71      .dwtag  DW_TAG_typedef
    9516                      .dwattr $C$DW$T$71, DW_AT_name("EPWM_ClockDivider")
    9517                      .dwattr $C$DW$T$71, DW_AT_type(*$C$DW$T$70)
    9518                      .dwattr $C$DW$T$71, DW_AT_decl_file("C:/ti/C2000Ware_MotorControl_SDK_5_04_00_00/c2000ware/driverlib/
    9519                      .dwattr $C$DW$T$71, DW_AT_decl_line(0xa0)
    9520                      .dwattr $C$DW$T$71, DW_AT_decl_column(0x03)
    9521              
    9522                      .dwendtag $C$DW$TU$71
    9523              
    9524              
TMS320C2000 Assembler PC v22.6.2 Wed Dec 10 14:45:02 2025

Copyright (c) 1996-2018 Texas Instruments Incorporated
dual_axis_servo_drive_hal.asm                                        PAGE  187

    9525              $C$DW$TU$72     .dwtag  DW_TAG_type_unit
    9526                      .dwmtype  $C$DW$T$72
    9527              
    9528              $C$DW$T$72      .dwtag  DW_TAG_enumeration_type
    9529                      .dwattr $C$DW$T$72, DW_AT_byte_size(0x01)
    9530              $C$DW$683       .dwtag  DW_TAG_enumerator
    9531                      .dwattr $C$DW$683, DW_AT_name("EPWM_HSCLOCK_DIVIDER_1")
    9532                      .dwattr $C$DW$683, DW_AT_const_value(0x00)
    9533                      .dwattr $C$DW$683, DW_AT_decl_file("C:/ti/C2000Ware_MotorControl_SDK_5_04_00_00/c2000ware/driverlib/f
    9534                      .dwattr $C$DW$683, DW_AT_decl_line(0xaa)
    9535                      .dwattr $C$DW$683, DW_AT_decl_column(0x05)
    9536              
    9537              $C$DW$684       .dwtag  DW_TAG_enumerator
    9538                      .dwattr $C$DW$684, DW_AT_name("EPWM_HSCLOCK_DIVIDER_2")
    9539                      .dwattr $C$DW$684, DW_AT_const_value(0x01)
    9540                      .dwattr $C$DW$684, DW_AT_decl_file("C:/ti/C2000Ware_MotorControl_SDK_5_04_00_00/c2000ware/driverlib/f
    9541                      .dwattr $C$DW$684, DW_AT_decl_line(0xab)
    9542                      .dwattr $C$DW$684, DW_AT_decl_column(0x05)
    9543              
    9544              $C$DW$685       .dwtag  DW_TAG_enumerator
    9545                      .dwattr $C$DW$685, DW_AT_name("EPWM_HSCLOCK_DIVIDER_4")
    9546                      .dwattr $C$DW$685, DW_AT_const_value(0x02)
    9547                      .dwattr $C$DW$685, DW_AT_decl_file("C:/ti/C2000Ware_MotorControl_SDK_5_04_00_00/c2000ware/driverlib/f
    9548                      .dwattr $C$DW$685, DW_AT_decl_line(0xac)
    9549                      .dwattr $C$DW$685, DW_AT_decl_column(0x05)
    9550              
    9551              $C$DW$686       .dwtag  DW_TAG_enumerator
    9552                      .dwattr $C$DW$686, DW_AT_name("EPWM_HSCLOCK_DIVIDER_6")
    9553                      .dwattr $C$DW$686, DW_AT_const_value(0x03)
    9554                      .dwattr $C$DW$686, DW_AT_decl_file("C:/ti/C2000Ware_MotorControl_SDK_5_04_00_00/c2000ware/driverlib/f
    9555                      .dwattr $C$DW$686, DW_AT_decl_line(0xad)
    9556                      .dwattr $C$DW$686, DW_AT_decl_column(0x05)
    9557              
    9558              $C$DW$687       .dwtag  DW_TAG_enumerator
    9559                      .dwattr $C$DW$687, DW_AT_name("EPWM_HSCLOCK_DIVIDER_8")
    9560                      .dwattr $C$DW$687, DW_AT_const_value(0x04)
    9561                      .dwattr $C$DW$687, DW_AT_decl_file("C:/ti/C2000Ware_MotorControl_SDK_5_04_00_00/c2000ware/driverlib/f
    9562                      .dwattr $C$DW$687, DW_AT_decl_line(0xae)
    9563                      .dwattr $C$DW$687, DW_AT_decl_column(0x05)
    9564              
    9565              $C$DW$688       .dwtag  DW_TAG_enumerator
    9566                      .dwattr $C$DW$688, DW_AT_name("EPWM_HSCLOCK_DIVIDER_10")
    9567                      .dwattr $C$DW$688, DW_AT_const_value(0x05)
    9568                      .dwattr $C$DW$688, DW_AT_decl_file("C:/ti/C2000Ware_MotorControl_SDK_5_04_00_00/c2000ware/driverlib/f
    9569                      .dwattr $C$DW$688, DW_AT_decl_line(0xaf)
    9570                      .dwattr $C$DW$688, DW_AT_decl_column(0x05)
    9571              
    9572              $C$DW$689       .dwtag  DW_TAG_enumerator
    9573                      .dwattr $C$DW$689, DW_AT_name("EPWM_HSCLOCK_DIVIDER_12")
    9574                      .dwattr $C$DW$689, DW_AT_const_value(0x06)
    9575                      .dwattr $C$DW$689, DW_AT_decl_file("C:/ti/C2000Ware_MotorControl_SDK_5_04_00_00/c2000ware/driverlib/f
    9576                      .dwattr $C$DW$689, DW_AT_decl_line(0xb0)
    9577                      .dwattr $C$DW$689, DW_AT_decl_column(0x05)
    9578              
    9579              $C$DW$690       .dwtag  DW_TAG_enumerator
TMS320C2000 Assembler PC v22.6.2 Wed Dec 10 14:45:02 2025

Copyright (c) 1996-2018 Texas Instruments Incorporated
dual_axis_servo_drive_hal.asm                                        PAGE  188

    9580                      .dwattr $C$DW$690, DW_AT_name("EPWM_HSCLOCK_DIVIDER_14")
    9581                      .dwattr $C$DW$690, DW_AT_const_value(0x07)
    9582                      .dwattr $C$DW$690, DW_AT_decl_file("C:/ti/C2000Ware_MotorControl_SDK_5_04_00_00/c2000ware/driverlib/f
    9583                      .dwattr $C$DW$690, DW_AT_decl_line(0xb1)
    9584                      .dwattr $C$DW$690, DW_AT_decl_column(0x05)
    9585              
    9586                      .dwattr $C$DW$T$72, DW_AT_decl_file("C:/ti/C2000Ware_MotorControl_SDK_5_04_00_00/c2000ware/driverlib/
    9587                      .dwattr $C$DW$T$72, DW_AT_decl_line(0xa9)
    9588                      .dwattr $C$DW$T$72, DW_AT_decl_column(0x01)
    9589                      .dwendtag $C$DW$T$72
    9590              
    9591                      .dwendtag $C$DW$TU$72
    9592              
    9593              
    9594              $C$DW$TU$73     .dwtag  DW_TAG_type_unit
    9595                      .dwmtype  $C$DW$T$73
    9596              $C$DW$T$73      .dwtag  DW_TAG_typedef
    9597                      .dwattr $C$DW$T$73, DW_AT_name("EPWM_HSClockDivider")
    9598                      .dwattr $C$DW$T$73, DW_AT_type(*$C$DW$T$72)
    9599                      .dwattr $C$DW$T$73, DW_AT_decl_file("C:/ti/C2000Ware_MotorControl_SDK_5_04_00_00/c2000ware/driverlib/
    9600                      .dwattr $C$DW$T$73, DW_AT_decl_line(0xb2)
    9601                      .dwattr $C$DW$T$73, DW_AT_decl_column(0x03)
    9602              
    9603                      .dwendtag $C$DW$TU$73
    9604              
    9605              
    9606              $C$DW$TU$74     .dwtag  DW_TAG_type_unit
    9607                      .dwmtype  $C$DW$T$74
    9608              
    9609              $C$DW$T$74      .dwtag  DW_TAG_enumeration_type
    9610                      .dwattr $C$DW$T$74, DW_AT_byte_size(0x01)
    9611              $C$DW$691       .dwtag  DW_TAG_enumerator
    9612                      .dwattr $C$DW$691, DW_AT_name("EPWM_PERIOD_SHADOW_LOAD")
    9613                      .dwattr $C$DW$691, DW_AT_const_value(0x00)
    9614                      .dwattr $C$DW$691, DW_AT_decl_file("C:/ti/C2000Ware_MotorControl_SDK_5_04_00_00/c2000ware/driverlib/f
    9615                      .dwattr $C$DW$691, DW_AT_decl_line(0xee)
    9616                      .dwattr $C$DW$691, DW_AT_decl_column(0x05)
    9617              
    9618              $C$DW$692       .dwtag  DW_TAG_enumerator
    9619                      .dwattr $C$DW$692, DW_AT_name("EPWM_PERIOD_DIRECT_LOAD")
    9620                      .dwattr $C$DW$692, DW_AT_const_value(0x01)
    9621                      .dwattr $C$DW$692, DW_AT_decl_file("C:/ti/C2000Ware_MotorControl_SDK_5_04_00_00/c2000ware/driverlib/f
    9622                      .dwattr $C$DW$692, DW_AT_decl_line(0xf0)
    9623                      .dwattr $C$DW$692, DW_AT_decl_column(0x05)
    9624              
    9625                      .dwattr $C$DW$T$74, DW_AT_decl_file("C:/ti/C2000Ware_MotorControl_SDK_5_04_00_00/c2000ware/driverlib/
    9626                      .dwattr $C$DW$T$74, DW_AT_decl_line(0xec)
    9627                      .dwattr $C$DW$T$74, DW_AT_decl_column(0x01)
    9628                      .dwendtag $C$DW$T$74
    9629              
    9630                      .dwendtag $C$DW$TU$74
    9631              
    9632              
    9633              $C$DW$TU$75     .dwtag  DW_TAG_type_unit
    9634                      .dwmtype  $C$DW$T$75
TMS320C2000 Assembler PC v22.6.2 Wed Dec 10 14:45:02 2025

Copyright (c) 1996-2018 Texas Instruments Incorporated
dual_axis_servo_drive_hal.asm                                        PAGE  189

    9635              $C$DW$T$75      .dwtag  DW_TAG_typedef
    9636                      .dwattr $C$DW$T$75, DW_AT_name("EPWM_PeriodLoadMode")
    9637                      .dwattr $C$DW$T$75, DW_AT_type(*$C$DW$T$74)
    9638                      .dwattr $C$DW$T$75, DW_AT_decl_file("C:/ti/C2000Ware_MotorControl_SDK_5_04_00_00/c2000ware/driverlib/
    9639                      .dwattr $C$DW$T$75, DW_AT_decl_line(0xf1)
    9640                      .dwattr $C$DW$T$75, DW_AT_decl_column(0x03)
    9641              
    9642                      .dwendtag $C$DW$TU$75
    9643              
    9644              
    9645              $C$DW$TU$76     .dwtag  DW_TAG_type_unit
    9646                      .dwmtype  $C$DW$T$76
    9647              
    9648              $C$DW$T$76      .dwtag  DW_TAG_enumeration_type
    9649                      .dwattr $C$DW$T$76, DW_AT_byte_size(0x01)
    9650              $C$DW$693       .dwtag  DW_TAG_enumerator
    9651                      .dwattr $C$DW$693, DW_AT_name("EPWM_COUNTER_MODE_UP")
    9652                      .dwattr $C$DW$693, DW_AT_const_value(0x00)
    9653                      .dwattr $C$DW$693, DW_AT_decl_file("C:/ti/C2000Ware_MotorControl_SDK_5_04_00_00/c2000ware/driverlib/f
    9654                      .dwattr $C$DW$693, DW_AT_decl_line(0xfb)
    9655                      .dwattr $C$DW$693, DW_AT_decl_column(0x05)
    9656              
    9657              $C$DW$694       .dwtag  DW_TAG_enumerator
    9658                      .dwattr $C$DW$694, DW_AT_name("EPWM_COUNTER_MODE_DOWN")
    9659                      .dwattr $C$DW$694, DW_AT_const_value(0x01)
    9660                      .dwattr $C$DW$694, DW_AT_decl_file("C:/ti/C2000Ware_MotorControl_SDK_5_04_00_00/c2000ware/driverlib/f
    9661                      .dwattr $C$DW$694, DW_AT_decl_line(0xfc)
    9662                      .dwattr $C$DW$694, DW_AT_decl_column(0x05)
    9663              
    9664              $C$DW$695       .dwtag  DW_TAG_enumerator
    9665                      .dwattr $C$DW$695, DW_AT_name("EPWM_COUNTER_MODE_UP_DOWN")
    9666                      .dwattr $C$DW$695, DW_AT_const_value(0x02)
    9667                      .dwattr $C$DW$695, DW_AT_decl_file("C:/ti/C2000Ware_MotorControl_SDK_5_04_00_00/c2000ware/driverlib/f
    9668                      .dwattr $C$DW$695, DW_AT_decl_line(0xfd)
    9669                      .dwattr $C$DW$695, DW_AT_decl_column(0x05)
    9670              
    9671              $C$DW$696       .dwtag  DW_TAG_enumerator
    9672                      .dwattr $C$DW$696, DW_AT_name("EPWM_COUNTER_MODE_STOP_FREEZE")
    9673                      .dwattr $C$DW$696, DW_AT_const_value(0x03)
    9674                      .dwattr $C$DW$696, DW_AT_decl_file("C:/ti/C2000Ware_MotorControl_SDK_5_04_00_00/c2000ware/driverlib/f
    9675                      .dwattr $C$DW$696, DW_AT_decl_line(0xfe)
    9676                      .dwattr $C$DW$696, DW_AT_decl_column(0x05)
    9677              
    9678                      .dwattr $C$DW$T$76, DW_AT_decl_file("C:/ti/C2000Ware_MotorControl_SDK_5_04_00_00/c2000ware/driverlib/
    9679                      .dwattr $C$DW$T$76, DW_AT_decl_line(0xfa)
    9680                      .dwattr $C$DW$T$76, DW_AT_decl_column(0x01)
    9681                      .dwendtag $C$DW$T$76
    9682              
    9683                      .dwendtag $C$DW$TU$76
    9684              
    9685              
    9686              $C$DW$TU$77     .dwtag  DW_TAG_type_unit
    9687                      .dwmtype  $C$DW$T$77
    9688              $C$DW$T$77      .dwtag  DW_TAG_typedef
    9689                      .dwattr $C$DW$T$77, DW_AT_name("EPWM_TimeBaseCountMode")
TMS320C2000 Assembler PC v22.6.2 Wed Dec 10 14:45:02 2025

Copyright (c) 1996-2018 Texas Instruments Incorporated
dual_axis_servo_drive_hal.asm                                        PAGE  190

    9690                      .dwattr $C$DW$T$77, DW_AT_type(*$C$DW$T$76)
    9691                      .dwattr $C$DW$T$77, DW_AT_decl_file("C:/ti/C2000Ware_MotorControl_SDK_5_04_00_00/c2000ware/driverlib/
    9692                      .dwattr $C$DW$T$77, DW_AT_decl_line(0xff)
    9693                      .dwattr $C$DW$T$77, DW_AT_decl_column(0x03)
    9694              
    9695                      .dwendtag $C$DW$TU$77
    9696              
    9697              
    9698              $C$DW$TU$78     .dwtag  DW_TAG_type_unit
    9699                      .dwmtype  $C$DW$T$78
    9700              
    9701              $C$DW$T$78      .dwtag  DW_TAG_enumeration_type
    9702                      .dwattr $C$DW$T$78, DW_AT_byte_size(0x01)
    9703              $C$DW$697       .dwtag  DW_TAG_enumerator
    9704                      .dwattr $C$DW$697, DW_AT_name("EPWM_COUNTER_COMPARE_A")
    9705                      .dwattr $C$DW$697, DW_AT_const_value(0x00)
    9706                      .dwattr $C$DW$697, DW_AT_decl_file("C:/ti/C2000Ware_MotorControl_SDK_5_04_00_00/c2000ware/driverlib/f
    9707                      .dwattr $C$DW$697, DW_AT_decl_line(0x14c)
    9708                      .dwattr $C$DW$697, DW_AT_decl_column(0x05)
    9709              
    9710              $C$DW$698       .dwtag  DW_TAG_enumerator
    9711                      .dwattr $C$DW$698, DW_AT_name("EPWM_COUNTER_COMPARE_B")
    9712                      .dwattr $C$DW$698, DW_AT_const_value(0x02)
    9713                      .dwattr $C$DW$698, DW_AT_decl_file("C:/ti/C2000Ware_MotorControl_SDK_5_04_00_00/c2000ware/driverlib/f
    9714                      .dwattr $C$DW$698, DW_AT_decl_line(0x14d)
    9715                      .dwattr $C$DW$698, DW_AT_decl_column(0x05)
    9716              
    9717              $C$DW$699       .dwtag  DW_TAG_enumerator
    9718                      .dwattr $C$DW$699, DW_AT_name("EPWM_COUNTER_COMPARE_C")
    9719                      .dwattr $C$DW$699, DW_AT_const_value(0x05)
    9720                      .dwattr $C$DW$699, DW_AT_decl_file("C:/ti/C2000Ware_MotorControl_SDK_5_04_00_00/c2000ware/driverlib/f
    9721                      .dwattr $C$DW$699, DW_AT_decl_line(0x14e)
    9722                      .dwattr $C$DW$699, DW_AT_decl_column(0x05)
    9723              
    9724              $C$DW$700       .dwtag  DW_TAG_enumerator
    9725                      .dwattr $C$DW$700, DW_AT_name("EPWM_COUNTER_COMPARE_D")
    9726                      .dwattr $C$DW$700, DW_AT_const_value(0x07)
    9727                      .dwattr $C$DW$700, DW_AT_decl_file("C:/ti/C2000Ware_MotorControl_SDK_5_04_00_00/c2000ware/driverlib/f
    9728                      .dwattr $C$DW$700, DW_AT_decl_line(0x14f)
    9729                      .dwattr $C$DW$700, DW_AT_decl_column(0x05)
    9730              
    9731                      .dwattr $C$DW$T$78, DW_AT_decl_file("C:/ti/C2000Ware_MotorControl_SDK_5_04_00_00/c2000ware/driverlib/
    9732                      .dwattr $C$DW$T$78, DW_AT_decl_line(0x14b)
    9733                      .dwattr $C$DW$T$78, DW_AT_decl_column(0x01)
    9734                      .dwendtag $C$DW$T$78
    9735              
    9736                      .dwendtag $C$DW$TU$78
    9737              
    9738              
    9739              $C$DW$TU$79     .dwtag  DW_TAG_type_unit
    9740                      .dwmtype  $C$DW$T$79
    9741              $C$DW$T$79      .dwtag  DW_TAG_typedef
    9742                      .dwattr $C$DW$T$79, DW_AT_name("EPWM_CounterCompareModule")
    9743                      .dwattr $C$DW$T$79, DW_AT_type(*$C$DW$T$78)
    9744                      .dwattr $C$DW$T$79, DW_AT_decl_file("C:/ti/C2000Ware_MotorControl_SDK_5_04_00_00/c2000ware/driverlib/
TMS320C2000 Assembler PC v22.6.2 Wed Dec 10 14:45:02 2025

Copyright (c) 1996-2018 Texas Instruments Incorporated
dual_axis_servo_drive_hal.asm                                        PAGE  191

    9745                      .dwattr $C$DW$T$79, DW_AT_decl_line(0x150)
    9746                      .dwattr $C$DW$T$79, DW_AT_decl_column(0x03)
    9747              
    9748                      .dwendtag $C$DW$TU$79
    9749              
    9750              
    9751              $C$DW$TU$80     .dwtag  DW_TAG_type_unit
    9752                      .dwmtype  $C$DW$T$80
    9753              
    9754              $C$DW$T$80      .dwtag  DW_TAG_enumeration_type
    9755                      .dwattr $C$DW$T$80, DW_AT_byte_size(0x01)
    9756              $C$DW$701       .dwtag  DW_TAG_enumerator
    9757                      .dwattr $C$DW$701, DW_AT_name("EPWM_COMP_LOAD_ON_CNTR_ZERO")
    9758                      .dwattr $C$DW$701, DW_AT_const_value(0x00)
    9759                      .dwattr $C$DW$701, DW_AT_decl_file("C:/ti/C2000Ware_MotorControl_SDK_5_04_00_00/c2000ware/driverlib/f
    9760                      .dwattr $C$DW$701, DW_AT_decl_line(0x15b)
    9761                      .dwattr $C$DW$701, DW_AT_decl_column(0x05)
    9762              
    9763              $C$DW$702       .dwtag  DW_TAG_enumerator
    9764                      .dwattr $C$DW$702, DW_AT_name("EPWM_COMP_LOAD_ON_CNTR_PERIOD")
    9765                      .dwattr $C$DW$702, DW_AT_const_value(0x01)
    9766                      .dwattr $C$DW$702, DW_AT_decl_file("C:/ti/C2000Ware_MotorControl_SDK_5_04_00_00/c2000ware/driverlib/f
    9767                      .dwattr $C$DW$702, DW_AT_decl_line(0x15d)
    9768                      .dwattr $C$DW$702, DW_AT_decl_column(0x05)
    9769              
    9770              $C$DW$703       .dwtag  DW_TAG_enumerator
    9771                      .dwattr $C$DW$703, DW_AT_name("EPWM_COMP_LOAD_ON_CNTR_ZERO_PERIOD")
    9772                      .dwattr $C$DW$703, DW_AT_const_value(0x02)
    9773                      .dwattr $C$DW$703, DW_AT_decl_file("C:/ti/C2000Ware_MotorControl_SDK_5_04_00_00/c2000ware/driverlib/f
    9774                      .dwattr $C$DW$703, DW_AT_decl_line(0x15f)
    9775                      .dwattr $C$DW$703, DW_AT_decl_column(0x05)
    9776              
    9777              $C$DW$704       .dwtag  DW_TAG_enumerator
    9778                      .dwattr $C$DW$704, DW_AT_name("EPWM_COMP_LOAD_FREEZE")
    9779                      .dwattr $C$DW$704, DW_AT_const_value(0x03)
    9780                      .dwattr $C$DW$704, DW_AT_decl_file("C:/ti/C2000Ware_MotorControl_SDK_5_04_00_00/c2000ware/driverlib/f
    9781                      .dwattr $C$DW$704, DW_AT_decl_line(0x161)
    9782                      .dwattr $C$DW$704, DW_AT_decl_column(0x05)
    9783              
    9784              $C$DW$705       .dwtag  DW_TAG_enumerator
    9785                      .dwattr $C$DW$705, DW_AT_name("EPWM_COMP_LOAD_ON_SYNC_CNTR_ZERO")
    9786                      .dwattr $C$DW$705, DW_AT_const_value(0x04)
    9787                      .dwattr $C$DW$705, DW_AT_decl_file("C:/ti/C2000Ware_MotorControl_SDK_5_04_00_00/c2000ware/driverlib/f
    9788                      .dwattr $C$DW$705, DW_AT_decl_line(0x163)
    9789                      .dwattr $C$DW$705, DW_AT_decl_column(0x05)
    9790              
    9791              $C$DW$706       .dwtag  DW_TAG_enumerator
    9792                      .dwattr $C$DW$706, DW_AT_name("EPWM_COMP_LOAD_ON_SYNC_CNTR_PERIOD")
    9793                      .dwattr $C$DW$706, DW_AT_const_value(0x05)
    9794                      .dwattr $C$DW$706, DW_AT_decl_file("C:/ti/C2000Ware_MotorControl_SDK_5_04_00_00/c2000ware/driverlib/f
    9795                      .dwattr $C$DW$706, DW_AT_decl_line(0x165)
    9796                      .dwattr $C$DW$706, DW_AT_decl_column(0x05)
    9797              
    9798              $C$DW$707       .dwtag  DW_TAG_enumerator
    9799                      .dwattr $C$DW$707, DW_AT_name("EPWM_COMP_LOAD_ON_SYNC_CNTR_ZERO_PERIOD")
TMS320C2000 Assembler PC v22.6.2 Wed Dec 10 14:45:02 2025

Copyright (c) 1996-2018 Texas Instruments Incorporated
dual_axis_servo_drive_hal.asm                                        PAGE  192

    9800                      .dwattr $C$DW$707, DW_AT_const_value(0x06)
    9801                      .dwattr $C$DW$707, DW_AT_decl_file("C:/ti/C2000Ware_MotorControl_SDK_5_04_00_00/c2000ware/driverlib/f
    9802                      .dwattr $C$DW$707, DW_AT_decl_line(0x167)
    9803                      .dwattr $C$DW$707, DW_AT_decl_column(0x05)
    9804              
    9805              $C$DW$708       .dwtag  DW_TAG_enumerator
    9806                      .dwattr $C$DW$708, DW_AT_name("EPWM_COMP_LOAD_ON_SYNC_ONLY")
    9807                      .dwattr $C$DW$708, DW_AT_const_value(0x08)
    9808                      .dwattr $C$DW$708, DW_AT_decl_file("C:/ti/C2000Ware_MotorControl_SDK_5_04_00_00/c2000ware/driverlib/f
    9809                      .dwattr $C$DW$708, DW_AT_decl_line(0x169)
    9810                      .dwattr $C$DW$708, DW_AT_decl_column(0x05)
    9811              
    9812                      .dwattr $C$DW$T$80, DW_AT_decl_file("C:/ti/C2000Ware_MotorControl_SDK_5_04_00_00/c2000ware/driverlib/
    9813                      .dwattr $C$DW$T$80, DW_AT_decl_line(0x159)
    9814                      .dwattr $C$DW$T$80, DW_AT_decl_column(0x01)
    9815                      .dwendtag $C$DW$T$80
    9816              
    9817                      .dwendtag $C$DW$TU$80
    9818              
    9819              
    9820              $C$DW$TU$81     .dwtag  DW_TAG_type_unit
    9821                      .dwmtype  $C$DW$T$81
    9822              $C$DW$T$81      .dwtag  DW_TAG_typedef
    9823                      .dwattr $C$DW$T$81, DW_AT_name("EPWM_CounterCompareLoadMode")
    9824                      .dwattr $C$DW$T$81, DW_AT_type(*$C$DW$T$80)
    9825                      .dwattr $C$DW$T$81, DW_AT_decl_file("C:/ti/C2000Ware_MotorControl_SDK_5_04_00_00/c2000ware/driverlib/
    9826                      .dwattr $C$DW$T$81, DW_AT_decl_line(0x16a)
    9827                      .dwattr $C$DW$T$81, DW_AT_decl_column(0x03)
    9828              
    9829                      .dwendtag $C$DW$TU$81
    9830              
    9831              
    9832              $C$DW$TU$82     .dwtag  DW_TAG_type_unit
    9833                      .dwmtype  $C$DW$T$82
    9834              
    9835              $C$DW$T$82      .dwtag  DW_TAG_enumeration_type
    9836                      .dwattr $C$DW$T$82, DW_AT_byte_size(0x01)
    9837              $C$DW$709       .dwtag  DW_TAG_enumerator
    9838                      .dwattr $C$DW$709, DW_AT_name("EPWM_AQ_OUTPUT_A")
    9839                      .dwattr $C$DW$709, DW_AT_const_value(0x00)
    9840                      .dwattr $C$DW$709, DW_AT_decl_file("C:/ti/C2000Ware_MotorControl_SDK_5_04_00_00/c2000ware/driverlib/f
    9841                      .dwattr $C$DW$709, DW_AT_decl_line(0x24f)
    9842                      .dwattr $C$DW$709, DW_AT_decl_column(0x05)
    9843              
    9844              $C$DW$710       .dwtag  DW_TAG_enumerator
    9845                      .dwattr $C$DW$710, DW_AT_name("EPWM_AQ_OUTPUT_B")
    9846                      .dwattr $C$DW$710, DW_AT_const_value(0x02)
    9847                      .dwattr $C$DW$710, DW_AT_decl_file("C:/ti/C2000Ware_MotorControl_SDK_5_04_00_00/c2000ware/driverlib/f
    9848                      .dwattr $C$DW$710, DW_AT_decl_line(0x250)
    9849                      .dwattr $C$DW$710, DW_AT_decl_column(0x05)
    9850              
    9851                      .dwattr $C$DW$T$82, DW_AT_decl_file("C:/ti/C2000Ware_MotorControl_SDK_5_04_00_00/c2000ware/driverlib/
    9852                      .dwattr $C$DW$T$82, DW_AT_decl_line(0x24e)
    9853                      .dwattr $C$DW$T$82, DW_AT_decl_column(0x01)
    9854                      .dwendtag $C$DW$T$82
TMS320C2000 Assembler PC v22.6.2 Wed Dec 10 14:45:02 2025

Copyright (c) 1996-2018 Texas Instruments Incorporated
dual_axis_servo_drive_hal.asm                                        PAGE  193

    9855              
    9856                      .dwendtag $C$DW$TU$82
    9857              
    9858              
    9859              $C$DW$TU$83     .dwtag  DW_TAG_type_unit
    9860                      .dwmtype  $C$DW$T$83
    9861              $C$DW$T$83      .dwtag  DW_TAG_typedef
    9862                      .dwattr $C$DW$T$83, DW_AT_name("EPWM_ActionQualifierOutputModule")
    9863                      .dwattr $C$DW$T$83, DW_AT_type(*$C$DW$T$82)
    9864                      .dwattr $C$DW$T$83, DW_AT_decl_file("C:/ti/C2000Ware_MotorControl_SDK_5_04_00_00/c2000ware/driverlib/
    9865                      .dwattr $C$DW$T$83, DW_AT_decl_line(0x251)
    9866                      .dwattr $C$DW$T$83, DW_AT_decl_column(0x03)
    9867              
    9868                      .dwendtag $C$DW$TU$83
    9869              
    9870              
    9871              $C$DW$TU$84     .dwtag  DW_TAG_type_unit
    9872                      .dwmtype  $C$DW$T$84
    9873              
    9874              $C$DW$T$84      .dwtag  DW_TAG_enumeration_type
    9875                      .dwattr $C$DW$T$84, DW_AT_byte_size(0x01)
    9876              $C$DW$711       .dwtag  DW_TAG_enumerator
    9877                      .dwattr $C$DW$711, DW_AT_name("EPWM_DB_RED")
    9878                      .dwattr $C$DW$711, DW_AT_const_value(0x01)
    9879                      .dwattr $C$DW$711, DW_AT_decl_file("C:/ti/C2000Ware_MotorControl_SDK_5_04_00_00/c2000ware/driverlib/f
    9880                      .dwattr $C$DW$711, DW_AT_decl_line(0x279)
    9881                      .dwattr $C$DW$711, DW_AT_decl_column(0x05)
    9882              
    9883              $C$DW$712       .dwtag  DW_TAG_enumerator
    9884                      .dwattr $C$DW$712, DW_AT_name("EPWM_DB_FED")
    9885                      .dwattr $C$DW$712, DW_AT_const_value(0x00)
    9886                      .dwattr $C$DW$712, DW_AT_decl_file("C:/ti/C2000Ware_MotorControl_SDK_5_04_00_00/c2000ware/driverlib/f
    9887                      .dwattr $C$DW$712, DW_AT_decl_line(0x27a)
    9888                      .dwattr $C$DW$712, DW_AT_decl_column(0x05)
    9889              
    9890                      .dwattr $C$DW$T$84, DW_AT_decl_file("C:/ti/C2000Ware_MotorControl_SDK_5_04_00_00/c2000ware/driverlib/
    9891                      .dwattr $C$DW$T$84, DW_AT_decl_line(0x278)
    9892                      .dwattr $C$DW$T$84, DW_AT_decl_column(0x01)
    9893                      .dwendtag $C$DW$T$84
    9894              
    9895                      .dwendtag $C$DW$TU$84
    9896              
    9897              
    9898              $C$DW$TU$85     .dwtag  DW_TAG_type_unit
    9899                      .dwmtype  $C$DW$T$85
    9900              $C$DW$T$85      .dwtag  DW_TAG_typedef
    9901                      .dwattr $C$DW$T$85, DW_AT_name("EPWM_DeadBandDelayMode")
    9902                      .dwattr $C$DW$T$85, DW_AT_type(*$C$DW$T$84)
    9903                      .dwattr $C$DW$T$85, DW_AT_decl_file("C:/ti/C2000Ware_MotorControl_SDK_5_04_00_00/c2000ware/driverlib/
    9904                      .dwattr $C$DW$T$85, DW_AT_decl_line(0x27b)
    9905                      .dwattr $C$DW$T$85, DW_AT_decl_column(0x03)
    9906              
    9907                      .dwendtag $C$DW$TU$85
    9908              
    9909              
TMS320C2000 Assembler PC v22.6.2 Wed Dec 10 14:45:02 2025

Copyright (c) 1996-2018 Texas Instruments Incorporated
dual_axis_servo_drive_hal.asm                                        PAGE  194

    9910              $C$DW$TU$86     .dwtag  DW_TAG_type_unit
    9911                      .dwmtype  $C$DW$T$86
    9912              
    9913              $C$DW$T$86      .dwtag  DW_TAG_enumeration_type
    9914                      .dwattr $C$DW$T$86, DW_AT_byte_size(0x01)
    9915              $C$DW$713       .dwtag  DW_TAG_enumerator
    9916                      .dwattr $C$DW$713, DW_AT_name("EPWM_DB_POLARITY_ACTIVE_HIGH")
    9917                      .dwattr $C$DW$713, DW_AT_const_value(0x00)
    9918                      .dwattr $C$DW$713, DW_AT_decl_file("C:/ti/C2000Ware_MotorControl_SDK_5_04_00_00/c2000ware/driverlib/f
    9919                      .dwattr $C$DW$713, DW_AT_decl_line(0x285)
    9920                      .dwattr $C$DW$713, DW_AT_decl_column(0x05)
    9921              
    9922              $C$DW$714       .dwtag  DW_TAG_enumerator
    9923                      .dwattr $C$DW$714, DW_AT_name("EPWM_DB_POLARITY_ACTIVE_LOW")
    9924                      .dwattr $C$DW$714, DW_AT_const_value(0x01)
    9925                      .dwattr $C$DW$714, DW_AT_decl_file("C:/ti/C2000Ware_MotorControl_SDK_5_04_00_00/c2000ware/driverlib/f
    9926                      .dwattr $C$DW$714, DW_AT_decl_line(0x286)
    9927                      .dwattr $C$DW$714, DW_AT_decl_column(0x05)
    9928              
    9929                      .dwattr $C$DW$T$86, DW_AT_decl_file("C:/ti/C2000Ware_MotorControl_SDK_5_04_00_00/c2000ware/driverlib/
    9930                      .dwattr $C$DW$T$86, DW_AT_decl_line(0x284)
    9931                      .dwattr $C$DW$T$86, DW_AT_decl_column(0x01)
    9932                      .dwendtag $C$DW$T$86
    9933              
    9934                      .dwendtag $C$DW$TU$86
    9935              
    9936              
    9937              $C$DW$TU$87     .dwtag  DW_TAG_type_unit
    9938                      .dwmtype  $C$DW$T$87
    9939              $C$DW$T$87      .dwtag  DW_TAG_typedef
    9940                      .dwattr $C$DW$T$87, DW_AT_name("EPWM_DeadBandPolarity")
    9941                      .dwattr $C$DW$T$87, DW_AT_type(*$C$DW$T$86)
    9942                      .dwattr $C$DW$T$87, DW_AT_decl_file("C:/ti/C2000Ware_MotorControl_SDK_5_04_00_00/c2000ware/driverlib/
    9943                      .dwattr $C$DW$T$87, DW_AT_decl_line(0x287)
    9944                      .dwattr $C$DW$T$87, DW_AT_decl_column(0x03)
    9945              
    9946                      .dwendtag $C$DW$TU$87
    9947              
    9948              
    9949              $C$DW$TU$88     .dwtag  DW_TAG_type_unit
    9950                      .dwmtype  $C$DW$T$88
    9951              
    9952              $C$DW$T$88      .dwtag  DW_TAG_enumeration_type
    9953                      .dwattr $C$DW$T$88, DW_AT_byte_size(0x01)
    9954              $C$DW$715       .dwtag  DW_TAG_enumerator
    9955                      .dwattr $C$DW$715, DW_AT_name("EPWM_TZ_DC_OUTPUT_A1")
    9956                      .dwattr $C$DW$715, DW_AT_const_value(0x00)
    9957                      .dwattr $C$DW$715, DW_AT_decl_file("C:/ti/C2000Ware_MotorControl_SDK_5_04_00_00/c2000ware/driverlib/f
    9958                      .dwattr $C$DW$715, DW_AT_decl_line(0x31f)
    9959                      .dwattr $C$DW$715, DW_AT_decl_column(0x05)
    9960              
    9961              $C$DW$716       .dwtag  DW_TAG_enumerator
    9962                      .dwattr $C$DW$716, DW_AT_name("EPWM_TZ_DC_OUTPUT_A2")
    9963                      .dwattr $C$DW$716, DW_AT_const_value(0x03)
    9964                      .dwattr $C$DW$716, DW_AT_decl_file("C:/ti/C2000Ware_MotorControl_SDK_5_04_00_00/c2000ware/driverlib/f
TMS320C2000 Assembler PC v22.6.2 Wed Dec 10 14:45:02 2025

Copyright (c) 1996-2018 Texas Instruments Incorporated
dual_axis_servo_drive_hal.asm                                        PAGE  195

    9965                      .dwattr $C$DW$716, DW_AT_decl_line(0x320)
    9966                      .dwattr $C$DW$716, DW_AT_decl_column(0x05)
    9967              
    9968              $C$DW$717       .dwtag  DW_TAG_enumerator
    9969                      .dwattr $C$DW$717, DW_AT_name("EPWM_TZ_DC_OUTPUT_B1")
    9970                      .dwattr $C$DW$717, DW_AT_const_value(0x06)
    9971                      .dwattr $C$DW$717, DW_AT_decl_file("C:/ti/C2000Ware_MotorControl_SDK_5_04_00_00/c2000ware/driverlib/f
    9972                      .dwattr $C$DW$717, DW_AT_decl_line(0x321)
    9973                      .dwattr $C$DW$717, DW_AT_decl_column(0x05)
    9974              
    9975              $C$DW$718       .dwtag  DW_TAG_enumerator
    9976                      .dwattr $C$DW$718, DW_AT_name("EPWM_TZ_DC_OUTPUT_B2")
    9977                      .dwattr $C$DW$718, DW_AT_const_value(0x09)
    9978                      .dwattr $C$DW$718, DW_AT_decl_file("C:/ti/C2000Ware_MotorControl_SDK_5_04_00_00/c2000ware/driverlib/f
    9979                      .dwattr $C$DW$718, DW_AT_decl_line(0x322)
    9980                      .dwattr $C$DW$718, DW_AT_decl_column(0x05)
    9981              
    9982                      .dwattr $C$DW$T$88, DW_AT_decl_file("C:/ti/C2000Ware_MotorControl_SDK_5_04_00_00/c2000ware/driverlib/
    9983                      .dwattr $C$DW$T$88, DW_AT_decl_line(0x31e)
    9984                      .dwattr $C$DW$T$88, DW_AT_decl_column(0x01)
    9985                      .dwendtag $C$DW$T$88
    9986              
    9987                      .dwendtag $C$DW$TU$88
    9988              
    9989              
    9990              $C$DW$TU$89     .dwtag  DW_TAG_type_unit
    9991                      .dwmtype  $C$DW$T$89
    9992              $C$DW$T$89      .dwtag  DW_TAG_typedef
    9993                      .dwattr $C$DW$T$89, DW_AT_name("EPWM_TripZoneDigitalCompareOutput")
    9994                      .dwattr $C$DW$T$89, DW_AT_type(*$C$DW$T$88)
    9995                      .dwattr $C$DW$T$89, DW_AT_decl_file("C:/ti/C2000Ware_MotorControl_SDK_5_04_00_00/c2000ware/driverlib/
    9996                      .dwattr $C$DW$T$89, DW_AT_decl_line(0x323)
    9997                      .dwattr $C$DW$T$89, DW_AT_decl_column(0x03)
    9998              
    9999                      .dwendtag $C$DW$TU$89
   10000              
   10001              
   10002              $C$DW$TU$90     .dwtag  DW_TAG_type_unit
   10003                      .dwmtype  $C$DW$T$90
   10004              
   10005              $C$DW$T$90      .dwtag  DW_TAG_enumeration_type
   10006                      .dwattr $C$DW$T$90, DW_AT_byte_size(0x01)
   10007              $C$DW$719       .dwtag  DW_TAG_enumerator
   10008                      .dwattr $C$DW$719, DW_AT_name("EPWM_TZ_EVENT_DC_DISABLED")
   10009                      .dwattr $C$DW$719, DW_AT_const_value(0x00)
   10010                      .dwattr $C$DW$719, DW_AT_decl_file("C:/ti/C2000Ware_MotorControl_SDK_5_04_00_00/c2000ware/driverlib/f
   10011                      .dwattr $C$DW$719, DW_AT_decl_line(0x32d)
   10012                      .dwattr $C$DW$719, DW_AT_decl_column(0x05)
   10013              
   10014              $C$DW$720       .dwtag  DW_TAG_enumerator
   10015                      .dwattr $C$DW$720, DW_AT_name("EPWM_TZ_EVENT_DCXH_LOW")
   10016                      .dwattr $C$DW$720, DW_AT_const_value(0x01)
   10017                      .dwattr $C$DW$720, DW_AT_decl_file("C:/ti/C2000Ware_MotorControl_SDK_5_04_00_00/c2000ware/driverlib/f
   10018                      .dwattr $C$DW$720, DW_AT_decl_line(0x32e)
   10019                      .dwattr $C$DW$720, DW_AT_decl_column(0x05)
TMS320C2000 Assembler PC v22.6.2 Wed Dec 10 14:45:02 2025

Copyright (c) 1996-2018 Texas Instruments Incorporated
dual_axis_servo_drive_hal.asm                                        PAGE  196

   10020              
   10021              $C$DW$721       .dwtag  DW_TAG_enumerator
   10022                      .dwattr $C$DW$721, DW_AT_name("EPWM_TZ_EVENT_DCXH_HIGH")
   10023                      .dwattr $C$DW$721, DW_AT_const_value(0x02)
   10024                      .dwattr $C$DW$721, DW_AT_decl_file("C:/ti/C2000Ware_MotorControl_SDK_5_04_00_00/c2000ware/driverlib/f
   10025                      .dwattr $C$DW$721, DW_AT_decl_line(0x32f)
   10026                      .dwattr $C$DW$721, DW_AT_decl_column(0x05)
   10027              
   10028              $C$DW$722       .dwtag  DW_TAG_enumerator
   10029                      .dwattr $C$DW$722, DW_AT_name("EPWM_TZ_EVENT_DCXL_LOW")
   10030                      .dwattr $C$DW$722, DW_AT_const_value(0x03)
   10031                      .dwattr $C$DW$722, DW_AT_decl_file("C:/ti/C2000Ware_MotorControl_SDK_5_04_00_00/c2000ware/driverlib/f
   10032                      .dwattr $C$DW$722, DW_AT_decl_line(0x330)
   10033                      .dwattr $C$DW$722, DW_AT_decl_column(0x05)
   10034              
   10035              $C$DW$723       .dwtag  DW_TAG_enumerator
   10036                      .dwattr $C$DW$723, DW_AT_name("EPWM_TZ_EVENT_DCXL_HIGH")
   10037                      .dwattr $C$DW$723, DW_AT_const_value(0x04)
   10038                      .dwattr $C$DW$723, DW_AT_decl_file("C:/ti/C2000Ware_MotorControl_SDK_5_04_00_00/c2000ware/driverlib/f
   10039                      .dwattr $C$DW$723, DW_AT_decl_line(0x331)
   10040                      .dwattr $C$DW$723, DW_AT_decl_column(0x05)
   10041              
   10042              $C$DW$724       .dwtag  DW_TAG_enumerator
   10043                      .dwattr $C$DW$724, DW_AT_name("EPWM_TZ_EVENT_DCXL_HIGH_DCXH_LOW")
   10044                      .dwattr $C$DW$724, DW_AT_const_value(0x05)
   10045                      .dwattr $C$DW$724, DW_AT_decl_file("C:/ti/C2000Ware_MotorControl_SDK_5_04_00_00/c2000ware/driverlib/f
   10046                      .dwattr $C$DW$724, DW_AT_decl_line(0x332)
   10047                      .dwattr $C$DW$724, DW_AT_decl_column(0x05)
   10048              
   10049                      .dwattr $C$DW$T$90, DW_AT_decl_file("C:/ti/C2000Ware_MotorControl_SDK_5_04_00_00/c2000ware/driverlib/
   10050                      .dwattr $C$DW$T$90, DW_AT_decl_line(0x32c)
   10051                      .dwattr $C$DW$T$90, DW_AT_decl_column(0x01)
   10052                      .dwendtag $C$DW$T$90
   10053              
   10054                      .dwendtag $C$DW$TU$90
   10055              
   10056              
   10057              $C$DW$TU$91     .dwtag  DW_TAG_type_unit
   10058                      .dwmtype  $C$DW$T$91
   10059              $C$DW$T$91      .dwtag  DW_TAG_typedef
   10060                      .dwattr $C$DW$T$91, DW_AT_name("EPWM_TripZoneDigitalCompareOutputEvent")
   10061                      .dwattr $C$DW$T$91, DW_AT_type(*$C$DW$T$90)
   10062                      .dwattr $C$DW$T$91, DW_AT_decl_file("C:/ti/C2000Ware_MotorControl_SDK_5_04_00_00/c2000ware/driverlib/
   10063                      .dwattr $C$DW$T$91, DW_AT_decl_line(0x333)
   10064                      .dwattr $C$DW$T$91, DW_AT_decl_column(0x03)
   10065              
   10066                      .dwendtag $C$DW$TU$91
   10067              
   10068              
   10069              $C$DW$TU$92     .dwtag  DW_TAG_type_unit
   10070                      .dwmtype  $C$DW$T$92
   10071              
   10072              $C$DW$T$92      .dwtag  DW_TAG_enumeration_type
   10073                      .dwattr $C$DW$T$92, DW_AT_byte_size(0x01)
   10074              $C$DW$725       .dwtag  DW_TAG_enumerator
TMS320C2000 Assembler PC v22.6.2 Wed Dec 10 14:45:02 2025

Copyright (c) 1996-2018 Texas Instruments Incorporated
dual_axis_servo_drive_hal.asm                                        PAGE  197

   10075                      .dwattr $C$DW$725, DW_AT_name("EPWM_TZ_ACTION_EVENT_TZA")
   10076                      .dwattr $C$DW$725, DW_AT_const_value(0x00)
   10077                      .dwattr $C$DW$725, DW_AT_decl_file("C:/ti/C2000Ware_MotorControl_SDK_5_04_00_00/c2000ware/driverlib/f
   10078                      .dwattr $C$DW$725, DW_AT_decl_line(0x33d)
   10079                      .dwattr $C$DW$725, DW_AT_decl_column(0x05)
   10080              
   10081              $C$DW$726       .dwtag  DW_TAG_enumerator
   10082                      .dwattr $C$DW$726, DW_AT_name("EPWM_TZ_ACTION_EVENT_TZB")
   10083                      .dwattr $C$DW$726, DW_AT_const_value(0x02)
   10084                      .dwattr $C$DW$726, DW_AT_decl_file("C:/ti/C2000Ware_MotorControl_SDK_5_04_00_00/c2000ware/driverlib/f
   10085                      .dwattr $C$DW$726, DW_AT_decl_line(0x33e)
   10086                      .dwattr $C$DW$726, DW_AT_decl_column(0x05)
   10087              
   10088              $C$DW$727       .dwtag  DW_TAG_enumerator
   10089                      .dwattr $C$DW$727, DW_AT_name("EPWM_TZ_ACTION_EVENT_DCAEVT1")
   10090                      .dwattr $C$DW$727, DW_AT_const_value(0x04)
   10091                      .dwattr $C$DW$727, DW_AT_decl_file("C:/ti/C2000Ware_MotorControl_SDK_5_04_00_00/c2000ware/driverlib/f
   10092                      .dwattr $C$DW$727, DW_AT_decl_line(0x33f)
   10093                      .dwattr $C$DW$727, DW_AT_decl_column(0x05)
   10094              
   10095              $C$DW$728       .dwtag  DW_TAG_enumerator
   10096                      .dwattr $C$DW$728, DW_AT_name("EPWM_TZ_ACTION_EVENT_DCAEVT2")
   10097                      .dwattr $C$DW$728, DW_AT_const_value(0x06)
   10098                      .dwattr $C$DW$728, DW_AT_decl_file("C:/ti/C2000Ware_MotorControl_SDK_5_04_00_00/c2000ware/driverlib/f
   10099                      .dwattr $C$DW$728, DW_AT_decl_line(0x340)
   10100                      .dwattr $C$DW$728, DW_AT_decl_column(0x05)
   10101              
   10102              $C$DW$729       .dwtag  DW_TAG_enumerator
   10103                      .dwattr $C$DW$729, DW_AT_name("EPWM_TZ_ACTION_EVENT_DCBEVT1")
   10104                      .dwattr $C$DW$729, DW_AT_const_value(0x08)
   10105                      .dwattr $C$DW$729, DW_AT_decl_file("C:/ti/C2000Ware_MotorControl_SDK_5_04_00_00/c2000ware/driverlib/f
   10106                      .dwattr $C$DW$729, DW_AT_decl_line(0x341)
   10107                      .dwattr $C$DW$729, DW_AT_decl_column(0x05)
   10108              
   10109              $C$DW$730       .dwtag  DW_TAG_enumerator
   10110                      .dwattr $C$DW$730, DW_AT_name("EPWM_TZ_ACTION_EVENT_DCBEVT2")
   10111                      .dwattr $C$DW$730, DW_AT_const_value(0x0a)
   10112                      .dwattr $C$DW$730, DW_AT_decl_file("C:/ti/C2000Ware_MotorControl_SDK_5_04_00_00/c2000ware/driverlib/f
   10113                      .dwattr $C$DW$730, DW_AT_decl_line(0x342)
   10114                      .dwattr $C$DW$730, DW_AT_decl_column(0x05)
   10115              
   10116                      .dwattr $C$DW$T$92, DW_AT_decl_file("C:/ti/C2000Ware_MotorControl_SDK_5_04_00_00/c2000ware/driverlib/
   10117                      .dwattr $C$DW$T$92, DW_AT_decl_line(0x33c)
   10118                      .dwattr $C$DW$T$92, DW_AT_decl_column(0x01)
   10119                      .dwendtag $C$DW$T$92
   10120              
   10121                      .dwendtag $C$DW$TU$92
   10122              
   10123              
   10124              $C$DW$TU$93     .dwtag  DW_TAG_type_unit
   10125                      .dwmtype  $C$DW$T$93
   10126              $C$DW$T$93      .dwtag  DW_TAG_typedef
   10127                      .dwattr $C$DW$T$93, DW_AT_name("EPWM_TripZoneEvent")
   10128                      .dwattr $C$DW$T$93, DW_AT_type(*$C$DW$T$92)
   10129                      .dwattr $C$DW$T$93, DW_AT_decl_file("C:/ti/C2000Ware_MotorControl_SDK_5_04_00_00/c2000ware/driverlib/
TMS320C2000 Assembler PC v22.6.2 Wed Dec 10 14:45:02 2025

Copyright (c) 1996-2018 Texas Instruments Incorporated
dual_axis_servo_drive_hal.asm                                        PAGE  198

   10130                      .dwattr $C$DW$T$93, DW_AT_decl_line(0x343)
   10131                      .dwattr $C$DW$T$93, DW_AT_decl_column(0x03)
   10132              
   10133                      .dwendtag $C$DW$TU$93
   10134              
   10135              
   10136              $C$DW$TU$94     .dwtag  DW_TAG_type_unit
   10137                      .dwmtype  $C$DW$T$94
   10138              
   10139              $C$DW$T$94      .dwtag  DW_TAG_enumeration_type
   10140                      .dwattr $C$DW$T$94, DW_AT_byte_size(0x01)
   10141              $C$DW$731       .dwtag  DW_TAG_enumerator
   10142                      .dwattr $C$DW$731, DW_AT_name("EPWM_TZ_ACTION_HIGH_Z")
   10143                      .dwattr $C$DW$731, DW_AT_const_value(0x00)
   10144                      .dwattr $C$DW$731, DW_AT_decl_file("C:/ti/C2000Ware_MotorControl_SDK_5_04_00_00/c2000ware/driverlib/f
   10145                      .dwattr $C$DW$731, DW_AT_decl_line(0x34d)
   10146                      .dwattr $C$DW$731, DW_AT_decl_column(0x05)
   10147              
   10148              $C$DW$732       .dwtag  DW_TAG_enumerator
   10149                      .dwattr $C$DW$732, DW_AT_name("EPWM_TZ_ACTION_HIGH")
   10150                      .dwattr $C$DW$732, DW_AT_const_value(0x01)
   10151                      .dwattr $C$DW$732, DW_AT_decl_file("C:/ti/C2000Ware_MotorControl_SDK_5_04_00_00/c2000ware/driverlib/f
   10152                      .dwattr $C$DW$732, DW_AT_decl_line(0x34e)
   10153                      .dwattr $C$DW$732, DW_AT_decl_column(0x05)
   10154              
   10155              $C$DW$733       .dwtag  DW_TAG_enumerator
   10156                      .dwattr $C$DW$733, DW_AT_name("EPWM_TZ_ACTION_LOW")
   10157                      .dwattr $C$DW$733, DW_AT_const_value(0x02)
   10158                      .dwattr $C$DW$733, DW_AT_decl_file("C:/ti/C2000Ware_MotorControl_SDK_5_04_00_00/c2000ware/driverlib/f
   10159                      .dwattr $C$DW$733, DW_AT_decl_line(0x34f)
   10160                      .dwattr $C$DW$733, DW_AT_decl_column(0x05)
   10161              
   10162              $C$DW$734       .dwtag  DW_TAG_enumerator
   10163                      .dwattr $C$DW$734, DW_AT_name("EPWM_TZ_ACTION_DISABLE")
   10164                      .dwattr $C$DW$734, DW_AT_const_value(0x03)
   10165                      .dwattr $C$DW$734, DW_AT_decl_file("C:/ti/C2000Ware_MotorControl_SDK_5_04_00_00/c2000ware/driverlib/f
   10166                      .dwattr $C$DW$734, DW_AT_decl_line(0x350)
   10167                      .dwattr $C$DW$734, DW_AT_decl_column(0x05)
   10168              
   10169                      .dwattr $C$DW$T$94, DW_AT_decl_file("C:/ti/C2000Ware_MotorControl_SDK_5_04_00_00/c2000ware/driverlib/
   10170                      .dwattr $C$DW$T$94, DW_AT_decl_line(0x34c)
   10171                      .dwattr $C$DW$T$94, DW_AT_decl_column(0x01)
   10172                      .dwendtag $C$DW$T$94
   10173              
   10174                      .dwendtag $C$DW$TU$94
   10175              
   10176              
   10177              $C$DW$TU$95     .dwtag  DW_TAG_type_unit
   10178                      .dwmtype  $C$DW$T$95
   10179              $C$DW$T$95      .dwtag  DW_TAG_typedef
   10180                      .dwattr $C$DW$T$95, DW_AT_name("EPWM_TripZoneAction")
   10181                      .dwattr $C$DW$T$95, DW_AT_type(*$C$DW$T$94)
   10182                      .dwattr $C$DW$T$95, DW_AT_decl_file("C:/ti/C2000Ware_MotorControl_SDK_5_04_00_00/c2000ware/driverlib/
   10183                      .dwattr $C$DW$T$95, DW_AT_decl_line(0x351)
   10184                      .dwattr $C$DW$T$95, DW_AT_decl_column(0x03)
TMS320C2000 Assembler PC v22.6.2 Wed Dec 10 14:45:02 2025

Copyright (c) 1996-2018 Texas Instruments Incorporated
dual_axis_servo_drive_hal.asm                                        PAGE  199

   10185              
   10186                      .dwendtag $C$DW$TU$95
   10187              
   10188              
   10189              $C$DW$TU$96     .dwtag  DW_TAG_type_unit
   10190                      .dwmtype  $C$DW$T$96
   10191              
   10192              $C$DW$T$96      .dwtag  DW_TAG_enumeration_type
   10193                      .dwattr $C$DW$T$96, DW_AT_byte_size(0x01)
   10194              $C$DW$735       .dwtag  DW_TAG_enumerator
   10195                      .dwattr $C$DW$735, DW_AT_name("EPWM_SOC_A")
   10196                      .dwattr $C$DW$735, DW_AT_const_value(0x00)
   10197                      .dwattr $C$DW$735, DW_AT_decl_file("C:/ti/C2000Ware_MotorControl_SDK_5_04_00_00/c2000ware/driverlib/f
   10198                      .dwattr $C$DW$735, DW_AT_decl_line(0x465)
   10199                      .dwattr $C$DW$735, DW_AT_decl_column(0x05)
   10200              
   10201              $C$DW$736       .dwtag  DW_TAG_enumerator
   10202                      .dwattr $C$DW$736, DW_AT_name("EPWM_SOC_B")
   10203                      .dwattr $C$DW$736, DW_AT_const_value(0x01)
   10204                      .dwattr $C$DW$736, DW_AT_decl_file("C:/ti/C2000Ware_MotorControl_SDK_5_04_00_00/c2000ware/driverlib/f
   10205                      .dwattr $C$DW$736, DW_AT_decl_line(0x466)
   10206                      .dwattr $C$DW$736, DW_AT_decl_column(0x05)
   10207              
   10208                      .dwattr $C$DW$T$96, DW_AT_decl_file("C:/ti/C2000Ware_MotorControl_SDK_5_04_00_00/c2000ware/driverlib/
   10209                      .dwattr $C$DW$T$96, DW_AT_decl_line(0x464)
   10210                      .dwattr $C$DW$T$96, DW_AT_decl_column(0x01)
   10211                      .dwendtag $C$DW$T$96
   10212              
   10213                      .dwendtag $C$DW$TU$96
   10214              
   10215              
   10216              $C$DW$TU$97     .dwtag  DW_TAG_type_unit
   10217                      .dwmtype  $C$DW$T$97
   10218              $C$DW$T$97      .dwtag  DW_TAG_typedef
   10219                      .dwattr $C$DW$T$97, DW_AT_name("EPWM_ADCStartOfConversionType")
   10220                      .dwattr $C$DW$T$97, DW_AT_type(*$C$DW$T$96)
   10221                      .dwattr $C$DW$T$97, DW_AT_decl_file("C:/ti/C2000Ware_MotorControl_SDK_5_04_00_00/c2000ware/driverlib/
   10222                      .dwattr $C$DW$T$97, DW_AT_decl_line(0x467)
   10223                      .dwattr $C$DW$T$97, DW_AT_decl_column(0x03)
   10224              
   10225                      .dwendtag $C$DW$TU$97
   10226              
   10227              
   10228              $C$DW$TU$98     .dwtag  DW_TAG_type_unit
   10229                      .dwmtype  $C$DW$T$98
   10230              
   10231              $C$DW$T$98      .dwtag  DW_TAG_enumeration_type
   10232                      .dwattr $C$DW$T$98, DW_AT_byte_size(0x01)
   10233              $C$DW$737       .dwtag  DW_TAG_enumerator
   10234                      .dwattr $C$DW$737, DW_AT_name("EPWM_SOC_DCxEVT1")
   10235                      .dwattr $C$DW$737, DW_AT_const_value(0x00)
   10236                      .dwattr $C$DW$737, DW_AT_decl_file("C:/ti/C2000Ware_MotorControl_SDK_5_04_00_00/c2000ware/driverlib/f
   10237                      .dwattr $C$DW$737, DW_AT_decl_line(0x472)
   10238                      .dwattr $C$DW$737, DW_AT_decl_column(0x05)
   10239              
TMS320C2000 Assembler PC v22.6.2 Wed Dec 10 14:45:02 2025

Copyright (c) 1996-2018 Texas Instruments Incorporated
dual_axis_servo_drive_hal.asm                                        PAGE  200

   10240              $C$DW$738       .dwtag  DW_TAG_enumerator
   10241                      .dwattr $C$DW$738, DW_AT_name("EPWM_SOC_TBCTR_ZERO")
   10242                      .dwattr $C$DW$738, DW_AT_const_value(0x01)
   10243                      .dwattr $C$DW$738, DW_AT_decl_file("C:/ti/C2000Ware_MotorControl_SDK_5_04_00_00/c2000ware/driverlib/f
   10244                      .dwattr $C$DW$738, DW_AT_decl_line(0x474)
   10245                      .dwattr $C$DW$738, DW_AT_decl_column(0x05)
   10246              
   10247              $C$DW$739       .dwtag  DW_TAG_enumerator
   10248                      .dwattr $C$DW$739, DW_AT_name("EPWM_SOC_TBCTR_PERIOD")
   10249                      .dwattr $C$DW$739, DW_AT_const_value(0x02)
   10250                      .dwattr $C$DW$739, DW_AT_decl_file("C:/ti/C2000Ware_MotorControl_SDK_5_04_00_00/c2000ware/driverlib/f
   10251                      .dwattr $C$DW$739, DW_AT_decl_line(0x476)
   10252                      .dwattr $C$DW$739, DW_AT_decl_column(0x05)
   10253              
   10254              $C$DW$740       .dwtag  DW_TAG_enumerator
   10255                      .dwattr $C$DW$740, DW_AT_name("EPWM_SOC_TBCTR_ZERO_OR_PERIOD")
   10256                      .dwattr $C$DW$740, DW_AT_const_value(0x03)
   10257                      .dwattr $C$DW$740, DW_AT_decl_file("C:/ti/C2000Ware_MotorControl_SDK_5_04_00_00/c2000ware/driverlib/f
   10258                      .dwattr $C$DW$740, DW_AT_decl_line(0x478)
   10259                      .dwattr $C$DW$740, DW_AT_decl_column(0x05)
   10260              
   10261              $C$DW$741       .dwtag  DW_TAG_enumerator
   10262                      .dwattr $C$DW$741, DW_AT_name("EPWM_SOC_TBCTR_U_CMPA")
   10263                      .dwattr $C$DW$741, DW_AT_const_value(0x04)
   10264                      .dwattr $C$DW$741, DW_AT_decl_file("C:/ti/C2000Ware_MotorControl_SDK_5_04_00_00/c2000ware/driverlib/f
   10265                      .dwattr $C$DW$741, DW_AT_decl_line(0x47a)
   10266                      .dwattr $C$DW$741, DW_AT_decl_column(0x05)
   10267              
   10268              $C$DW$742       .dwtag  DW_TAG_enumerator
   10269                      .dwattr $C$DW$742, DW_AT_name("EPWM_SOC_TBCTR_U_CMPC")
   10270                      .dwattr $C$DW$742, DW_AT_const_value(0x08)
   10271                      .dwattr $C$DW$742, DW_AT_decl_file("C:/ti/C2000Ware_MotorControl_SDK_5_04_00_00/c2000ware/driverlib/f
   10272                      .dwattr $C$DW$742, DW_AT_decl_line(0x47c)
   10273                      .dwattr $C$DW$742, DW_AT_decl_column(0x05)
   10274              
   10275              $C$DW$743       .dwtag  DW_TAG_enumerator
   10276                      .dwattr $C$DW$743, DW_AT_name("EPWM_SOC_TBCTR_D_CMPA")
   10277                      .dwattr $C$DW$743, DW_AT_const_value(0x05)
   10278                      .dwattr $C$DW$743, DW_AT_decl_file("C:/ti/C2000Ware_MotorControl_SDK_5_04_00_00/c2000ware/driverlib/f
   10279                      .dwattr $C$DW$743, DW_AT_decl_line(0x47e)
   10280                      .dwattr $C$DW$743, DW_AT_decl_column(0x05)
   10281              
   10282              $C$DW$744       .dwtag  DW_TAG_enumerator
   10283                      .dwattr $C$DW$744, DW_AT_name("EPWM_SOC_TBCTR_D_CMPC")
   10284                      .dwattr $C$DW$744, DW_AT_const_value(0x0a)
   10285                      .dwattr $C$DW$744, DW_AT_decl_file("C:/ti/C2000Ware_MotorControl_SDK_5_04_00_00/c2000ware/driverlib/f
   10286                      .dwattr $C$DW$744, DW_AT_decl_line(0x480)
   10287                      .dwattr $C$DW$744, DW_AT_decl_column(0x05)
   10288              
   10289              $C$DW$745       .dwtag  DW_TAG_enumerator
   10290                      .dwattr $C$DW$745, DW_AT_name("EPWM_SOC_TBCTR_U_CMPB")
   10291                      .dwattr $C$DW$745, DW_AT_const_value(0x06)
   10292                      .dwattr $C$DW$745, DW_AT_decl_file("C:/ti/C2000Ware_MotorControl_SDK_5_04_00_00/c2000ware/driverlib/f
   10293                      .dwattr $C$DW$745, DW_AT_decl_line(0x482)
   10294                      .dwattr $C$DW$745, DW_AT_decl_column(0x05)
TMS320C2000 Assembler PC v22.6.2 Wed Dec 10 14:45:02 2025

Copyright (c) 1996-2018 Texas Instruments Incorporated
dual_axis_servo_drive_hal.asm                                        PAGE  201

   10295              
   10296              $C$DW$746       .dwtag  DW_TAG_enumerator
   10297                      .dwattr $C$DW$746, DW_AT_name("EPWM_SOC_TBCTR_U_CMPD")
   10298                      .dwattr $C$DW$746, DW_AT_const_value(0x0c)
   10299                      .dwattr $C$DW$746, DW_AT_decl_file("C:/ti/C2000Ware_MotorControl_SDK_5_04_00_00/c2000ware/driverlib/f
   10300                      .dwattr $C$DW$746, DW_AT_decl_line(0x484)
   10301                      .dwattr $C$DW$746, DW_AT_decl_column(0x05)
   10302              
   10303              $C$DW$747       .dwtag  DW_TAG_enumerator
   10304                      .dwattr $C$DW$747, DW_AT_name("EPWM_SOC_TBCTR_D_CMPB")
   10305                      .dwattr $C$DW$747, DW_AT_const_value(0x07)
   10306                      .dwattr $C$DW$747, DW_AT_decl_file("C:/ti/C2000Ware_MotorControl_SDK_5_04_00_00/c2000ware/driverlib/f
   10307                      .dwattr $C$DW$747, DW_AT_decl_line(0x486)
   10308                      .dwattr $C$DW$747, DW_AT_decl_column(0x05)
   10309              
   10310              $C$DW$748       .dwtag  DW_TAG_enumerator
   10311                      .dwattr $C$DW$748, DW_AT_name("EPWM_SOC_TBCTR_D_CMPD")
   10312                      .dwattr $C$DW$748, DW_AT_const_value(0x0e)
   10313                      .dwattr $C$DW$748, DW_AT_decl_file("C:/ti/C2000Ware_MotorControl_SDK_5_04_00_00/c2000ware/driverlib/f
   10314                      .dwattr $C$DW$748, DW_AT_decl_line(0x488)
   10315                      .dwattr $C$DW$748, DW_AT_decl_column(0x05)
   10316              
   10317                      .dwattr $C$DW$T$98, DW_AT_decl_file("C:/ti/C2000Ware_MotorControl_SDK_5_04_00_00/c2000ware/driverlib/
   10318                      .dwattr $C$DW$T$98, DW_AT_decl_line(0x470)
   10319                      .dwattr $C$DW$T$98, DW_AT_decl_column(0x01)
   10320                      .dwendtag $C$DW$T$98
   10321              
   10322                      .dwendtag $C$DW$TU$98
   10323              
   10324              
   10325              $C$DW$TU$99     .dwtag  DW_TAG_type_unit
   10326                      .dwmtype  $C$DW$T$99
   10327              $C$DW$T$99      .dwtag  DW_TAG_typedef
   10328                      .dwattr $C$DW$T$99, DW_AT_name("EPWM_ADCStartOfConversionSource")
   10329                      .dwattr $C$DW$T$99, DW_AT_type(*$C$DW$T$98)
   10330                      .dwattr $C$DW$T$99, DW_AT_decl_file("C:/ti/C2000Ware_MotorControl_SDK_5_04_00_00/c2000ware/driverlib/
   10331                      .dwattr $C$DW$T$99, DW_AT_decl_line(0x489)
   10332                      .dwattr $C$DW$T$99, DW_AT_decl_column(0x03)
   10333              
   10334                      .dwendtag $C$DW$TU$99
   10335              
   10336              
   10337              $C$DW$TU$100    .dwtag  DW_TAG_type_unit
   10338                      .dwmtype  $C$DW$T$100
   10339              
   10340              $C$DW$T$100     .dwtag  DW_TAG_enumeration_type
   10341                      .dwattr $C$DW$T$100, DW_AT_byte_size(0x01)
   10342              $C$DW$749       .dwtag  DW_TAG_enumerator
   10343                      .dwattr $C$DW$749, DW_AT_name("EPWM_DC_MODULE_A")
   10344                      .dwattr $C$DW$749, DW_AT_const_value(0x00)
   10345                      .dwattr $C$DW$749, DW_AT_decl_file("C:/ti/C2000Ware_MotorControl_SDK_5_04_00_00/c2000ware/driverlib/f
   10346                      .dwattr $C$DW$749, DW_AT_decl_line(0x511)
   10347                      .dwattr $C$DW$749, DW_AT_decl_column(0x05)
   10348              
   10349              $C$DW$750       .dwtag  DW_TAG_enumerator
TMS320C2000 Assembler PC v22.6.2 Wed Dec 10 14:45:02 2025

Copyright (c) 1996-2018 Texas Instruments Incorporated
dual_axis_servo_drive_hal.asm                                        PAGE  202

   10350                      .dwattr $C$DW$750, DW_AT_name("EPWM_DC_MODULE_B")
   10351                      .dwattr $C$DW$750, DW_AT_const_value(0x01)
   10352                      .dwattr $C$DW$750, DW_AT_decl_file("C:/ti/C2000Ware_MotorControl_SDK_5_04_00_00/c2000ware/driverlib/f
   10353                      .dwattr $C$DW$750, DW_AT_decl_line(0x512)
   10354                      .dwattr $C$DW$750, DW_AT_decl_column(0x05)
   10355              
   10356                      .dwattr $C$DW$T$100, DW_AT_decl_file("C:/ti/C2000Ware_MotorControl_SDK_5_04_00_00/c2000ware/driverlib
   10357                      .dwattr $C$DW$T$100, DW_AT_decl_line(0x510)
   10358                      .dwattr $C$DW$T$100, DW_AT_decl_column(0x01)
   10359                      .dwendtag $C$DW$T$100
   10360              
   10361                      .dwendtag $C$DW$TU$100
   10362              
   10363              
   10364              $C$DW$TU$101    .dwtag  DW_TAG_type_unit
   10365                      .dwmtype  $C$DW$T$101
   10366              $C$DW$T$101     .dwtag  DW_TAG_typedef
   10367                      .dwattr $C$DW$T$101, DW_AT_name("EPWM_DigitalCompareModule")
   10368                      .dwattr $C$DW$T$101, DW_AT_type(*$C$DW$T$100)
   10369                      .dwattr $C$DW$T$101, DW_AT_decl_file("C:/ti/C2000Ware_MotorControl_SDK_5_04_00_00/c2000ware/driverlib
   10370                      .dwattr $C$DW$T$101, DW_AT_decl_line(0x513)
   10371                      .dwattr $C$DW$T$101, DW_AT_decl_column(0x03)
   10372              
   10373                      .dwendtag $C$DW$TU$101
   10374              
   10375              
   10376              $C$DW$TU$102    .dwtag  DW_TAG_type_unit
   10377                      .dwmtype  $C$DW$T$102
   10378              
   10379              $C$DW$T$102     .dwtag  DW_TAG_enumeration_type
   10380                      .dwattr $C$DW$T$102, DW_AT_byte_size(0x01)
   10381              $C$DW$751       .dwtag  DW_TAG_enumerator
   10382                      .dwattr $C$DW$751, DW_AT_name("EPWM_DC_EVENT_1")
   10383                      .dwattr $C$DW$751, DW_AT_const_value(0x00)
   10384                      .dwattr $C$DW$751, DW_AT_decl_file("C:/ti/C2000Ware_MotorControl_SDK_5_04_00_00/c2000ware/driverlib/f
   10385                      .dwattr $C$DW$751, DW_AT_decl_line(0x51d)
   10386                      .dwattr $C$DW$751, DW_AT_decl_column(0x05)
   10387              
   10388              $C$DW$752       .dwtag  DW_TAG_enumerator
   10389                      .dwattr $C$DW$752, DW_AT_name("EPWM_DC_EVENT_2")
   10390                      .dwattr $C$DW$752, DW_AT_const_value(0x01)
   10391                      .dwattr $C$DW$752, DW_AT_decl_file("C:/ti/C2000Ware_MotorControl_SDK_5_04_00_00/c2000ware/driverlib/f
   10392                      .dwattr $C$DW$752, DW_AT_decl_line(0x51e)
   10393                      .dwattr $C$DW$752, DW_AT_decl_column(0x05)
   10394              
   10395                      .dwattr $C$DW$T$102, DW_AT_decl_file("C:/ti/C2000Ware_MotorControl_SDK_5_04_00_00/c2000ware/driverlib
   10396                      .dwattr $C$DW$T$102, DW_AT_decl_line(0x51c)
   10397                      .dwattr $C$DW$T$102, DW_AT_decl_column(0x01)
   10398                      .dwendtag $C$DW$T$102
   10399              
   10400                      .dwendtag $C$DW$TU$102
   10401              
   10402              
   10403              $C$DW$TU$103    .dwtag  DW_TAG_type_unit
   10404                      .dwmtype  $C$DW$T$103
TMS320C2000 Assembler PC v22.6.2 Wed Dec 10 14:45:02 2025

Copyright (c) 1996-2018 Texas Instruments Incorporated
dual_axis_servo_drive_hal.asm                                        PAGE  203

   10405              $C$DW$T$103     .dwtag  DW_TAG_typedef
   10406                      .dwattr $C$DW$T$103, DW_AT_name("EPWM_DigitalCompareEvent")
   10407                      .dwattr $C$DW$T$103, DW_AT_type(*$C$DW$T$102)
   10408                      .dwattr $C$DW$T$103, DW_AT_decl_file("C:/ti/C2000Ware_MotorControl_SDK_5_04_00_00/c2000ware/driverlib
   10409                      .dwattr $C$DW$T$103, DW_AT_decl_line(0x51f)
   10410                      .dwattr $C$DW$T$103, DW_AT_decl_column(0x03)
   10411              
   10412                      .dwendtag $C$DW$TU$103
   10413              
   10414              
   10415              $C$DW$TU$104    .dwtag  DW_TAG_type_unit
   10416                      .dwmtype  $C$DW$T$104
   10417              
   10418              $C$DW$T$104     .dwtag  DW_TAG_enumeration_type
   10419                      .dwattr $C$DW$T$104, DW_AT_byte_size(0x01)
   10420              $C$DW$753       .dwtag  DW_TAG_enumerator
   10421                      .dwattr $C$DW$753, DW_AT_name("EPWM_DC_EVENT_SOURCE_ORIG_SIGNAL")
   10422                      .dwattr $C$DW$753, DW_AT_const_value(0x00)
   10423                      .dwattr $C$DW$753, DW_AT_decl_file("C:/ti/C2000Ware_MotorControl_SDK_5_04_00_00/c2000ware/driverlib/f
   10424                      .dwattr $C$DW$753, DW_AT_decl_line(0x52a)
   10425                      .dwattr $C$DW$753, DW_AT_decl_column(0x05)
   10426              
   10427              $C$DW$754       .dwtag  DW_TAG_enumerator
   10428                      .dwattr $C$DW$754, DW_AT_name("EPWM_DC_EVENT_SOURCE_FILT_SIGNAL")
   10429                      .dwattr $C$DW$754, DW_AT_const_value(0x01)
   10430                      .dwattr $C$DW$754, DW_AT_decl_file("C:/ti/C2000Ware_MotorControl_SDK_5_04_00_00/c2000ware/driverlib/f
   10431                      .dwattr $C$DW$754, DW_AT_decl_line(0x52c)
   10432                      .dwattr $C$DW$754, DW_AT_decl_column(0x05)
   10433              
   10434                      .dwattr $C$DW$T$104, DW_AT_decl_file("C:/ti/C2000Ware_MotorControl_SDK_5_04_00_00/c2000ware/driverlib
   10435                      .dwattr $C$DW$T$104, DW_AT_decl_line(0x528)
   10436                      .dwattr $C$DW$T$104, DW_AT_decl_column(0x01)
   10437                      .dwendtag $C$DW$T$104
   10438              
   10439                      .dwendtag $C$DW$TU$104
   10440              
   10441              
   10442              $C$DW$TU$105    .dwtag  DW_TAG_type_unit
   10443                      .dwmtype  $C$DW$T$105
   10444              $C$DW$T$105     .dwtag  DW_TAG_typedef
   10445                      .dwattr $C$DW$T$105, DW_AT_name("EPWM_DigitalCompareEventSource")
   10446                      .dwattr $C$DW$T$105, DW_AT_type(*$C$DW$T$104)
   10447                      .dwattr $C$DW$T$105, DW_AT_decl_file("C:/ti/C2000Ware_MotorControl_SDK_5_04_00_00/c2000ware/driverlib
   10448                      .dwattr $C$DW$T$105, DW_AT_decl_line(0x52d)
   10449                      .dwattr $C$DW$T$105, DW_AT_decl_column(0x03)
   10450              
   10451                      .dwendtag $C$DW$TU$105
   10452              
   10453              
   10454              $C$DW$TU$106    .dwtag  DW_TAG_type_unit
   10455                      .dwmtype  $C$DW$T$106
   10456              
   10457              $C$DW$T$106     .dwtag  DW_TAG_enumeration_type
   10458                      .dwattr $C$DW$T$106, DW_AT_byte_size(0x01)
   10459              $C$DW$755       .dwtag  DW_TAG_enumerator
TMS320C2000 Assembler PC v22.6.2 Wed Dec 10 14:45:02 2025

Copyright (c) 1996-2018 Texas Instruments Incorporated
dual_axis_servo_drive_hal.asm                                        PAGE  204

   10460                      .dwattr $C$DW$755, DW_AT_name("EPWM_DC_EVENT_INPUT_SYNCED")
   10461                      .dwattr $C$DW$755, DW_AT_const_value(0x00)
   10462                      .dwattr $C$DW$755, DW_AT_decl_file("C:/ti/C2000Ware_MotorControl_SDK_5_04_00_00/c2000ware/driverlib/f
   10463                      .dwattr $C$DW$755, DW_AT_decl_line(0x538)
   10464                      .dwattr $C$DW$755, DW_AT_decl_column(0x05)
   10465              
   10466              $C$DW$756       .dwtag  DW_TAG_enumerator
   10467                      .dwattr $C$DW$756, DW_AT_name("EPWM_DC_EVENT_INPUT_NOT_SYNCED")
   10468                      .dwattr $C$DW$756, DW_AT_const_value(0x01)
   10469                      .dwattr $C$DW$756, DW_AT_decl_file("C:/ti/C2000Ware_MotorControl_SDK_5_04_00_00/c2000ware/driverlib/f
   10470                      .dwattr $C$DW$756, DW_AT_decl_line(0x53a)
   10471                      .dwattr $C$DW$756, DW_AT_decl_column(0x05)
   10472              
   10473                      .dwattr $C$DW$T$106, DW_AT_decl_file("C:/ti/C2000Ware_MotorControl_SDK_5_04_00_00/c2000ware/driverlib
   10474                      .dwattr $C$DW$T$106, DW_AT_decl_line(0x536)
   10475                      .dwattr $C$DW$T$106, DW_AT_decl_column(0x01)
   10476                      .dwendtag $C$DW$T$106
   10477              
   10478                      .dwendtag $C$DW$TU$106
   10479              
   10480              
   10481              $C$DW$TU$107    .dwtag  DW_TAG_type_unit
   10482                      .dwmtype  $C$DW$T$107
   10483              $C$DW$T$107     .dwtag  DW_TAG_typedef
   10484                      .dwattr $C$DW$T$107, DW_AT_name("EPWM_DigitalCompareSyncMode")
   10485                      .dwattr $C$DW$T$107, DW_AT_type(*$C$DW$T$106)
   10486                      .dwattr $C$DW$T$107, DW_AT_decl_file("C:/ti/C2000Ware_MotorControl_SDK_5_04_00_00/c2000ware/driverlib
   10487                      .dwattr $C$DW$T$107, DW_AT_decl_line(0x53b)
   10488                      .dwattr $C$DW$T$107, DW_AT_decl_column(0x03)
   10489              
   10490                      .dwendtag $C$DW$TU$107
   10491              
   10492              
   10493              $C$DW$TU$108    .dwtag  DW_TAG_type_unit
   10494                      .dwmtype  $C$DW$T$108
   10495              
   10496              $C$DW$T$108     .dwtag  DW_TAG_enumeration_type
   10497                      .dwattr $C$DW$T$108, DW_AT_byte_size(0x01)
   10498              $C$DW$757       .dwtag  DW_TAG_enumerator
   10499                      .dwattr $C$DW$757, DW_AT_name("EPWM_DC_TYPE_DCAH")
   10500                      .dwattr $C$DW$757, DW_AT_const_value(0x00)
   10501                      .dwattr $C$DW$757, DW_AT_decl_file("C:/ti/C2000Ware_MotorControl_SDK_5_04_00_00/c2000ware/driverlib/f
   10502                      .dwattr $C$DW$757, DW_AT_decl_line(0x498)
   10503                      .dwattr $C$DW$757, DW_AT_decl_column(0x05)
   10504              
   10505              $C$DW$758       .dwtag  DW_TAG_enumerator
   10506                      .dwattr $C$DW$758, DW_AT_name("EPWM_DC_TYPE_DCAL")
   10507                      .dwattr $C$DW$758, DW_AT_const_value(0x01)
   10508                      .dwattr $C$DW$758, DW_AT_decl_file("C:/ti/C2000Ware_MotorControl_SDK_5_04_00_00/c2000ware/driverlib/f
   10509                      .dwattr $C$DW$758, DW_AT_decl_line(0x499)
   10510                      .dwattr $C$DW$758, DW_AT_decl_column(0x05)
   10511              
   10512              $C$DW$759       .dwtag  DW_TAG_enumerator
   10513                      .dwattr $C$DW$759, DW_AT_name("EPWM_DC_TYPE_DCBH")
   10514                      .dwattr $C$DW$759, DW_AT_const_value(0x02)
TMS320C2000 Assembler PC v22.6.2 Wed Dec 10 14:45:02 2025

Copyright (c) 1996-2018 Texas Instruments Incorporated
dual_axis_servo_drive_hal.asm                                        PAGE  205

   10515                      .dwattr $C$DW$759, DW_AT_decl_file("C:/ti/C2000Ware_MotorControl_SDK_5_04_00_00/c2000ware/driverlib/f
   10516                      .dwattr $C$DW$759, DW_AT_decl_line(0x49a)
   10517                      .dwattr $C$DW$759, DW_AT_decl_column(0x05)
   10518              
   10519              $C$DW$760       .dwtag  DW_TAG_enumerator
   10520                      .dwattr $C$DW$760, DW_AT_name("EPWM_DC_TYPE_DCBL")
   10521                      .dwattr $C$DW$760, DW_AT_const_value(0x03)
   10522                      .dwattr $C$DW$760, DW_AT_decl_file("C:/ti/C2000Ware_MotorControl_SDK_5_04_00_00/c2000ware/driverlib/f
   10523                      .dwattr $C$DW$760, DW_AT_decl_line(0x49b)
   10524                      .dwattr $C$DW$760, DW_AT_decl_column(0x05)
   10525              
   10526                      .dwattr $C$DW$T$108, DW_AT_decl_file("C:/ti/C2000Ware_MotorControl_SDK_5_04_00_00/c2000ware/driverlib
   10527                      .dwattr $C$DW$T$108, DW_AT_decl_line(0x497)
   10528                      .dwattr $C$DW$T$108, DW_AT_decl_column(0x01)
   10529                      .dwendtag $C$DW$T$108
   10530              
   10531                      .dwendtag $C$DW$TU$108
   10532              
   10533              
   10534              $C$DW$TU$109    .dwtag  DW_TAG_type_unit
   10535                      .dwmtype  $C$DW$T$109
   10536              $C$DW$T$109     .dwtag  DW_TAG_typedef
   10537                      .dwattr $C$DW$T$109, DW_AT_name("EPWM_DigitalCompareType")
   10538                      .dwattr $C$DW$T$109, DW_AT_type(*$C$DW$T$108)
   10539                      .dwattr $C$DW$T$109, DW_AT_decl_file("C:/ti/C2000Ware_MotorControl_SDK_5_04_00_00/c2000ware/driverlib
   10540                      .dwattr $C$DW$T$109, DW_AT_decl_line(0x49c)
   10541                      .dwattr $C$DW$T$109, DW_AT_decl_column(0x03)
   10542              
   10543                      .dwendtag $C$DW$TU$109
   10544              
   10545              
   10546              $C$DW$TU$110    .dwtag  DW_TAG_type_unit
   10547                      .dwmtype  $C$DW$T$110
   10548              
   10549              $C$DW$T$110     .dwtag  DW_TAG_enumeration_type
   10550                      .dwattr $C$DW$T$110, DW_AT_byte_size(0x01)
   10551              $C$DW$761       .dwtag  DW_TAG_enumerator
   10552                      .dwattr $C$DW$761, DW_AT_name("EQEP_POSITION_RESET_IDX")
   10553                      .dwattr $C$DW$761, DW_AT_const_value(0x00)
   10554                      .dwattr $C$DW$761, DW_AT_decl_file("C:/ti/C2000Ware_MotorControl_SDK_5_04_00_00/c2000ware/driverlib/f
   10555                      .dwattr $C$DW$761, DW_AT_decl_line(0xe4)
   10556                      .dwattr $C$DW$761, DW_AT_decl_column(0x05)
   10557              
   10558              $C$DW$762       .dwtag  DW_TAG_enumerator
   10559                      .dwattr $C$DW$762, DW_AT_name("EQEP_POSITION_RESET_MAX_POS")
   10560                      .dwattr $C$DW$762, DW_AT_const_value(0x1000)
   10561                      .dwattr $C$DW$762, DW_AT_decl_file("C:/ti/C2000Ware_MotorControl_SDK_5_04_00_00/c2000ware/driverlib/f
   10562                      .dwattr $C$DW$762, DW_AT_decl_line(0xe6)
   10563                      .dwattr $C$DW$762, DW_AT_decl_column(0x05)
   10564              
   10565              $C$DW$763       .dwtag  DW_TAG_enumerator
   10566                      .dwattr $C$DW$763, DW_AT_name("EQEP_POSITION_RESET_1ST_IDX")
   10567                      .dwattr $C$DW$763, DW_AT_const_value(0x2000)
   10568                      .dwattr $C$DW$763, DW_AT_decl_file("C:/ti/C2000Ware_MotorControl_SDK_5_04_00_00/c2000ware/driverlib/f
   10569                      .dwattr $C$DW$763, DW_AT_decl_line(0xe8)
TMS320C2000 Assembler PC v22.6.2 Wed Dec 10 14:45:02 2025

Copyright (c) 1996-2018 Texas Instruments Incorporated
dual_axis_servo_drive_hal.asm                                        PAGE  206

   10570                      .dwattr $C$DW$763, DW_AT_decl_column(0x05)
   10571              
   10572              $C$DW$764       .dwtag  DW_TAG_enumerator
   10573                      .dwattr $C$DW$764, DW_AT_name("EQEP_POSITION_RESET_UNIT_TIME_OUT")
   10574                      .dwattr $C$DW$764, DW_AT_const_value(0x3000)
   10575                      .dwattr $C$DW$764, DW_AT_decl_file("C:/ti/C2000Ware_MotorControl_SDK_5_04_00_00/c2000ware/driverlib/f
   10576                      .dwattr $C$DW$764, DW_AT_decl_line(0xea)
   10577                      .dwattr $C$DW$764, DW_AT_decl_column(0x05)
   10578              
   10579                      .dwattr $C$DW$T$110, DW_AT_decl_file("C:/ti/C2000Ware_MotorControl_SDK_5_04_00_00/c2000ware/driverlib
   10580                      .dwattr $C$DW$T$110, DW_AT_decl_line(0xe2)
   10581                      .dwattr $C$DW$T$110, DW_AT_decl_column(0x01)
   10582                      .dwendtag $C$DW$T$110
   10583              
   10584                      .dwendtag $C$DW$TU$110
   10585              
   10586              
   10587              $C$DW$TU$111    .dwtag  DW_TAG_type_unit
   10588                      .dwmtype  $C$DW$T$111
   10589              $C$DW$T$111     .dwtag  DW_TAG_typedef
   10590                      .dwattr $C$DW$T$111, DW_AT_name("EQEP_PositionResetMode")
   10591                      .dwattr $C$DW$T$111, DW_AT_type(*$C$DW$T$110)
   10592                      .dwattr $C$DW$T$111, DW_AT_decl_file("C:/ti/C2000Ware_MotorControl_SDK_5_04_00_00/c2000ware/driverlib
   10593                      .dwattr $C$DW$T$111, DW_AT_decl_line(0xeb)
   10594                      .dwattr $C$DW$T$111, DW_AT_decl_column(0x03)
   10595              
   10596                      .dwendtag $C$DW$TU$111
   10597              
   10598              
   10599              $C$DW$TU$112    .dwtag  DW_TAG_type_unit
   10600                      .dwmtype  $C$DW$T$112
   10601              
   10602              $C$DW$T$112     .dwtag  DW_TAG_enumeration_type
   10603                      .dwattr $C$DW$T$112, DW_AT_byte_size(0x01)
   10604              $C$DW$765       .dwtag  DW_TAG_enumerator
   10605                      .dwattr $C$DW$765, DW_AT_name("EQEP_CAPTURE_CLK_DIV_1")
   10606                      .dwattr $C$DW$765, DW_AT_const_value(0x00)
   10607                      .dwattr $C$DW$765, DW_AT_decl_file("C:/ti/C2000Ware_MotorControl_SDK_5_04_00_00/c2000ware/driverlib/f
   10608                      .dwattr $C$DW$765, DW_AT_decl_line(0xf5)
   10609                      .dwattr $C$DW$765, DW_AT_decl_column(0x05)
   10610              
   10611              $C$DW$766       .dwtag  DW_TAG_enumerator
   10612                      .dwattr $C$DW$766, DW_AT_name("EQEP_CAPTURE_CLK_DIV_2")
   10613                      .dwattr $C$DW$766, DW_AT_const_value(0x10)
   10614                      .dwattr $C$DW$766, DW_AT_decl_file("C:/ti/C2000Ware_MotorControl_SDK_5_04_00_00/c2000ware/driverlib/f
   10615                      .dwattr $C$DW$766, DW_AT_decl_line(0xf6)
   10616                      .dwattr $C$DW$766, DW_AT_decl_column(0x05)
   10617              
   10618              $C$DW$767       .dwtag  DW_TAG_enumerator
   10619                      .dwattr $C$DW$767, DW_AT_name("EQEP_CAPTURE_CLK_DIV_4")
   10620                      .dwattr $C$DW$767, DW_AT_const_value(0x20)
   10621                      .dwattr $C$DW$767, DW_AT_decl_file("C:/ti/C2000Ware_MotorControl_SDK_5_04_00_00/c2000ware/driverlib/f
   10622                      .dwattr $C$DW$767, DW_AT_decl_line(0xf7)
   10623                      .dwattr $C$DW$767, DW_AT_decl_column(0x05)
   10624              
TMS320C2000 Assembler PC v22.6.2 Wed Dec 10 14:45:02 2025

Copyright (c) 1996-2018 Texas Instruments Incorporated
dual_axis_servo_drive_hal.asm                                        PAGE  207

   10625              $C$DW$768       .dwtag  DW_TAG_enumerator
   10626                      .dwattr $C$DW$768, DW_AT_name("EQEP_CAPTURE_CLK_DIV_8")
   10627                      .dwattr $C$DW$768, DW_AT_const_value(0x30)
   10628                      .dwattr $C$DW$768, DW_AT_decl_file("C:/ti/C2000Ware_MotorControl_SDK_5_04_00_00/c2000ware/driverlib/f
   10629                      .dwattr $C$DW$768, DW_AT_decl_line(0xf8)
   10630                      .dwattr $C$DW$768, DW_AT_decl_column(0x05)
   10631              
   10632              $C$DW$769       .dwtag  DW_TAG_enumerator
   10633                      .dwattr $C$DW$769, DW_AT_name("EQEP_CAPTURE_CLK_DIV_16")
   10634                      .dwattr $C$DW$769, DW_AT_const_value(0x40)
   10635                      .dwattr $C$DW$769, DW_AT_decl_file("C:/ti/C2000Ware_MotorControl_SDK_5_04_00_00/c2000ware/driverlib/f
   10636                      .dwattr $C$DW$769, DW_AT_decl_line(0xf9)
   10637                      .dwattr $C$DW$769, DW_AT_decl_column(0x05)
   10638              
   10639              $C$DW$770       .dwtag  DW_TAG_enumerator
   10640                      .dwattr $C$DW$770, DW_AT_name("EQEP_CAPTURE_CLK_DIV_32")
   10641                      .dwattr $C$DW$770, DW_AT_const_value(0x50)
   10642                      .dwattr $C$DW$770, DW_AT_decl_file("C:/ti/C2000Ware_MotorControl_SDK_5_04_00_00/c2000ware/driverlib/f
   10643                      .dwattr $C$DW$770, DW_AT_decl_line(0xfa)
   10644                      .dwattr $C$DW$770, DW_AT_decl_column(0x05)
   10645              
   10646              $C$DW$771       .dwtag  DW_TAG_enumerator
   10647                      .dwattr $C$DW$771, DW_AT_name("EQEP_CAPTURE_CLK_DIV_64")
   10648                      .dwattr $C$DW$771, DW_AT_const_value(0x60)
   10649                      .dwattr $C$DW$771, DW_AT_decl_file("C:/ti/C2000Ware_MotorControl_SDK_5_04_00_00/c2000ware/driverlib/f
   10650                      .dwattr $C$DW$771, DW_AT_decl_line(0xfb)
   10651                      .dwattr $C$DW$771, DW_AT_decl_column(0x05)
   10652              
   10653              $C$DW$772       .dwtag  DW_TAG_enumerator
   10654                      .dwattr $C$DW$772, DW_AT_name("EQEP_CAPTURE_CLK_DIV_128")
   10655                      .dwattr $C$DW$772, DW_AT_const_value(0x70)
   10656                      .dwattr $C$DW$772, DW_AT_decl_file("C:/ti/C2000Ware_MotorControl_SDK_5_04_00_00/c2000ware/driverlib/f
   10657                      .dwattr $C$DW$772, DW_AT_decl_line(0xfc)
   10658                      .dwattr $C$DW$772, DW_AT_decl_column(0x05)
   10659              
   10660                      .dwattr $C$DW$T$112, DW_AT_decl_file("C:/ti/C2000Ware_MotorControl_SDK_5_04_00_00/c2000ware/driverlib
   10661                      .dwattr $C$DW$T$112, DW_AT_decl_line(0xf4)
   10662                      .dwattr $C$DW$T$112, DW_AT_decl_column(0x01)
   10663                      .dwendtag $C$DW$T$112
   10664              
   10665                      .dwendtag $C$DW$TU$112
   10666              
   10667              
   10668              $C$DW$TU$113    .dwtag  DW_TAG_type_unit
   10669                      .dwmtype  $C$DW$T$113
   10670              $C$DW$T$113     .dwtag  DW_TAG_typedef
   10671                      .dwattr $C$DW$T$113, DW_AT_name("EQEP_CAPCLKPrescale")
   10672                      .dwattr $C$DW$T$113, DW_AT_type(*$C$DW$T$112)
   10673                      .dwattr $C$DW$T$113, DW_AT_decl_file("C:/ti/C2000Ware_MotorControl_SDK_5_04_00_00/c2000ware/driverlib
   10674                      .dwattr $C$DW$T$113, DW_AT_decl_line(0xfd)
   10675                      .dwattr $C$DW$T$113, DW_AT_decl_column(0x03)
   10676              
   10677                      .dwendtag $C$DW$TU$113
   10678              
   10679              
TMS320C2000 Assembler PC v22.6.2 Wed Dec 10 14:45:02 2025

Copyright (c) 1996-2018 Texas Instruments Incorporated
dual_axis_servo_drive_hal.asm                                        PAGE  208

   10680              $C$DW$TU$114    .dwtag  DW_TAG_type_unit
   10681                      .dwmtype  $C$DW$T$114
   10682              
   10683              $C$DW$T$114     .dwtag  DW_TAG_enumeration_type
   10684                      .dwattr $C$DW$T$114, DW_AT_byte_size(0x01)
   10685              $C$DW$773       .dwtag  DW_TAG_enumerator
   10686                      .dwattr $C$DW$773, DW_AT_name("EQEP_UNIT_POS_EVNT_DIV_1")
   10687                      .dwattr $C$DW$773, DW_AT_const_value(0x00)
   10688                      .dwattr $C$DW$773, DW_AT_decl_file("C:/ti/C2000Ware_MotorControl_SDK_5_04_00_00/c2000ware/driverlib/f
   10689                      .dwattr $C$DW$773, DW_AT_decl_line(0x107)
   10690                      .dwattr $C$DW$773, DW_AT_decl_column(0x05)
   10691              
   10692              $C$DW$774       .dwtag  DW_TAG_enumerator
   10693                      .dwattr $C$DW$774, DW_AT_name("EQEP_UNIT_POS_EVNT_DIV_2")
   10694                      .dwattr $C$DW$774, DW_AT_const_value(0x01)
   10695                      .dwattr $C$DW$774, DW_AT_decl_file("C:/ti/C2000Ware_MotorControl_SDK_5_04_00_00/c2000ware/driverlib/f
   10696                      .dwattr $C$DW$774, DW_AT_decl_line(0x108)
   10697                      .dwattr $C$DW$774, DW_AT_decl_column(0x05)
   10698              
   10699              $C$DW$775       .dwtag  DW_TAG_enumerator
   10700                      .dwattr $C$DW$775, DW_AT_name("EQEP_UNIT_POS_EVNT_DIV_4")
   10701                      .dwattr $C$DW$775, DW_AT_const_value(0x02)
   10702                      .dwattr $C$DW$775, DW_AT_decl_file("C:/ti/C2000Ware_MotorControl_SDK_5_04_00_00/c2000ware/driverlib/f
   10703                      .dwattr $C$DW$775, DW_AT_decl_line(0x109)
   10704                      .dwattr $C$DW$775, DW_AT_decl_column(0x05)
   10705              
   10706              $C$DW$776       .dwtag  DW_TAG_enumerator
   10707                      .dwattr $C$DW$776, DW_AT_name("EQEP_UNIT_POS_EVNT_DIV_8")
   10708                      .dwattr $C$DW$776, DW_AT_const_value(0x03)
   10709                      .dwattr $C$DW$776, DW_AT_decl_file("C:/ti/C2000Ware_MotorControl_SDK_5_04_00_00/c2000ware/driverlib/f
   10710                      .dwattr $C$DW$776, DW_AT_decl_line(0x10a)
   10711                      .dwattr $C$DW$776, DW_AT_decl_column(0x05)
   10712              
   10713              $C$DW$777       .dwtag  DW_TAG_enumerator
   10714                      .dwattr $C$DW$777, DW_AT_name("EQEP_UNIT_POS_EVNT_DIV_16")
   10715                      .dwattr $C$DW$777, DW_AT_const_value(0x04)
   10716                      .dwattr $C$DW$777, DW_AT_decl_file("C:/ti/C2000Ware_MotorControl_SDK_5_04_00_00/c2000ware/driverlib/f
   10717                      .dwattr $C$DW$777, DW_AT_decl_line(0x10b)
   10718                      .dwattr $C$DW$777, DW_AT_decl_column(0x05)
   10719              
   10720              $C$DW$778       .dwtag  DW_TAG_enumerator
   10721                      .dwattr $C$DW$778, DW_AT_name("EQEP_UNIT_POS_EVNT_DIV_32")
   10722                      .dwattr $C$DW$778, DW_AT_const_value(0x05)
   10723                      .dwattr $C$DW$778, DW_AT_decl_file("C:/ti/C2000Ware_MotorControl_SDK_5_04_00_00/c2000ware/driverlib/f
   10724                      .dwattr $C$DW$778, DW_AT_decl_line(0x10c)
   10725                      .dwattr $C$DW$778, DW_AT_decl_column(0x05)
   10726              
   10727              $C$DW$779       .dwtag  DW_TAG_enumerator
   10728                      .dwattr $C$DW$779, DW_AT_name("EQEP_UNIT_POS_EVNT_DIV_64")
   10729                      .dwattr $C$DW$779, DW_AT_const_value(0x06)
   10730                      .dwattr $C$DW$779, DW_AT_decl_file("C:/ti/C2000Ware_MotorControl_SDK_5_04_00_00/c2000ware/driverlib/f
   10731                      .dwattr $C$DW$779, DW_AT_decl_line(0x10d)
   10732                      .dwattr $C$DW$779, DW_AT_decl_column(0x05)
   10733              
   10734              $C$DW$780       .dwtag  DW_TAG_enumerator
TMS320C2000 Assembler PC v22.6.2 Wed Dec 10 14:45:02 2025

Copyright (c) 1996-2018 Texas Instruments Incorporated
dual_axis_servo_drive_hal.asm                                        PAGE  209

   10735                      .dwattr $C$DW$780, DW_AT_name("EQEP_UNIT_POS_EVNT_DIV_128")
   10736                      .dwattr $C$DW$780, DW_AT_const_value(0x07)
   10737                      .dwattr $C$DW$780, DW_AT_decl_file("C:/ti/C2000Ware_MotorControl_SDK_5_04_00_00/c2000ware/driverlib/f
   10738                      .dwattr $C$DW$780, DW_AT_decl_line(0x10e)
   10739                      .dwattr $C$DW$780, DW_AT_decl_column(0x05)
   10740              
   10741              $C$DW$781       .dwtag  DW_TAG_enumerator
   10742                      .dwattr $C$DW$781, DW_AT_name("EQEP_UNIT_POS_EVNT_DIV_256")
   10743                      .dwattr $C$DW$781, DW_AT_const_value(0x08)
   10744                      .dwattr $C$DW$781, DW_AT_decl_file("C:/ti/C2000Ware_MotorControl_SDK_5_04_00_00/c2000ware/driverlib/f
   10745                      .dwattr $C$DW$781, DW_AT_decl_line(0x10f)
   10746                      .dwattr $C$DW$781, DW_AT_decl_column(0x05)
   10747              
   10748              $C$DW$782       .dwtag  DW_TAG_enumerator
   10749                      .dwattr $C$DW$782, DW_AT_name("EQEP_UNIT_POS_EVNT_DIV_512")
   10750                      .dwattr $C$DW$782, DW_AT_const_value(0x09)
   10751                      .dwattr $C$DW$782, DW_AT_decl_file("C:/ti/C2000Ware_MotorControl_SDK_5_04_00_00/c2000ware/driverlib/f
   10752                      .dwattr $C$DW$782, DW_AT_decl_line(0x110)
   10753                      .dwattr $C$DW$782, DW_AT_decl_column(0x05)
   10754              
   10755              $C$DW$783       .dwtag  DW_TAG_enumerator
   10756                      .dwattr $C$DW$783, DW_AT_name("EQEP_UNIT_POS_EVNT_DIV_1024")
   10757                      .dwattr $C$DW$783, DW_AT_const_value(0x0a)
   10758                      .dwattr $C$DW$783, DW_AT_decl_file("C:/ti/C2000Ware_MotorControl_SDK_5_04_00_00/c2000ware/driverlib/f
   10759                      .dwattr $C$DW$783, DW_AT_decl_line(0x111)
   10760                      .dwattr $C$DW$783, DW_AT_decl_column(0x05)
   10761              
   10762              $C$DW$784       .dwtag  DW_TAG_enumerator
   10763                      .dwattr $C$DW$784, DW_AT_name("EQEP_UNIT_POS_EVNT_DIV_2048")
   10764                      .dwattr $C$DW$784, DW_AT_const_value(0x0b)
   10765                      .dwattr $C$DW$784, DW_AT_decl_file("C:/ti/C2000Ware_MotorControl_SDK_5_04_00_00/c2000ware/driverlib/f
   10766                      .dwattr $C$DW$784, DW_AT_decl_line(0x112)
   10767                      .dwattr $C$DW$784, DW_AT_decl_column(0x05)
   10768              
   10769                      .dwattr $C$DW$T$114, DW_AT_decl_file("C:/ti/C2000Ware_MotorControl_SDK_5_04_00_00/c2000ware/driverlib
   10770                      .dwattr $C$DW$T$114, DW_AT_decl_line(0x106)
   10771                      .dwattr $C$DW$T$114, DW_AT_decl_column(0x01)
   10772                      .dwendtag $C$DW$T$114
   10773              
   10774                      .dwendtag $C$DW$TU$114
   10775              
   10776              
   10777              $C$DW$TU$115    .dwtag  DW_TAG_type_unit
   10778                      .dwmtype  $C$DW$T$115
   10779              $C$DW$T$115     .dwtag  DW_TAG_typedef
   10780                      .dwattr $C$DW$T$115, DW_AT_name("EQEP_UPEVNTPrescale")
   10781                      .dwattr $C$DW$T$115, DW_AT_type(*$C$DW$T$114)
   10782                      .dwattr $C$DW$T$115, DW_AT_decl_file("C:/ti/C2000Ware_MotorControl_SDK_5_04_00_00/c2000ware/driverlib
   10783                      .dwattr $C$DW$T$115, DW_AT_decl_line(0x113)
   10784                      .dwattr $C$DW$T$115, DW_AT_decl_column(0x03)
   10785              
   10786                      .dwendtag $C$DW$TU$115
   10787              
   10788              
   10789              $C$DW$TU$116    .dwtag  DW_TAG_type_unit
TMS320C2000 Assembler PC v22.6.2 Wed Dec 10 14:45:02 2025

Copyright (c) 1996-2018 Texas Instruments Incorporated
dual_axis_servo_drive_hal.asm                                        PAGE  210

   10790                      .dwmtype  $C$DW$T$116
   10791              
   10792              $C$DW$T$116     .dwtag  DW_TAG_enumeration_type
   10793                      .dwattr $C$DW$T$116, DW_AT_byte_size(0x01)
   10794              $C$DW$785       .dwtag  DW_TAG_enumerator
   10795                      .dwattr $C$DW$785, DW_AT_name("EQEP_EMULATIONMODE_STOPIMMEDIATELY")
   10796                      .dwattr $C$DW$785, DW_AT_const_value(0x00)
   10797                      .dwattr $C$DW$785, DW_AT_decl_file("C:/ti/C2000Ware_MotorControl_SDK_5_04_00_00/c2000ware/driverlib/f
   10798                      .dwattr $C$DW$785, DW_AT_decl_line(0x15b)
   10799                      .dwattr $C$DW$785, DW_AT_decl_column(0x03)
   10800              
   10801              $C$DW$786       .dwtag  DW_TAG_enumerator
   10802                      .dwattr $C$DW$786, DW_AT_name("EQEP_EMULATIONMODE_STOPATROLLOVER")
   10803                      .dwattr $C$DW$786, DW_AT_const_value(0x01)
   10804                      .dwattr $C$DW$786, DW_AT_decl_file("C:/ti/C2000Ware_MotorControl_SDK_5_04_00_00/c2000ware/driverlib/f
   10805                      .dwattr $C$DW$786, DW_AT_decl_line(0x15c)
   10806                      .dwattr $C$DW$786, DW_AT_decl_column(0x03)
   10807              
   10808              $C$DW$787       .dwtag  DW_TAG_enumerator
   10809                      .dwattr $C$DW$787, DW_AT_name("EQEP_EMULATIONMODE_RUNFREE")
   10810                      .dwattr $C$DW$787, DW_AT_const_value(0x02)
   10811                      .dwattr $C$DW$787, DW_AT_decl_file("C:/ti/C2000Ware_MotorControl_SDK_5_04_00_00/c2000ware/driverlib/f
   10812                      .dwattr $C$DW$787, DW_AT_decl_line(0x15d)
   10813                      .dwattr $C$DW$787, DW_AT_decl_column(0x03)
   10814              
   10815                      .dwattr $C$DW$T$116, DW_AT_decl_file("C:/ti/C2000Ware_MotorControl_SDK_5_04_00_00/c2000ware/driverlib
   10816                      .dwattr $C$DW$T$116, DW_AT_decl_line(0x15a)
   10817                      .dwattr $C$DW$T$116, DW_AT_decl_column(0x01)
   10818                      .dwendtag $C$DW$T$116
   10819              
   10820                      .dwendtag $C$DW$TU$116
   10821              
   10822              
   10823              $C$DW$TU$117    .dwtag  DW_TAG_type_unit
   10824                      .dwmtype  $C$DW$T$117
   10825              $C$DW$T$117     .dwtag  DW_TAG_typedef
   10826                      .dwattr $C$DW$T$117, DW_AT_name("EQEP_EmulationMode")
   10827                      .dwattr $C$DW$T$117, DW_AT_type(*$C$DW$T$116)
   10828                      .dwattr $C$DW$T$117, DW_AT_decl_file("C:/ti/C2000Ware_MotorControl_SDK_5_04_00_00/c2000ware/driverlib
   10829                      .dwattr $C$DW$T$117, DW_AT_decl_line(0x15e)
   10830                      .dwattr $C$DW$T$117, DW_AT_decl_column(0x02)
   10831              
   10832                      .dwendtag $C$DW$TU$117
   10833              
   10834              
   10835              $C$DW$TU$118    .dwtag  DW_TAG_type_unit
   10836                      .dwmtype  $C$DW$T$118
   10837              
   10838              $C$DW$T$118     .dwtag  DW_TAG_enumeration_type
   10839                      .dwattr $C$DW$T$118, DW_AT_byte_size(0x01)
   10840              $C$DW$788       .dwtag  DW_TAG_enumerator
   10841                      .dwattr $C$DW$788, DW_AT_name("XBAR_TRIP4")
   10842                      .dwattr $C$DW$788, DW_AT_const_value(0x00)
   10843                      .dwattr $C$DW$788, DW_AT_decl_file("C:\ti\C2000Ware_MotorControl_SDK_5_04_00_00\c2000ware\driverlib\f
   10844                      .dwattr $C$DW$788, DW_AT_decl_line(0xa8)
TMS320C2000 Assembler PC v22.6.2 Wed Dec 10 14:45:02 2025

Copyright (c) 1996-2018 Texas Instruments Incorporated
dual_axis_servo_drive_hal.asm                                        PAGE  211

   10845                      .dwattr $C$DW$788, DW_AT_decl_column(0x05)
   10846              
   10847              $C$DW$789       .dwtag  DW_TAG_enumerator
   10848                      .dwattr $C$DW$789, DW_AT_name("XBAR_TRIP5")
   10849                      .dwattr $C$DW$789, DW_AT_const_value(0x02)
   10850                      .dwattr $C$DW$789, DW_AT_decl_file("C:\ti\C2000Ware_MotorControl_SDK_5_04_00_00\c2000ware\driverlib\f
   10851                      .dwattr $C$DW$789, DW_AT_decl_line(0xa9)
   10852                      .dwattr $C$DW$789, DW_AT_decl_column(0x05)
   10853              
   10854              $C$DW$790       .dwtag  DW_TAG_enumerator
   10855                      .dwattr $C$DW$790, DW_AT_name("XBAR_TRIP7")
   10856                      .dwattr $C$DW$790, DW_AT_const_value(0x04)
   10857                      .dwattr $C$DW$790, DW_AT_decl_file("C:\ti\C2000Ware_MotorControl_SDK_5_04_00_00\c2000ware\driverlib\f
   10858                      .dwattr $C$DW$790, DW_AT_decl_line(0xaa)
   10859                      .dwattr $C$DW$790, DW_AT_decl_column(0x05)
   10860              
   10861              $C$DW$791       .dwtag  DW_TAG_enumerator
   10862                      .dwattr $C$DW$791, DW_AT_name("XBAR_TRIP8")
   10863                      .dwattr $C$DW$791, DW_AT_const_value(0x06)
   10864                      .dwattr $C$DW$791, DW_AT_decl_file("C:\ti\C2000Ware_MotorControl_SDK_5_04_00_00\c2000ware\driverlib\f
   10865                      .dwattr $C$DW$791, DW_AT_decl_line(0xab)
   10866                      .dwattr $C$DW$791, DW_AT_decl_column(0x05)
   10867              
   10868              $C$DW$792       .dwtag  DW_TAG_enumerator
   10869                      .dwattr $C$DW$792, DW_AT_name("XBAR_TRIP9")
   10870                      .dwattr $C$DW$792, DW_AT_const_value(0x08)
   10871                      .dwattr $C$DW$792, DW_AT_decl_file("C:\ti\C2000Ware_MotorControl_SDK_5_04_00_00\c2000ware\driverlib\f
   10872                      .dwattr $C$DW$792, DW_AT_decl_line(0xac)
   10873                      .dwattr $C$DW$792, DW_AT_decl_column(0x05)
   10874              
   10875              $C$DW$793       .dwtag  DW_TAG_enumerator
   10876                      .dwattr $C$DW$793, DW_AT_name("XBAR_TRIP10")
   10877                      .dwattr $C$DW$793, DW_AT_const_value(0x0a)
   10878                      .dwattr $C$DW$793, DW_AT_decl_file("C:\ti\C2000Ware_MotorControl_SDK_5_04_00_00\c2000ware\driverlib\f
   10879                      .dwattr $C$DW$793, DW_AT_decl_line(0xad)
   10880                      .dwattr $C$DW$793, DW_AT_decl_column(0x05)
   10881              
   10882              $C$DW$794       .dwtag  DW_TAG_enumerator
   10883                      .dwattr $C$DW$794, DW_AT_name("XBAR_TRIP11")
   10884                      .dwattr $C$DW$794, DW_AT_const_value(0x0c)
   10885                      .dwattr $C$DW$794, DW_AT_decl_file("C:\ti\C2000Ware_MotorControl_SDK_5_04_00_00\c2000ware\driverlib\f
   10886                      .dwattr $C$DW$794, DW_AT_decl_line(0xae)
   10887                      .dwattr $C$DW$794, DW_AT_decl_column(0x05)
   10888              
   10889              $C$DW$795       .dwtag  DW_TAG_enumerator
   10890                      .dwattr $C$DW$795, DW_AT_name("XBAR_TRIP12")
   10891                      .dwattr $C$DW$795, DW_AT_const_value(0x0e)
   10892                      .dwattr $C$DW$795, DW_AT_decl_file("C:\ti\C2000Ware_MotorControl_SDK_5_04_00_00\c2000ware\driverlib\f
   10893                      .dwattr $C$DW$795, DW_AT_decl_line(0xaf)
   10894                      .dwattr $C$DW$795, DW_AT_decl_column(0x05)
   10895              
   10896                      .dwattr $C$DW$T$118, DW_AT_decl_file("C:\ti\C2000Ware_MotorControl_SDK_5_04_00_00\c2000ware\driverlib
   10897                      .dwattr $C$DW$T$118, DW_AT_decl_line(0xa7)
   10898                      .dwattr $C$DW$T$118, DW_AT_decl_column(0x01)
   10899                      .dwendtag $C$DW$T$118
TMS320C2000 Assembler PC v22.6.2 Wed Dec 10 14:45:02 2025

Copyright (c) 1996-2018 Texas Instruments Incorporated
dual_axis_servo_drive_hal.asm                                        PAGE  212

   10900              
   10901                      .dwendtag $C$DW$TU$118
   10902              
   10903              
   10904              $C$DW$TU$119    .dwtag  DW_TAG_type_unit
   10905                      .dwmtype  $C$DW$T$119
   10906              $C$DW$T$119     .dwtag  DW_TAG_typedef
   10907                      .dwattr $C$DW$T$119, DW_AT_name("XBAR_TripNum")
   10908                      .dwattr $C$DW$T$119, DW_AT_type(*$C$DW$T$118)
   10909                      .dwattr $C$DW$T$119, DW_AT_decl_file("C:\ti\C2000Ware_MotorControl_SDK_5_04_00_00\c2000ware\driverlib
   10910                      .dwattr $C$DW$T$119, DW_AT_decl_line(0xb0)
   10911                      .dwattr $C$DW$T$119, DW_AT_decl_column(0x03)
   10912              
   10913                      .dwendtag $C$DW$TU$119
   10914              
   10915              
   10916              $C$DW$TU$120    .dwtag  DW_TAG_type_unit
   10917                      .dwmtype  $C$DW$T$120
   10918              
   10919              $C$DW$T$120     .dwtag  DW_TAG_enumeration_type
   10920                      .dwattr $C$DW$T$120, DW_AT_byte_size(0x01)
   10921              $C$DW$796       .dwtag  DW_TAG_enumerator
   10922                      .dwattr $C$DW$796, DW_AT_name("XBAR_INPUT1")
   10923                      .dwattr $C$DW$796, DW_AT_const_value(0x00)
   10924                      .dwattr $C$DW$796, DW_AT_decl_file("C:\ti\C2000Ware_MotorControl_SDK_5_04_00_00\c2000ware\driverlib\f
   10925                      .dwattr $C$DW$796, DW_AT_decl_line(0xcb)
   10926                      .dwattr $C$DW$796, DW_AT_decl_column(0x05)
   10927              
   10928              $C$DW$797       .dwtag  DW_TAG_enumerator
   10929                      .dwattr $C$DW$797, DW_AT_name("XBAR_INPUT2")
   10930                      .dwattr $C$DW$797, DW_AT_const_value(0x01)
   10931                      .dwattr $C$DW$797, DW_AT_decl_file("C:\ti\C2000Ware_MotorControl_SDK_5_04_00_00\c2000ware\driverlib\f
   10932                      .dwattr $C$DW$797, DW_AT_decl_line(0xcc)
   10933                      .dwattr $C$DW$797, DW_AT_decl_column(0x05)
   10934              
   10935              $C$DW$798       .dwtag  DW_TAG_enumerator
   10936                      .dwattr $C$DW$798, DW_AT_name("XBAR_INPUT3")
   10937                      .dwattr $C$DW$798, DW_AT_const_value(0x02)
   10938                      .dwattr $C$DW$798, DW_AT_decl_file("C:\ti\C2000Ware_MotorControl_SDK_5_04_00_00\c2000ware\driverlib\f
   10939                      .dwattr $C$DW$798, DW_AT_decl_line(0xcd)
   10940                      .dwattr $C$DW$798, DW_AT_decl_column(0x05)
   10941              
   10942              $C$DW$799       .dwtag  DW_TAG_enumerator
   10943                      .dwattr $C$DW$799, DW_AT_name("XBAR_INPUT4")
   10944                      .dwattr $C$DW$799, DW_AT_const_value(0x03)
   10945                      .dwattr $C$DW$799, DW_AT_decl_file("C:\ti\C2000Ware_MotorControl_SDK_5_04_00_00\c2000ware\driverlib\f
   10946                      .dwattr $C$DW$799, DW_AT_decl_line(0xce)
   10947                      .dwattr $C$DW$799, DW_AT_decl_column(0x05)
   10948              
   10949              $C$DW$800       .dwtag  DW_TAG_enumerator
   10950                      .dwattr $C$DW$800, DW_AT_name("XBAR_INPUT5")
   10951                      .dwattr $C$DW$800, DW_AT_const_value(0x04)
   10952                      .dwattr $C$DW$800, DW_AT_decl_file("C:\ti\C2000Ware_MotorControl_SDK_5_04_00_00\c2000ware\driverlib\f
   10953                      .dwattr $C$DW$800, DW_AT_decl_line(0xcf)
   10954                      .dwattr $C$DW$800, DW_AT_decl_column(0x05)
TMS320C2000 Assembler PC v22.6.2 Wed Dec 10 14:45:02 2025

Copyright (c) 1996-2018 Texas Instruments Incorporated
dual_axis_servo_drive_hal.asm                                        PAGE  213

   10955              
   10956              $C$DW$801       .dwtag  DW_TAG_enumerator
   10957                      .dwattr $C$DW$801, DW_AT_name("XBAR_INPUT6")
   10958                      .dwattr $C$DW$801, DW_AT_const_value(0x05)
   10959                      .dwattr $C$DW$801, DW_AT_decl_file("C:\ti\C2000Ware_MotorControl_SDK_5_04_00_00\c2000ware\driverlib\f
   10960                      .dwattr $C$DW$801, DW_AT_decl_line(0xd0)
   10961                      .dwattr $C$DW$801, DW_AT_decl_column(0x05)
   10962              
   10963              $C$DW$802       .dwtag  DW_TAG_enumerator
   10964                      .dwattr $C$DW$802, DW_AT_name("XBAR_INPUT7")
   10965                      .dwattr $C$DW$802, DW_AT_const_value(0x06)
   10966                      .dwattr $C$DW$802, DW_AT_decl_file("C:\ti\C2000Ware_MotorControl_SDK_5_04_00_00\c2000ware\driverlib\f
   10967                      .dwattr $C$DW$802, DW_AT_decl_line(0xd1)
   10968                      .dwattr $C$DW$802, DW_AT_decl_column(0x05)
   10969              
   10970              $C$DW$803       .dwtag  DW_TAG_enumerator
   10971                      .dwattr $C$DW$803, DW_AT_name("XBAR_INPUT8")
   10972                      .dwattr $C$DW$803, DW_AT_const_value(0x07)
   10973                      .dwattr $C$DW$803, DW_AT_decl_file("C:\ti\C2000Ware_MotorControl_SDK_5_04_00_00\c2000ware\driverlib\f
   10974                      .dwattr $C$DW$803, DW_AT_decl_line(0xd2)
   10975                      .dwattr $C$DW$803, DW_AT_decl_column(0x05)
   10976              
   10977              $C$DW$804       .dwtag  DW_TAG_enumerator
   10978                      .dwattr $C$DW$804, DW_AT_name("XBAR_INPUT9")
   10979                      .dwattr $C$DW$804, DW_AT_const_value(0x08)
   10980                      .dwattr $C$DW$804, DW_AT_decl_file("C:\ti\C2000Ware_MotorControl_SDK_5_04_00_00\c2000ware\driverlib\f
   10981                      .dwattr $C$DW$804, DW_AT_decl_line(0xd3)
   10982                      .dwattr $C$DW$804, DW_AT_decl_column(0x05)
   10983              
   10984              $C$DW$805       .dwtag  DW_TAG_enumerator
   10985                      .dwattr $C$DW$805, DW_AT_name("XBAR_INPUT10")
   10986                      .dwattr $C$DW$805, DW_AT_const_value(0x09)
   10987                      .dwattr $C$DW$805, DW_AT_decl_file("C:\ti\C2000Ware_MotorControl_SDK_5_04_00_00\c2000ware\driverlib\f
   10988                      .dwattr $C$DW$805, DW_AT_decl_line(0xd4)
   10989                      .dwattr $C$DW$805, DW_AT_decl_column(0x05)
   10990              
   10991              $C$DW$806       .dwtag  DW_TAG_enumerator
   10992                      .dwattr $C$DW$806, DW_AT_name("XBAR_INPUT11")
   10993                      .dwattr $C$DW$806, DW_AT_const_value(0x0a)
   10994                      .dwattr $C$DW$806, DW_AT_decl_file("C:\ti\C2000Ware_MotorControl_SDK_5_04_00_00\c2000ware\driverlib\f
   10995                      .dwattr $C$DW$806, DW_AT_decl_line(0xd5)
   10996                      .dwattr $C$DW$806, DW_AT_decl_column(0x05)
   10997              
   10998              $C$DW$807       .dwtag  DW_TAG_enumerator
   10999                      .dwattr $C$DW$807, DW_AT_name("XBAR_INPUT12")
   11000                      .dwattr $C$DW$807, DW_AT_const_value(0x0b)
   11001                      .dwattr $C$DW$807, DW_AT_decl_file("C:\ti\C2000Ware_MotorControl_SDK_5_04_00_00\c2000ware\driverlib\f
   11002                      .dwattr $C$DW$807, DW_AT_decl_line(0xd6)
   11003                      .dwattr $C$DW$807, DW_AT_decl_column(0x05)
   11004              
   11005              $C$DW$808       .dwtag  DW_TAG_enumerator
   11006                      .dwattr $C$DW$808, DW_AT_name("XBAR_INPUT13")
   11007                      .dwattr $C$DW$808, DW_AT_const_value(0x0c)
   11008                      .dwattr $C$DW$808, DW_AT_decl_file("C:\ti\C2000Ware_MotorControl_SDK_5_04_00_00\c2000ware\driverlib\f
   11009                      .dwattr $C$DW$808, DW_AT_decl_line(0xd7)
TMS320C2000 Assembler PC v22.6.2 Wed Dec 10 14:45:02 2025

Copyright (c) 1996-2018 Texas Instruments Incorporated
dual_axis_servo_drive_hal.asm                                        PAGE  214

   11010                      .dwattr $C$DW$808, DW_AT_decl_column(0x05)
   11011              
   11012              $C$DW$809       .dwtag  DW_TAG_enumerator
   11013                      .dwattr $C$DW$809, DW_AT_name("XBAR_INPUT14")
   11014                      .dwattr $C$DW$809, DW_AT_const_value(0x0d)
   11015                      .dwattr $C$DW$809, DW_AT_decl_file("C:\ti\C2000Ware_MotorControl_SDK_5_04_00_00\c2000ware\driverlib\f
   11016                      .dwattr $C$DW$809, DW_AT_decl_line(0xd8)
   11017                      .dwattr $C$DW$809, DW_AT_decl_column(0x05)
   11018              
   11019              $C$DW$810       .dwtag  DW_TAG_enumerator
   11020                      .dwattr $C$DW$810, DW_AT_name("XBAR_INPUT15")
   11021                      .dwattr $C$DW$810, DW_AT_const_value(0x0e)
   11022                      .dwattr $C$DW$810, DW_AT_decl_file("C:\ti\C2000Ware_MotorControl_SDK_5_04_00_00\c2000ware\driverlib\f
   11023                      .dwattr $C$DW$810, DW_AT_decl_line(0xd9)
   11024                      .dwattr $C$DW$810, DW_AT_decl_column(0x05)
   11025              
   11026              $C$DW$811       .dwtag  DW_TAG_enumerator
   11027                      .dwattr $C$DW$811, DW_AT_name("XBAR_INPUT16")
   11028                      .dwattr $C$DW$811, DW_AT_const_value(0x0f)
   11029                      .dwattr $C$DW$811, DW_AT_decl_file("C:\ti\C2000Ware_MotorControl_SDK_5_04_00_00\c2000ware\driverlib\f
   11030                      .dwattr $C$DW$811, DW_AT_decl_line(0xda)
   11031                      .dwattr $C$DW$811, DW_AT_decl_column(0x05)
   11032              
   11033                      .dwattr $C$DW$T$120, DW_AT_decl_file("C:\ti\C2000Ware_MotorControl_SDK_5_04_00_00\c2000ware\driverlib
   11034                      .dwattr $C$DW$T$120, DW_AT_decl_line(0xca)
   11035                      .dwattr $C$DW$T$120, DW_AT_decl_column(0x01)
   11036                      .dwendtag $C$DW$T$120
   11037              
   11038                      .dwendtag $C$DW$TU$120
   11039              
   11040              
   11041              $C$DW$TU$121    .dwtag  DW_TAG_type_unit
   11042                      .dwmtype  $C$DW$T$121
   11043              $C$DW$T$121     .dwtag  DW_TAG_typedef
   11044                      .dwattr $C$DW$T$121, DW_AT_name("XBAR_InputNum")
   11045                      .dwattr $C$DW$T$121, DW_AT_type(*$C$DW$T$120)
   11046                      .dwattr $C$DW$T$121, DW_AT_decl_file("C:\ti\C2000Ware_MotorControl_SDK_5_04_00_00\c2000ware\driverlib
   11047                      .dwattr $C$DW$T$121, DW_AT_decl_line(0xdb)
   11048                      .dwattr $C$DW$T$121, DW_AT_decl_column(0x03)
   11049              
   11050                      .dwendtag $C$DW$TU$121
   11051              
   11052              
   11053              $C$DW$TU$122    .dwtag  DW_TAG_type_unit
   11054                      .dwmtype  $C$DW$T$122
   11055              
   11056              $C$DW$T$122     .dwtag  DW_TAG_enumeration_type
   11057                      .dwattr $C$DW$T$122, DW_AT_byte_size(0x01)
   11058              $C$DW$812       .dwtag  DW_TAG_enumerator
   11059                      .dwattr $C$DW$812, DW_AT_name("XBAR_EPWM_MUX00_CMPSS1_CTRIPH")
   11060                      .dwattr $C$DW$812, DW_AT_const_value(0x00)
   11061                      .dwattr $C$DW$812, DW_AT_decl_file("C:\ti\C2000Ware_MotorControl_SDK_5_04_00_00\c2000ware\driverlib\f
   11062                      .dwattr $C$DW$812, DW_AT_decl_line(0x12b)
   11063                      .dwattr $C$DW$812, DW_AT_decl_column(0x05)
   11064              
TMS320C2000 Assembler PC v22.6.2 Wed Dec 10 14:45:02 2025

Copyright (c) 1996-2018 Texas Instruments Incorporated
dual_axis_servo_drive_hal.asm                                        PAGE  215

   11065              $C$DW$813       .dwtag  DW_TAG_enumerator
   11066                      .dwattr $C$DW$813, DW_AT_name("XBAR_EPWM_MUX00_CMPSS1_CTRIPH_OR_L")
   11067                      .dwattr $C$DW$813, DW_AT_const_value(0x01)
   11068                      .dwattr $C$DW$813, DW_AT_decl_file("C:\ti\C2000Ware_MotorControl_SDK_5_04_00_00\c2000ware\driverlib\f
   11069                      .dwattr $C$DW$813, DW_AT_decl_line(0x12c)
   11070                      .dwattr $C$DW$813, DW_AT_decl_column(0x05)
   11071              
   11072              $C$DW$814       .dwtag  DW_TAG_enumerator
   11073                      .dwattr $C$DW$814, DW_AT_name("XBAR_EPWM_MUX00_ADCAEVT1")
   11074                      .dwattr $C$DW$814, DW_AT_const_value(0x02)
   11075                      .dwattr $C$DW$814, DW_AT_decl_file("C:\ti\C2000Ware_MotorControl_SDK_5_04_00_00\c2000ware\driverlib\f
   11076                      .dwattr $C$DW$814, DW_AT_decl_line(0x12d)
   11077                      .dwattr $C$DW$814, DW_AT_decl_column(0x05)
   11078              
   11079              $C$DW$815       .dwtag  DW_TAG_enumerator
   11080                      .dwattr $C$DW$815, DW_AT_name("XBAR_EPWM_MUX00_ECAP1_OUT")
   11081                      .dwattr $C$DW$815, DW_AT_const_value(0x03)
   11082                      .dwattr $C$DW$815, DW_AT_decl_file("C:\ti\C2000Ware_MotorControl_SDK_5_04_00_00\c2000ware\driverlib\f
   11083                      .dwattr $C$DW$815, DW_AT_decl_line(0x12e)
   11084                      .dwattr $C$DW$815, DW_AT_decl_column(0x05)
   11085              
   11086              $C$DW$816       .dwtag  DW_TAG_enumerator
   11087                      .dwattr $C$DW$816, DW_AT_name("XBAR_EPWM_MUX01_CMPSS1_CTRIPL")
   11088                      .dwattr $C$DW$816, DW_AT_const_value(0x200)
   11089                      .dwattr $C$DW$816, DW_AT_decl_file("C:\ti\C2000Ware_MotorControl_SDK_5_04_00_00\c2000ware\driverlib\f
   11090                      .dwattr $C$DW$816, DW_AT_decl_line(0x12f)
   11091                      .dwattr $C$DW$816, DW_AT_decl_column(0x05)
   11092              
   11093              $C$DW$817       .dwtag  DW_TAG_enumerator
   11094                      .dwattr $C$DW$817, DW_AT_name("XBAR_EPWM_MUX01_INPUTXBAR1")
   11095                      .dwattr $C$DW$817, DW_AT_const_value(0x201)
   11096                      .dwattr $C$DW$817, DW_AT_decl_file("C:\ti\C2000Ware_MotorControl_SDK_5_04_00_00\c2000ware\driverlib\f
   11097                      .dwattr $C$DW$817, DW_AT_decl_line(0x130)
   11098                      .dwattr $C$DW$817, DW_AT_decl_column(0x05)
   11099              
   11100              $C$DW$818       .dwtag  DW_TAG_enumerator
   11101                      .dwattr $C$DW$818, DW_AT_name("XBAR_EPWM_MUX01_CLB1_OUT4")
   11102                      .dwattr $C$DW$818, DW_AT_const_value(0x202)
   11103                      .dwattr $C$DW$818, DW_AT_decl_file("C:\ti\C2000Ware_MotorControl_SDK_5_04_00_00\c2000ware\driverlib\f
   11104                      .dwattr $C$DW$818, DW_AT_decl_line(0x131)
   11105                      .dwattr $C$DW$818, DW_AT_decl_column(0x05)
   11106              
   11107              $C$DW$819       .dwtag  DW_TAG_enumerator
   11108                      .dwattr $C$DW$819, DW_AT_name("XBAR_EPWM_MUX01_ADCCEVT1")
   11109                      .dwattr $C$DW$819, DW_AT_const_value(0x203)
   11110                      .dwattr $C$DW$819, DW_AT_decl_file("C:\ti\C2000Ware_MotorControl_SDK_5_04_00_00\c2000ware\driverlib\f
   11111                      .dwattr $C$DW$819, DW_AT_decl_line(0x132)
   11112                      .dwattr $C$DW$819, DW_AT_decl_column(0x05)
   11113              
   11114              $C$DW$820       .dwtag  DW_TAG_enumerator
   11115                      .dwattr $C$DW$820, DW_AT_name("XBAR_EPWM_MUX02_CMPSS2_CTRIPH")
   11116                      .dwattr $C$DW$820, DW_AT_const_value(0x400)
   11117                      .dwattr $C$DW$820, DW_AT_decl_file("C:\ti\C2000Ware_MotorControl_SDK_5_04_00_00\c2000ware\driverlib\f
   11118                      .dwattr $C$DW$820, DW_AT_decl_line(0x133)
   11119                      .dwattr $C$DW$820, DW_AT_decl_column(0x05)
TMS320C2000 Assembler PC v22.6.2 Wed Dec 10 14:45:02 2025

Copyright (c) 1996-2018 Texas Instruments Incorporated
dual_axis_servo_drive_hal.asm                                        PAGE  216

   11120              
   11121              $C$DW$821       .dwtag  DW_TAG_enumerator
   11122                      .dwattr $C$DW$821, DW_AT_name("XBAR_EPWM_MUX02_CMPSS2_CTRIPH_OR_L")
   11123                      .dwattr $C$DW$821, DW_AT_const_value(0x401)
   11124                      .dwattr $C$DW$821, DW_AT_decl_file("C:\ti\C2000Ware_MotorControl_SDK_5_04_00_00\c2000ware\driverlib\f
   11125                      .dwattr $C$DW$821, DW_AT_decl_line(0x134)
   11126                      .dwattr $C$DW$821, DW_AT_decl_column(0x05)
   11127              
   11128              $C$DW$822       .dwtag  DW_TAG_enumerator
   11129                      .dwattr $C$DW$822, DW_AT_name("XBAR_EPWM_MUX02_ADCAEVT2")
   11130                      .dwattr $C$DW$822, DW_AT_const_value(0x402)
   11131                      .dwattr $C$DW$822, DW_AT_decl_file("C:\ti\C2000Ware_MotorControl_SDK_5_04_00_00\c2000ware\driverlib\f
   11132                      .dwattr $C$DW$822, DW_AT_decl_line(0x135)
   11133                      .dwattr $C$DW$822, DW_AT_decl_column(0x05)
   11134              
   11135              $C$DW$823       .dwtag  DW_TAG_enumerator
   11136                      .dwattr $C$DW$823, DW_AT_name("XBAR_EPWM_MUX02_ECAP2_OUT")
   11137                      .dwattr $C$DW$823, DW_AT_const_value(0x403)
   11138                      .dwattr $C$DW$823, DW_AT_decl_file("C:\ti\C2000Ware_MotorControl_SDK_5_04_00_00\c2000ware\driverlib\f
   11139                      .dwattr $C$DW$823, DW_AT_decl_line(0x136)
   11140                      .dwattr $C$DW$823, DW_AT_decl_column(0x05)
   11141              
   11142              $C$DW$824       .dwtag  DW_TAG_enumerator
   11143                      .dwattr $C$DW$824, DW_AT_name("XBAR_EPWM_MUX03_CMPSS2_CTRIPL")
   11144                      .dwattr $C$DW$824, DW_AT_const_value(0x600)
   11145                      .dwattr $C$DW$824, DW_AT_decl_file("C:\ti\C2000Ware_MotorControl_SDK_5_04_00_00\c2000ware\driverlib\f
   11146                      .dwattr $C$DW$824, DW_AT_decl_line(0x137)
   11147                      .dwattr $C$DW$824, DW_AT_decl_column(0x05)
   11148              
   11149              $C$DW$825       .dwtag  DW_TAG_enumerator
   11150                      .dwattr $C$DW$825, DW_AT_name("XBAR_EPWM_MUX03_INPUTXBAR2")
   11151                      .dwattr $C$DW$825, DW_AT_const_value(0x601)
   11152                      .dwattr $C$DW$825, DW_AT_decl_file("C:\ti\C2000Ware_MotorControl_SDK_5_04_00_00\c2000ware\driverlib\f
   11153                      .dwattr $C$DW$825, DW_AT_decl_line(0x138)
   11154                      .dwattr $C$DW$825, DW_AT_decl_column(0x05)
   11155              
   11156              $C$DW$826       .dwtag  DW_TAG_enumerator
   11157                      .dwattr $C$DW$826, DW_AT_name("XBAR_EPWM_MUX03_CLB1_OUT5")
   11158                      .dwattr $C$DW$826, DW_AT_const_value(0x602)
   11159                      .dwattr $C$DW$826, DW_AT_decl_file("C:\ti\C2000Ware_MotorControl_SDK_5_04_00_00\c2000ware\driverlib\f
   11160                      .dwattr $C$DW$826, DW_AT_decl_line(0x139)
   11161                      .dwattr $C$DW$826, DW_AT_decl_column(0x05)
   11162              
   11163              $C$DW$827       .dwtag  DW_TAG_enumerator
   11164                      .dwattr $C$DW$827, DW_AT_name("XBAR_EPWM_MUX03_ADCCEVT2")
   11165                      .dwattr $C$DW$827, DW_AT_const_value(0x603)
   11166                      .dwattr $C$DW$827, DW_AT_decl_file("C:\ti\C2000Ware_MotorControl_SDK_5_04_00_00\c2000ware\driverlib\f
   11167                      .dwattr $C$DW$827, DW_AT_decl_line(0x13a)
   11168                      .dwattr $C$DW$827, DW_AT_decl_column(0x05)
   11169              
   11170              $C$DW$828       .dwtag  DW_TAG_enumerator
   11171                      .dwattr $C$DW$828, DW_AT_name("XBAR_EPWM_MUX04_CMPSS3_CTRIPH")
   11172                      .dwattr $C$DW$828, DW_AT_const_value(0x800)
   11173                      .dwattr $C$DW$828, DW_AT_decl_file("C:\ti\C2000Ware_MotorControl_SDK_5_04_00_00\c2000ware\driverlib\f
   11174                      .dwattr $C$DW$828, DW_AT_decl_line(0x13b)
TMS320C2000 Assembler PC v22.6.2 Wed Dec 10 14:45:02 2025

Copyright (c) 1996-2018 Texas Instruments Incorporated
dual_axis_servo_drive_hal.asm                                        PAGE  217

   11175                      .dwattr $C$DW$828, DW_AT_decl_column(0x05)
   11176              
   11177              $C$DW$829       .dwtag  DW_TAG_enumerator
   11178                      .dwattr $C$DW$829, DW_AT_name("XBAR_EPWM_MUX04_CMPSS3_CTRIPH_OR_L")
   11179                      .dwattr $C$DW$829, DW_AT_const_value(0x801)
   11180                      .dwattr $C$DW$829, DW_AT_decl_file("C:\ti\C2000Ware_MotorControl_SDK_5_04_00_00\c2000ware\driverlib\f
   11181                      .dwattr $C$DW$829, DW_AT_decl_line(0x13c)
   11182                      .dwattr $C$DW$829, DW_AT_decl_column(0x05)
   11183              
   11184              $C$DW$830       .dwtag  DW_TAG_enumerator
   11185                      .dwattr $C$DW$830, DW_AT_name("XBAR_EPWM_MUX04_ADCAEVT3")
   11186                      .dwattr $C$DW$830, DW_AT_const_value(0x802)
   11187                      .dwattr $C$DW$830, DW_AT_decl_file("C:\ti\C2000Ware_MotorControl_SDK_5_04_00_00\c2000ware\driverlib\f
   11188                      .dwattr $C$DW$830, DW_AT_decl_line(0x13d)
   11189                      .dwattr $C$DW$830, DW_AT_decl_column(0x05)
   11190              
   11191              $C$DW$831       .dwtag  DW_TAG_enumerator
   11192                      .dwattr $C$DW$831, DW_AT_name("XBAR_EPWM_MUX04_ECAP3_OUT")
   11193                      .dwattr $C$DW$831, DW_AT_const_value(0x803)
   11194                      .dwattr $C$DW$831, DW_AT_decl_file("C:\ti\C2000Ware_MotorControl_SDK_5_04_00_00\c2000ware\driverlib\f
   11195                      .dwattr $C$DW$831, DW_AT_decl_line(0x13e)
   11196                      .dwattr $C$DW$831, DW_AT_decl_column(0x05)
   11197              
   11198              $C$DW$832       .dwtag  DW_TAG_enumerator
   11199                      .dwattr $C$DW$832, DW_AT_name("XBAR_EPWM_MUX05_CMPSS3_CTRIPL")
   11200                      .dwattr $C$DW$832, DW_AT_const_value(0xa00)
   11201                      .dwattr $C$DW$832, DW_AT_decl_file("C:\ti\C2000Ware_MotorControl_SDK_5_04_00_00\c2000ware\driverlib\f
   11202                      .dwattr $C$DW$832, DW_AT_decl_line(0x13f)
   11203                      .dwattr $C$DW$832, DW_AT_decl_column(0x05)
   11204              
   11205              $C$DW$833       .dwtag  DW_TAG_enumerator
   11206                      .dwattr $C$DW$833, DW_AT_name("XBAR_EPWM_MUX05_INPUTXBAR3")
   11207                      .dwattr $C$DW$833, DW_AT_const_value(0xa01)
   11208                      .dwattr $C$DW$833, DW_AT_decl_file("C:\ti\C2000Ware_MotorControl_SDK_5_04_00_00\c2000ware\driverlib\f
   11209                      .dwattr $C$DW$833, DW_AT_decl_line(0x140)
   11210                      .dwattr $C$DW$833, DW_AT_decl_column(0x05)
   11211              
   11212              $C$DW$834       .dwtag  DW_TAG_enumerator
   11213                      .dwattr $C$DW$834, DW_AT_name("XBAR_EPWM_MUX05_CLB2_OUT4")
   11214                      .dwattr $C$DW$834, DW_AT_const_value(0xa02)
   11215                      .dwattr $C$DW$834, DW_AT_decl_file("C:\ti\C2000Ware_MotorControl_SDK_5_04_00_00\c2000ware\driverlib\f
   11216                      .dwattr $C$DW$834, DW_AT_decl_line(0x141)
   11217                      .dwattr $C$DW$834, DW_AT_decl_column(0x05)
   11218              
   11219              $C$DW$835       .dwtag  DW_TAG_enumerator
   11220                      .dwattr $C$DW$835, DW_AT_name("XBAR_EPWM_MUX05_ADCCEVT3")
   11221                      .dwattr $C$DW$835, DW_AT_const_value(0xa03)
   11222                      .dwattr $C$DW$835, DW_AT_decl_file("C:\ti\C2000Ware_MotorControl_SDK_5_04_00_00\c2000ware\driverlib\f
   11223                      .dwattr $C$DW$835, DW_AT_decl_line(0x142)
   11224                      .dwattr $C$DW$835, DW_AT_decl_column(0x05)
   11225              
   11226              $C$DW$836       .dwtag  DW_TAG_enumerator
   11227                      .dwattr $C$DW$836, DW_AT_name("XBAR_EPWM_MUX06_CMPSS4_CTRIPH")
   11228                      .dwattr $C$DW$836, DW_AT_const_value(0xc00)
   11229                      .dwattr $C$DW$836, DW_AT_decl_file("C:\ti\C2000Ware_MotorControl_SDK_5_04_00_00\c2000ware\driverlib\f
TMS320C2000 Assembler PC v22.6.2 Wed Dec 10 14:45:02 2025

Copyright (c) 1996-2018 Texas Instruments Incorporated
dual_axis_servo_drive_hal.asm                                        PAGE  218

   11230                      .dwattr $C$DW$836, DW_AT_decl_line(0x143)
   11231                      .dwattr $C$DW$836, DW_AT_decl_column(0x05)
   11232              
   11233              $C$DW$837       .dwtag  DW_TAG_enumerator
   11234                      .dwattr $C$DW$837, DW_AT_name("XBAR_EPWM_MUX06_CMPSS4_CTRIPH_OR_L")
   11235                      .dwattr $C$DW$837, DW_AT_const_value(0xc01)
   11236                      .dwattr $C$DW$837, DW_AT_decl_file("C:\ti\C2000Ware_MotorControl_SDK_5_04_00_00\c2000ware\driverlib\f
   11237                      .dwattr $C$DW$837, DW_AT_decl_line(0x144)
   11238                      .dwattr $C$DW$837, DW_AT_decl_column(0x05)
   11239              
   11240              $C$DW$838       .dwtag  DW_TAG_enumerator
   11241                      .dwattr $C$DW$838, DW_AT_name("XBAR_EPWM_MUX06_ADCAEVT4")
   11242                      .dwattr $C$DW$838, DW_AT_const_value(0xc02)
   11243                      .dwattr $C$DW$838, DW_AT_decl_file("C:\ti\C2000Ware_MotorControl_SDK_5_04_00_00\c2000ware\driverlib\f
   11244                      .dwattr $C$DW$838, DW_AT_decl_line(0x145)
   11245                      .dwattr $C$DW$838, DW_AT_decl_column(0x05)
   11246              
   11247              $C$DW$839       .dwtag  DW_TAG_enumerator
   11248                      .dwattr $C$DW$839, DW_AT_name("XBAR_EPWM_MUX07_CMPSS4_CTRIPL")
   11249                      .dwattr $C$DW$839, DW_AT_const_value(0xe00)
   11250                      .dwattr $C$DW$839, DW_AT_decl_file("C:\ti\C2000Ware_MotorControl_SDK_5_04_00_00\c2000ware\driverlib\f
   11251                      .dwattr $C$DW$839, DW_AT_decl_line(0x146)
   11252                      .dwattr $C$DW$839, DW_AT_decl_column(0x05)
   11253              
   11254              $C$DW$840       .dwtag  DW_TAG_enumerator
   11255                      .dwattr $C$DW$840, DW_AT_name("XBAR_EPWM_MUX07_INPUTXBAR4")
   11256                      .dwattr $C$DW$840, DW_AT_const_value(0xe01)
   11257                      .dwattr $C$DW$840, DW_AT_decl_file("C:\ti\C2000Ware_MotorControl_SDK_5_04_00_00\c2000ware\driverlib\f
   11258                      .dwattr $C$DW$840, DW_AT_decl_line(0x147)
   11259                      .dwattr $C$DW$840, DW_AT_decl_column(0x05)
   11260              
   11261              $C$DW$841       .dwtag  DW_TAG_enumerator
   11262                      .dwattr $C$DW$841, DW_AT_name("XBAR_EPWM_MUX07_CLB2_OUT5")
   11263                      .dwattr $C$DW$841, DW_AT_const_value(0xe02)
   11264                      .dwattr $C$DW$841, DW_AT_decl_file("C:\ti\C2000Ware_MotorControl_SDK_5_04_00_00\c2000ware\driverlib\f
   11265                      .dwattr $C$DW$841, DW_AT_decl_line(0x148)
   11266                      .dwattr $C$DW$841, DW_AT_decl_column(0x05)
   11267              
   11268              $C$DW$842       .dwtag  DW_TAG_enumerator
   11269                      .dwattr $C$DW$842, DW_AT_name("XBAR_EPWM_MUX07_ADCCEVT4")
   11270                      .dwattr $C$DW$842, DW_AT_const_value(0xe03)
   11271                      .dwattr $C$DW$842, DW_AT_decl_file("C:\ti\C2000Ware_MotorControl_SDK_5_04_00_00\c2000ware\driverlib\f
   11272                      .dwattr $C$DW$842, DW_AT_decl_line(0x149)
   11273                      .dwattr $C$DW$842, DW_AT_decl_column(0x05)
   11274              
   11275              $C$DW$843       .dwtag  DW_TAG_enumerator
   11276                      .dwattr $C$DW$843, DW_AT_name("XBAR_EPWM_MUX09_INPUTXBAR5")
   11277                      .dwattr $C$DW$843, DW_AT_const_value(0x1201)
   11278                      .dwattr $C$DW$843, DW_AT_decl_file("C:\ti\C2000Ware_MotorControl_SDK_5_04_00_00\c2000ware\driverlib\f
   11279                      .dwattr $C$DW$843, DW_AT_decl_line(0x14a)
   11280                      .dwattr $C$DW$843, DW_AT_decl_column(0x05)
   11281              
   11282              $C$DW$844       .dwtag  DW_TAG_enumerator
   11283                      .dwattr $C$DW$844, DW_AT_name("XBAR_EPWM_MUX11_INPUTXBAR6")
   11284                      .dwattr $C$DW$844, DW_AT_const_value(0x1601)
TMS320C2000 Assembler PC v22.6.2 Wed Dec 10 14:45:02 2025

Copyright (c) 1996-2018 Texas Instruments Incorporated
dual_axis_servo_drive_hal.asm                                        PAGE  219

   11285                      .dwattr $C$DW$844, DW_AT_decl_file("C:\ti\C2000Ware_MotorControl_SDK_5_04_00_00\c2000ware\driverlib\f
   11286                      .dwattr $C$DW$844, DW_AT_decl_line(0x14b)
   11287                      .dwattr $C$DW$844, DW_AT_decl_column(0x05)
   11288              
   11289              $C$DW$845       .dwtag  DW_TAG_enumerator
   11290                      .dwattr $C$DW$845, DW_AT_name("XBAR_EPWM_MUX13_ADCSOCA")
   11291                      .dwattr $C$DW$845, DW_AT_const_value(0x1a01)
   11292                      .dwattr $C$DW$845, DW_AT_decl_file("C:\ti\C2000Ware_MotorControl_SDK_5_04_00_00\c2000ware\driverlib\f
   11293                      .dwattr $C$DW$845, DW_AT_decl_line(0x14c)
   11294                      .dwattr $C$DW$845, DW_AT_decl_column(0x05)
   11295              
   11296              $C$DW$846       .dwtag  DW_TAG_enumerator
   11297                      .dwattr $C$DW$846, DW_AT_name("XBAR_EPWM_MUX14_EXTSYNCOUT")
   11298                      .dwattr $C$DW$846, DW_AT_const_value(0x1c03)
   11299                      .dwattr $C$DW$846, DW_AT_decl_file("C:\ti\C2000Ware_MotorControl_SDK_5_04_00_00\c2000ware\driverlib\f
   11300                      .dwattr $C$DW$846, DW_AT_decl_line(0x14d)
   11301                      .dwattr $C$DW$846, DW_AT_decl_column(0x05)
   11302              
   11303              $C$DW$847       .dwtag  DW_TAG_enumerator
   11304                      .dwattr $C$DW$847, DW_AT_name("XBAR_EPWM_MUX15_ADCSOCB")
   11305                      .dwattr $C$DW$847, DW_AT_const_value(0x1e01)
   11306                      .dwattr $C$DW$847, DW_AT_decl_file("C:\ti\C2000Ware_MotorControl_SDK_5_04_00_00\c2000ware\driverlib\f
   11307                      .dwattr $C$DW$847, DW_AT_decl_line(0x14e)
   11308                      .dwattr $C$DW$847, DW_AT_decl_column(0x05)
   11309              
   11310              $C$DW$848       .dwtag  DW_TAG_enumerator
   11311                      .dwattr $C$DW$848, DW_AT_name("XBAR_EPWM_MUX17_INPUTXBAR7")
   11312                      .dwattr $C$DW$848, DW_AT_const_value(0x2201)
   11313                      .dwattr $C$DW$848, DW_AT_decl_file("C:\ti\C2000Ware_MotorControl_SDK_5_04_00_00\c2000ware\driverlib\f
   11314                      .dwattr $C$DW$848, DW_AT_decl_line(0x14f)
   11315                      .dwattr $C$DW$848, DW_AT_decl_column(0x05)
   11316              
   11317              $C$DW$849       .dwtag  DW_TAG_enumerator
   11318                      .dwattr $C$DW$849, DW_AT_name("XBAR_EPWM_MUX19_INPUTXBAR8")
   11319                      .dwattr $C$DW$849, DW_AT_const_value(0x2601)
   11320                      .dwattr $C$DW$849, DW_AT_decl_file("C:\ti\C2000Ware_MotorControl_SDK_5_04_00_00\c2000ware\driverlib\f
   11321                      .dwattr $C$DW$849, DW_AT_decl_line(0x150)
   11322                      .dwattr $C$DW$849, DW_AT_decl_column(0x05)
   11323              
   11324              $C$DW$850       .dwtag  DW_TAG_enumerator
   11325                      .dwattr $C$DW$850, DW_AT_name("XBAR_EPWM_MUX21_INPUTXBAR9")
   11326                      .dwattr $C$DW$850, DW_AT_const_value(0x2a01)
   11327                      .dwattr $C$DW$850, DW_AT_decl_file("C:\ti\C2000Ware_MotorControl_SDK_5_04_00_00\c2000ware\driverlib\f
   11328                      .dwattr $C$DW$850, DW_AT_decl_line(0x151)
   11329                      .dwattr $C$DW$850, DW_AT_decl_column(0x05)
   11330              
   11331              $C$DW$851       .dwtag  DW_TAG_enumerator
   11332                      .dwattr $C$DW$851, DW_AT_name("XBAR_EPWM_MUX23_INPUTXBAR10")
   11333                      .dwattr $C$DW$851, DW_AT_const_value(0x2e01)
   11334                      .dwattr $C$DW$851, DW_AT_decl_file("C:\ti\C2000Ware_MotorControl_SDK_5_04_00_00\c2000ware\driverlib\f
   11335                      .dwattr $C$DW$851, DW_AT_decl_line(0x152)
   11336                      .dwattr $C$DW$851, DW_AT_decl_column(0x05)
   11337              
   11338              $C$DW$852       .dwtag  DW_TAG_enumerator
   11339                      .dwattr $C$DW$852, DW_AT_name("XBAR_EPWM_MUX25_INPUTXBAR11")
TMS320C2000 Assembler PC v22.6.2 Wed Dec 10 14:45:02 2025

Copyright (c) 1996-2018 Texas Instruments Incorporated
dual_axis_servo_drive_hal.asm                                        PAGE  220

   11340                      .dwattr $C$DW$852, DW_AT_const_value(0x3201)
   11341                      .dwattr $C$DW$852, DW_AT_decl_file("C:\ti\C2000Ware_MotorControl_SDK_5_04_00_00\c2000ware\driverlib\f
   11342                      .dwattr $C$DW$852, DW_AT_decl_line(0x153)
   11343                      .dwattr $C$DW$852, DW_AT_decl_column(0x05)
   11344              
   11345              $C$DW$853       .dwtag  DW_TAG_enumerator
   11346                      .dwattr $C$DW$853, DW_AT_name("XBAR_EPWM_MUX27_INPUTXBAR12")
   11347                      .dwattr $C$DW$853, DW_AT_const_value(0x3601)
   11348                      .dwattr $C$DW$853, DW_AT_decl_file("C:\ti\C2000Ware_MotorControl_SDK_5_04_00_00\c2000ware\driverlib\f
   11349                      .dwattr $C$DW$853, DW_AT_decl_line(0x154)
   11350                      .dwattr $C$DW$853, DW_AT_decl_column(0x05)
   11351              
   11352              $C$DW$854       .dwtag  DW_TAG_enumerator
   11353                      .dwattr $C$DW$854, DW_AT_name("XBAR_EPWM_MUX29_INPUTXBAR13")
   11354                      .dwattr $C$DW$854, DW_AT_const_value(0x3a01)
   11355                      .dwattr $C$DW$854, DW_AT_decl_file("C:\ti\C2000Ware_MotorControl_SDK_5_04_00_00\c2000ware\driverlib\f
   11356                      .dwattr $C$DW$854, DW_AT_decl_line(0x155)
   11357                      .dwattr $C$DW$854, DW_AT_decl_column(0x05)
   11358              
   11359              $C$DW$855       .dwtag  DW_TAG_enumerator
   11360                      .dwattr $C$DW$855, DW_AT_name("XBAR_EPWM_MUX31_INPUTXBAR14")
   11361                      .dwattr $C$DW$855, DW_AT_const_value(0x3e01)
   11362                      .dwattr $C$DW$855, DW_AT_decl_file("C:\ti\C2000Ware_MotorControl_SDK_5_04_00_00\c2000ware\driverlib\f
   11363                      .dwattr $C$DW$855, DW_AT_decl_line(0x156)
   11364                      .dwattr $C$DW$855, DW_AT_decl_column(0x05)
   11365              
   11366                      .dwattr $C$DW$T$122, DW_AT_decl_file("C:\ti\C2000Ware_MotorControl_SDK_5_04_00_00\c2000ware\driverlib
   11367                      .dwattr $C$DW$T$122, DW_AT_decl_line(0x12a)
   11368                      .dwattr $C$DW$T$122, DW_AT_decl_column(0x01)
   11369                      .dwendtag $C$DW$T$122
   11370              
   11371                      .dwendtag $C$DW$TU$122
   11372              
   11373              
   11374              $C$DW$TU$123    .dwtag  DW_TAG_type_unit
   11375                      .dwmtype  $C$DW$T$123
   11376              $C$DW$T$123     .dwtag  DW_TAG_typedef
   11377                      .dwattr $C$DW$T$123, DW_AT_name("XBAR_EPWMMuxConfig")
   11378                      .dwattr $C$DW$T$123, DW_AT_type(*$C$DW$T$122)
   11379                      .dwattr $C$DW$T$123, DW_AT_decl_file("C:\ti\C2000Ware_MotorControl_SDK_5_04_00_00\c2000ware\driverlib
   11380                      .dwattr $C$DW$T$123, DW_AT_decl_line(0x157)
   11381                      .dwattr $C$DW$T$123, DW_AT_decl_column(0x03)
   11382              
   11383                      .dwendtag $C$DW$TU$123
   11384              
   11385              
   11386              $C$DW$TU$124    .dwtag  DW_TAG_type_unit
   11387                      .dwmtype  $C$DW$T$124
   11388              
   11389              $C$DW$T$124     .dwtag  DW_TAG_enumeration_type
   11390                      .dwattr $C$DW$T$124, DW_AT_byte_size(0x01)
   11391              $C$DW$856       .dwtag  DW_TAG_enumerator
   11392                      .dwattr $C$DW$856, DW_AT_name("GPIO_DIR_MODE_IN")
   11393                      .dwattr $C$DW$856, DW_AT_const_value(0x00)
   11394                      .dwattr $C$DW$856, DW_AT_decl_file("C:/ti/C2000Ware_MotorControl_SDK_5_04_00_00/c2000ware/driverlib/f
TMS320C2000 Assembler PC v22.6.2 Wed Dec 10 14:45:02 2025

Copyright (c) 1996-2018 Texas Instruments Incorporated
dual_axis_servo_drive_hal.asm                                        PAGE  221

   11395                      .dwattr $C$DW$856, DW_AT_decl_line(0x7f)
   11396                      .dwattr $C$DW$856, DW_AT_decl_column(0x05)
   11397              
   11398              $C$DW$857       .dwtag  DW_TAG_enumerator
   11399                      .dwattr $C$DW$857, DW_AT_name("GPIO_DIR_MODE_OUT")
   11400                      .dwattr $C$DW$857, DW_AT_const_value(0x01)
   11401                      .dwattr $C$DW$857, DW_AT_decl_file("C:/ti/C2000Ware_MotorControl_SDK_5_04_00_00/c2000ware/driverlib/f
   11402                      .dwattr $C$DW$857, DW_AT_decl_line(0x80)
   11403                      .dwattr $C$DW$857, DW_AT_decl_column(0x05)
   11404              
   11405                      .dwattr $C$DW$T$124, DW_AT_decl_file("C:/ti/C2000Ware_MotorControl_SDK_5_04_00_00/c2000ware/driverlib
   11406                      .dwattr $C$DW$T$124, DW_AT_decl_line(0x7e)
   11407                      .dwattr $C$DW$T$124, DW_AT_decl_column(0x01)
   11408                      .dwendtag $C$DW$T$124
   11409              
   11410                      .dwendtag $C$DW$TU$124
   11411              
   11412              
   11413              $C$DW$TU$125    .dwtag  DW_TAG_type_unit
   11414                      .dwmtype  $C$DW$T$125
   11415              $C$DW$T$125     .dwtag  DW_TAG_typedef
   11416                      .dwattr $C$DW$T$125, DW_AT_name("GPIO_Direction")
   11417                      .dwattr $C$DW$T$125, DW_AT_type(*$C$DW$T$124)
   11418                      .dwattr $C$DW$T$125, DW_AT_decl_file("C:/ti/C2000Ware_MotorControl_SDK_5_04_00_00/c2000ware/driverlib
   11419                      .dwattr $C$DW$T$125, DW_AT_decl_line(0x81)
   11420                      .dwattr $C$DW$T$125, DW_AT_decl_column(0x03)
   11421              
   11422                      .dwendtag $C$DW$TU$125
   11423              
   11424              
   11425              $C$DW$TU$126    .dwtag  DW_TAG_type_unit
   11426                      .dwmtype  $C$DW$T$126
   11427              
   11428              $C$DW$T$126     .dwtag  DW_TAG_enumeration_type
   11429                      .dwattr $C$DW$T$126, DW_AT_byte_size(0x01)
   11430              $C$DW$858       .dwtag  DW_TAG_enumerator
   11431                      .dwattr $C$DW$858, DW_AT_name("GPIO_QUAL_SYNC")
   11432                      .dwattr $C$DW$858, DW_AT_const_value(0x00)
   11433                      .dwattr $C$DW$858, DW_AT_decl_file("C:/ti/C2000Ware_MotorControl_SDK_5_04_00_00/c2000ware/driverlib/f
   11434                      .dwattr $C$DW$858, DW_AT_decl_line(0x98)
   11435                      .dwattr $C$DW$858, DW_AT_decl_column(0x05)
   11436              
   11437              $C$DW$859       .dwtag  DW_TAG_enumerator
   11438                      .dwattr $C$DW$859, DW_AT_name("GPIO_QUAL_3SAMPLE")
   11439                      .dwattr $C$DW$859, DW_AT_const_value(0x01)
   11440                      .dwattr $C$DW$859, DW_AT_decl_file("C:/ti/C2000Ware_MotorControl_SDK_5_04_00_00/c2000ware/driverlib/f
   11441                      .dwattr $C$DW$859, DW_AT_decl_line(0x99)
   11442                      .dwattr $C$DW$859, DW_AT_decl_column(0x05)
   11443              
   11444              $C$DW$860       .dwtag  DW_TAG_enumerator
   11445                      .dwattr $C$DW$860, DW_AT_name("GPIO_QUAL_6SAMPLE")
   11446                      .dwattr $C$DW$860, DW_AT_const_value(0x02)
   11447                      .dwattr $C$DW$860, DW_AT_decl_file("C:/ti/C2000Ware_MotorControl_SDK_5_04_00_00/c2000ware/driverlib/f
   11448                      .dwattr $C$DW$860, DW_AT_decl_line(0x9a)
   11449                      .dwattr $C$DW$860, DW_AT_decl_column(0x05)
TMS320C2000 Assembler PC v22.6.2 Wed Dec 10 14:45:02 2025

Copyright (c) 1996-2018 Texas Instruments Incorporated
dual_axis_servo_drive_hal.asm                                        PAGE  222

   11450              
   11451              $C$DW$861       .dwtag  DW_TAG_enumerator
   11452                      .dwattr $C$DW$861, DW_AT_name("GPIO_QUAL_ASYNC")
   11453                      .dwattr $C$DW$861, DW_AT_const_value(0x03)
   11454                      .dwattr $C$DW$861, DW_AT_decl_file("C:/ti/C2000Ware_MotorControl_SDK_5_04_00_00/c2000ware/driverlib/f
   11455                      .dwattr $C$DW$861, DW_AT_decl_line(0x9b)
   11456                      .dwattr $C$DW$861, DW_AT_decl_column(0x05)
   11457              
   11458                      .dwattr $C$DW$T$126, DW_AT_decl_file("C:/ti/C2000Ware_MotorControl_SDK_5_04_00_00/c2000ware/driverlib
   11459                      .dwattr $C$DW$T$126, DW_AT_decl_line(0x97)
   11460                      .dwattr $C$DW$T$126, DW_AT_decl_column(0x01)
   11461                      .dwendtag $C$DW$T$126
   11462              
   11463                      .dwendtag $C$DW$TU$126
   11464              
   11465              
   11466              $C$DW$TU$127    .dwtag  DW_TAG_type_unit
   11467                      .dwmtype  $C$DW$T$127
   11468              $C$DW$T$127     .dwtag  DW_TAG_typedef
   11469                      .dwattr $C$DW$T$127, DW_AT_name("GPIO_QualificationMode")
   11470                      .dwattr $C$DW$T$127, DW_AT_type(*$C$DW$T$126)
   11471                      .dwattr $C$DW$T$127, DW_AT_decl_file("C:/ti/C2000Ware_MotorControl_SDK_5_04_00_00/c2000ware/driverlib
   11472                      .dwattr $C$DW$T$127, DW_AT_decl_line(0x9c)
   11473                      .dwattr $C$DW$T$127, DW_AT_decl_column(0x03)
   11474              
   11475                      .dwendtag $C$DW$TU$127
   11476              
   11477              
   11478              $C$DW$TU$19     .dwtag  DW_TAG_type_unit
   11479                      .dwmtype  $C$DW$T$19
   11480              
   11481              $C$DW$T$19      .dwtag  DW_TAG_structure_type
   11482                      .dwattr $C$DW$T$19, DW_AT_byte_size(0x04)
   11483              $C$DW$862       .dwtag  DW_TAG_member
   11484                      .dwattr $C$DW$862, DW_AT_type(*$C$DW$T$12)
   11485                      .dwattr $C$DW$862, DW_AT_name("quot")
   11486                      .dwattr $C$DW$862, DW_AT_accessibility(DW_ACCESS_public)
   11487                      .dwattr $C$DW$862, DW_AT_decl_file("C:/ti/ccs2031/ccs/tools/compiler/ti-cgt-c2000_22.6.2.LTS/include/
   11488                      .dwattr $C$DW$862, DW_AT_decl_line(0x59)
   11489                      .dwattr $C$DW$862, DW_AT_decl_column(0x17)
   11490              
   11491              $C$DW$863       .dwtag  DW_TAG_member
   11492                      .dwattr $C$DW$863, DW_AT_type(*$C$DW$T$12)
   11493                      .dwattr $C$DW$863, DW_AT_name("rem")
   11494                      .dwattr $C$DW$863, DW_AT_data_member_location[DW_OP_plus_uconst 0x2]
   11495                      .dwattr $C$DW$863, DW_AT_accessibility(DW_ACCESS_public)
   11496                      .dwattr $C$DW$863, DW_AT_decl_file("C:/ti/ccs2031/ccs/tools/compiler/ti-cgt-c2000_22.6.2.LTS/include/
   11497                      .dwattr $C$DW$863, DW_AT_decl_line(0x59)
   11498                      .dwattr $C$DW$863, DW_AT_decl_column(0x1d)
   11499              
   11500                      .dwattr $C$DW$T$19, DW_AT_decl_file("C:/ti/ccs2031/ccs/tools/compiler/ti-cgt-c2000_22.6.2.LTS/include
   11501                      .dwattr $C$DW$T$19, DW_AT_decl_line(0x59)
   11502                      .dwattr $C$DW$T$19, DW_AT_decl_column(0x10)
   11503                      .dwendtag $C$DW$T$19
   11504              
TMS320C2000 Assembler PC v22.6.2 Wed Dec 10 14:45:02 2025

Copyright (c) 1996-2018 Texas Instruments Incorporated
dual_axis_servo_drive_hal.asm                                        PAGE  223

   11505                      .dwendtag $C$DW$TU$19
   11506              
   11507              
   11508              $C$DW$TU$129    .dwtag  DW_TAG_type_unit
   11509                      .dwmtype  $C$DW$T$129
   11510              $C$DW$T$129     .dwtag  DW_TAG_typedef
   11511                      .dwattr $C$DW$T$129, DW_AT_name("ldiv_t")
   11512                      .dwattr $C$DW$T$129, DW_AT_type(*$C$DW$T$19)
   11513                      .dwattr $C$DW$T$129, DW_AT_decl_file("C:/ti/ccs2031/ccs/tools/compiler/ti-cgt-c2000_22.6.2.LTS/includ
   11514                      .dwattr $C$DW$T$129, DW_AT_decl_line(0x59)
   11515                      .dwattr $C$DW$T$129, DW_AT_decl_column(0x24)
   11516              
   11517                      .dwendtag $C$DW$TU$129
   11518              
   11519              
   11520              $C$DW$TU$20     .dwtag  DW_TAG_type_unit
   11521                      .dwmtype  $C$DW$T$20
   11522              
   11523              $C$DW$T$20      .dwtag  DW_TAG_structure_type
   11524                      .dwattr $C$DW$T$20, DW_AT_byte_size(0x08)
   11525              $C$DW$864       .dwtag  DW_TAG_member
   11526                      .dwattr $C$DW$864, DW_AT_type(*$C$DW$T$14)
   11527                      .dwattr $C$DW$864, DW_AT_name("quot")
   11528                      .dwattr $C$DW$864, DW_AT_accessibility(DW_ACCESS_public)
   11529                      .dwattr $C$DW$864, DW_AT_decl_file("C:/ti/ccs2031/ccs/tools/compiler/ti-cgt-c2000_22.6.2.LTS/include/
   11530                      .dwattr $C$DW$864, DW_AT_decl_line(0x63)
   11531                      .dwattr $C$DW$864, DW_AT_decl_column(0x1c)
   11532              
   11533              $C$DW$865       .dwtag  DW_TAG_member
   11534                      .dwattr $C$DW$865, DW_AT_type(*$C$DW$T$14)
   11535                      .dwattr $C$DW$865, DW_AT_name("rem")
   11536                      .dwattr $C$DW$865, DW_AT_data_member_location[DW_OP_plus_uconst 0x4]
   11537                      .dwattr $C$DW$865, DW_AT_accessibility(DW_ACCESS_public)
   11538                      .dwattr $C$DW$865, DW_AT_decl_file("C:/ti/ccs2031/ccs/tools/compiler/ti-cgt-c2000_22.6.2.LTS/include/
   11539                      .dwattr $C$DW$865, DW_AT_decl_line(0x63)
   11540                      .dwattr $C$DW$865, DW_AT_decl_column(0x22)
   11541              
   11542                      .dwattr $C$DW$T$20, DW_AT_decl_file("C:/ti/ccs2031/ccs/tools/compiler/ti-cgt-c2000_22.6.2.LTS/include
   11543                      .dwattr $C$DW$T$20, DW_AT_decl_line(0x63)
   11544                      .dwattr $C$DW$T$20, DW_AT_decl_column(0x10)
   11545                      .dwendtag $C$DW$T$20
   11546              
   11547                      .dwendtag $C$DW$TU$20
   11548              
   11549              
   11550              $C$DW$TU$132    .dwtag  DW_TAG_type_unit
   11551                      .dwmtype  $C$DW$T$132
   11552              $C$DW$T$132     .dwtag  DW_TAG_typedef
   11553                      .dwattr $C$DW$T$132, DW_AT_name("lldiv_t")
   11554                      .dwattr $C$DW$T$132, DW_AT_type(*$C$DW$T$20)
   11555                      .dwattr $C$DW$T$132, DW_AT_decl_file("C:/ti/ccs2031/ccs/tools/compiler/ti-cgt-c2000_22.6.2.LTS/includ
   11556                      .dwattr $C$DW$T$132, DW_AT_decl_line(0x63)
   11557                      .dwattr $C$DW$T$132, DW_AT_decl_column(0x29)
   11558              
   11559                      .dwendtag $C$DW$TU$132
TMS320C2000 Assembler PC v22.6.2 Wed Dec 10 14:45:02 2025

Copyright (c) 1996-2018 Texas Instruments Incorporated
dual_axis_servo_drive_hal.asm                                        PAGE  224

   11560              
   11561              
   11562              $C$DW$TU$22     .dwtag  DW_TAG_type_unit
   11563                      .dwmtype  $C$DW$T$22
   11564              
   11565              $C$DW$T$22      .dwtag  DW_TAG_structure_type
   11566                      .dwattr $C$DW$T$22, DW_AT_name("_Complex_double")
   11567                      .dwattr $C$DW$T$22, DW_AT_byte_size(0x08)
   11568              $C$DW$866       .dwtag  DW_TAG_member
   11569                      .dwattr $C$DW$866, DW_AT_type(*$C$DW$T$21)
   11570                      .dwattr $C$DW$866, DW_AT_name("_Vals")
   11571                      .dwattr $C$DW$866, DW_AT_accessibility(DW_ACCESS_public)
   11572                      .dwattr $C$DW$866, DW_AT_decl_file("C:/ti/ccs2031/ccs/tools/compiler/ti-cgt-c2000_22.6.2.LTS/include/
   11573                      .dwattr $C$DW$866, DW_AT_decl_line(0x13b)
   11574                      .dwattr $C$DW$866, DW_AT_decl_column(0x10)
   11575              
   11576                      .dwendtag $C$DW$T$22
   11577              
   11578                      .dwendtag $C$DW$TU$22
   11579              
   11580              
   11581              $C$DW$TU$134    .dwtag  DW_TAG_type_unit
   11582                      .dwmtype  $C$DW$T$134
   11583              $C$DW$T$134     .dwtag  DW_TAG_typedef
   11584                      .dwattr $C$DW$T$134, DW_AT_name("_Complex_double")
   11585                      .dwattr $C$DW$T$134, DW_AT_type(*$C$DW$T$22)
   11586                      .dwattr $C$DW$T$134, DW_AT_decl_file("C:/ti/ccs2031/ccs/tools/compiler/ti-cgt-c2000_22.6.2.LTS/includ
   11587                      .dwattr $C$DW$T$134, DW_AT_decl_line(0x13b)
   11588                      .dwattr $C$DW$T$134, DW_AT_decl_column(0x10)
   11589              
   11590                      .dwendtag $C$DW$TU$134
   11591              
   11592              
   11593              $C$DW$TU$24     .dwtag  DW_TAG_type_unit
   11594                      .dwmtype  $C$DW$T$24
   11595              
   11596              $C$DW$T$24      .dwtag  DW_TAG_structure_type
   11597                      .dwattr $C$DW$T$24, DW_AT_name("_Complex_float")
   11598                      .dwattr $C$DW$T$24, DW_AT_byte_size(0x04)
   11599              $C$DW$867       .dwtag  DW_TAG_member
   11600                      .dwattr $C$DW$867, DW_AT_type(*$C$DW$T$23)
   11601                      .dwattr $C$DW$867, DW_AT_name("_Vals")
   11602                      .dwattr $C$DW$867, DW_AT_accessibility(DW_ACCESS_public)
   11603                      .dwattr $C$DW$867, DW_AT_decl_file("C:/ti/ccs2031/ccs/tools/compiler/ti-cgt-c2000_22.6.2.LTS/include/
   11604                      .dwattr $C$DW$867, DW_AT_decl_line(0x13b)
   11605                      .dwattr $C$DW$867, DW_AT_decl_column(0x10)
   11606              
   11607                      .dwendtag $C$DW$T$24
   11608              
   11609                      .dwendtag $C$DW$TU$24
   11610              
   11611              
   11612              $C$DW$TU$135    .dwtag  DW_TAG_type_unit
   11613                      .dwmtype  $C$DW$T$135
   11614              $C$DW$T$135     .dwtag  DW_TAG_typedef
TMS320C2000 Assembler PC v22.6.2 Wed Dec 10 14:45:02 2025

Copyright (c) 1996-2018 Texas Instruments Incorporated
dual_axis_servo_drive_hal.asm                                        PAGE  225

   11615                      .dwattr $C$DW$T$135, DW_AT_name("_Complex_float")
   11616                      .dwattr $C$DW$T$135, DW_AT_type(*$C$DW$T$24)
   11617                      .dwattr $C$DW$T$135, DW_AT_decl_file("C:/ti/ccs2031/ccs/tools/compiler/ti-cgt-c2000_22.6.2.LTS/includ
   11618                      .dwattr $C$DW$T$135, DW_AT_decl_line(0x13b)
   11619                      .dwattr $C$DW$T$135, DW_AT_decl_column(0x10)
   11620              
   11621                      .dwendtag $C$DW$TU$135
   11622              
   11623              
   11624              $C$DW$TU$26     .dwtag  DW_TAG_type_unit
   11625                      .dwmtype  $C$DW$T$26
   11626              
   11627              $C$DW$T$26      .dwtag  DW_TAG_structure_type
   11628                      .dwattr $C$DW$T$26, DW_AT_name("_Complex_long_double")
   11629                      .dwattr $C$DW$T$26, DW_AT_byte_size(0x08)
   11630              $C$DW$868       .dwtag  DW_TAG_member
   11631                      .dwattr $C$DW$868, DW_AT_type(*$C$DW$T$25)
   11632                      .dwattr $C$DW$868, DW_AT_name("_Vals")
   11633                      .dwattr $C$DW$868, DW_AT_accessibility(DW_ACCESS_public)
   11634                      .dwattr $C$DW$868, DW_AT_decl_file("C:/ti/ccs2031/ccs/tools/compiler/ti-cgt-c2000_22.6.2.LTS/include/
   11635                      .dwattr $C$DW$868, DW_AT_decl_line(0x13b)
   11636                      .dwattr $C$DW$868, DW_AT_decl_column(0x10)
   11637              
   11638                      .dwendtag $C$DW$T$26
   11639              
   11640                      .dwendtag $C$DW$TU$26
   11641              
   11642              
   11643              $C$DW$TU$137    .dwtag  DW_TAG_type_unit
   11644                      .dwmtype  $C$DW$T$137
   11645              $C$DW$T$137     .dwtag  DW_TAG_typedef
   11646                      .dwattr $C$DW$T$137, DW_AT_name("_Complex_long_double")
   11647                      .dwattr $C$DW$T$137, DW_AT_type(*$C$DW$T$26)
   11648                      .dwattr $C$DW$T$137, DW_AT_decl_file("C:/ti/ccs2031/ccs/tools/compiler/ti-cgt-c2000_22.6.2.LTS/includ
   11649                      .dwattr $C$DW$T$137, DW_AT_decl_line(0x13b)
   11650                      .dwattr $C$DW$T$137, DW_AT_decl_column(0x10)
   11651              
   11652                      .dwendtag $C$DW$TU$137
   11653              
   11654              
   11655              $C$DW$TU$33     .dwtag  DW_TAG_type_unit
   11656                      .dwmtype  $C$DW$T$33
   11657              
   11658              $C$DW$T$33      .dwtag  DW_TAG_structure_type
   11659                      .dwattr $C$DW$T$33, DW_AT_name("_HAL_MTR_Obj_")
   11660                      .dwattr $C$DW$T$33, DW_AT_byte_size(0x12)
   11661              $C$DW$869       .dwtag  DW_TAG_member
   11662                      .dwattr $C$DW$869, DW_AT_type(*$C$DW$T$29)
   11663                      .dwattr $C$DW$869, DW_AT_name("pwmHandle")
   11664                      .dwattr $C$DW$869, DW_AT_accessibility(DW_ACCESS_public)
   11665                      .dwattr $C$DW$869, DW_AT_decl_file("C:/ti/C2000Ware_MotorControl_SDK_5_04_00_00/solutions/boostxl_3ph
   11666                      .dwattr $C$DW$869, DW_AT_decl_line(0xb0)
   11667                      .dwattr $C$DW$869, DW_AT_decl_column(0x11)
   11668              
   11669              $C$DW$870       .dwtag  DW_TAG_member
TMS320C2000 Assembler PC v22.6.2 Wed Dec 10 14:45:02 2025

Copyright (c) 1996-2018 Texas Instruments Incorporated
dual_axis_servo_drive_hal.asm                                        PAGE  226

   11670                      .dwattr $C$DW$870, DW_AT_type(*$C$DW$T$29)
   11671                      .dwattr $C$DW$870, DW_AT_name("cmpssHandle")
   11672                      .dwattr $C$DW$870, DW_AT_data_member_location[DW_OP_plus_uconst 0x6]
   11673                      .dwattr $C$DW$870, DW_AT_accessibility(DW_ACCESS_public)
   11674                      .dwattr $C$DW$870, DW_AT_decl_file("C:/ti/C2000Ware_MotorControl_SDK_5_04_00_00/solutions/boostxl_3ph
   11675                      .dwattr $C$DW$870, DW_AT_decl_line(0xb2)
   11676                      .dwattr $C$DW$870, DW_AT_decl_column(0x11)
   11677              
   11678              $C$DW$871       .dwtag  DW_TAG_member
   11679                      .dwattr $C$DW$871, DW_AT_type(*$C$DW$T$28)
   11680                      .dwattr $C$DW$871, DW_AT_name("spiHandle")
   11681                      .dwattr $C$DW$871, DW_AT_data_member_location[DW_OP_plus_uconst 0xc]
   11682                      .dwattr $C$DW$871, DW_AT_accessibility(DW_ACCESS_public)
   11683                      .dwattr $C$DW$871, DW_AT_decl_file("C:/ti/C2000Ware_MotorControl_SDK_5_04_00_00/solutions/boostxl_3ph
   11684                      .dwattr $C$DW$871, DW_AT_decl_line(0xb4)
   11685                      .dwattr $C$DW$871, DW_AT_decl_column(0x11)
   11686              
   11687              $C$DW$872       .dwtag  DW_TAG_member
   11688                      .dwattr $C$DW$872, DW_AT_type(*$C$DW$T$28)
   11689                      .dwattr $C$DW$872, DW_AT_name("qepHandle")
   11690                      .dwattr $C$DW$872, DW_AT_data_member_location[DW_OP_plus_uconst 0xe]
   11691                      .dwattr $C$DW$872, DW_AT_accessibility(DW_ACCESS_public)
   11692                      .dwattr $C$DW$872, DW_AT_decl_file("C:/ti/C2000Ware_MotorControl_SDK_5_04_00_00/solutions/boostxl_3ph
   11693                      .dwattr $C$DW$872, DW_AT_decl_line(0xb6)
   11694                      .dwattr $C$DW$872, DW_AT_decl_column(0x11)
   11695              
   11696              $C$DW$873       .dwtag  DW_TAG_member
   11697                      .dwattr $C$DW$873, DW_AT_type(*$C$DW$T$31)
   11698                      .dwattr $C$DW$873, DW_AT_name("motorNum")
   11699                      .dwattr $C$DW$873, DW_AT_data_member_location[DW_OP_plus_uconst 0x10]
   11700                      .dwattr $C$DW$873, DW_AT_accessibility(DW_ACCESS_public)
   11701                      .dwattr $C$DW$873, DW_AT_decl_file("C:/ti/C2000Ware_MotorControl_SDK_5_04_00_00/solutions/boostxl_3ph
   11702                      .dwattr $C$DW$873, DW_AT_decl_line(0xb8)
   11703                      .dwattr $C$DW$873, DW_AT_decl_column(0x11)
   11704              
   11705              $C$DW$874       .dwtag  DW_TAG_member
   11706                      .dwattr $C$DW$874, DW_AT_type(*$C$DW$T$32)
   11707                      .dwattr $C$DW$874, DW_AT_name("flagEnablePWM")
   11708                      .dwattr $C$DW$874, DW_AT_data_member_location[DW_OP_plus_uconst 0x11]
   11709                      .dwattr $C$DW$874, DW_AT_accessibility(DW_ACCESS_public)
   11710                      .dwattr $C$DW$874, DW_AT_decl_file("C:/ti/C2000Ware_MotorControl_SDK_5_04_00_00/solutions/boostxl_3ph
   11711                      .dwattr $C$DW$874, DW_AT_decl_line(0xba)
   11712                      .dwattr $C$DW$874, DW_AT_decl_column(0x11)
   11713              
   11714                      .dwattr $C$DW$T$33, DW_AT_decl_file("C:/ti/C2000Ware_MotorControl_SDK_5_04_00_00/solutions/boostxl_3p
   11715                      .dwattr $C$DW$T$33, DW_AT_decl_line(0xae)
   11716                      .dwattr $C$DW$T$33, DW_AT_decl_column(0x10)
   11717                      .dwendtag $C$DW$T$33
   11718              
   11719                      .dwendtag $C$DW$TU$33
   11720              
   11721              
   11722              $C$DW$TU$138    .dwtag  DW_TAG_type_unit
   11723                      .dwmtype  $C$DW$T$138
   11724              $C$DW$T$138     .dwtag  DW_TAG_typedef
TMS320C2000 Assembler PC v22.6.2 Wed Dec 10 14:45:02 2025

Copyright (c) 1996-2018 Texas Instruments Incorporated
dual_axis_servo_drive_hal.asm                                        PAGE  227

   11725                      .dwattr $C$DW$T$138, DW_AT_name("HAL_MTR_Obj")
   11726                      .dwattr $C$DW$T$138, DW_AT_type(*$C$DW$T$33)
   11727                      .dwattr $C$DW$T$138, DW_AT_decl_file("C:/ti/C2000Ware_MotorControl_SDK_5_04_00_00/solutions/boostxl_3
   11728                      .dwattr $C$DW$T$138, DW_AT_decl_line(0xbb)
   11729                      .dwattr $C$DW$T$138, DW_AT_decl_column(0x03)
   11730              
   11731                      .dwendtag $C$DW$TU$138
   11732              
   11733              
   11734              $C$DW$TU$139    .dwtag  DW_TAG_type_unit
   11735                      .dwmtype  $C$DW$T$139
   11736              
   11737              $C$DW$T$139     .dwtag  DW_TAG_array_type
   11738                      .dwattr $C$DW$T$139, DW_AT_type(*$C$DW$T$138)
   11739                      .dwattr $C$DW$T$139, DW_AT_byte_size(0x24)
   11740              $C$DW$875       .dwtag  DW_TAG_subrange_type
   11741                      .dwattr $C$DW$875, DW_AT_upper_bound(0x01)
   11742              
   11743                      .dwendtag $C$DW$T$139
   11744              
   11745                      .dwendtag $C$DW$TU$139
   11746              
   11747              
   11748              $C$DW$TU$140    .dwtag  DW_TAG_type_unit
   11749                      .dwmtype  $C$DW$T$140
   11750              $C$DW$T$140     .dwtag  DW_TAG_pointer_type
   11751                      .dwattr $C$DW$T$140, DW_AT_type(*$C$DW$T$138)
   11752                      .dwattr $C$DW$T$140, DW_AT_address_class(0x20)
   11753              
   11754                      .dwendtag $C$DW$TU$140
   11755              
   11756              
   11757              $C$DW$TU$141    .dwtag  DW_TAG_type_unit
   11758                      .dwmtype  $C$DW$T$141
   11759              $C$DW$T$141     .dwtag  DW_TAG_pointer_type
   11760                      .dwattr $C$DW$T$141, DW_AT_type(*$C$DW$T$33)
   11761                      .dwattr $C$DW$T$141, DW_AT_address_class(0x20)
   11762              
   11763                      .dwendtag $C$DW$TU$141
   11764              
   11765              
   11766              $C$DW$TU$142    .dwtag  DW_TAG_type_unit
   11767                      .dwmtype  $C$DW$T$142
   11768              $C$DW$T$142     .dwtag  DW_TAG_typedef
   11769                      .dwattr $C$DW$T$142, DW_AT_name("HAL_MTR_Handle")
   11770                      .dwattr $C$DW$T$142, DW_AT_type(*$C$DW$T$141)
   11771                      .dwattr $C$DW$T$142, DW_AT_decl_file("C:/ti/C2000Ware_MotorControl_SDK_5_04_00_00/solutions/boostxl_3
   11772                      .dwattr $C$DW$T$142, DW_AT_decl_line(0xc2)
   11773                      .dwattr $C$DW$T$142, DW_AT_decl_column(0x1f)
   11774              
   11775                      .dwendtag $C$DW$TU$142
   11776              
   11777              
   11778              $C$DW$TU$143    .dwtag  DW_TAG_type_unit
   11779                      .dwmtype  $C$DW$T$143
TMS320C2000 Assembler PC v22.6.2 Wed Dec 10 14:45:02 2025

Copyright (c) 1996-2018 Texas Instruments Incorporated
dual_axis_servo_drive_hal.asm                                        PAGE  228

   11780              $C$DW$876       .dwtag  DW_TAG_TI_far_type
   11781                      .dwattr $C$DW$876, DW_AT_type(*$C$DW$T$142)
   11782              
   11783              $C$DW$T$143     .dwtag  DW_TAG_const_type
   11784                      .dwattr $C$DW$T$143, DW_AT_type(*$C$DW$876)
   11785              
   11786                      .dwendtag $C$DW$TU$143
   11787              
   11788              
   11789              $C$DW$TU$35     .dwtag  DW_TAG_type_unit
   11790                      .dwmtype  $C$DW$T$35
   11791              
   11792              $C$DW$T$35      .dwtag  DW_TAG_structure_type
   11793                      .dwattr $C$DW$T$35, DW_AT_name("_HAL_Obj_")
   11794                      .dwattr $C$DW$T$35, DW_AT_byte_size(0x12)
   11795              $C$DW$877       .dwtag  DW_TAG_member
   11796                      .dwattr $C$DW$877, DW_AT_type(*$C$DW$T$29)
   11797                      .dwattr $C$DW$877, DW_AT_name("timerHandle")
   11798                      .dwattr $C$DW$877, DW_AT_accessibility(DW_ACCESS_public)
   11799                      .dwattr $C$DW$877, DW_AT_decl_file("C:/ti/C2000Ware_MotorControl_SDK_5_04_00_00/solutions/boostxl_3ph
   11800                      .dwattr $C$DW$877, DW_AT_decl_line(0x9b)
   11801                      .dwattr $C$DW$877, DW_AT_decl_column(0x11)
   11802              
   11803              $C$DW$878       .dwtag  DW_TAG_member
   11804                      .dwattr $C$DW$878, DW_AT_type(*$C$DW$T$34)
   11805                      .dwattr $C$DW$878, DW_AT_name("sciHandle")
   11806                      .dwattr $C$DW$878, DW_AT_data_member_location[DW_OP_plus_uconst 0x6]
   11807                      .dwattr $C$DW$878, DW_AT_accessibility(DW_ACCESS_public)
   11808                      .dwattr $C$DW$878, DW_AT_decl_file("C:/ti/C2000Ware_MotorControl_SDK_5_04_00_00/solutions/boostxl_3ph
   11809                      .dwattr $C$DW$878, DW_AT_decl_line(0x9d)
   11810                      .dwattr $C$DW$878, DW_AT_decl_column(0x11)
   11811              
   11812              $C$DW$879       .dwtag  DW_TAG_member
   11813                      .dwattr $C$DW$879, DW_AT_type(*$C$DW$T$34)
   11814                      .dwattr $C$DW$879, DW_AT_name("adcHandle")
   11815                      .dwattr $C$DW$879, DW_AT_data_member_location[DW_OP_plus_uconst 0xa]
   11816                      .dwattr $C$DW$879, DW_AT_accessibility(DW_ACCESS_public)
   11817                      .dwattr $C$DW$879, DW_AT_decl_file("C:/ti/C2000Ware_MotorControl_SDK_5_04_00_00/solutions/boostxl_3ph
   11818                      .dwattr $C$DW$879, DW_AT_decl_line(0x9f)
   11819                      .dwattr $C$DW$879, DW_AT_decl_column(0x11)
   11820              
   11821              $C$DW$880       .dwtag  DW_TAG_member
   11822                      .dwattr $C$DW$880, DW_AT_type(*$C$DW$T$34)
   11823                      .dwattr $C$DW$880, DW_AT_name("adcResult")
   11824                      .dwattr $C$DW$880, DW_AT_data_member_location[DW_OP_plus_uconst 0xe]
   11825                      .dwattr $C$DW$880, DW_AT_accessibility(DW_ACCESS_public)
   11826                      .dwattr $C$DW$880, DW_AT_decl_file("C:/ti/C2000Ware_MotorControl_SDK_5_04_00_00/solutions/boostxl_3ph
   11827                      .dwattr $C$DW$880, DW_AT_decl_line(0xa0)
   11828                      .dwattr $C$DW$880, DW_AT_decl_column(0x11)
   11829              
   11830                      .dwattr $C$DW$T$35, DW_AT_decl_file("C:/ti/C2000Ware_MotorControl_SDK_5_04_00_00/solutions/boostxl_3p
   11831                      .dwattr $C$DW$T$35, DW_AT_decl_line(0x99)
   11832                      .dwattr $C$DW$T$35, DW_AT_decl_column(0x10)
   11833                      .dwendtag $C$DW$T$35
   11834              
TMS320C2000 Assembler PC v22.6.2 Wed Dec 10 14:45:02 2025

Copyright (c) 1996-2018 Texas Instruments Incorporated
dual_axis_servo_drive_hal.asm                                        PAGE  229

   11835                      .dwendtag $C$DW$TU$35
   11836              
   11837              
   11838              $C$DW$TU$150    .dwtag  DW_TAG_type_unit
   11839                      .dwmtype  $C$DW$T$150
   11840              $C$DW$T$150     .dwtag  DW_TAG_typedef
   11841                      .dwattr $C$DW$T$150, DW_AT_name("HAL_Obj")
   11842                      .dwattr $C$DW$T$150, DW_AT_type(*$C$DW$T$35)
   11843                      .dwattr $C$DW$T$150, DW_AT_decl_file("C:/ti/C2000Ware_MotorControl_SDK_5_04_00_00/solutions/boostxl_3
   11844                      .dwattr $C$DW$T$150, DW_AT_decl_line(0xa1)
   11845                      .dwattr $C$DW$T$150, DW_AT_decl_column(0x03)
   11846              
   11847                      .dwendtag $C$DW$TU$150
   11848              
   11849              
   11850              $C$DW$TU$151    .dwtag  DW_TAG_type_unit
   11851                      .dwmtype  $C$DW$T$151
   11852              $C$DW$T$151     .dwtag  DW_TAG_pointer_type
   11853                      .dwattr $C$DW$T$151, DW_AT_type(*$C$DW$T$35)
   11854                      .dwattr $C$DW$T$151, DW_AT_address_class(0x20)
   11855              
   11856                      .dwendtag $C$DW$TU$151
   11857              
   11858              
   11859              $C$DW$TU$152    .dwtag  DW_TAG_type_unit
   11860                      .dwmtype  $C$DW$T$152
   11861              $C$DW$T$152     .dwtag  DW_TAG_typedef
   11862                      .dwattr $C$DW$T$152, DW_AT_name("HAL_Handle")
   11863                      .dwattr $C$DW$T$152, DW_AT_type(*$C$DW$T$151)
   11864                      .dwattr $C$DW$T$152, DW_AT_decl_file("C:/ti/C2000Ware_MotorControl_SDK_5_04_00_00/solutions/boostxl_3
   11865                      .dwattr $C$DW$T$152, DW_AT_decl_line(0xa8)
   11866                      .dwattr $C$DW$T$152, DW_AT_decl_column(0x1b)
   11867              
   11868                      .dwendtag $C$DW$TU$152
   11869              
   11870              
   11871              $C$DW$TU$153    .dwtag  DW_TAG_type_unit
   11872                      .dwmtype  $C$DW$T$153
   11873              $C$DW$881       .dwtag  DW_TAG_TI_far_type
   11874                      .dwattr $C$DW$881, DW_AT_type(*$C$DW$T$152)
   11875              
   11876              $C$DW$T$153     .dwtag  DW_TAG_const_type
   11877                      .dwattr $C$DW$T$153, DW_AT_type(*$C$DW$881)
   11878              
   11879                      .dwendtag $C$DW$TU$153
   11880              
   11881              
   11882              $C$DW$TU$2      .dwtag  DW_TAG_type_unit
   11883                      .dwmtype  $C$DW$T$2
   11884              $C$DW$T$2       .dwtag  DW_TAG_unspecified_type
   11885                      .dwattr $C$DW$T$2, DW_AT_name("void")
   11886              
   11887                      .dwendtag $C$DW$TU$2
   11888              
   11889              
TMS320C2000 Assembler PC v22.6.2 Wed Dec 10 14:45:02 2025

Copyright (c) 1996-2018 Texas Instruments Incorporated
dual_axis_servo_drive_hal.asm                                        PAGE  230

   11890              $C$DW$TU$3      .dwtag  DW_TAG_type_unit
   11891                      .dwmtype  $C$DW$T$3
   11892              $C$DW$T$3       .dwtag  DW_TAG_pointer_type
   11893                      .dwattr $C$DW$T$3, DW_AT_type(*$C$DW$T$2)
   11894                      .dwattr $C$DW$T$3, DW_AT_address_class(0x20)
   11895              
   11896                      .dwendtag $C$DW$TU$3
   11897              
   11898              
   11899              $C$DW$TU$157    .dwtag  DW_TAG_type_unit
   11900                      .dwmtype  $C$DW$T$157
   11901              $C$DW$882       .dwtag  DW_TAG_TI_far_type
   11902                      .dwattr $C$DW$882, DW_AT_type(*$C$DW$T$3)
   11903              
   11904              $C$DW$T$157     .dwtag  DW_TAG_const_type
   11905                      .dwattr $C$DW$T$157, DW_AT_type(*$C$DW$882)
   11906              
   11907                      .dwendtag $C$DW$TU$157
   11908              
   11909              
   11910              $C$DW$TU$4      .dwtag  DW_TAG_type_unit
   11911                      .dwmtype  $C$DW$T$4
   11912              $C$DW$T$4       .dwtag  DW_TAG_base_type
   11913                      .dwattr $C$DW$T$4, DW_AT_encoding(DW_ATE_boolean)
   11914                      .dwattr $C$DW$T$4, DW_AT_name("bool")
   11915                      .dwattr $C$DW$T$4, DW_AT_byte_size(0x01)
   11916              
   11917                      .dwendtag $C$DW$TU$4
   11918              
   11919              
   11920              $C$DW$TU$5      .dwtag  DW_TAG_type_unit
   11921                      .dwmtype  $C$DW$T$5
   11922              $C$DW$T$5       .dwtag  DW_TAG_base_type
   11923                      .dwattr $C$DW$T$5, DW_AT_encoding(DW_ATE_signed_char)
   11924                      .dwattr $C$DW$T$5, DW_AT_name("signed char")
   11925                      .dwattr $C$DW$T$5, DW_AT_byte_size(0x01)
   11926              
   11927                      .dwendtag $C$DW$TU$5
   11928              
   11929              
   11930              $C$DW$TU$6      .dwtag  DW_TAG_type_unit
   11931                      .dwmtype  $C$DW$T$6
   11932              $C$DW$T$6       .dwtag  DW_TAG_base_type
   11933                      .dwattr $C$DW$T$6, DW_AT_encoding(DW_ATE_unsigned_char)
   11934                      .dwattr $C$DW$T$6, DW_AT_name("unsigned char")
   11935                      .dwattr $C$DW$T$6, DW_AT_byte_size(0x01)
   11936              
   11937                      .dwendtag $C$DW$TU$6
   11938              
   11939              
   11940              $C$DW$TU$7      .dwtag  DW_TAG_type_unit
   11941                      .dwmtype  $C$DW$T$7
   11942              $C$DW$T$7       .dwtag  DW_TAG_base_type
   11943                      .dwattr $C$DW$T$7, DW_AT_encoding(DW_ATE_signed_char)
   11944                      .dwattr $C$DW$T$7, DW_AT_name("wchar_t")
TMS320C2000 Assembler PC v22.6.2 Wed Dec 10 14:45:02 2025

Copyright (c) 1996-2018 Texas Instruments Incorporated
dual_axis_servo_drive_hal.asm                                        PAGE  231

   11945                      .dwattr $C$DW$T$7, DW_AT_byte_size(0x02)
   11946              
   11947                      .dwendtag $C$DW$TU$7
   11948              
   11949              
   11950              $C$DW$TU$8      .dwtag  DW_TAG_type_unit
   11951                      .dwmtype  $C$DW$T$8
   11952              $C$DW$T$8       .dwtag  DW_TAG_base_type
   11953                      .dwattr $C$DW$T$8, DW_AT_encoding(DW_ATE_signed)
   11954                      .dwattr $C$DW$T$8, DW_AT_name("short")
   11955                      .dwattr $C$DW$T$8, DW_AT_byte_size(0x01)
   11956              
   11957                      .dwendtag $C$DW$TU$8
   11958              
   11959              
   11960              $C$DW$TU$9      .dwtag  DW_TAG_type_unit
   11961                      .dwmtype  $C$DW$T$9
   11962              $C$DW$T$9       .dwtag  DW_TAG_base_type
   11963                      .dwattr $C$DW$T$9, DW_AT_encoding(DW_ATE_unsigned)
   11964                      .dwattr $C$DW$T$9, DW_AT_name("unsigned short")
   11965                      .dwattr $C$DW$T$9, DW_AT_byte_size(0x01)
   11966              
   11967                      .dwendtag $C$DW$TU$9
   11968              
   11969              
   11970              $C$DW$TU$10     .dwtag  DW_TAG_type_unit
   11971                      .dwmtype  $C$DW$T$10
   11972              $C$DW$T$10      .dwtag  DW_TAG_base_type
   11973                      .dwattr $C$DW$T$10, DW_AT_encoding(DW_ATE_signed)
   11974                      .dwattr $C$DW$T$10, DW_AT_name("int")
   11975                      .dwattr $C$DW$T$10, DW_AT_byte_size(0x01)
   11976              
   11977                      .dwendtag $C$DW$TU$10
   11978              
   11979              
   11980              $C$DW$TU$167    .dwtag  DW_TAG_type_unit
   11981                      .dwmtype  $C$DW$T$167
   11982              $C$DW$T$167     .dwtag  DW_TAG_typedef
   11983                      .dwattr $C$DW$T$167, DW_AT_name("__int16_t")
   11984                      .dwattr $C$DW$T$167, DW_AT_type(*$C$DW$T$10)
   11985                      .dwattr $C$DW$T$167, DW_AT_decl_file("C:/ti/ccs2031/ccs/tools/compiler/ti-cgt-c2000_22.6.2.LTS/includ
   11986                      .dwattr $C$DW$T$167, DW_AT_decl_line(0x40)
   11987                      .dwattr $C$DW$T$167, DW_AT_decl_column(0x1d)
   11988              
   11989                      .dwendtag $C$DW$TU$167
   11990              
   11991              
   11992              $C$DW$TU$168    .dwtag  DW_TAG_type_unit
   11993                      .dwmtype  $C$DW$T$168
   11994              $C$DW$T$168     .dwtag  DW_TAG_typedef
   11995                      .dwattr $C$DW$T$168, DW_AT_name("int16_t")
   11996                      .dwattr $C$DW$T$168, DW_AT_type(*$C$DW$T$167)
   11997                      .dwattr $C$DW$T$168, DW_AT_decl_file("C:/ti/ccs2031/ccs/tools/compiler/ti-cgt-c2000_22.6.2.LTS/includ
   11998                      .dwattr $C$DW$T$168, DW_AT_decl_line(0x2b)
   11999                      .dwattr $C$DW$T$168, DW_AT_decl_column(0x14)
TMS320C2000 Assembler PC v22.6.2 Wed Dec 10 14:45:02 2025

Copyright (c) 1996-2018 Texas Instruments Incorporated
dual_axis_servo_drive_hal.asm                                        PAGE  232

   12000              
   12001                      .dwendtag $C$DW$TU$168
   12002              
   12003              
   12004              $C$DW$TU$11     .dwtag  DW_TAG_type_unit
   12005                      .dwmtype  $C$DW$T$11
   12006              $C$DW$T$11      .dwtag  DW_TAG_base_type
   12007                      .dwattr $C$DW$T$11, DW_AT_encoding(DW_ATE_unsigned)
   12008                      .dwattr $C$DW$T$11, DW_AT_name("unsigned int")
   12009                      .dwattr $C$DW$T$11, DW_AT_byte_size(0x01)
   12010              
   12011                      .dwendtag $C$DW$TU$11
   12012              
   12013              
   12014              $C$DW$TU$171    .dwtag  DW_TAG_type_unit
   12015                      .dwmtype  $C$DW$T$171
   12016              $C$DW$T$171     .dwtag  DW_TAG_typedef
   12017                      .dwattr $C$DW$T$171, DW_AT_name("__uint16_t")
   12018                      .dwattr $C$DW$T$171, DW_AT_type(*$C$DW$T$11)
   12019                      .dwattr $C$DW$T$171, DW_AT_decl_file("C:/ti/ccs2031/ccs/tools/compiler/ti-cgt-c2000_22.6.2.LTS/includ
   12020                      .dwattr $C$DW$T$171, DW_AT_decl_line(0x41)
   12021                      .dwattr $C$DW$T$171, DW_AT_decl_column(0x1c)
   12022              
   12023                      .dwendtag $C$DW$TU$171
   12024              
   12025              
   12026              $C$DW$TU$172    .dwtag  DW_TAG_type_unit
   12027                      .dwmtype  $C$DW$T$172
   12028              $C$DW$T$172     .dwtag  DW_TAG_typedef
   12029                      .dwattr $C$DW$T$172, DW_AT_name("uint16_t")
   12030                      .dwattr $C$DW$T$172, DW_AT_type(*$C$DW$T$171)
   12031                      .dwattr $C$DW$T$172, DW_AT_decl_file("C:/ti/ccs2031/ccs/tools/compiler/ti-cgt-c2000_22.6.2.LTS/includ
   12032                      .dwattr $C$DW$T$172, DW_AT_decl_line(0x41)
   12033                      .dwattr $C$DW$T$172, DW_AT_decl_column(0x15)
   12034              
   12035                      .dwendtag $C$DW$TU$172
   12036              
   12037              
   12038              $C$DW$TU$233    .dwtag  DW_TAG_type_unit
   12039                      .dwmtype  $C$DW$T$233
   12040              $C$DW$883       .dwtag  DW_TAG_TI_far_type
   12041                      .dwattr $C$DW$883, DW_AT_type(*$C$DW$T$172)
   12042              
   12043              $C$DW$T$233     .dwtag  DW_TAG_const_type
   12044                      .dwattr $C$DW$T$233, DW_AT_type(*$C$DW$883)
   12045              
   12046                      .dwendtag $C$DW$TU$233
   12047              
   12048              
   12049              $C$DW$TU$12     .dwtag  DW_TAG_type_unit
   12050                      .dwmtype  $C$DW$T$12
   12051              $C$DW$T$12      .dwtag  DW_TAG_base_type
   12052                      .dwattr $C$DW$T$12, DW_AT_encoding(DW_ATE_signed)
   12053                      .dwattr $C$DW$T$12, DW_AT_name("long")
   12054                      .dwattr $C$DW$T$12, DW_AT_byte_size(0x02)
TMS320C2000 Assembler PC v22.6.2 Wed Dec 10 14:45:02 2025

Copyright (c) 1996-2018 Texas Instruments Incorporated
dual_axis_servo_drive_hal.asm                                        PAGE  233

   12055              
   12056                      .dwendtag $C$DW$TU$12
   12057              
   12058              
   12059              $C$DW$TU$234    .dwtag  DW_TAG_type_unit
   12060                      .dwmtype  $C$DW$T$234
   12061              $C$DW$884       .dwtag  DW_TAG_TI_far_type
   12062                      .dwattr $C$DW$884, DW_AT_type(*$C$DW$T$12)
   12063              
   12064              $C$DW$T$234     .dwtag  DW_TAG_const_type
   12065                      .dwattr $C$DW$T$234, DW_AT_type(*$C$DW$884)
   12066              
   12067                      .dwendtag $C$DW$TU$234
   12068              
   12069              
   12070              $C$DW$TU$13     .dwtag  DW_TAG_type_unit
   12071                      .dwmtype  $C$DW$T$13
   12072              $C$DW$T$13      .dwtag  DW_TAG_base_type
   12073                      .dwattr $C$DW$T$13, DW_AT_encoding(DW_ATE_unsigned)
   12074                      .dwattr $C$DW$T$13, DW_AT_name("unsigned long")
   12075                      .dwattr $C$DW$T$13, DW_AT_byte_size(0x02)
   12076              
   12077                      .dwendtag $C$DW$TU$13
   12078              
   12079              
   12080              $C$DW$TU$27     .dwtag  DW_TAG_type_unit
   12081                      .dwmtype  $C$DW$T$27
   12082              $C$DW$T$27      .dwtag  DW_TAG_typedef
   12083                      .dwattr $C$DW$T$27, DW_AT_name("__uint32_t")
   12084                      .dwattr $C$DW$T$27, DW_AT_type(*$C$DW$T$13)
   12085                      .dwattr $C$DW$T$27, DW_AT_decl_file("C:/ti/ccs2031/ccs/tools/compiler/ti-cgt-c2000_22.6.2.LTS/include
   12086                      .dwattr $C$DW$T$27, DW_AT_decl_line(0x43)
   12087                      .dwattr $C$DW$T$27, DW_AT_decl_column(0x1c)
   12088              
   12089                      .dwendtag $C$DW$TU$27
   12090              
   12091              
   12092              $C$DW$TU$28     .dwtag  DW_TAG_type_unit
   12093                      .dwmtype  $C$DW$T$28
   12094              $C$DW$T$28      .dwtag  DW_TAG_typedef
   12095                      .dwattr $C$DW$T$28, DW_AT_name("uint32_t")
   12096                      .dwattr $C$DW$T$28, DW_AT_type(*$C$DW$T$27)
   12097                      .dwattr $C$DW$T$28, DW_AT_decl_file("C:/ti/ccs2031/ccs/tools/compiler/ti-cgt-c2000_22.6.2.LTS/include
   12098                      .dwattr $C$DW$T$28, DW_AT_decl_line(0x46)
   12099                      .dwattr $C$DW$T$28, DW_AT_decl_column(0x15)
   12100              
   12101                      .dwendtag $C$DW$TU$28
   12102              
   12103              
   12104              $C$DW$TU$29     .dwtag  DW_TAG_type_unit
   12105                      .dwmtype  $C$DW$T$29
   12106              
   12107              $C$DW$T$29      .dwtag  DW_TAG_array_type
   12108                      .dwattr $C$DW$T$29, DW_AT_type(*$C$DW$T$28)
   12109                      .dwattr $C$DW$T$29, DW_AT_byte_size(0x06)
TMS320C2000 Assembler PC v22.6.2 Wed Dec 10 14:45:02 2025

Copyright (c) 1996-2018 Texas Instruments Incorporated
dual_axis_servo_drive_hal.asm                                        PAGE  234

   12110              $C$DW$885       .dwtag  DW_TAG_subrange_type
   12111                      .dwattr $C$DW$885, DW_AT_upper_bound(0x02)
   12112              
   12113                      .dwendtag $C$DW$T$29
   12114              
   12115                      .dwendtag $C$DW$TU$29
   12116              
   12117              
   12118              $C$DW$TU$34     .dwtag  DW_TAG_type_unit
   12119                      .dwmtype  $C$DW$T$34
   12120              
   12121              $C$DW$T$34      .dwtag  DW_TAG_array_type
   12122                      .dwattr $C$DW$T$34, DW_AT_type(*$C$DW$T$28)
   12123                      .dwattr $C$DW$T$34, DW_AT_byte_size(0x04)
   12124              $C$DW$886       .dwtag  DW_TAG_subrange_type
   12125                      .dwattr $C$DW$886, DW_AT_upper_bound(0x01)
   12126              
   12127                      .dwendtag $C$DW$T$34
   12128              
   12129                      .dwendtag $C$DW$TU$34
   12130              
   12131              
   12132              $C$DW$TU$240    .dwtag  DW_TAG_type_unit
   12133                      .dwmtype  $C$DW$T$240
   12134              $C$DW$887       .dwtag  DW_TAG_TI_far_type
   12135                      .dwattr $C$DW$887, DW_AT_type(*$C$DW$T$28)
   12136              
   12137              $C$DW$T$240     .dwtag  DW_TAG_const_type
   12138                      .dwattr $C$DW$T$240, DW_AT_type(*$C$DW$887)
   12139              
   12140                      .dwendtag $C$DW$TU$240
   12141              
   12142              
   12143              $C$DW$TU$144    .dwtag  DW_TAG_type_unit
   12144                      .dwmtype  $C$DW$T$144
   12145              $C$DW$T$144     .dwtag  DW_TAG_typedef
   12146                      .dwattr $C$DW$T$144, DW_AT_name("size_t")
   12147                      .dwattr $C$DW$T$144, DW_AT_type(*$C$DW$T$13)
   12148                      .dwattr $C$DW$T$144, DW_AT_decl_file("C:/ti/ccs2031/ccs/tools/compiler/ti-cgt-c2000_22.6.2.LTS/includ
   12149                      .dwattr $C$DW$T$144, DW_AT_decl_line(0x40)
   12150                      .dwattr $C$DW$T$144, DW_AT_decl_column(0x19)
   12151              
   12152                      .dwendtag $C$DW$TU$144
   12153              
   12154              
   12155              $C$DW$TU$145    .dwtag  DW_TAG_type_unit
   12156                      .dwmtype  $C$DW$T$145
   12157              $C$DW$888       .dwtag  DW_TAG_TI_far_type
   12158                      .dwattr $C$DW$888, DW_AT_type(*$C$DW$T$144)
   12159              
   12160              $C$DW$T$145     .dwtag  DW_TAG_const_type
   12161                      .dwattr $C$DW$T$145, DW_AT_type(*$C$DW$888)
   12162              
   12163                      .dwendtag $C$DW$TU$145
   12164              
TMS320C2000 Assembler PC v22.6.2 Wed Dec 10 14:45:02 2025

Copyright (c) 1996-2018 Texas Instruments Incorporated
dual_axis_servo_drive_hal.asm                                        PAGE  235

   12165              
   12166              $C$DW$TU$14     .dwtag  DW_TAG_type_unit
   12167                      .dwmtype  $C$DW$T$14
   12168              $C$DW$T$14      .dwtag  DW_TAG_base_type
   12169                      .dwattr $C$DW$T$14, DW_AT_encoding(DW_ATE_signed)
   12170                      .dwattr $C$DW$T$14, DW_AT_name("long long")
   12171                      .dwattr $C$DW$T$14, DW_AT_byte_size(0x04)
   12172              
   12173                      .dwendtag $C$DW$TU$14
   12174              
   12175              
   12176              $C$DW$TU$15     .dwtag  DW_TAG_type_unit
   12177                      .dwmtype  $C$DW$T$15
   12178              $C$DW$T$15      .dwtag  DW_TAG_base_type
   12179                      .dwattr $C$DW$T$15, DW_AT_encoding(DW_ATE_unsigned)
   12180                      .dwattr $C$DW$T$15, DW_AT_name("unsigned long long")
   12181                      .dwattr $C$DW$T$15, DW_AT_byte_size(0x04)
   12182              
   12183                      .dwendtag $C$DW$TU$15
   12184              
   12185              
   12186              $C$DW$TU$16     .dwtag  DW_TAG_type_unit
   12187                      .dwmtype  $C$DW$T$16
   12188              $C$DW$T$16      .dwtag  DW_TAG_base_type
   12189                      .dwattr $C$DW$T$16, DW_AT_encoding(DW_ATE_float)
   12190                      .dwattr $C$DW$T$16, DW_AT_name("float")
   12191                      .dwattr $C$DW$T$16, DW_AT_byte_size(0x02)
   12192              
   12193                      .dwendtag $C$DW$TU$16
   12194              
   12195              
   12196              $C$DW$TU$23     .dwtag  DW_TAG_type_unit
   12197                      .dwmtype  $C$DW$T$23
   12198              
   12199              $C$DW$T$23      .dwtag  DW_TAG_array_type
   12200                      .dwattr $C$DW$T$23, DW_AT_type(*$C$DW$T$16)
   12201                      .dwattr $C$DW$T$23, DW_AT_byte_size(0x04)
   12202              $C$DW$889       .dwtag  DW_TAG_subrange_type
   12203                      .dwattr $C$DW$889, DW_AT_upper_bound(0x01)
   12204              
   12205                      .dwendtag $C$DW$T$23
   12206              
   12207                      .dwendtag $C$DW$TU$23
   12208              
   12209              
   12210              $C$DW$TU$245    .dwtag  DW_TAG_type_unit
   12211                      .dwmtype  $C$DW$T$245
   12212              $C$DW$890       .dwtag  DW_TAG_TI_far_type
   12213                      .dwattr $C$DW$890, DW_AT_type(*$C$DW$T$16)
   12214              
   12215              $C$DW$T$245     .dwtag  DW_TAG_const_type
   12216                      .dwattr $C$DW$T$245, DW_AT_type(*$C$DW$890)
   12217              
   12218                      .dwendtag $C$DW$TU$245
   12219              
TMS320C2000 Assembler PC v22.6.2 Wed Dec 10 14:45:02 2025

Copyright (c) 1996-2018 Texas Instruments Incorporated
dual_axis_servo_drive_hal.asm                                        PAGE  236

   12220              
   12221              $C$DW$TU$17     .dwtag  DW_TAG_type_unit
   12222                      .dwmtype  $C$DW$T$17
   12223              $C$DW$T$17      .dwtag  DW_TAG_base_type
   12224                      .dwattr $C$DW$T$17, DW_AT_encoding(DW_ATE_float)
   12225                      .dwattr $C$DW$T$17, DW_AT_name("double")
   12226                      .dwattr $C$DW$T$17, DW_AT_byte_size(0x04)
   12227              
   12228                      .dwendtag $C$DW$TU$17
   12229              
   12230              
   12231              $C$DW$TU$21     .dwtag  DW_TAG_type_unit
   12232                      .dwmtype  $C$DW$T$21
   12233              
   12234              $C$DW$T$21      .dwtag  DW_TAG_array_type
   12235                      .dwattr $C$DW$T$21, DW_AT_type(*$C$DW$T$17)
   12236                      .dwattr $C$DW$T$21, DW_AT_byte_size(0x08)
   12237              $C$DW$891       .dwtag  DW_TAG_subrange_type
   12238                      .dwattr $C$DW$891, DW_AT_upper_bound(0x01)
   12239              
   12240                      .dwendtag $C$DW$T$21
   12241              
   12242                      .dwendtag $C$DW$TU$21
   12243              
   12244              
   12245              $C$DW$TU$246    .dwtag  DW_TAG_type_unit
   12246                      .dwmtype  $C$DW$T$246
   12247              $C$DW$T$246     .dwtag  DW_TAG_pointer_type
   12248                      .dwattr $C$DW$T$246, DW_AT_type(*$C$DW$T$17)
   12249                      .dwattr $C$DW$T$246, DW_AT_address_class(0x20)
   12250              
   12251                      .dwendtag $C$DW$TU$246
   12252              
   12253              
   12254              $C$DW$TU$247    .dwtag  DW_TAG_type_unit
   12255                      .dwmtype  $C$DW$T$247
   12256              $C$DW$892       .dwtag  DW_TAG_TI_far_type
   12257                      .dwattr $C$DW$892, DW_AT_type(*$C$DW$T$246)
   12258              
   12259              $C$DW$T$247     .dwtag  DW_TAG_const_type
   12260                      .dwattr $C$DW$T$247, DW_AT_type(*$C$DW$892)
   12261              
   12262                      .dwendtag $C$DW$TU$247
   12263              
   12264              
   12265              $C$DW$TU$18     .dwtag  DW_TAG_type_unit
   12266                      .dwmtype  $C$DW$T$18
   12267              $C$DW$T$18      .dwtag  DW_TAG_base_type
   12268                      .dwattr $C$DW$T$18, DW_AT_encoding(DW_ATE_float)
   12269                      .dwattr $C$DW$T$18, DW_AT_name("long double")
   12270                      .dwattr $C$DW$T$18, DW_AT_byte_size(0x04)
   12271              
   12272                      .dwendtag $C$DW$TU$18
   12273              
   12274              
TMS320C2000 Assembler PC v22.6.2 Wed Dec 10 14:45:02 2025

Copyright (c) 1996-2018 Texas Instruments Incorporated
dual_axis_servo_drive_hal.asm                                        PAGE  237

   12275              $C$DW$TU$25     .dwtag  DW_TAG_type_unit
   12276                      .dwmtype  $C$DW$T$25
   12277              
   12278              $C$DW$T$25      .dwtag  DW_TAG_array_type
   12279                      .dwattr $C$DW$T$25, DW_AT_type(*$C$DW$T$18)
   12280                      .dwattr $C$DW$T$25, DW_AT_byte_size(0x08)
   12281              $C$DW$893       .dwtag  DW_TAG_subrange_type
   12282                      .dwattr $C$DW$893, DW_AT_upper_bound(0x01)
   12283              
   12284                      .dwendtag $C$DW$T$25
   12285              
   12286                      .dwendtag $C$DW$TU$25
   12287              
   12288              
   12289              $C$DW$TU$249    .dwtag  DW_TAG_type_unit
   12290                      .dwmtype  $C$DW$T$249
   12291              $C$DW$T$249     .dwtag  DW_TAG_pointer_type
   12292                      .dwattr $C$DW$T$249, DW_AT_type(*$C$DW$T$18)
   12293                      .dwattr $C$DW$T$249, DW_AT_address_class(0x20)
   12294              
   12295                      .dwendtag $C$DW$TU$249
   12296              
   12297              
   12298              $C$DW$TU$250    .dwtag  DW_TAG_type_unit
   12299                      .dwmtype  $C$DW$T$250
   12300              $C$DW$894       .dwtag  DW_TAG_TI_far_type
   12301                      .dwattr $C$DW$894, DW_AT_type(*$C$DW$T$249)
   12302              
   12303              $C$DW$T$250     .dwtag  DW_TAG_const_type
   12304                      .dwattr $C$DW$T$250, DW_AT_type(*$C$DW$894)
   12305              
   12306                      .dwendtag $C$DW$TU$250
   12307              
   12308              
   12309              $C$DW$TU$32     .dwtag  DW_TAG_type_unit
   12310                      .dwmtype  $C$DW$T$32
   12311              $C$DW$T$32      .dwtag  DW_TAG_base_type
   12312                      .dwattr $C$DW$T$32, DW_AT_encoding(DW_ATE_unsigned_char)
   12313                      .dwattr $C$DW$T$32, DW_AT_name("unsigned char")
   12314                      .dwattr $C$DW$T$32, DW_AT_byte_size(0x01)
   12315              
   12316                      .dwendtag $C$DW$TU$32
   12317              

No Assembly Errors, No Assembly Warnings
