TMS320C2000 Assembler PC v22.6.2 Wed Dec 10 14:16:25 2025

Copyright (c) 1996-2018 Texas Instruments Incorporated
dual_axis_servo_drive_user_cpu.asm                                   PAGE    1

       1              ;***************************************************************
       2              ;* TMS320C2000 G3 C/C++ Codegen                               PC v22.6.2.LTS *
       3              ;* Date/Time created: Wed Dec 10 14:16:25 2025                 *
       4              ;***************************************************************
       5                      .compiler_opts --abi=eabi --diag_wrap=off --float_support=fpu32 --hll_source=on --idiv_support=idiv0 
       6                      .asg    XAR2, FP
       7              
       8              $C$DW$CU        .dwtag  DW_TAG_compile_unit
       9                      .dwattr $C$DW$CU, DW_AT_name("../sources/dual_axis_servo_drive_user_cpu.c")
      10                      .dwattr $C$DW$CU, DW_AT_producer("TI TMS320C2000 G3 C/C++ Codegen PC v22.6.2.LTS Copyright (c) 1996-2
      11                      .dwattr $C$DW$CU, DW_AT_TI_version(0x01)
      12                      .dwattr $C$DW$CU, DW_AT_comp_dir("C:\Users\Teddy\Documents\GitHub\2512_LAUNCHXL-F280025C\251210_LAUNC
      13              
      14              $C$DW$1 .dwtag  DW_TAG_subprogram
      15                      .dwattr $C$DW$1, DW_AT_name("FCL_initADC_2In")
      16                      .dwattr $C$DW$1, DW_AT_linkage_name("FCL_initADC_2In")
      17                      .dwattr $C$DW$1, DW_AT_declaration
      18                      .dwattr $C$DW$1, DW_AT_external
      19                      .dwattr $C$DW$1, DW_AT_decl_file("C:/ti/C2000Ware_MotorControl_SDK_5_04_00_00/libraries/fcl/include/f
      20                      .dwattr $C$DW$1, DW_AT_decl_line(0x123)
      21                      .dwattr $C$DW$1, DW_AT_decl_column(0x0d)
      22              $C$DW$2 .dwtag  DW_TAG_formal_parameter
      23                      .dwattr $C$DW$2, DW_AT_type(*$C$DW$T$138)
      24              
      25              $C$DW$3 .dwtag  DW_TAG_formal_parameter
      26                      .dwattr $C$DW$3, DW_AT_type(*$C$DW$T$24)
      27              
      28              $C$DW$4 .dwtag  DW_TAG_formal_parameter
      29                      .dwattr $C$DW$4, DW_AT_type(*$C$DW$T$146)
      30              
      31              $C$DW$5 .dwtag  DW_TAG_formal_parameter
      32                      .dwattr $C$DW$5, DW_AT_type(*$C$DW$T$107)
      33              
      34              $C$DW$6 .dwtag  DW_TAG_formal_parameter
      35                      .dwattr $C$DW$6, DW_AT_type(*$C$DW$T$146)
      36              
      37              $C$DW$7 .dwtag  DW_TAG_formal_parameter
      38                      .dwattr $C$DW$7, DW_AT_type(*$C$DW$T$107)
      39              
      40                      .dwendtag $C$DW$1
      41              
      42              
      43              $C$DW$8 .dwtag  DW_TAG_subprogram
      44                      .dwattr $C$DW$8, DW_AT_name("FCL_initPWM")
      45                      .dwattr $C$DW$8, DW_AT_linkage_name("FCL_initPWM")
      46                      .dwattr $C$DW$8, DW_AT_declaration
      47                      .dwattr $C$DW$8, DW_AT_external
      48                      .dwattr $C$DW$8, DW_AT_decl_file("C:/ti/C2000Ware_MotorControl_SDK_5_04_00_00/libraries/fcl/include/f
      49                      .dwattr $C$DW$8, DW_AT_decl_line(0x11c)
      50                      .dwattr $C$DW$8, DW_AT_decl_column(0x0d)
      51              $C$DW$9 .dwtag  DW_TAG_formal_parameter
      52                      .dwattr $C$DW$9, DW_AT_type(*$C$DW$T$138)
      53              
      54              $C$DW$10        .dwtag  DW_TAG_formal_parameter
      55                      .dwattr $C$DW$10, DW_AT_type(*$C$DW$T$146)
TMS320C2000 Assembler PC v22.6.2 Wed Dec 10 14:16:25 2025

Copyright (c) 1996-2018 Texas Instruments Incorporated
dual_axis_servo_drive_user_cpu.asm                                   PAGE    2

      56              
      57              $C$DW$11        .dwtag  DW_TAG_formal_parameter
      58                      .dwattr $C$DW$11, DW_AT_type(*$C$DW$T$146)
      59              
      60              $C$DW$12        .dwtag  DW_TAG_formal_parameter
      61                      .dwattr $C$DW$12, DW_AT_type(*$C$DW$T$146)
      62              
      63                      .dwendtag $C$DW$8
      64              
      65              
      66              $C$DW$13        .dwtag  DW_TAG_subprogram
      67                      .dwattr $C$DW$13, DW_AT_name("FCL_initQEP")
      68                      .dwattr $C$DW$13, DW_AT_linkage_name("FCL_initQEP")
      69                      .dwattr $C$DW$13, DW_AT_declaration
      70                      .dwattr $C$DW$13, DW_AT_external
      71                      .dwattr $C$DW$13, DW_AT_decl_file("C:/ti/C2000Ware_MotorControl_SDK_5_04_00_00/libraries/fcl/include/
      72                      .dwattr $C$DW$13, DW_AT_decl_line(0x121)
      73                      .dwattr $C$DW$13, DW_AT_decl_column(0x0d)
      74              $C$DW$14        .dwtag  DW_TAG_formal_parameter
      75                      .dwattr $C$DW$14, DW_AT_type(*$C$DW$T$138)
      76              
      77              $C$DW$15        .dwtag  DW_TAG_formal_parameter
      78                      .dwattr $C$DW$15, DW_AT_type(*$C$DW$T$146)
      79              
      80                      .dwendtag $C$DW$13
      81              
      82                      .global ||offsetCalCounter||
      83 00000000               .data
      84                      .align  1
      85                      .elfsym ||offsetCalCounter||,SYM_SIZE(1),SYM_BLOCKED(1)
      86 00000000       ||offsetCalCounter||:
      87 00000000 0000          .bits           0,16
      88                                      ; offsetCalCounter @ 0
      89              
      90              $C$DW$16        .dwtag  DW_TAG_variable
      91                      .dwattr $C$DW$16, DW_AT_name("offsetCalCounter")
      92                      .dwattr $C$DW$16, DW_AT_linkage_name("offsetCalCounter")
      93                      .dwattr $C$DW$16, DW_AT_location[DW_OP_addr ||offsetCalCounter||]
      94                      .dwattr $C$DW$16, DW_AT_type(*$C$DW$T$30)
      95                      .dwattr $C$DW$16, DW_AT_external
      96                      .dwattr $C$DW$16, DW_AT_decl_file("../sources/dual_axis_servo_drive_user_cpu.c")
      97                      .dwattr $C$DW$16, DW_AT_decl_line(0x3b)
      98                      .dwattr $C$DW$16, DW_AT_decl_column(0x0a)
      99              
     100                      .global ||K1||
     101 00000001               .data
     102                      .align  2
     103                      .elfsym ||K1||,SYM_SIZE(2),SYM_BLOCKED(1)
     104 00000002       ||K1||:
     105 00000002 7CEE          .xfloat $strtod("0x1.fef9dcp-1")                ; K1 @ 0
         00000003 3F7F 
     106              
     107              $C$DW$17        .dwtag  DW_TAG_variable
     108                      .dwattr $C$DW$17, DW_AT_name("K1")
     109                      .dwattr $C$DW$17, DW_AT_linkage_name("K1")
TMS320C2000 Assembler PC v22.6.2 Wed Dec 10 14:16:25 2025

Copyright (c) 1996-2018 Texas Instruments Incorporated
dual_axis_servo_drive_user_cpu.asm                                   PAGE    3

     110                      .dwattr $C$DW$17, DW_AT_location[DW_OP_addr ||K1||]
     111                      .dwattr $C$DW$17, DW_AT_type(*$C$DW$T$21)
     112                      .dwattr $C$DW$17, DW_AT_external
     113                      .dwattr $C$DW$17, DW_AT_decl_file("../sources/dual_axis_servo_drive_user_cpu.c")
     114                      .dwattr $C$DW$17, DW_AT_decl_line(0x38)
     115                      .dwattr $C$DW$17, DW_AT_decl_column(0x0b)
     116              
     117                      .global ||K2||
     118 00000004               .data
     119                      .align  2
     120                      .elfsym ||K2||,SYM_SIZE(2),SYM_BLOCKED(1)
     121 00000004       ||K2||:
     122 00000004 01A8          .xfloat $strtod("0x1.06035p-9")         ; K2 @ 0
         00000005 3B03 
     123              
     124              $C$DW$18        .dwtag  DW_TAG_variable
     125                      .dwattr $C$DW$18, DW_AT_name("K2")
     126                      .dwattr $C$DW$18, DW_AT_linkage_name("K2")
     127                      .dwattr $C$DW$18, DW_AT_location[DW_OP_addr ||K2||]
     128                      .dwattr $C$DW$18, DW_AT_type(*$C$DW$T$21)
     129                      .dwattr $C$DW$18, DW_AT_external
     130                      .dwattr $C$DW$18, DW_AT_decl_file("../sources/dual_axis_servo_drive_user_cpu.c")
     131                      .dwattr $C$DW$18, DW_AT_decl_line(0x39)
     132                      .dwattr $C$DW$18, DW_AT_decl_column(0x0b)
     133              
     134              $C$DW$19        .dwtag  DW_TAG_variable
     135                      .dwattr $C$DW$19, DW_AT_name("motorVars")
     136                      .dwattr $C$DW$19, DW_AT_linkage_name("motorVars")
     137                      .dwattr $C$DW$19, DW_AT_type(*$C$DW$T$140)
     138                      .dwattr $C$DW$19, DW_AT_declaration
     139                      .dwattr $C$DW$19, DW_AT_external
     140                      .dwattr $C$DW$19, DW_AT_decl_file("C:/ti/C2000Ware_MotorControl_SDK_5_04_00_00/libraries/fcl/include/
     141                      .dwattr $C$DW$19, DW_AT_decl_line(0x113)
     142                      .dwattr $C$DW$19, DW_AT_decl_column(0x15)
     143              
     144                      .sblock ".data"
     145              ;       C:\ti\ccs2031\ccs\tools\compiler\ti-cgt-c2000_22.6.2.LTS\bin\opt2000.exe C:\\Users\\Teddy\\AppData\\L
     146              ;       C:\ti\ccs2031\ccs\tools\compiler\ti-cgt-c2000_22.6.2.LTS\bin\acia2000.exe -@C:\\Users\\Teddy\\AppData
     147 00000000               .sect   ".text:runOffsetsCalculation"
     148                      .clink
     149                      .global ||runOffsetsCalculation||
     150              
     151              $C$DW$20        .dwtag  DW_TAG_subprogram
     152                      .dwattr $C$DW$20, DW_AT_name("runOffsetsCalculation")
     153                      .dwattr $C$DW$20, DW_AT_low_pc(||runOffsetsCalculation||)
     154                      .dwattr $C$DW$20, DW_AT_high_pc(0x00)
     155                      .dwattr $C$DW$20, DW_AT_linkage_name("runOffsetsCalculation")
     156                      .dwattr $C$DW$20, DW_AT_external
     157                      .dwattr $C$DW$20, DW_AT_decl_file("../sources/dual_axis_servo_drive_user_cpu.c")
     158                      .dwattr $C$DW$20, DW_AT_decl_line(0x1a5)
     159                      .dwattr $C$DW$20, DW_AT_decl_column(0x06)
     160                      .dwattr $C$DW$20, DW_AT_TI_max_frame_size(-6)
     161                      .dwpsn  file "../sources/dual_axis_servo_drive_user_cpu.c",line 422,column 1,is_stmt,address ||runOff
     162              
     163                      .dwfde $C$DW$CIE, ||runOffsetsCalculation||
TMS320C2000 Assembler PC v22.6.2 Wed Dec 10 14:16:25 2025

Copyright (c) 1996-2018 Texas Instruments Incorporated
dual_axis_servo_drive_user_cpu.asm                                   PAGE    4

     164              $C$DW$21        .dwtag  DW_TAG_formal_parameter
     165                      .dwattr $C$DW$21, DW_AT_name("pMotor")
     166                      .dwattr $C$DW$21, DW_AT_type(*$C$DW$T$138)
     167                      .dwattr $C$DW$21, DW_AT_location[DW_OP_reg12]
     168              
     169              
     170              ;***************************************************************
     171              ;* FNAME: runOffsetsCalculation         FR SIZE:   4           *
     172              ;*                                                             *
     173              ;* FUNCTION ENVIRONMENT                                        *
     174              ;*                                                             *
     175              ;* FUNCTION PROPERTIES                                         *
     176              ;*                            0 Parameter,  0 Auto,  4 SOE     *
     177              ;***************************************************************
     178              
     179              ||runOffsetsCalculation||:
     180              ;* AL    assigned to $O$C11
     181              ;* AR5   assigned to $O$U14
     182              ;* AR5   assigned to $O$U14
     183              ;* R1    assigned to $O$v2
     184              ;* R1    assigned to $O$v2
     185              ;* R0    assigned to $O$v1
     186              ;* R0    assigned to $O$v1
     187              ;* AL    assigned to $O$R2
     188              ;* AL    assigned to $O$R3
     189              ;* AL    assigned to $O$R4
     190              ;* AL    assigned to $O$R7
     191              ;* AL    assigned to $O$R8
     192              ;* AL    assigned to $O$R9
     193              ;* AR4   assigned to pMotor
     194              $C$DW$22        .dwtag  DW_TAG_variable
     195                      .dwattr $C$DW$22, DW_AT_name("pMotor")
     196                      .dwattr $C$DW$22, DW_AT_type(*$C$DW$T$139)
     197                      .dwattr $C$DW$22, DW_AT_location[DW_OP_reg12]
     198              
     199              ;* R0    assigned to vdc
     200              $C$DW$23        .dwtag  DW_TAG_variable
     201                      .dwattr $C$DW$23, DW_AT_name("vdc")
     202                      .dwattr $C$DW$23, DW_AT_type(*$C$DW$T$21)
     203                      .dwattr $C$DW$23, DW_AT_location[DW_OP_regx 0x2b]
     204              
     205              ;* R0    assigned to vdc
     206              $C$DW$24        .dwtag  DW_TAG_variable
     207                      .dwattr $C$DW$24, DW_AT_name("vdc")
     208                      .dwattr $C$DW$24, DW_AT_type(*$C$DW$T$21)
     209                      .dwattr $C$DW$24, DW_AT_location[DW_OP_regx 0x2b]
     210              
     211                      .dwcfi  cfa_offset, -2
     212                      .dwcfi  save_reg_to_mem, 26, 0
     213 00000000 B2BD          MOVL      *SP++,XAR1            ; [CPU_ALU] 
     214                      .dwcfi  save_reg_to_mem, 7, 2
     215                      .dwcfi  cfa_offset, -4
     216                      .dwpsn  file "../sources/dual_axis_servo_drive_user_cpu.c",line 424,column 5,is_stmt,isa 0
     217 00000001 D032          MOVB      XAR0,#50              ; [CPU_ALU] |424| 
     218 00000002 E590          ZERO      R0H                   ; [CPU_FPU] |424| 
TMS320C2000 Assembler PC v22.6.2 Wed Dec 10 14:16:25 2025

Copyright (c) 1996-2018 Texas Instruments Incorporated
dual_axis_servo_drive_user_cpu.asm                                   PAGE    5

     219                      .dwpsn  file "../sources/dual_axis_servo_drive_user_cpu.c",line 425,column 5,is_stmt,isa 0
     220 00000003 E591          ZERO      R1H                   ; [CPU_FPU] |425| 
     221 00000004 D134          MOVB      XAR1,#52              ; [CPU_ALU] |425| 
     222 00000005 E203          MOV32     *SP++,R4H             ; [CPU_FPU] 
         00000006 04BD 
     223                      .dwcfi  save_reg_to_mem, 59, 4
     224                      .dwcfi  cfa_offset, -6
     225                      .dwpsn  file "../sources/dual_axis_servo_drive_user_cpu.c",line 424,column 5,is_stmt,isa 0
     226 00000007 E203          MOV32     *+XAR4[AR0],R0H       ; [CPU_FPU] |424| 
         00000008 0094 
     227                      .dwpsn  file "../sources/dual_axis_servo_drive_user_cpu.c",line 428,column 5,is_stmt,isa 0
     228 00000009 8D00          MOVL      XAR0,#450             ; [CPU_ALU] |428| 
         0000000a 01C2 
     229                      .dwpsn  file "../sources/dual_axis_servo_drive_user_cpu.c",line 425,column 5,is_stmt,isa 0
     230 0000000b E203          MOV32     *+XAR4[AR1],R1H       ; [CPU_FPU] |425| 
         0000000c 019C 
     231                      .dwpsn  file "../sources/dual_axis_servo_drive_user_cpu.c",line 428,column 5,is_stmt,isa 0
     232 0000000d 9294          MOV       AL,*+XAR4[AR0]        ; [CPU_ALU] |428| 
     233                      .dwpsn  file "../sources/dual_axis_servo_drive_user_cpu.c",line 426,column 5,is_stmt,isa 0
     234 0000000e D036          MOVB      XAR0,#54              ; [CPU_ALU] |426| 
     235 0000000f E203          MOV32     *+XAR4[AR0],R0H       ; [CPU_FPU] |426| 
         00000010 0094 
     236                      .dwpsn  file "../sources/dual_axis_servo_drive_user_cpu.c",line 428,column 5,is_stmt,isa 0
     237 00000011 FFE1          B         ||$C$L4||,EQ          ; [CPU_ALU] |428| 
         00000012 00A1 
     238                      ; branchcc occurs ; [] |428| 
     239                      .dwpsn  file "../sources/dual_axis_servo_drive_user_cpu.c",line 469,column 10,is_stmt,isa 0
     240 00000013 5201          CMPB      AL,#1                 ; [CPU_ALU] |469| 
     241 00000014 FFE0          B         ||$C$L8||,NEQ         ; [CPU_ALU] |469| 
         00000015 0138 
     242                      ; branchcc occurs ; [] |469| 
     243 00000016 8D00          MOVL      XAR0,#416             ; [CPU_ALU] 
         00000017 01A0 
     244 00000018 8394          MOVL      XAR5,*+XAR4[AR0]      ; [CPU_ALU] 
     245 00000019 761F!         MOVW      DP,#||offsetCalCounter|| ; [CPU_ARAU] 
         0000001a 0000 
     246                      .dwpsn  file "../sources/dual_axis_servo_drive_user_cpu.c",line 471,column 13,is_stmt,isa 0
     247 0000001b 2B00!         MOV       @||offsetCalCounter||,#0 ; [CPU_ALU] |471| 
     248 0000001c       ||$C$L1||:    
     249                      .dwpsn  file "C:/ti/C2000Ware_MotorControl_SDK_5_04_00_00/c2000ware/driverlib/f28002x/driverlib/epwm.
     250 0000001c A0A9          MOVL      ACC,XAR5              ; [CPU_ALU] |5070| 
     251 0000001d 09AA          ADDB      ACC,#170              ; [CPU_ALU] |5070| 
     252 0000001e 1EA6          MOVL      XAR6,ACC              ; [CPU_ALU] |5070| 
     253 0000001f 1AC6          OR        *+XAR6[0],#0x0001     ; [CPU_ALU] |5070| 
         00000020 0001 
     254 00000021       ||$C$L2||:    
     255                      .dwpsn  file "C:/ti/C2000Ware_MotorControl_SDK_5_04_00_00/c2000ware/driverlib/f28002x/driverlib/epwm.
     256 00000021 D0A8          MOVB      XAR0,#168             ; [CPU_ALU] |5045| 
     257 00000022 4095          TBIT      *+XAR5[AR0],#0        ; [CPU_ALU] |5045| 
     258 00000023 6CFE          B         ||$C$L2||,NTC         ; [CPU_ALU] |5045| 
     259                      ; branchcc occurs ; [] |5045| 
     260 00000024 761F!         MOVW      DP,#||offsetCalCounter|| ; [CPU_ARAU] 
         00000025 0000 
     261                      .dwpsn  file "../sources/dual_axis_servo_drive_user_cpu.c",line 477,column 13,is_stmt,isa 0
     262 00000026 1B00!         CMP       @||offsetCalCounter||,#1000 ; [CPU_ALU] |477| 
TMS320C2000 Assembler PC v22.6.2 Wed Dec 10 14:16:25 2025

Copyright (c) 1996-2018 Texas Instruments Incorporated
dual_axis_servo_drive_user_cpu.asm                                   PAGE    6

         00000027 03E8 
     263 00000028 694B          B         ||$C$L3||,LOS         ; [CPU_ALU] |477| 
     264                      ; branchcc occurs ; [] |477| 
     265                      .dwpsn  file "C:/ti/C2000Ware_MotorControl_SDK_5_04_00_00/c2000ware/driverlib/f28002x/driverlib/adc.h
     266 00000029 F5A9          MOV       AL,*(0:0x0b41)        ; [CPU_ALU] |918| 
         0000002a 0B41 
     267                      .dwpsn  file "../sources/dual_axis_servo_drive_user_cpu.c",line 480,column 17,is_stmt,isa 0
     268 0000002b 0EA9          MOVU      ACC,AL                ; [CPU_ALU] |480| 
     269 0000002c BDA9          MOV32     R3H,ACC               ; [CPU_FPU] |480| 
         0000002d 0F1E 
     270 0000002e 7700          NOP       ; [CPU_ALU] 
     271 0000002f D032          MOVB      XAR0,#50              ; [CPU_ALU] |480| 
     272 00000030 E2AF!         MOV32     R1H,@||K2||           ; [CPU_FPU] |480| 
         00000031 0100 
     273 00000032 D142          MOVB      XAR1,#66              ; [CPU_ALU] |480| 
     274 00000033 E68B          UI32TOF32 R3H,R3H               ; [CPU_FPU] |480| 
         00000034 001B 
     275 00000035 E2AF!         MOV32     R0H,@||K1||           ; [CPU_FPU] |480| 
         00000036 0000 
     276              
     277 00000037 E306          MPYF32    R3H,R1H,R3H           ; [CPU_FPU] |480| 
         00000038 5A94 
     278              ||      MOV32     R2H,*+XAR4[AR0]       ; [CPU_FPU] |480| 
     279              
     280 00000039 E304          MPYF32    R2H,R0H,R2H           ; [CPU_FPU] |480| 
         0000003a 149C 
     281              ||      MOV32     R4H,*+XAR4[AR1]       ; [CPU_FPU] |480| 
     282              
     283 0000003b E700          MPYF32    R3H,R4H,R3H           ; [CPU_FPU] |480| 
         0000003c 00E3 
     284 0000003d 7700          NOP       ; [CPU_ALU] 
     285 0000003e E710          ADDF32    R2H,R2H,R3H           ; [CPU_FPU] |480| 
         0000003f 00D2 
     286 00000040 D032          MOVB      XAR0,#50              ; [CPU_ALU] |480| 
     287 00000041 E203          MOV32     *+XAR4[AR0],R2H       ; [CPU_FPU] |480| 
         00000042 0294 
     288                      .dwpsn  file "C:/ti/C2000Ware_MotorControl_SDK_5_04_00_00/c2000ware/driverlib/f28002x/driverlib/adc.h
     289 00000043 F5A9          MOV       AL,*(0:0x0b40)        ; [CPU_ALU] |918| 
         00000044 0B40 
     290                      .dwpsn  file "../sources/dual_axis_servo_drive_user_cpu.c",line 483,column 17,is_stmt,isa 0
     291 00000045 0EA9          MOVU      ACC,AL                ; [CPU_ALU] |483| 
     292 00000046 BDA9          MOV32     R3H,ACC               ; [CPU_FPU] |483| 
         00000047 0F1E 
     293 00000048 7700          NOP       ; [CPU_ALU] 
     294 00000049 7700          NOP       ; [CPU_ALU] 
     295 0000004a 7700          NOP       ; [CPU_ALU] 
     296 0000004b D142          MOVB      XAR1,#66              ; [CPU_ALU] |483| 
     297 0000004c E68B          UI32TOF32 R3H,R3H               ; [CPU_FPU] |483| 
         0000004d 001B 
     298 0000004e D034          MOVB      XAR0,#52              ; [CPU_ALU] |483| 
     299              
     300 0000004f E306          MPYF32    R3H,R1H,R3H           ; [CPU_FPU] |483| 
         00000050 5A94 
     301              ||      MOV32     R2H,*+XAR4[AR0]       ; [CPU_FPU] |483| 
     302              
TMS320C2000 Assembler PC v22.6.2 Wed Dec 10 14:16:25 2025

Copyright (c) 1996-2018 Texas Instruments Incorporated
dual_axis_servo_drive_user_cpu.asm                                   PAGE    7

     303 00000051 E304          MPYF32    R2H,R0H,R2H           ; [CPU_FPU] |483| 
         00000052 149C 
     304              ||      MOV32     R4H,*+XAR4[AR1]       ; [CPU_FPU] |483| 
     305              
     306 00000053 E700          MPYF32    R3H,R4H,R3H           ; [CPU_FPU] |483| 
         00000054 00E3 
     307 00000055 7700          NOP       ; [CPU_ALU] 
     308 00000056 E710          ADDF32    R2H,R2H,R3H           ; [CPU_FPU] |483| 
         00000057 00D2 
     309 00000058 D034          MOVB      XAR0,#52              ; [CPU_ALU] |483| 
     310 00000059 E203          MOV32     *+XAR4[AR0],R2H       ; [CPU_FPU] |483| 
         0000005a 0294 
     311                      .dwpsn  file "C:/ti/C2000Ware_MotorControl_SDK_5_04_00_00/c2000ware/driverlib/f28002x/driverlib/adc.h
     312 0000005b F5A9          MOV       AL,*(0:0x0b00)        ; [CPU_ALU] |918| 
         0000005c 0B00 
     313                      .dwpsn  file "../sources/dual_axis_servo_drive_user_cpu.c",line 486,column 17,is_stmt,isa 0
     314 0000005d 0EA9          MOVU      ACC,AL                ; [CPU_ALU] |486| 
     315 0000005e BDA9          MOV32     R3H,ACC               ; [CPU_FPU] |486| 
         0000005f 0F1E 
     316 00000060 7700          NOP       ; [CPU_ALU] 
     317 00000061 7700          NOP       ; [CPU_ALU] 
     318 00000062 7700          NOP       ; [CPU_ALU] 
     319 00000063 D142          MOVB      XAR1,#66              ; [CPU_ALU] |486| 
     320 00000064 E68B          UI32TOF32 R3H,R3H               ; [CPU_FPU] |486| 
         00000065 001B 
     321 00000066 D036          MOVB      XAR0,#54              ; [CPU_ALU] |486| 
     322              
     323 00000067 E306          MPYF32    R1H,R1H,R3H           ; [CPU_FPU] |486| 
         00000068 4A94 
     324              ||      MOV32     R2H,*+XAR4[AR0]       ; [CPU_FPU] |486| 
     325              
     326                      MOV32     R3H,*+XAR4[AR1]       ; [CPU_FPU] |486| 
     327 00000069 E304  ||      MPYF32    R0H,R0H,R2H           ; [CPU_FPU] |486| 
         0000006a 039C 
     328              
     329 0000006b E700          MPYF32    R1H,R3H,R1H           ; [CPU_FPU] |486| 
         0000006c 0059 
     330 0000006d 7700          NOP       ; [CPU_ALU] 
     331 0000006e E710          ADDF32    R0H,R0H,R1H           ; [CPU_FPU] |486| 
         0000006f 0040 
     332 00000070 D036          MOVB      XAR0,#54              ; [CPU_ALU] |486| 
     333 00000071 E203          MOV32     *+XAR4[AR0],R0H       ; [CPU_FPU] |486| 
         00000072 0094 
     334 00000073       ||$C$L3||:    
     335                      .dwpsn  file "../sources/dual_axis_servo_drive_user_cpu.c",line 471,column 61,is_stmt,isa 0
     336 00000073 0A00!         INC       @||offsetCalCounter|| ; [CPU_ALU] |471| 
     337 00000074 1B00!         CMP       @||offsetCalCounter||,#10000 ; [CPU_ALU] |471| 
         00000075 2710 
     338 00000076 68A6          B         ||$C$L1||,LO          ; [CPU_ALU] |471| 
     339                      ; branchcc occurs ; [] |471| 
     340                      .dwpsn  file "C:/ti/C2000Ware_MotorControl_SDK_5_04_00_00/c2000ware/driverlib/f28002x/driverlib/adc.h
     341 00000077 D032          MOVB      XAR0,#50              ; [CPU_ALU] |1613| 
     342 00000078 E2AF          MOV32     R0H,*+XAR4[AR0]       ; [CPU_FPU] |1613| 
         00000079 0094 
     343                      .dwpsn  file "C:/ti/C2000Ware_MotorControl_SDK_5_04_00_00/solutions/common/sensored_foc/include/dual_
TMS320C2000 Assembler PC v22.6.2 Wed Dec 10 14:16:25 2025

Copyright (c) 1996-2018 Texas Instruments Incorporated
dual_axis_servo_drive_user_cpu.asm                                   PAGE    8

     344 0000007a 8D00          MOVL      XAR0,#404             ; [CPU_ALU] |304| 
         0000007b 0194 
     345 0000007c 8394          MOVL      XAR5,*+XAR4[AR0]      ; [CPU_ALU] |304| 
     346                      .dwpsn  file "C:/ti/C2000Ware_MotorControl_SDK_5_04_00_00/c2000ware/driverlib/f28002x/driverlib/adc.h
     347 0000007d E851          MPYF32    R0H,R0H,#17792        ; [CPU_FPU] |1613| 
         0000007e 6000 
     348                      .dwpsn  file "../sources/dual_axis_servo_drive_user_cpu.c",line 494,column 9,is_stmt,isa 0
     349 0000007f 8D40          MOVL      XAR1,#380             ; [CPU_ALU] |494| 
         00000080 017C 
     350                      .dwpsn  file "C:/ti/C2000Ware_MotorControl_SDK_5_04_00_00/solutions/common/sensored_foc/include/dual_
     351 00000081 D040          MOVB      XAR0,#64              ; [CPU_ALU] |304| 
     352                      .dwpsn  file "C:/ti/C2000Ware_MotorControl_SDK_5_04_00_00/c2000ware/driverlib/f28002x/driverlib/adc.h
     353 00000082 E68E          F32TOUI16 R0H,R0H               ; [CPU_FPU] |1613| 
         00000083 0000 
     354                      .dwpsn  file "C:/ti/C2000Ware_MotorControl_SDK_5_04_00_00/solutions/common/sensored_foc/include/dual_
     355 00000084 E2AF          MOV32     R4H,*+XAR4[AR0]       ; [CPU_FPU] |304| 
         00000085 0494 
     356 00000086 E2C4          UI16TOF32 R1H,*+XAR5[0]         ; [CPU_FPU] |304| 
         00000087 01C5 
     357                      .dwpsn  file "C:/ti/C2000Ware_MotorControl_SDK_5_04_00_00/c2000ware/driverlib/f28002x/driverlib/adc.h
     358 00000088 BFA9          MOV32     ACC,R0H               ; [CPU_FPU] |1613| 
         00000089 0F12 
     359                      .dwpsn  file "C:/ti/C2000Ware_MotorControl_SDK_5_04_00_00/solutions/common/sensored_foc/include/dual_
     360 0000008a E700          MPYF32    R0H,R4H,R1H           ; [CPU_FPU] |304| 
         0000008b 0060 
     361                      .dwpsn  file "C:/ti/C2000Ware_MotorControl_SDK_5_04_00_00/c2000ware/driverlib/f28002x/driverlib/adc.h
     362 0000008c D034          MOVB      XAR0,#52              ; [CPU_ALU] |1613| 
     363                      .dwpsn  file "C:/ti/C2000Ware_MotorControl_SDK_5_04_00_00/solutions/common/sensored_foc/include/dual_
     364 0000008d E821          MAXF32    R0H,#16256            ; [CPU_FPU] |308| 
         0000008e FC00 
     365                      .dwpsn  file "../sources/dual_axis_servo_drive_user_cpu.c",line 494,column 9,is_stmt,isa 0
     366 0000008f E203          MOV32     *+XAR4[AR1],R0H       ; [CPU_FPU] |494| 
         00000090 009C 
     367                      .dwpsn  file "C:/ti/C2000Ware_MotorControl_SDK_5_04_00_00/c2000ware/driverlib/f28002x/driverlib/adc.h
     368 00000091 F4A9          MOV       *(0:0x745b),AL        ; [CPU_ALU] |1613| 
         00000092 745B 
     369 00000093 E2AF          MOV32     R0H,*+XAR4[AR0]       ; [CPU_FPU] |1613| 
         00000094 0094 
     370 00000095 E851          MPYF32    R0H,R0H,#17792        ; [CPU_FPU] |1613| 
         00000096 6000 
     371 00000097 7700          NOP       ; [CPU_ALU] 
     372 00000098 E68E          F32TOUI16 R0H,R0H               ; [CPU_FPU] |1613| 
         00000099 0000 
     373 0000009a 7700          NOP       ; [CPU_ALU] 
     374 0000009b D036          MOVB      XAR0,#54              ; [CPU_ALU] |1613| 
     375 0000009c BFA9          MOV32     ACC,R0H               ; [CPU_FPU] |1613| 
         0000009d 0F12 
     376 0000009e F4A9          MOV       *(0:0x7453),AL        ; [CPU_ALU] |1613| 
         0000009f 7453 
     377 000000a0 E2AF          MOV32     R0H,*+XAR4[AR0]       ; [CPU_FPU] |1613| 
         000000a1 0094 
     378 000000a2 E851          MPYF32    R0H,R0H,#17792        ; [CPU_FPU] |1613| 
         000000a3 6000 
     379 000000a4 7700          NOP       ; [CPU_ALU] 
     380 000000a5 E68E          F32TOUI16 R0H,R0H               ; [CPU_FPU] |1613| 
TMS320C2000 Assembler PC v22.6.2 Wed Dec 10 14:16:25 2025

Copyright (c) 1996-2018 Texas Instruments Incorporated
dual_axis_servo_drive_user_cpu.asm                                   PAGE    9

         000000a6 0000 
     381 000000a7 7700          NOP       ; [CPU_ALU] 
     382 000000a8 7700          NOP       ; [CPU_ALU] 
     383 000000a9 BFA9          MOV32     ACC,R0H               ; [CPU_FPU] |1613| 
         000000aa 0F12 
     384 000000ab 9B00          MOVB      AH,#0                 ; [CPU_ALU] |1613| 
     385 000000ac F4A9          MOV       *(0:0x7553),AL        ; [CPU_ALU] |1613| 
         000000ad 7553 
     386 000000ae F4A8          MOV       *(0:0x755b),AH        ; [CPU_ALU] |1613| 
         000000af 755B 
     387                      .dwpsn  file "../sources/dual_axis_servo_drive_user_cpu.c",line 508,column 9,is_stmt,isa 0
     388 000000b0 FFEF          B         ||$C$L8||,UNC         ; [CPU_ALU] |508| 
         000000b1 009C 
     389                      ; branch occurs ; [] |508| 
     390 000000b2       ||$C$L4||:    
     391 000000b2 8D00          MOVL      XAR0,#416             ; [CPU_ALU] 
         000000b3 01A0 
     392 000000b4 8394          MOVL      XAR5,*+XAR4[AR0]      ; [CPU_ALU] 
     393 000000b5 761F!         MOVW      DP,#||offsetCalCounter|| ; [CPU_ARAU] 
         000000b6 0000 
     394                      .dwpsn  file "../sources/dual_axis_servo_drive_user_cpu.c",line 430,column 13,is_stmt,isa 0
     395 000000b7 2B00!         MOV       @||offsetCalCounter||,#0 ; [CPU_ALU] |430| 
     396 000000b8       ||$C$L5||:    
     397                      .dwpsn  file "C:/ti/C2000Ware_MotorControl_SDK_5_04_00_00/c2000ware/driverlib/f28002x/driverlib/epwm.
     398 000000b8 A0A9          MOVL      ACC,XAR5              ; [CPU_ALU] |5070| 
     399 000000b9 09AA          ADDB      ACC,#170              ; [CPU_ALU] |5070| 
     400 000000ba 1EA6          MOVL      XAR6,ACC              ; [CPU_ALU] |5070| 
     401 000000bb 1AC6          OR        *+XAR6[0],#0x0001     ; [CPU_ALU] |5070| 
         000000bc 0001 
     402 000000bd       ||$C$L6||:    
     403                      .dwpsn  file "C:/ti/C2000Ware_MotorControl_SDK_5_04_00_00/c2000ware/driverlib/f28002x/driverlib/epwm.
     404 000000bd D0A8          MOVB      XAR0,#168             ; [CPU_ALU] |5045| 
     405 000000be 4095          TBIT      *+XAR5[AR0],#0        ; [CPU_ALU] |5045| 
     406 000000bf 6CFE          B         ||$C$L6||,NTC         ; [CPU_ALU] |5045| 
     407                      ; branchcc occurs ; [] |5045| 
     408 000000c0 761F!         MOVW      DP,#||offsetCalCounter|| ; [CPU_ARAU] 
         000000c1 0000 
     409                      .dwpsn  file "../sources/dual_axis_servo_drive_user_cpu.c",line 436,column 13,is_stmt,isa 0
     410 000000c2 1B00!         CMP       @||offsetCalCounter||,#1000 ; [CPU_ALU] |436| 
         000000c3 03E8 
     411 000000c4 694B          B         ||$C$L7||,LOS         ; [CPU_ALU] |436| 
     412                      ; branchcc occurs ; [] |436| 
     413                      .dwpsn  file "C:/ti/C2000Ware_MotorControl_SDK_5_04_00_00/c2000ware/driverlib/f28002x/driverlib/adc.h
     414 000000c5 F5A9          MOV       AL,*(0:0x0b41)        ; [CPU_ALU] |918| 
         000000c6 0B41 
     415                      .dwpsn  file "../sources/dual_axis_servo_drive_user_cpu.c",line 439,column 17,is_stmt,isa 0
     416 000000c7 0EA9          MOVU      ACC,AL                ; [CPU_ALU] |439| 
     417 000000c8 BDA9          MOV32     R3H,ACC               ; [CPU_FPU] |439| 
         000000c9 0F1E 
     418 000000ca 7700          NOP       ; [CPU_ALU] 
     419 000000cb D032          MOVB      XAR0,#50              ; [CPU_ALU] |439| 
     420 000000cc E2AF!         MOV32     R1H,@||K2||           ; [CPU_FPU] |439| 
         000000cd 0100 
     421 000000ce D142          MOVB      XAR1,#66              ; [CPU_ALU] |439| 
     422 000000cf E68B          UI32TOF32 R3H,R3H               ; [CPU_FPU] |439| 
TMS320C2000 Assembler PC v22.6.2 Wed Dec 10 14:16:25 2025

Copyright (c) 1996-2018 Texas Instruments Incorporated
dual_axis_servo_drive_user_cpu.asm                                   PAGE   10

         000000d0 001B 
     423 000000d1 E2AF!         MOV32     R0H,@||K1||           ; [CPU_FPU] |439| 
         000000d2 0000 
     424              
     425 000000d3 E306          MPYF32    R3H,R1H,R3H           ; [CPU_FPU] |439| 
         000000d4 5A94 
     426              ||      MOV32     R2H,*+XAR4[AR0]       ; [CPU_FPU] |439| 
     427              
     428 000000d5 E304          MPYF32    R2H,R0H,R2H           ; [CPU_FPU] |439| 
         000000d6 149C 
     429              ||      MOV32     R4H,*+XAR4[AR1]       ; [CPU_FPU] |439| 
     430              
     431 000000d7 E700          MPYF32    R3H,R4H,R3H           ; [CPU_FPU] |439| 
         000000d8 00E3 
     432 000000d9 7700          NOP       ; [CPU_ALU] 
     433 000000da E710          ADDF32    R2H,R2H,R3H           ; [CPU_FPU] |439| 
         000000db 00D2 
     434 000000dc D032          MOVB      XAR0,#50              ; [CPU_ALU] |439| 
     435 000000dd E203          MOV32     *+XAR4[AR0],R2H       ; [CPU_FPU] |439| 
         000000de 0294 
     436                      .dwpsn  file "C:/ti/C2000Ware_MotorControl_SDK_5_04_00_00/c2000ware/driverlib/f28002x/driverlib/adc.h
     437 000000df F5A9          MOV       AL,*(0:0x0b40)        ; [CPU_ALU] |918| 
         000000e0 0B40 
     438                      .dwpsn  file "../sources/dual_axis_servo_drive_user_cpu.c",line 442,column 17,is_stmt,isa 0
     439 000000e1 0EA9          MOVU      ACC,AL                ; [CPU_ALU] |442| 
     440 000000e2 BDA9          MOV32     R3H,ACC               ; [CPU_FPU] |442| 
         000000e3 0F1E 
     441 000000e4 7700          NOP       ; [CPU_ALU] 
     442 000000e5 7700          NOP       ; [CPU_ALU] 
     443 000000e6 7700          NOP       ; [CPU_ALU] 
     444 000000e7 D142          MOVB      XAR1,#66              ; [CPU_ALU] |442| 
     445 000000e8 E68B          UI32TOF32 R3H,R3H               ; [CPU_FPU] |442| 
         000000e9 001B 
     446 000000ea D034          MOVB      XAR0,#52              ; [CPU_ALU] |442| 
     447              
     448 000000eb E306          MPYF32    R3H,R1H,R3H           ; [CPU_FPU] |442| 
         000000ec 5A94 
     449              ||      MOV32     R2H,*+XAR4[AR0]       ; [CPU_FPU] |442| 
     450              
     451 000000ed E304          MPYF32    R2H,R0H,R2H           ; [CPU_FPU] |442| 
         000000ee 149C 
     452              ||      MOV32     R4H,*+XAR4[AR1]       ; [CPU_FPU] |442| 
     453              
     454 000000ef E700          MPYF32    R3H,R4H,R3H           ; [CPU_FPU] |442| 
         000000f0 00E3 
     455 000000f1 7700          NOP       ; [CPU_ALU] 
     456 000000f2 E710          ADDF32    R2H,R2H,R3H           ; [CPU_FPU] |442| 
         000000f3 00D2 
     457 000000f4 D034          MOVB      XAR0,#52              ; [CPU_ALU] |442| 
     458 000000f5 E203          MOV32     *+XAR4[AR0],R2H       ; [CPU_FPU] |442| 
         000000f6 0294 
     459                      .dwpsn  file "C:/ti/C2000Ware_MotorControl_SDK_5_04_00_00/c2000ware/driverlib/f28002x/driverlib/adc.h
     460 000000f7 F5A9          MOV       AL,*(0:0x0b00)        ; [CPU_ALU] |918| 
         000000f8 0B00 
     461                      .dwpsn  file "../sources/dual_axis_servo_drive_user_cpu.c",line 445,column 17,is_stmt,isa 0
TMS320C2000 Assembler PC v22.6.2 Wed Dec 10 14:16:25 2025

Copyright (c) 1996-2018 Texas Instruments Incorporated
dual_axis_servo_drive_user_cpu.asm                                   PAGE   11

     462 000000f9 0EA9          MOVU      ACC,AL                ; [CPU_ALU] |445| 
     463 000000fa BDA9          MOV32     R3H,ACC               ; [CPU_FPU] |445| 
         000000fb 0F1E 
     464 000000fc 7700          NOP       ; [CPU_ALU] 
     465 000000fd 7700          NOP       ; [CPU_ALU] 
     466 000000fe 7700          NOP       ; [CPU_ALU] 
     467 000000ff D142          MOVB      XAR1,#66              ; [CPU_ALU] |445| 
     468 00000100 E68B          UI32TOF32 R3H,R3H               ; [CPU_FPU] |445| 
         00000101 001B 
     469 00000102 D036          MOVB      XAR0,#54              ; [CPU_ALU] |445| 
     470              
     471 00000103 E306          MPYF32    R1H,R1H,R3H           ; [CPU_FPU] |445| 
         00000104 4A94 
     472              ||      MOV32     R2H,*+XAR4[AR0]       ; [CPU_FPU] |445| 
     473              
     474                      MOV32     R3H,*+XAR4[AR1]       ; [CPU_FPU] |445| 
     475 00000105 E304  ||      MPYF32    R0H,R0H,R2H           ; [CPU_FPU] |445| 
         00000106 039C 
     476              
     477 00000107 E700          MPYF32    R1H,R3H,R1H           ; [CPU_FPU] |445| 
         00000108 0059 
     478 00000109 7700          NOP       ; [CPU_ALU] 
     479 0000010a E710          ADDF32    R0H,R0H,R1H           ; [CPU_FPU] |445| 
         0000010b 0040 
     480 0000010c D036          MOVB      XAR0,#54              ; [CPU_ALU] |445| 
     481 0000010d E203          MOV32     *+XAR4[AR0],R0H       ; [CPU_FPU] |445| 
         0000010e 0094 
     482 0000010f       ||$C$L7||:    
     483                      .dwpsn  file "../sources/dual_axis_servo_drive_user_cpu.c",line 430,column 61,is_stmt,isa 0
     484 0000010f 0A00!         INC       @||offsetCalCounter|| ; [CPU_ALU] |430| 
     485 00000110 1B00!         CMP       @||offsetCalCounter||,#10000 ; [CPU_ALU] |430| 
         00000111 2710 
     486 00000112 68A6          B         ||$C$L5||,LO          ; [CPU_ALU] |430| 
     487                      ; branchcc occurs ; [] |430| 
     488                      .dwpsn  file "C:/ti/C2000Ware_MotorControl_SDK_5_04_00_00/c2000ware/driverlib/f28002x/driverlib/adc.h
     489 00000113 D032          MOVB      XAR0,#50              ; [CPU_ALU] |1613| 
     490 00000114 E2AF          MOV32     R0H,*+XAR4[AR0]       ; [CPU_FPU] |1613| 
         00000115 0094 
     491                      .dwpsn  file "C:/ti/C2000Ware_MotorControl_SDK_5_04_00_00/solutions/common/sensored_foc/include/dual_
     492 00000116 8D00          MOVL      XAR0,#404             ; [CPU_ALU] |304| 
         00000117 0194 
     493 00000118 8394          MOVL      XAR5,*+XAR4[AR0]      ; [CPU_ALU] |304| 
     494                      .dwpsn  file "C:/ti/C2000Ware_MotorControl_SDK_5_04_00_00/c2000ware/driverlib/f28002x/driverlib/adc.h
     495 00000119 E851          MPYF32    R0H,R0H,#17792        ; [CPU_FPU] |1613| 
         0000011a 6000 
     496                      .dwpsn  file "../sources/dual_axis_servo_drive_user_cpu.c",line 453,column 9,is_stmt,isa 0
     497 0000011b 8D40          MOVL      XAR1,#380             ; [CPU_ALU] |453| 
         0000011c 017C 
     498                      .dwpsn  file "C:/ti/C2000Ware_MotorControl_SDK_5_04_00_00/solutions/common/sensored_foc/include/dual_
     499 0000011d D040          MOVB      XAR0,#64              ; [CPU_ALU] |304| 
     500                      .dwpsn  file "C:/ti/C2000Ware_MotorControl_SDK_5_04_00_00/c2000ware/driverlib/f28002x/driverlib/adc.h
     501 0000011e E68E          F32TOUI16 R0H,R0H               ; [CPU_FPU] |1613| 
         0000011f 0000 
     502                      .dwpsn  file "C:/ti/C2000Ware_MotorControl_SDK_5_04_00_00/solutions/common/sensored_foc/include/dual_
     503 00000120 E2AF          MOV32     R4H,*+XAR4[AR0]       ; [CPU_FPU] |304| 
TMS320C2000 Assembler PC v22.6.2 Wed Dec 10 14:16:25 2025

Copyright (c) 1996-2018 Texas Instruments Incorporated
dual_axis_servo_drive_user_cpu.asm                                   PAGE   12

         00000121 0494 
     504 00000122 E2C4          UI16TOF32 R1H,*+XAR5[0]         ; [CPU_FPU] |304| 
         00000123 01C5 
     505                      .dwpsn  file "C:/ti/C2000Ware_MotorControl_SDK_5_04_00_00/c2000ware/driverlib/f28002x/driverlib/adc.h
     506 00000124 BFA9          MOV32     ACC,R0H               ; [CPU_FPU] |1613| 
         00000125 0F12 
     507                      .dwpsn  file "C:/ti/C2000Ware_MotorControl_SDK_5_04_00_00/solutions/common/sensored_foc/include/dual_
     508 00000126 E700          MPYF32    R0H,R4H,R1H           ; [CPU_FPU] |304| 
         00000127 0060 
     509                      .dwpsn  file "C:/ti/C2000Ware_MotorControl_SDK_5_04_00_00/c2000ware/driverlib/f28002x/driverlib/adc.h
     510 00000128 D034          MOVB      XAR0,#52              ; [CPU_ALU] |1613| 
     511                      .dwpsn  file "C:/ti/C2000Ware_MotorControl_SDK_5_04_00_00/solutions/common/sensored_foc/include/dual_
     512 00000129 E821          MAXF32    R0H,#16256            ; [CPU_FPU] |308| 
         0000012a FC00 
     513                      .dwpsn  file "../sources/dual_axis_servo_drive_user_cpu.c",line 453,column 9,is_stmt,isa 0
     514 0000012b E203          MOV32     *+XAR4[AR1],R0H       ; [CPU_FPU] |453| 
         0000012c 009C 
     515                      .dwpsn  file "C:/ti/C2000Ware_MotorControl_SDK_5_04_00_00/c2000ware/driverlib/f28002x/driverlib/adc.h
     516 0000012d F4A9          MOV       *(0:0x754b),AL        ; [CPU_ALU] |1613| 
         0000012e 754B 
     517 0000012f E2AF          MOV32     R0H,*+XAR4[AR0]       ; [CPU_FPU] |1613| 
         00000130 0094 
     518 00000131 E851          MPYF32    R0H,R0H,#17792        ; [CPU_FPU] |1613| 
         00000132 6000 
     519 00000133 7700          NOP       ; [CPU_ALU] 
     520 00000134 E68E          F32TOUI16 R0H,R0H               ; [CPU_FPU] |1613| 
         00000135 0000 
     521 00000136 7700          NOP       ; [CPU_ALU] 
     522 00000137 D036          MOVB      XAR0,#54              ; [CPU_ALU] |1613| 
     523 00000138 BFA9          MOV32     ACC,R0H               ; [CPU_FPU] |1613| 
         00000139 0F12 
     524 0000013a F4A9          MOV       *(0:0x7543),AL        ; [CPU_ALU] |1613| 
         0000013b 7543 
     525 0000013c E2AF          MOV32     R0H,*+XAR4[AR0]       ; [CPU_FPU] |1613| 
         0000013d 0094 
     526 0000013e E851          MPYF32    R0H,R0H,#17792        ; [CPU_FPU] |1613| 
         0000013f 6000 
     527 00000140 7700          NOP       ; [CPU_ALU] 
     528 00000141 E68E          F32TOUI16 R0H,R0H               ; [CPU_FPU] |1613| 
         00000142 0000 
     529 00000143 7700          NOP       ; [CPU_ALU] 
     530 00000144 7700          NOP       ; [CPU_ALU] 
     531 00000145 BFA9          MOV32     ACC,R0H               ; [CPU_FPU] |1613| 
         00000146 0F12 
     532 00000147 9B00          MOVB      AH,#0                 ; [CPU_ALU] |1613| 
     533 00000148 F4A9          MOV       *(0:0x7443),AL        ; [CPU_ALU] |1613| 
         00000149 7443 
     534 0000014a F4A8          MOV       *(0:0x744b),AH        ; [CPU_ALU] |1613| 
         0000014b 744B 
     535 0000014c       ||$C$L8||:    
     536                      .dwpsn  file "../sources/dual_axis_servo_drive_user_cpu.c",line 511,column 5,is_stmt,isa 0
     537 0000014c 8D00          MOVL      XAR0,#455             ; [CPU_ALU] |511| 
         0000014d 01C7 
     538 0000014e 56BF          MOVB      *+XAR4[AR0],#1,UNC    ; [CPU_ALU] |511| 
         0000014f 0194 
TMS320C2000 Assembler PC v22.6.2 Wed Dec 10 14:16:25 2025

Copyright (c) 1996-2018 Texas Instruments Incorporated
dual_axis_servo_drive_user_cpu.asm                                   PAGE   13

     539 00000150 E2AF          MOV32     R4H,*--SP             ; [CPU_FPU] 
         00000151 04BE 
     540                      .dwcfi  cfa_offset, -4
     541                      .dwcfi  restore_reg, 59
     542 00000152 8BBE          MOVL      XAR1,*--SP            ; [CPU_ALU] 
     543                      .dwcfi  cfa_offset, -2
     544                      .dwcfi  restore_reg, 7
     545              $C$DW$25        .dwtag  DW_TAG_TI_branch
     546                      .dwattr $C$DW$25, DW_AT_low_pc(0x00)
     547                      .dwattr $C$DW$25, DW_AT_TI_return
     548              
     549 00000153 0006          LRETR     ; [CPU_ALU] 
     550                      ; return occurs ; [] 
     551                      .dwattr $C$DW$20, DW_AT_TI_end_file("../sources/dual_axis_servo_drive_user_cpu.c")
     552                      .dwattr $C$DW$20, DW_AT_TI_end_line(0x202)
     553                      .dwattr $C$DW$20, DW_AT_TI_end_column(0x01)
     554                      .dwendentry
     555                      .dwendtag $C$DW$20
     556              
     557 00000000               .sect   ".text:resetControlVars"
     558                      .clink
     559                      .global ||resetControlVars||
     560              
     561              $C$DW$26        .dwtag  DW_TAG_subprogram
     562                      .dwattr $C$DW$26, DW_AT_name("resetControlVars")
     563                      .dwattr $C$DW$26, DW_AT_low_pc(||resetControlVars||)
     564                      .dwattr $C$DW$26, DW_AT_high_pc(0x00)
     565                      .dwattr $C$DW$26, DW_AT_linkage_name("resetControlVars")
     566                      .dwattr $C$DW$26, DW_AT_external
     567                      .dwattr $C$DW$26, DW_AT_decl_file("../sources/dual_axis_servo_drive_user_cpu.c")
     568                      .dwattr $C$DW$26, DW_AT_decl_line(0x18c)
     569                      .dwattr $C$DW$26, DW_AT_decl_column(0x06)
     570                      .dwattr $C$DW$26, DW_AT_TI_max_frame_size(-4)
     571                      .dwpsn  file "../sources/dual_axis_servo_drive_user_cpu.c",line 397,column 1,is_stmt,address ||resetC
     572              
     573                      .dwfde $C$DW$CIE, ||resetControlVars||
     574              $C$DW$27        .dwtag  DW_TAG_formal_parameter
     575                      .dwattr $C$DW$27, DW_AT_name("pMotor")
     576                      .dwattr $C$DW$27, DW_AT_type(*$C$DW$T$138)
     577                      .dwattr $C$DW$27, DW_AT_location[DW_OP_reg12]
     578              
     579              
     580              ;***************************************************************
     581              ;* FNAME: resetControlVars              FR SIZE:   2           *
     582              ;*                                                             *
     583              ;* FUNCTION ENVIRONMENT                                        *
     584              ;*                                                             *
     585              ;* FUNCTION PROPERTIES                                         *
     586              ;*                            0 Parameter,  0 Auto,  2 SOE     *
     587              ;***************************************************************
     588              
     589              ||resetControlVars||:
     590              ;* AR4   assigned to pMotor
     591              $C$DW$28        .dwtag  DW_TAG_variable
     592                      .dwattr $C$DW$28, DW_AT_name("pMotor")
TMS320C2000 Assembler PC v22.6.2 Wed Dec 10 14:16:25 2025

Copyright (c) 1996-2018 Texas Instruments Incorporated
dual_axis_servo_drive_user_cpu.asm                                   PAGE   14

     593                      .dwattr $C$DW$28, DW_AT_type(*$C$DW$T$139)
     594                      .dwattr $C$DW$28, DW_AT_location[DW_OP_reg12]
     595              
     596                      .dwcfi  cfa_offset, -2
     597                      .dwcfi  save_reg_to_mem, 26, 0
     598 00000000 B2BD          MOVL      *SP++,XAR1            ; [CPU_ALU] 
     599                      .dwcfi  save_reg_to_mem, 7, 2
     600                      .dwcfi  cfa_offset, -4
     601                      .dwpsn  file "../sources/dual_axis_servo_drive_user_cpu.c",line 403,column 5,is_stmt,isa 0
     602 00000001 8D00          MOVL      XAR0,#294             ; [CPU_ALU] |403| 
         00000002 0126 
     603 00000003 E590          ZERO      R0H                   ; [CPU_FPU] |403| 
     604                      .dwpsn  file "../sources/dual_axis_servo_drive_user_cpu.c",line 411,column 5,is_stmt,isa 0
     605 00000004 8D40          MOVL      XAR1,#348             ; [CPU_ALU] |411| 
         00000005 015C 
     606                      .dwpsn  file "../sources/dual_axis_servo_drive_user_cpu.c",line 403,column 5,is_stmt,isa 0
     607 00000006 E203          MOV32     *+XAR4[AR0],R0H       ; [CPU_FPU] |403| 
         00000007 0094 
     608                      .dwpsn  file "../sources/dual_axis_servo_drive_user_cpu.c",line 404,column 5,is_stmt,isa 0
     609 00000008 8D00          MOVL      XAR0,#292             ; [CPU_ALU] |404| 
         00000009 0124 
     610                      .dwpsn  file "../sources/dual_axis_servo_drive_user_cpu.c",line 401,column 5,is_stmt,isa 0
     611 0000000a E591          ZERO      R1H                   ; [CPU_FPU] |401| 
     612                      .dwpsn  file "../sources/dual_axis_servo_drive_user_cpu.c",line 404,column 5,is_stmt,isa 0
     613 0000000b E203          MOV32     *+XAR4[AR0],R0H       ; [CPU_FPU] |404| 
         0000000c 0094 
     614                      .dwpsn  file "../sources/dual_axis_servo_drive_user_cpu.c",line 405,column 5,is_stmt,isa 0
     615 0000000d 8D00          MOVL      XAR0,#290             ; [CPU_ALU] |405| 
         0000000e 0122 
     616                      .dwpsn  file "../sources/dual_axis_servo_drive_user_cpu.c",line 411,column 5,is_stmt,isa 0
     617 0000000f E203          MOV32     *+XAR4[AR1],R0H       ; [CPU_FPU] |411| 
         00000010 009C 
     618                      .dwpsn  file "../sources/dual_axis_servo_drive_user_cpu.c",line 405,column 5,is_stmt,isa 0
     619 00000011 E203          MOV32     *+XAR4[AR0],R0H       ; [CPU_FPU] |405| 
         00000012 0094 
     620                      .dwpsn  file "../sources/dual_axis_servo_drive_user_cpu.c",line 406,column 5,is_stmt,isa 0
     621 00000013 8D00          MOVL      XAR0,#316             ; [CPU_ALU] |406| 
         00000014 013C 
     622 00000015 E203          MOV32     *+XAR4[AR0],R0H       ; [CPU_FPU] |406| 
         00000016 0094 
     623                      .dwpsn  file "../sources/dual_axis_servo_drive_user_cpu.c",line 408,column 5,is_stmt,isa 0
     624 00000017 8D00          MOVL      XAR0,#326             ; [CPU_ALU] |408| 
         00000018 0146 
     625 00000019 E203          MOV32     *+XAR4[AR0],R0H       ; [CPU_FPU] |408| 
         0000001a 0094 
     626                      .dwpsn  file "../sources/dual_axis_servo_drive_user_cpu.c",line 409,column 5,is_stmt,isa 0
     627 0000001b 8D00          MOVL      XAR0,#324             ; [CPU_ALU] |409| 
         0000001c 0144 
     628 0000001d E203          MOV32     *+XAR4[AR0],R0H       ; [CPU_FPU] |409| 
         0000001e 0094 
     629                      .dwpsn  file "../sources/dual_axis_servo_drive_user_cpu.c",line 410,column 5,is_stmt,isa 0
     630 0000001f 8D00          MOVL      XAR0,#322             ; [CPU_ALU] |410| 
         00000020 0142 
     631 00000021 E203          MOV32     *+XAR4[AR0],R0H       ; [CPU_FPU] |410| 
         00000022 0094 
TMS320C2000 Assembler PC v22.6.2 Wed Dec 10 14:16:25 2025

Copyright (c) 1996-2018 Texas Instruments Incorporated
dual_axis_servo_drive_user_cpu.asm                                   PAGE   15

     632                      .dwpsn  file "../sources/dual_axis_servo_drive_user_cpu.c",line 398,column 5,is_stmt,isa 0
     633 00000023 8D00          MOVL      XAR0,#451             ; [CPU_ALU] |398| 
         00000024 01C3 
     634 00000025 2B94          MOV       *+XAR4[AR0],#0        ; [CPU_ALU] |398| 
     635                      .dwpsn  file "../sources/dual_axis_servo_drive_user_cpu.c",line 400,column 5,is_stmt,isa 0
     636 00000026 8D00          MOVL      XAR0,#448             ; [CPU_ALU] |400| 
         00000027 01C0 
     637 00000028 2B94          MOV       *+XAR4[AR0],#0        ; [CPU_ALU] |400| 
     638                      .dwpsn  file "../sources/dual_axis_servo_drive_user_cpu.c",line 401,column 5,is_stmt,isa 0
     639 00000029 D04E          MOVB      XAR0,#78              ; [CPU_ALU] |401| 
     640 0000002a E203          MOV32     *+XAR4[AR0],R1H       ; [CPU_FPU] |401| 
         0000002b 0194 
     641 0000002c 8BBE          MOVL      XAR1,*--SP            ; [CPU_ALU] 
     642                      .dwcfi  cfa_offset, -2
     643                      .dwcfi  restore_reg, 7
     644              $C$DW$29        .dwtag  DW_TAG_TI_branch
     645                      .dwattr $C$DW$29, DW_AT_low_pc(0x00)
     646                      .dwattr $C$DW$29, DW_AT_TI_return
     647              
     648 0000002d 0006          LRETR     ; [CPU_ALU] 
     649                      ; return occurs ; [] 
     650                      .dwattr $C$DW$26, DW_AT_TI_end_file("../sources/dual_axis_servo_drive_user_cpu.c")
     651                      .dwattr $C$DW$26, DW_AT_TI_end_line(0x19e)
     652                      .dwattr $C$DW$26, DW_AT_TI_end_column(0x01)
     653                      .dwendentry
     654                      .dwendtag $C$DW$26
     655              
     656 00000000               .sect   ".text:initMotorParameters"
     657                      .clink
     658                      .global ||initMotorParameters||
     659              
     660              $C$DW$30        .dwtag  DW_TAG_subprogram
     661                      .dwattr $C$DW$30, DW_AT_name("initMotorParameters")
     662                      .dwattr $C$DW$30, DW_AT_low_pc(||initMotorParameters||)
     663                      .dwattr $C$DW$30, DW_AT_high_pc(0x00)
     664                      .dwattr $C$DW$30, DW_AT_linkage_name("initMotorParameters")
     665                      .dwattr $C$DW$30, DW_AT_external
     666                      .dwattr $C$DW$30, DW_AT_decl_file("../sources/dual_axis_servo_drive_user_cpu.c")
     667                      .dwattr $C$DW$30, DW_AT_decl_line(0x40)
     668                      .dwattr $C$DW$30, DW_AT_decl_column(0x06)
     669                      .dwattr $C$DW$30, DW_AT_TI_max_frame_size(-14)
     670                      .dwpsn  file "../sources/dual_axis_servo_drive_user_cpu.c",line 65,column 1,is_stmt,address ||initMot
     671              
     672                      .dwfde $C$DW$CIE, ||initMotorParameters||
     673              $C$DW$31        .dwtag  DW_TAG_formal_parameter
     674                      .dwattr $C$DW$31, DW_AT_name("pMotor")
     675                      .dwattr $C$DW$31, DW_AT_type(*$C$DW$T$138)
     676                      .dwattr $C$DW$31, DW_AT_location[DW_OP_reg12]
     677              
     678              $C$DW$32        .dwtag  DW_TAG_formal_parameter
     679                      .dwattr $C$DW$32, DW_AT_name("mtrHandle")
     680                      .dwattr $C$DW$32, DW_AT_type(*$C$DW$T$134)
     681                      .dwattr $C$DW$32, DW_AT_location[DW_OP_reg14]
     682              
     683              
TMS320C2000 Assembler PC v22.6.2 Wed Dec 10 14:16:25 2025

Copyright (c) 1996-2018 Texas Instruments Incorporated
dual_axis_servo_drive_user_cpu.asm                                   PAGE   16

     684              ;***************************************************************
     685              ;* FNAME: initMotorParameters           FR SIZE:  12           *
     686              ;*                                                             *
     687              ;* FUNCTION ENVIRONMENT                                        *
     688              ;*                                                             *
     689              ;* FUNCTION PROPERTIES                                         *
     690              ;*                            5 Parameter,  0 Auto,  6 SOE     *
     691              ;***************************************************************
     692              
     693              ||initMotorParameters||:
     694              ;* AL    assigned to $O$K3
     695              ;* AR2   assigned to pMotor
     696              $C$DW$33        .dwtag  DW_TAG_variable
     697                      .dwattr $C$DW$33, DW_AT_name("pMotor")
     698                      .dwattr $C$DW$33, DW_AT_type(*$C$DW$T$139)
     699                      .dwattr $C$DW$33, DW_AT_location[DW_OP_reg8]
     700              
     701              ;* AR3   assigned to mtrHandle
     702              $C$DW$34        .dwtag  DW_TAG_variable
     703                      .dwattr $C$DW$34, DW_AT_name("mtrHandle")
     704                      .dwattr $C$DW$34, DW_AT_type(*$C$DW$T$135)
     705                      .dwattr $C$DW$34, DW_AT_location[DW_OP_reg10]
     706              
     707                      .dwcfi  cfa_offset, -2
     708                      .dwcfi  save_reg_to_mem, 26, 0
     709 00000000 B2BD          MOVL      *SP++,XAR1            ; [CPU_ALU] 
     710                      .dwcfi  save_reg_to_mem, 7, 2
     711                      .dwcfi  cfa_offset, -4
     712 00000001 AABD          MOVL      *SP++,XAR2            ; [CPU_ALU] 
     713                      .dwcfi  save_reg_to_mem, 9, 4
     714                      .dwcfi  cfa_offset, -6
     715 00000002 A2BD          MOVL      *SP++,XAR3            ; [CPU_ALU] 
     716                      .dwcfi  save_reg_to_mem, 11, 6
     717                      .dwcfi  cfa_offset, -8
     718 00000003 FE06          ADDB      SP,#6                 ; [CPU_ARAU] 
     719                      .dwcfi  cfa_offset, -14
     720 00000004 86A4          MOVL      XAR2,XAR4             ; [CPU_ALU] |65| 
     721                      .dwpsn  file "../sources/dual_axis_servo_drive_user_cpu.c",line 68,column 5,is_stmt,isa 0
     722 00000005 8F00!         MOVL      XAR4,#||motorVars||   ; [CPU_ARAU] |68| 
         00000006 0000 
     723                      .dwpsn  file "../sources/dual_axis_servo_drive_user_cpu.c",line 65,column 1,is_stmt,isa 0
     724 00000007 82A5          MOVL      XAR3,XAR5             ; [CPU_ALU] |65| 
     725                      .dwpsn  file "../sources/dual_axis_servo_drive_user_cpu.c",line 68,column 5,is_stmt,isa 0
     726 00000008 A8A9          MOVL      ACC,XAR4              ; [CPU_ALU] |68| 
     727 00000009 0FA2          CMPL      ACC,XAR2              ; [CPU_ALU] |68| 
     728 0000000a FFE1          B         ||$C$L9||,EQ          ; [CPU_ALU] |68| 
         0000000b 012D 
     729                      ; branchcc occurs ; [] |68| 
     730                      .dwpsn  file "../sources/dual_axis_servo_drive_user_cpu.c",line 174,column 10,is_stmt,isa 0
     731 0000000c FF11          ADD       ACC,#229 << 1         ; [CPU_ALU] |174| 
         0000000d 00E5 
     732 0000000e 0FA2          CMPL      ACC,XAR2              ; [CPU_ALU] |174| 
     733 0000000f FFE0          B         ||$C$L11||,NEQ        ; [CPU_ALU] |174| 
         00000010 0250 
     734                      ; branchcc occurs ; [] |174| 
TMS320C2000 Assembler PC v22.6.2 Wed Dec 10 14:16:25 2025

Copyright (c) 1996-2018 Texas Instruments Incorporated
dual_axis_servo_drive_user_cpu.asm                                   PAGE   17

     735                      .dwpsn  file "../sources/dual_axis_servo_drive_user_cpu.c",line 220,column 9,is_stmt,isa 0
     736 00000011 E802          MOVIZ     R1H,#19699            ; [CPU_FPU] |220| 
         00000012 6799 
     737                      .dwpsn  file "../sources/dual_axis_servo_drive_user_cpu.c",line 241,column 9,is_stmt,isa 0
     738 00000013 E801          MOVIZ     R0H,#16349            ; [CPU_FPU] |241| 
         00000014 FEE8 
     739                      .dwpsn  file "../sources/dual_axis_servo_drive_user_cpu.c",line 220,column 9,is_stmt,isa 0
     740 00000015 8D40          MOVL      XAR1,#350             ; [CPU_ALU] |220| 
         00000016 015E 
     741                      .dwpsn  file "../sources/dual_axis_servo_drive_user_cpu.c",line 241,column 9,is_stmt,isa 0
     742 00000017 8D00          MOVL      XAR0,#350             ; [CPU_ALU] |241| 
         00000018 015E 
     743                      .dwpsn  file "../sources/dual_axis_servo_drive_user_cpu.c",line 231,column 9,is_stmt,isa 0
     744 00000019 E805          MOVIZ     R3H,#47616            ; [CPU_FPU] |231| 
         0000001a D003 
     745                      .dwpsn  file "../sources/dual_axis_servo_drive_user_cpu.c",line 220,column 9,is_stmt,isa 0
     746 0000001b E80E          MOVXI     R1H,#49152            ; [CPU_FPU] |220| 
         0000001c 0001 
     747                      .dwpsn  file "../sources/dual_axis_servo_drive_user_cpu.c",line 232,column 9,is_stmt,isa 0
     748 0000001d E805          MOVIZ     R2H,#47616            ; [CPU_FPU] |232| 
         0000001e D002 
     749                      .dwpsn  file "../sources/dual_axis_servo_drive_user_cpu.c",line 241,column 9,is_stmt,isa 0
     750 0000001f E80D          MOVXI     R0H,#46039            ; [CPU_FPU] |241| 
         00000020 9EB8 
     751                      .dwpsn  file "../sources/dual_axis_servo_drive_user_cpu.c",line 220,column 9,is_stmt,isa 0
     752 00000021 E203          MOV32     *+XAR2[AR1],R1H       ; [CPU_FPU] |220| 
         00000022 019A 
     753                      .dwpsn  file "../sources/dual_axis_servo_drive_user_cpu.c",line 241,column 9,is_stmt,isa 0
     754 00000023 E2AF          MOV32     R1H,*+XAR2[AR0]       ; [CPU_FPU] |241| 
         00000024 0192 
     755 00000025 E700          MPYF32    R0H,R0H,R1H           ; [CPU_FPU] |241| 
         00000026 0040 
     756 00000027 8D00          MOVL      XAR0,#358             ; [CPU_ALU] |241| 
         00000028 0166 
     757 00000029 E203          MOV32     *+XAR2[AR0],R0H       ; [CPU_FPU] |241| 
         0000002a 0092 
     758                      .dwpsn  file "../sources/dual_axis_servo_drive_user_cpu.c",line 233,column 9,is_stmt,isa 0
     759 0000002b E805          MOVIZ     R1H,#47744            ; [CPU_FPU] |233| 
         0000002c D401 
     760                      .dwpsn  file "../sources/dual_axis_servo_drive_user_cpu.c",line 231,column 9,is_stmt,isa 0
     761 0000002d 8D00          MOVL      XAR0,#352             ; [CPU_ALU] |231| 
         0000002e 0160 
     762 0000002f E203          MOV32     *+XAR2[AR0],R3H       ; [CPU_FPU] |231| 
         00000030 0392 
     763                      .dwpsn  file "../sources/dual_axis_servo_drive_user_cpu.c",line 232,column 9,is_stmt,isa 0
     764 00000031 8D00          MOVL      XAR0,#354             ; [CPU_ALU] |232| 
         00000032 0162 
     765 00000033 E203          MOV32     *+XAR2[AR0],R2H       ; [CPU_FPU] |232| 
         00000034 0292 
     766                      .dwpsn  file "../sources/dual_axis_servo_drive_user_cpu.c",line 250,column 9,is_stmt,isa 0
     767 00000035 E802          MOVIZ     R3H,#16772            ; [CPU_FPU] |250| 
         00000036 0C23 
     768                      .dwpsn  file "../sources/dual_axis_servo_drive_user_cpu.c",line 233,column 9,is_stmt,isa 0
     769 00000037 8D00          MOVL      XAR0,#356             ; [CPU_ALU] |233| 
         00000038 0164 
TMS320C2000 Assembler PC v22.6.2 Wed Dec 10 14:16:25 2025

Copyright (c) 1996-2018 Texas Instruments Incorporated
dual_axis_servo_drive_user_cpu.asm                                   PAGE   18

     770 00000039 E203          MOV32     *+XAR2[AR0],R1H       ; [CPU_FPU] |233| 
         0000003a 0192 
     771                      .dwpsn  file "../sources/dual_axis_servo_drive_user_cpu.c",line 179,column 9,is_stmt,isa 0
     772 0000003b E802          MOVIZ     R2H,#17658            ; [CPU_FPU] |179| 
         0000003c 27D2 
     773                      .dwpsn  file "../sources/dual_axis_servo_drive_user_cpu.c",line 250,column 9,is_stmt,isa 0
     774 0000003d 8D00          MOVL      XAR0,#372             ; [CPU_ALU] |250| 
         0000003e 0174 
     775                      .dwpsn  file "../sources/dual_axis_servo_drive_user_cpu.c",line 178,column 9,is_stmt,isa 0
     776 0000003f E802          MOVIZ     R0H,#17352            ; [CPU_FPU] |178| 
         00000040 1E40 
     777                      .dwpsn  file "../sources/dual_axis_servo_drive_user_cpu.c",line 250,column 9,is_stmt,isa 0
     778 00000041 E203          MOV32     *+XAR2[AR0],R3H       ; [CPU_FPU] |250| 
         00000042 0392 
     779                      .dwpsn  file "../sources/dual_axis_servo_drive_user_cpu.c",line 181,column 9,is_stmt,isa 0
     780 00000043 E802          MOVIZ     R1H,#16736            ; [CPU_FPU] |181| 
         00000044 0B01 
     781                      .dwpsn  file "../sources/dual_axis_servo_drive_user_cpu.c",line 179,column 9,is_stmt,isa 0
     782 00000045 D010          MOVB      XAR0,#16              ; [CPU_ALU] |179| 
     783 00000046 E203          MOV32     *+XAR2[AR0],R2H       ; [CPU_FPU] |179| 
         00000047 0292 
     784                      .dwpsn  file "../sources/dual_axis_servo_drive_user_cpu.c",line 186,column 9,is_stmt,isa 0
     785 00000048 E802          MOVIZ     R3H,#16912            ; [CPU_FPU] |186| 
         00000049 1083 
     786                      .dwpsn  file "../sources/dual_axis_servo_drive_user_cpu.c",line 181,column 9,is_stmt,isa 0
     787 0000004a D008          MOVB      XAR0,#8               ; [CPU_ALU] |181| 
     788 0000004b E203          MOV32     *+XAR2[AR0],R1H       ; [CPU_FPU] |181| 
         0000004c 0192 
     789                      .dwpsn  file "../sources/dual_axis_servo_drive_user_cpu.c",line 187,column 9,is_stmt,isa 0
     790 0000004d E802          MOVIZ     R2H,#16624            ; [CPU_FPU] |187| 
         0000004e 0782 
     791                      .dwpsn  file "../sources/dual_axis_servo_drive_user_cpu.c",line 186,column 9,is_stmt,isa 0
     792 0000004f D012          MOVB      XAR0,#18              ; [CPU_ALU] |186| 
     793 00000050 E203          MOV32     *+XAR2[AR0],R3H       ; [CPU_FPU] |186| 
         00000051 0392 
     794                      .dwpsn  file "../sources/dual_axis_servo_drive_user_cpu.c",line 189,column 9,is_stmt,isa 0
     795 00000052 E801          MOVIZ     R1H,#16032            ; [CPU_FPU] |189| 
         00000053 F501 
     796                      .dwpsn  file "../sources/dual_axis_servo_drive_user_cpu.c",line 187,column 9,is_stmt,isa 0
     797 00000054 D014          MOVB      XAR0,#20              ; [CPU_ALU] |187| 
     798 00000055 E203          MOV32     *+XAR2[AR0],R2H       ; [CPU_FPU] |187| 
         00000056 0292 
     799                      .dwpsn  file "../sources/dual_axis_servo_drive_user_cpu.c",line 193,column 9,is_stmt,isa 0
     800 00000057 E593          ZERO      R3H                   ; [CPU_FPU] |193| 
     801                      .dwpsn  file "../sources/dual_axis_servo_drive_user_cpu.c",line 271,column 9,is_stmt,isa 0
     802 00000058 8F40          MOVL      XAR5,#2816            ; [CPU_ARAU] |271| 
         00000059 0B00 
     803 0000005a 8F00          MOVL      XAR4,#2880            ; [CPU_ARAU] |271| 
         0000005b 0B40 
     804                      .dwpsn  file "../sources/dual_axis_servo_drive_user_cpu.c",line 189,column 9,is_stmt,isa 0
     805 0000005c D018          MOVB      XAR0,#24              ; [CPU_ALU] |189| 
     806                      .dwpsn  file "../sources/dual_axis_servo_drive_user_cpu.c",line 271,column 9,is_stmt,isa 0
     807 0000005d FF20          MOV       ACC,#29952            ; [CPU_ALU] |271| 
         0000005e 7500 
     808                      .dwpsn  file "../sources/dual_axis_servo_drive_user_cpu.c",line 189,column 9,is_stmt,isa 0
TMS320C2000 Assembler PC v22.6.2 Wed Dec 10 14:16:25 2025

Copyright (c) 1996-2018 Texas Instruments Incorporated
dual_axis_servo_drive_user_cpu.asm                                   PAGE   19

     809 0000005f E203          MOV32     *+XAR2[AR0],R1H       ; [CPU_FPU] |189| 
         00000060 0192 
     810                      .dwpsn  file "../sources/dual_axis_servo_drive_user_cpu.c",line 194,column 9,is_stmt,isa 0
     811 00000061 E592          ZERO      R2H                   ; [CPU_FPU] |194| 
     812                      .dwpsn  file "../sources/dual_axis_servo_drive_user_cpu.c",line 193,column 9,is_stmt,isa 0
     813 00000062 D020          MOVB      XAR0,#32              ; [CPU_ALU] |193| 
     814 00000063 E203          MOV32     *+XAR2[AR0],R3H       ; [CPU_FPU] |193| 
         00000064 0392 
     815                      .dwpsn  file "../sources/dual_axis_servo_drive_user_cpu.c",line 202,column 9,is_stmt,isa 0
     816 00000065 E591          ZERO      R1H                   ; [CPU_FPU] |202| 
     817                      .dwpsn  file "../sources/dual_axis_servo_drive_user_cpu.c",line 194,column 9,is_stmt,isa 0
     818 00000066 D024          MOVB      XAR0,#36              ; [CPU_ALU] |194| 
     819 00000067 E203          MOV32     *+XAR2[AR0],R2H       ; [CPU_FPU] |194| 
         00000068 0292 
     820                      .dwpsn  file "../sources/dual_axis_servo_drive_user_cpu.c",line 207,column 9,is_stmt,isa 0
     821 00000069 E801          MOVIZ     R3H,#15364            ; [CPU_FPU] |207| 
         0000006a E023 
     822                      .dwpsn  file "../sources/dual_axis_servo_drive_user_cpu.c",line 202,column 9,is_stmt,isa 0
     823 0000006b D022          MOVB      XAR0,#34              ; [CPU_ALU] |202| 
     824 0000006c E203          MOV32     *+XAR2[AR0],R1H       ; [CPU_FPU] |202| 
         0000006d 0192 
     825                      .dwpsn  file "../sources/dual_axis_servo_drive_user_cpu.c",line 208,column 9,is_stmt,isa 0
     826 0000006e E801          MOVIZ     R2H,#15523            ; [CPU_FPU] |208| 
         0000006f E51A 
     827                      .dwpsn  file "../sources/dual_axis_servo_drive_user_cpu.c",line 178,column 9,is_stmt,isa 0
     828 00000070 E203          MOV32     *+XAR2[6],R0H         ; [CPU_FPU] |178| 
         00000071 00F2 
     829                      .dwpsn  file "../sources/dual_axis_servo_drive_user_cpu.c",line 207,column 9,is_stmt,isa 0
     830 00000072 D03E          MOVB      XAR0,#62              ; [CPU_ALU] |207| 
     831 00000073 E203          MOV32     *+XAR2[AR0],R3H       ; [CPU_FPU] |207| 
         00000074 0392 
     832                      .dwpsn  file "../sources/dual_axis_servo_drive_user_cpu.c",line 209,column 9,is_stmt,isa 0
     833 00000075 E801          MOVIZ     R1H,#14720            ; [CPU_FPU] |209| 
         00000076 CC01 
     834                      .dwpsn  file "../sources/dual_axis_servo_drive_user_cpu.c",line 208,column 9,is_stmt,isa 0
     835 00000077 D040          MOVB      XAR0,#64              ; [CPU_ALU] |208| 
     836 00000078 E203          MOV32     *+XAR2[AR0],R2H       ; [CPU_FPU] |208| 
         00000079 0292 
     837                      .dwpsn  file "../sources/dual_axis_servo_drive_user_cpu.c",line 213,column 9,is_stmt,isa 0
     838 0000007a E802          MOVIZ     R3H,#16672            ; [CPU_FPU] |213| 
         0000007b 0903 
     839                      .dwpsn  file "../sources/dual_axis_servo_drive_user_cpu.c",line 209,column 9,is_stmt,isa 0
     840 0000007c D042          MOVB      XAR0,#66              ; [CPU_ALU] |209| 
     841 0000007d E203          MOV32     *+XAR2[AR0],R1H       ; [CPU_FPU] |209| 
         0000007e 0192 
     842                      .dwpsn  file "../sources/dual_axis_servo_drive_user_cpu.c",line 214,column 9,is_stmt,isa 0
     843 0000007f E802          MOVIZ     R2H,#16968            ; [CPU_FPU] |214| 
         00000080 1242 
     844                      .dwpsn  file "../sources/dual_axis_servo_drive_user_cpu.c",line 213,column 9,is_stmt,isa 0
     845 00000081 D054          MOVB      XAR0,#84              ; [CPU_ALU] |213| 
     846 00000082 E203          MOV32     *+XAR2[AR0],R3H       ; [CPU_FPU] |213| 
         00000083 0392 
     847                      .dwpsn  file "../sources/dual_axis_servo_drive_user_cpu.c",line 215,column 9,is_stmt,isa 0
     848 00000084 E802          MOVIZ     R1H,#16672            ; [CPU_FPU] |215| 
         00000085 0901 
TMS320C2000 Assembler PC v22.6.2 Wed Dec 10 14:16:25 2025

Copyright (c) 1996-2018 Texas Instruments Incorporated
dual_axis_servo_drive_user_cpu.asm                                   PAGE   20

     849                      .dwpsn  file "../sources/dual_axis_servo_drive_user_cpu.c",line 214,column 9,is_stmt,isa 0
     850 00000086 D056          MOVB      XAR0,#86              ; [CPU_ALU] |214| 
     851                      .dwpsn  file "../sources/dual_axis_servo_drive_user_cpu.c",line 244,column 9,is_stmt,isa 0
     852 00000087 E801          MOVIZ     R3H,#14503            ; [CPU_FPU] |244| 
         00000088 C53B 
     853                      .dwpsn  file "../sources/dual_axis_servo_drive_user_cpu.c",line 214,column 9,is_stmt,isa 0
     854 00000089 E203          MOV32     *+XAR2[AR0],R2H       ; [CPU_FPU] |214| 
         0000008a 0292 
     855                      .dwpsn  file "../sources/dual_axis_servo_drive_user_cpu.c",line 215,column 9,is_stmt,isa 0
     856 0000008b D058          MOVB      XAR0,#88              ; [CPU_ALU] |215| 
     857                      .dwpsn  file "../sources/dual_axis_servo_drive_user_cpu.c",line 244,column 9,is_stmt,isa 0
     858 0000008c E80E          MOVXI     R3H,#50604            ; [CPU_FPU] |244| 
         0000008d 2D63 
     859                      .dwpsn  file "../sources/dual_axis_servo_drive_user_cpu.c",line 245,column 9,is_stmt,isa 0
     860 0000008e E801          MOVIZ     R2H,#16067            ; [CPU_FPU] |245| 
         0000008f F61A 
     861                      .dwpsn  file "../sources/dual_axis_servo_drive_user_cpu.c",line 215,column 9,is_stmt,isa 0
     862 00000090 E203          MOV32     *+XAR2[AR0],R1H       ; [CPU_FPU] |215| 
         00000091 0192 
     863                      .dwpsn  file "../sources/dual_axis_servo_drive_user_cpu.c",line 244,column 9,is_stmt,isa 0
     864 00000092 8D00          MOVL      XAR0,#360             ; [CPU_ALU] |244| 
         00000093 0168 
     865                      .dwpsn  file "../sources/dual_axis_servo_drive_user_cpu.c",line 246,column 9,is_stmt,isa 0
     866 00000094 E801          MOVIZ     R1H,#16067            ; [CPU_FPU] |246| 
         00000095 F619 
     867                      .dwpsn  file "../sources/dual_axis_servo_drive_user_cpu.c",line 245,column 9,is_stmt,isa 0
     868 00000096 E809          MOVXI     R2H,#15953            ; [CPU_FPU] |245| 
         00000097 F28A 
     869                      .dwpsn  file "../sources/dual_axis_servo_drive_user_cpu.c",line 244,column 9,is_stmt,isa 0
     870 00000098 E203          MOV32     *+XAR2[AR0],R3H       ; [CPU_FPU] |244| 
         00000099 0392 
     871                      .dwpsn  file "../sources/dual_axis_servo_drive_user_cpu.c",line 245,column 9,is_stmt,isa 0
     872 0000009a 8D00          MOVL      XAR0,#362             ; [CPU_ALU] |245| 
         0000009b 016A 
     873                      .dwpsn  file "../sources/dual_axis_servo_drive_user_cpu.c",line 246,column 9,is_stmt,isa 0
     874 0000009c E809          MOVXI     R1H,#15953            ; [CPU_FPU] |246| 
         0000009d F289 
     875                      .dwpsn  file "../sources/dual_axis_servo_drive_user_cpu.c",line 247,column 9,is_stmt,isa 0
     876 0000009e E801          MOVIZ     R3H,#14642            ; [CPU_FPU] |247| 
         0000009f C993 
     877                      .dwpsn  file "../sources/dual_axis_servo_drive_user_cpu.c",line 245,column 9,is_stmt,isa 0
     878 000000a0 E203          MOV32     *+XAR2[AR0],R2H       ; [CPU_FPU] |245| 
         000000a1 0292 
     879                      .dwpsn  file "../sources/dual_axis_servo_drive_user_cpu.c",line 246,column 9,is_stmt,isa 0
     880 000000a2 8D00          MOVL      XAR0,#364             ; [CPU_ALU] |246| 
         000000a3 016C 
     881                      .dwpsn  file "../sources/dual_axis_servo_drive_user_cpu.c",line 248,column 9,is_stmt,isa 0
     882 000000a4 E801          MOVIZ     R2H,#14642            ; [CPU_FPU] |248| 
         000000a5 C992 
     883                      .dwpsn  file "../sources/dual_axis_servo_drive_user_cpu.c",line 247,column 9,is_stmt,isa 0
     884 000000a6 E808          MOVXI     R3H,#2594             ; [CPU_FPU] |247| 
         000000a7 5113 
     885                      .dwpsn  file "../sources/dual_axis_servo_drive_user_cpu.c",line 246,column 9,is_stmt,isa 0
     886 000000a8 E203          MOV32     *+XAR2[AR0],R1H       ; [CPU_FPU] |246| 
         000000a9 0192 
TMS320C2000 Assembler PC v22.6.2 Wed Dec 10 14:16:25 2025

Copyright (c) 1996-2018 Texas Instruments Incorporated
dual_axis_servo_drive_user_cpu.asm                                   PAGE   21

     887                      .dwpsn  file "../sources/dual_axis_servo_drive_user_cpu.c",line 247,column 9,is_stmt,isa 0
     888 000000aa 8D00          MOVL      XAR0,#366             ; [CPU_ALU] |247| 
         000000ab 016E 
     889                      .dwpsn  file "../sources/dual_axis_servo_drive_user_cpu.c",line 248,column 9,is_stmt,isa 0
     890 000000ac E808          MOVXI     R2H,#2594             ; [CPU_FPU] |248| 
         000000ad 5112 
     891                      .dwpsn  file "../sources/dual_axis_servo_drive_user_cpu.c",line 249,column 9,is_stmt,isa 0
     892 000000ae E801          MOVIZ     R1H,#15651            ; [CPU_FPU] |249| 
         000000af E919 
     893                      .dwpsn  file "../sources/dual_axis_servo_drive_user_cpu.c",line 247,column 9,is_stmt,isa 0
     894 000000b0 E203          MOV32     *+XAR2[AR0],R3H       ; [CPU_FPU] |247| 
         000000b1 0392 
     895                      .dwpsn  file "../sources/dual_axis_servo_drive_user_cpu.c",line 248,column 9,is_stmt,isa 0
     896 000000b2 8D00          MOVL      XAR0,#368             ; [CPU_ALU] |248| 
         000000b3 0170 
     897                      .dwpsn  file "../sources/dual_axis_servo_drive_user_cpu.c",line 251,column 9,is_stmt,isa 0
     898 000000b4 E802          MOVIZ     R3H,#17693            ; [CPU_FPU] |251| 
         000000b5 28EB 
     899                      .dwpsn  file "../sources/dual_axis_servo_drive_user_cpu.c",line 249,column 9,is_stmt,isa 0
     900 000000b6 E80E          MOVXI     R1H,#55050            ; [CPU_FPU] |249| 
         000000b7 B851 
     901                      .dwpsn  file "../sources/dual_axis_servo_drive_user_cpu.c",line 248,column 9,is_stmt,isa 0
     902 000000b8 E203          MOV32     *+XAR2[AR0],R2H       ; [CPU_FPU] |248| 
         000000b9 0292 
     903                      .dwpsn  file "../sources/dual_axis_servo_drive_user_cpu.c",line 249,column 9,is_stmt,isa 0
     904 000000ba 8D00          MOVL      XAR0,#382             ; [CPU_ALU] |249| 
         000000bb 017E 
     905                      .dwpsn  file "../sources/dual_axis_servo_drive_user_cpu.c",line 251,column 9,is_stmt,isa 0
     906 000000bc E808          MOVXI     R3H,#5219             ; [CPU_FPU] |251| 
         000000bd A31B 
     907                      .dwpsn  file "../sources/dual_axis_servo_drive_user_cpu.c",line 252,column 9,is_stmt,isa 0
     908 000000be E802          MOVIZ     R2H,#17476            ; [CPU_FPU] |252| 
         000000bf 2222 
     909                      .dwpsn  file "../sources/dual_axis_servo_drive_user_cpu.c",line 249,column 9,is_stmt,isa 0
     910 000000c0 E203          MOV32     *+XAR2[AR0],R1H       ; [CPU_FPU] |249| 
         000000c1 0192 
     911                      .dwpsn  file "../sources/dual_axis_servo_drive_user_cpu.c",line 251,column 9,is_stmt,isa 0
     912 000000c2 8D00          MOVL      XAR0,#384             ; [CPU_ALU] |251| 
         000000c3 0180 
     913                      .dwpsn  file "../sources/dual_axis_servo_drive_user_cpu.c",line 253,column 9,is_stmt,isa 0
     914 000000c4 E802          MOVIZ     R1H,#17476            ; [CPU_FPU] |253| 
         000000c5 2221 
     915                      .dwpsn  file "../sources/dual_axis_servo_drive_user_cpu.c",line 252,column 9,is_stmt,isa 0
     916 000000c6 E80A          MOVXI     R2H,#22908            ; [CPU_FPU] |252| 
         000000c7 CBE2 
     917                      .dwpsn  file "../sources/dual_axis_servo_drive_user_cpu.c",line 251,column 9,is_stmt,isa 0
     918 000000c8 E203          MOV32     *+XAR2[AR0],R3H       ; [CPU_FPU] |251| 
         000000c9 0392 
     919                      .dwpsn  file "../sources/dual_axis_servo_drive_user_cpu.c",line 252,column 9,is_stmt,isa 0
     920 000000ca 8D00          MOVL      XAR0,#376             ; [CPU_ALU] |252| 
         000000cb 0178 
     921                      .dwpsn  file "../sources/dual_axis_servo_drive_user_cpu.c",line 253,column 9,is_stmt,isa 0
     922 000000cc E80A          MOVXI     R1H,#22908            ; [CPU_FPU] |253| 
         000000cd CBE1 
     923                      .dwpsn  file "../sources/dual_axis_servo_drive_user_cpu.c",line 182,column 9,is_stmt,isa 0
TMS320C2000 Assembler PC v22.6.2 Wed Dec 10 14:16:25 2025

Copyright (c) 1996-2018 Texas Instruments Incorporated
dual_axis_servo_drive_user_cpu.asm                                   PAGE   22

     924 000000ce E801          MOVIZ     R3H,#14723            ; [CPU_FPU] |182| 
         000000cf CC1B 
     925                      .dwpsn  file "../sources/dual_axis_servo_drive_user_cpu.c",line 252,column 9,is_stmt,isa 0
     926 000000d0 E203          MOV32     *+XAR2[AR0],R2H       ; [CPU_FPU] |252| 
         000000d1 0292 
     927                      .dwpsn  file "../sources/dual_axis_servo_drive_user_cpu.c",line 253,column 9,is_stmt,isa 0
     928 000000d2 8D00          MOVL      XAR0,#378             ; [CPU_ALU] |253| 
         000000d3 017A 
     929                      .dwpsn  file "../sources/dual_axis_servo_drive_user_cpu.c",line 184,column 9,is_stmt,isa 0
     930 000000d4 E801          MOVIZ     R2H,#14503            ; [CPU_FPU] |184| 
         000000d5 C53A 
     931                      .dwpsn  file "../sources/dual_axis_servo_drive_user_cpu.c",line 182,column 9,is_stmt,isa 0
     932 000000d6 E808          MOVXI     R3H,#4719             ; [CPU_FPU] |182| 
         000000d7 937B 
     933                      .dwpsn  file "../sources/dual_axis_servo_drive_user_cpu.c",line 253,column 9,is_stmt,isa 0
     934 000000d8 E203          MOV32     *+XAR2[AR0],R1H       ; [CPU_FPU] |253| 
         000000d9 0192 
     935                      .dwpsn  file "../sources/dual_axis_servo_drive_user_cpu.c",line 182,column 9,is_stmt,isa 0
     936 000000da D00A          MOVB      XAR0,#10              ; [CPU_ALU] |182| 
     937                      .dwpsn  file "../sources/dual_axis_servo_drive_user_cpu.c",line 184,column 9,is_stmt,isa 0
     938 000000db E80E          MOVXI     R2H,#50605            ; [CPU_FPU] |184| 
         000000dc 2D6A 
     939                      .dwpsn  file "../sources/dual_axis_servo_drive_user_cpu.c",line 188,column 9,is_stmt,isa 0
     940 000000dd E801          MOVIZ     R1H,#15564            ; [CPU_FPU] |188| 
         000000de E661 
     941                      .dwpsn  file "../sources/dual_axis_servo_drive_user_cpu.c",line 182,column 9,is_stmt,isa 0
     942 000000df E203          MOV32     *+XAR2[AR0],R3H       ; [CPU_FPU] |182| 
         000000e0 0392 
     943                      .dwpsn  file "../sources/dual_axis_servo_drive_user_cpu.c",line 184,column 9,is_stmt,isa 0
     944 000000e1 D00C          MOVB      XAR0,#12              ; [CPU_ALU] |184| 
     945                      .dwpsn  file "../sources/dual_axis_servo_drive_user_cpu.c",line 192,column 9,is_stmt,isa 0
     946 000000e2 E801          MOVIZ     R3H,#15948            ; [CPU_FPU] |192| 
         000000e3 F263 
     947                      .dwpsn  file "../sources/dual_axis_servo_drive_user_cpu.c",line 188,column 9,is_stmt,isa 0
     948 000000e4 E80E          MOVXI     R1H,#52429            ; [CPU_FPU] |188| 
         000000e5 6669 
     949                      .dwpsn  file "../sources/dual_axis_servo_drive_user_cpu.c",line 184,column 9,is_stmt,isa 0
     950 000000e6 E203          MOV32     *+XAR2[AR0],R2H       ; [CPU_FPU] |184| 
         000000e7 0292 
     951                      .dwpsn  file "../sources/dual_axis_servo_drive_user_cpu.c",line 188,column 9,is_stmt,isa 0
     952 000000e8 D016          MOVB      XAR0,#22              ; [CPU_ALU] |188| 
     953                      .dwpsn  file "../sources/dual_axis_servo_drive_user_cpu.c",line 192,column 9,is_stmt,isa 0
     954 000000e9 E80E          MOVXI     R3H,#52429            ; [CPU_FPU] |192| 
         000000ea 666B 
     955                      .dwpsn  file "../sources/dual_axis_servo_drive_user_cpu.c",line 203,column 9,is_stmt,isa 0
     956 000000eb E801          MOVIZ     R2H,#15820            ; [CPU_FPU] |203| 
         000000ec EE62 
     957                      .dwpsn  file "../sources/dual_axis_servo_drive_user_cpu.c",line 188,column 9,is_stmt,isa 0
     958 000000ed E203          MOV32     *+XAR2[AR0],R1H       ; [CPU_FPU] |188| 
         000000ee 0192 
     959                      .dwpsn  file "../sources/dual_axis_servo_drive_user_cpu.c",line 192,column 9,is_stmt,isa 0
     960 000000ef D01E          MOVB      XAR0,#30              ; [CPU_ALU] |192| 
     961                      .dwpsn  file "../sources/dual_axis_servo_drive_user_cpu.c",line 204,column 9,is_stmt,isa 0
     962 000000f0 E801          MOVIZ     R1H,#15692            ; [CPU_FPU] |204| 
         000000f1 EA61 
TMS320C2000 Assembler PC v22.6.2 Wed Dec 10 14:16:25 2025

Copyright (c) 1996-2018 Texas Instruments Incorporated
dual_axis_servo_drive_user_cpu.asm                                   PAGE   23

     963                      .dwpsn  file "../sources/dual_axis_servo_drive_user_cpu.c",line 203,column 9,is_stmt,isa 0
     964 000000f2 E80E          MOVXI     R2H,#52429            ; [CPU_FPU] |203| 
         000000f3 666A 
     965                      .dwpsn  file "../sources/dual_axis_servo_drive_user_cpu.c",line 192,column 9,is_stmt,isa 0
     966 000000f4 E203          MOV32     *+XAR2[AR0],R3H       ; [CPU_FPU] |192| 
         000000f5 0392 
     967                      .dwpsn  file "../sources/dual_axis_servo_drive_user_cpu.c",line 203,column 9,is_stmt,isa 0
     968 000000f6 D02C          MOVB      XAR0,#44              ; [CPU_ALU] |203| 
     969                      .dwpsn  file "../sources/dual_axis_servo_drive_user_cpu.c",line 204,column 9,is_stmt,isa 0
     970 000000f7 E80E          MOVXI     R1H,#52429            ; [CPU_FPU] |204| 
         000000f8 6669 
     971                      .dwpsn  file "../sources/dual_axis_servo_drive_user_cpu.c",line 210,column 9,is_stmt,isa 0
     972 000000f9 E802          MOVIZ     R3H,#17144            ; [CPU_FPU] |210| 
         000000fa 17C3 
     973                      .dwpsn  file "../sources/dual_axis_servo_drive_user_cpu.c",line 203,column 9,is_stmt,isa 0
     974 000000fb E203          MOV32     *+XAR2[AR0],R2H       ; [CPU_FPU] |203| 
         000000fc 0292 
     975                      .dwpsn  file "../sources/dual_axis_servo_drive_user_cpu.c",line 204,column 9,is_stmt,isa 0
     976 000000fd D030          MOVB      XAR0,#48              ; [CPU_ALU] |204| 
     977                      .dwpsn  file "../sources/dual_axis_servo_drive_user_cpu.c",line 211,column 9,is_stmt,isa 0
     978 000000fe E802          MOVIZ     R2H,#16969            ; [CPU_FPU] |211| 
         000000ff 124A 
     979                      .dwpsn  file "../sources/dual_axis_servo_drive_user_cpu.c",line 210,column 9,is_stmt,isa 0
     980 00000100 E809          MOVXI     R3H,#15888            ; [CPU_FPU] |210| 
         00000101 F083 
     981                      .dwpsn  file "../sources/dual_axis_servo_drive_user_cpu.c",line 204,column 9,is_stmt,isa 0
     982 00000102 E203          MOV32     *+XAR2[AR0],R1H       ; [CPU_FPU] |204| 
         00000103 0192 
     983                      .dwpsn  file "../sources/dual_axis_servo_drive_user_cpu.c",line 210,column 9,is_stmt,isa 0
     984 00000104 D044          MOVB      XAR0,#68              ; [CPU_ALU] |210| 
     985                      .dwpsn  file "../sources/dual_axis_servo_drive_user_cpu.c",line 211,column 9,is_stmt,isa 0
     986 00000105 E808          MOVXI     R2H,#2010             ; [CPU_FPU] |211| 
         00000106 3ED2 
     987                      .dwpsn  file "../sources/dual_axis_servo_drive_user_cpu.c",line 218,column 9,is_stmt,isa 0
     988 00000107 E801          MOVIZ     R1H,#16249            ; [CPU_FPU] |218| 
         00000108 FBC9 
     989                      .dwpsn  file "../sources/dual_axis_servo_drive_user_cpu.c",line 210,column 9,is_stmt,isa 0
     990 00000109 E203          MOV32     *+XAR2[AR0],R3H       ; [CPU_FPU] |210| 
         0000010a 0392 
     991                      .dwpsn  file "../sources/dual_axis_servo_drive_user_cpu.c",line 211,column 9,is_stmt,isa 0
     992 0000010b D046          MOVB      XAR0,#70              ; [CPU_ALU] |211| 
     993                      .dwpsn  file "../sources/dual_axis_servo_drive_user_cpu.c",line 218,column 9,is_stmt,isa 0
     994 0000010c E80C          MOVXI     R1H,#39322            ; [CPU_FPU] |218| 
         0000010d CCD1 
     995                      .dwpsn  file "../sources/dual_axis_servo_drive_user_cpu.c",line 211,column 9,is_stmt,isa 0
     996 0000010e E203          MOV32     *+XAR2[AR0],R2H       ; [CPU_FPU] |211| 
         0000010f 0292 
     997                      .dwpsn  file "../sources/dual_axis_servo_drive_user_cpu.c",line 218,column 9,is_stmt,isa 0
     998 00000110 D00E          MOVB      XAR0,#14              ; [CPU_ALU] |218| 
     999 00000111 E203          MOV32     *+XAR2[AR0],R1H       ; [CPU_FPU] |218| 
         00000112 0192 
    1000                      .dwpsn  file "../sources/dual_axis_servo_drive_user_cpu.c",line 176,column 9,is_stmt,isa 0
    1001 00000113 8D00          MOVL      XAR0,#450             ; [CPU_ALU] |176| 
         00000114 01C2 
    1002 00000115 56BF          MOVB      *+XAR2[AR0],#1,UNC    ; [CPU_ALU] |176| 
TMS320C2000 Assembler PC v22.6.2 Wed Dec 10 14:16:25 2025

Copyright (c) 1996-2018 Texas Instruments Incorporated
dual_axis_servo_drive_user_cpu.asm                                   PAGE   24

         00000116 0192 
    1003                      .dwpsn  file "../sources/dual_axis_servo_drive_user_cpu.c",line 255,column 9,is_stmt,isa 0
    1004 00000117 8D00          MOVL      XAR0,#442             ; [CPU_ALU] |255| 
         00000118 01BA 
    1005 00000119 56BF          MOVB      *+XAR2[AR0],#39,UNC   ; [CPU_ALU] |255| 
         0000011a 2792 
    1006                      .dwpsn  file "../sources/dual_axis_servo_drive_user_cpu.c",line 256,column 9,is_stmt,isa 0
    1007 0000011b 8D00          MOVL      XAR0,#443             ; [CPU_ALU] |256| 
         0000011c 01BB 
    1008 0000011d 56BF          MOVB      *+XAR2[AR0],#45,UNC   ; [CPU_ALU] |256| 
         0000011e 2D92 
    1009                      .dwpsn  file "../sources/dual_axis_servo_drive_user_cpu.c",line 257,column 9,is_stmt,isa 0
    1010 0000011f 8D00          MOVL      XAR0,#444             ; [CPU_ALU] |257| 
         00000120 01BC 
    1011 00000121 56BF          MOVB      *+XAR2[AR0],#33,UNC   ; [CPU_ALU] |257| 
         00000122 2192 
    1012                      .dwpsn  file "../sources/dual_axis_servo_drive_user_cpu.c",line 259,column 9,is_stmt,isa 0
    1013 00000123 8D00          MOVL      XAR0,#440             ; [CPU_ALU] |259| 
         00000124 01B8 
    1014 00000125 2892          MOV       *+XAR2[AR0],#2978     ; [CPU_ALU] |259| 
         00000126 0BA2 
    1015                      .dwpsn  file "../sources/dual_axis_servo_drive_user_cpu.c",line 262,column 9,is_stmt,isa 0
    1016 00000127 8D00          MOVL      XAR0,#441             ; [CPU_ALU] |262| 
         00000128 01B9 
    1017 00000129 2892          MOV       *+XAR2[AR0],#1118     ; [CPU_ALU] |262| 
         0000012a 045E 
    1018                      .dwpsn  file "../sources/dual_axis_servo_drive_user_cpu.c",line 271,column 9,is_stmt,isa 0
    1019 0000012b A042          MOVL      *-SP[2],XAR5          ; [CPU_ALU] |271| 
    1020 0000012c D502          MOVB      XAR5,#2               ; [CPU_ALU] |271| 
    1021 0000012d A844          MOVL      *-SP[4],XAR4          ; [CPU_ALU] |271| 
    1022 0000012e 8AA2          MOVL      XAR4,XAR2             ; [CPU_ALU] |271| 
    1023 0000012f 56BF          MOVB      *-SP[5],#2,UNC        ; [CPU_ALU] |271| 
         00000130 0245 
    1024              $C$DW$35        .dwtag  DW_TAG_TI_branch
    1025                      .dwattr $C$DW$35, DW_AT_low_pc(0x00)
    1026                      .dwattr $C$DW$35, DW_AT_name("FCL_initADC_2In")
    1027                      .dwattr $C$DW$35, DW_AT_TI_call
    1028              
    1029 00000131 7640!         LCR       #||FCL_initADC_2In||  ; [CPU_ALU] |271| 
         00000132 0000 
    1030                      ; call occurs [#||FCL_initADC_2In||] ; [] |271| 
    1031                      .dwpsn  file "../sources/dual_axis_servo_drive_user_cpu.c",line 277,column 9,is_stmt,isa 0
    1032 00000133 8F00          MOVL      XAR4,#2902            ; [CPU_ARAU] |277| 
         00000134 0B56 
    1033 00000135 FFEF          B         ||$C$L10||,UNC        ; [CPU_ALU] |277| 
         00000136 0124 
    1034                      ; branch occurs ; [] |277| 
    1035 00000137       ||$C$L9||:    
    1036                      .dwpsn  file "../sources/dual_axis_servo_drive_user_cpu.c",line 114,column 9,is_stmt,isa 0
    1037 00000137 E802          MOVIZ     R1H,#19699            ; [CPU_FPU] |114| 
         00000138 6799 
    1038                      .dwpsn  file "../sources/dual_axis_servo_drive_user_cpu.c",line 135,column 9,is_stmt,isa 0
    1039 00000139 E801          MOVIZ     R0H,#16349            ; [CPU_FPU] |135| 
         0000013a FEE8 
    1040                      .dwpsn  file "../sources/dual_axis_servo_drive_user_cpu.c",line 114,column 9,is_stmt,isa 0
TMS320C2000 Assembler PC v22.6.2 Wed Dec 10 14:16:25 2025

Copyright (c) 1996-2018 Texas Instruments Incorporated
dual_axis_servo_drive_user_cpu.asm                                   PAGE   25

    1041 0000013b 8D40          MOVL      XAR1,#350             ; [CPU_ALU] |114| 
         0000013c 015E 
    1042                      .dwpsn  file "../sources/dual_axis_servo_drive_user_cpu.c",line 135,column 9,is_stmt,isa 0
    1043 0000013d 8D00          MOVL      XAR0,#350             ; [CPU_ALU] |135| 
         0000013e 015E 
    1044                      .dwpsn  file "../sources/dual_axis_servo_drive_user_cpu.c",line 125,column 9,is_stmt,isa 0
    1045 0000013f E805          MOVIZ     R3H,#47616            ; [CPU_FPU] |125| 
         00000140 D003 
    1046                      .dwpsn  file "../sources/dual_axis_servo_drive_user_cpu.c",line 114,column 9,is_stmt,isa 0
    1047 00000141 E80E          MOVXI     R1H,#49152            ; [CPU_FPU] |114| 
         00000142 0001 
    1048                      .dwpsn  file "../sources/dual_axis_servo_drive_user_cpu.c",line 126,column 9,is_stmt,isa 0
    1049 00000143 E805          MOVIZ     R2H,#47616            ; [CPU_FPU] |126| 
         00000144 D002 
    1050                      .dwpsn  file "../sources/dual_axis_servo_drive_user_cpu.c",line 135,column 9,is_stmt,isa 0
    1051 00000145 E80D          MOVXI     R0H,#46039            ; [CPU_FPU] |135| 
         00000146 9EB8 
    1052                      .dwpsn  file "../sources/dual_axis_servo_drive_user_cpu.c",line 114,column 9,is_stmt,isa 0
    1053 00000147 E203          MOV32     *+XAR2[AR1],R1H       ; [CPU_FPU] |114| 
         00000148 019A 
    1054                      .dwpsn  file "../sources/dual_axis_servo_drive_user_cpu.c",line 135,column 9,is_stmt,isa 0
    1055 00000149 E2AF          MOV32     R1H,*+XAR2[AR0]       ; [CPU_FPU] |135| 
         0000014a 0192 
    1056 0000014b E700          MPYF32    R0H,R0H,R1H           ; [CPU_FPU] |135| 
         0000014c 0040 
    1057 0000014d 8D00          MOVL      XAR0,#358             ; [CPU_ALU] |135| 
         0000014e 0166 
    1058 0000014f E203          MOV32     *+XAR2[AR0],R0H       ; [CPU_FPU] |135| 
         00000150 0092 
    1059                      .dwpsn  file "../sources/dual_axis_servo_drive_user_cpu.c",line 127,column 9,is_stmt,isa 0
    1060 00000151 E805          MOVIZ     R1H,#47744            ; [CPU_FPU] |127| 
         00000152 D401 
    1061                      .dwpsn  file "../sources/dual_axis_servo_drive_user_cpu.c",line 125,column 9,is_stmt,isa 0
    1062 00000153 8D00          MOVL      XAR0,#352             ; [CPU_ALU] |125| 
         00000154 0160 
    1063 00000155 E203          MOV32     *+XAR2[AR0],R3H       ; [CPU_FPU] |125| 
         00000156 0392 
    1064                      .dwpsn  file "../sources/dual_axis_servo_drive_user_cpu.c",line 126,column 9,is_stmt,isa 0
    1065 00000157 8D00          MOVL      XAR0,#354             ; [CPU_ALU] |126| 
         00000158 0162 
    1066 00000159 E203          MOV32     *+XAR2[AR0],R2H       ; [CPU_FPU] |126| 
         0000015a 0292 
    1067                      .dwpsn  file "../sources/dual_axis_servo_drive_user_cpu.c",line 144,column 9,is_stmt,isa 0
    1068 0000015b E802          MOVIZ     R3H,#16772            ; [CPU_FPU] |144| 
         0000015c 0C23 
    1069                      .dwpsn  file "../sources/dual_axis_servo_drive_user_cpu.c",line 127,column 9,is_stmt,isa 0
    1070 0000015d 8D00          MOVL      XAR0,#356             ; [CPU_ALU] |127| 
         0000015e 0164 
    1071 0000015f E203          MOV32     *+XAR2[AR0],R1H       ; [CPU_FPU] |127| 
         00000160 0192 
    1072                      .dwpsn  file "../sources/dual_axis_servo_drive_user_cpu.c",line 73,column 9,is_stmt,isa 0
    1073 00000161 E802          MOVIZ     R2H,#17658            ; [CPU_FPU] |73| 
         00000162 27D2 
    1074                      .dwpsn  file "../sources/dual_axis_servo_drive_user_cpu.c",line 144,column 9,is_stmt,isa 0
    1075 00000163 8D00          MOVL      XAR0,#372             ; [CPU_ALU] |144| 
TMS320C2000 Assembler PC v22.6.2 Wed Dec 10 14:16:25 2025

Copyright (c) 1996-2018 Texas Instruments Incorporated
dual_axis_servo_drive_user_cpu.asm                                   PAGE   26

         00000164 0174 
    1076                      .dwpsn  file "../sources/dual_axis_servo_drive_user_cpu.c",line 72,column 9,is_stmt,isa 0
    1077 00000165 E802          MOVIZ     R0H,#17352            ; [CPU_FPU] |72| 
         00000166 1E40 
    1078                      .dwpsn  file "../sources/dual_axis_servo_drive_user_cpu.c",line 144,column 9,is_stmt,isa 0
    1079 00000167 E203          MOV32     *+XAR2[AR0],R3H       ; [CPU_FPU] |144| 
         00000168 0392 
    1080                      .dwpsn  file "../sources/dual_axis_servo_drive_user_cpu.c",line 75,column 9,is_stmt,isa 0
    1081 00000169 E802          MOVIZ     R1H,#16512            ; [CPU_FPU] |75| 
         0000016a 0401 
    1082                      .dwpsn  file "../sources/dual_axis_servo_drive_user_cpu.c",line 73,column 9,is_stmt,isa 0
    1083 0000016b D010          MOVB      XAR0,#16              ; [CPU_ALU] |73| 
    1084 0000016c E203          MOV32     *+XAR2[AR0],R2H       ; [CPU_FPU] |73| 
         0000016d 0292 
    1085                      .dwpsn  file "../sources/dual_axis_servo_drive_user_cpu.c",line 80,column 9,is_stmt,isa 0
    1086 0000016e E802          MOVIZ     R3H,#16912            ; [CPU_FPU] |80| 
         0000016f 1083 
    1087                      .dwpsn  file "../sources/dual_axis_servo_drive_user_cpu.c",line 75,column 9,is_stmt,isa 0
    1088 00000170 D008          MOVB      XAR0,#8               ; [CPU_ALU] |75| 
    1089 00000171 E203          MOV32     *+XAR2[AR0],R1H       ; [CPU_FPU] |75| 
         00000172 0192 
    1090                      .dwpsn  file "../sources/dual_axis_servo_drive_user_cpu.c",line 81,column 9,is_stmt,isa 0
    1091 00000173 E802          MOVIZ     R2H,#16624            ; [CPU_FPU] |81| 
         00000174 0782 
    1092                      .dwpsn  file "../sources/dual_axis_servo_drive_user_cpu.c",line 80,column 9,is_stmt,isa 0
    1093 00000175 D012          MOVB      XAR0,#18              ; [CPU_ALU] |80| 
    1094 00000176 E203          MOV32     *+XAR2[AR0],R3H       ; [CPU_FPU] |80| 
         00000177 0392 
    1095                      .dwpsn  file "../sources/dual_axis_servo_drive_user_cpu.c",line 83,column 9,is_stmt,isa 0
    1096 00000178 E801          MOVIZ     R1H,#16032            ; [CPU_FPU] |83| 
         00000179 F501 
    1097                      .dwpsn  file "../sources/dual_axis_servo_drive_user_cpu.c",line 81,column 9,is_stmt,isa 0
    1098 0000017a D014          MOVB      XAR0,#20              ; [CPU_ALU] |81| 
    1099 0000017b E203          MOV32     *+XAR2[AR0],R2H       ; [CPU_FPU] |81| 
         0000017c 0292 
    1100                      .dwpsn  file "../sources/dual_axis_servo_drive_user_cpu.c",line 87,column 9,is_stmt,isa 0
    1101 0000017d E593          ZERO      R3H                   ; [CPU_FPU] |87| 
    1102                      .dwpsn  file "../sources/dual_axis_servo_drive_user_cpu.c",line 165,column 9,is_stmt,isa 0
    1103 0000017e 8F40          MOVL      XAR5,#2880            ; [CPU_ARAU] |165| 
         0000017f 0B40 
    1104 00000180 8F00          MOVL      XAR4,#2816            ; [CPU_ARAU] |165| 
         00000181 0B00 
    1105                      .dwpsn  file "../sources/dual_axis_servo_drive_user_cpu.c",line 83,column 9,is_stmt,isa 0
    1106 00000182 D018          MOVB      XAR0,#24              ; [CPU_ALU] |83| 
    1107                      .dwpsn  file "../sources/dual_axis_servo_drive_user_cpu.c",line 165,column 9,is_stmt,isa 0
    1108 00000183 FF20          MOV       ACC,#29696            ; [CPU_ALU] |165| 
         00000184 7400 
    1109                      .dwpsn  file "../sources/dual_axis_servo_drive_user_cpu.c",line 83,column 9,is_stmt,isa 0
    1110 00000185 E203          MOV32     *+XAR2[AR0],R1H       ; [CPU_FPU] |83| 
         00000186 0192 
    1111                      .dwpsn  file "../sources/dual_axis_servo_drive_user_cpu.c",line 88,column 9,is_stmt,isa 0
    1112 00000187 E592          ZERO      R2H                   ; [CPU_FPU] |88| 
    1113                      .dwpsn  file "../sources/dual_axis_servo_drive_user_cpu.c",line 87,column 9,is_stmt,isa 0
    1114 00000188 D020          MOVB      XAR0,#32              ; [CPU_ALU] |87| 
    1115 00000189 E203          MOV32     *+XAR2[AR0],R3H       ; [CPU_FPU] |87| 
TMS320C2000 Assembler PC v22.6.2 Wed Dec 10 14:16:25 2025

Copyright (c) 1996-2018 Texas Instruments Incorporated
dual_axis_servo_drive_user_cpu.asm                                   PAGE   27

         0000018a 0392 
    1116                      .dwpsn  file "../sources/dual_axis_servo_drive_user_cpu.c",line 96,column 9,is_stmt,isa 0
    1117 0000018b E591          ZERO      R1H                   ; [CPU_FPU] |96| 
    1118                      .dwpsn  file "../sources/dual_axis_servo_drive_user_cpu.c",line 88,column 9,is_stmt,isa 0
    1119 0000018c D024          MOVB      XAR0,#36              ; [CPU_ALU] |88| 
    1120 0000018d E203          MOV32     *+XAR2[AR0],R2H       ; [CPU_FPU] |88| 
         0000018e 0292 
    1121                      .dwpsn  file "../sources/dual_axis_servo_drive_user_cpu.c",line 101,column 9,is_stmt,isa 0
    1122 0000018f E801          MOVIZ     R3H,#15364            ; [CPU_FPU] |101| 
         00000190 E023 
    1123                      .dwpsn  file "../sources/dual_axis_servo_drive_user_cpu.c",line 96,column 9,is_stmt,isa 0
    1124 00000191 D022          MOVB      XAR0,#34              ; [CPU_ALU] |96| 
    1125 00000192 E203          MOV32     *+XAR2[AR0],R1H       ; [CPU_FPU] |96| 
         00000193 0192 
    1126                      .dwpsn  file "../sources/dual_axis_servo_drive_user_cpu.c",line 102,column 9,is_stmt,isa 0
    1127 00000194 E801          MOVIZ     R2H,#15523            ; [CPU_FPU] |102| 
         00000195 E51A 
    1128                      .dwpsn  file "../sources/dual_axis_servo_drive_user_cpu.c",line 72,column 9,is_stmt,isa 0
    1129 00000196 E203          MOV32     *+XAR2[6],R0H         ; [CPU_FPU] |72| 
         00000197 00F2 
    1130                      .dwpsn  file "../sources/dual_axis_servo_drive_user_cpu.c",line 101,column 9,is_stmt,isa 0
    1131 00000198 D03E          MOVB      XAR0,#62              ; [CPU_ALU] |101| 
    1132 00000199 E203          MOV32     *+XAR2[AR0],R3H       ; [CPU_FPU] |101| 
         0000019a 0392 
    1133                      .dwpsn  file "../sources/dual_axis_servo_drive_user_cpu.c",line 103,column 9,is_stmt,isa 0
    1134 0000019b E801          MOVIZ     R1H,#14720            ; [CPU_FPU] |103| 
         0000019c CC01 
    1135                      .dwpsn  file "../sources/dual_axis_servo_drive_user_cpu.c",line 102,column 9,is_stmt,isa 0
    1136 0000019d D040          MOVB      XAR0,#64              ; [CPU_ALU] |102| 
    1137 0000019e E203          MOV32     *+XAR2[AR0],R2H       ; [CPU_FPU] |102| 
         0000019f 0292 
    1138                      .dwpsn  file "../sources/dual_axis_servo_drive_user_cpu.c",line 107,column 9,is_stmt,isa 0
    1139 000001a0 E802          MOVIZ     R3H,#16672            ; [CPU_FPU] |107| 
         000001a1 0903 
    1140                      .dwpsn  file "../sources/dual_axis_servo_drive_user_cpu.c",line 103,column 9,is_stmt,isa 0
    1141 000001a2 D042          MOVB      XAR0,#66              ; [CPU_ALU] |103| 
    1142 000001a3 E203          MOV32     *+XAR2[AR0],R1H       ; [CPU_FPU] |103| 
         000001a4 0192 
    1143                      .dwpsn  file "../sources/dual_axis_servo_drive_user_cpu.c",line 108,column 9,is_stmt,isa 0
    1144 000001a5 E802          MOVIZ     R2H,#16968            ; [CPU_FPU] |108| 
         000001a6 1242 
    1145                      .dwpsn  file "../sources/dual_axis_servo_drive_user_cpu.c",line 107,column 9,is_stmt,isa 0
    1146 000001a7 D054          MOVB      XAR0,#84              ; [CPU_ALU] |107| 
    1147 000001a8 E203          MOV32     *+XAR2[AR0],R3H       ; [CPU_FPU] |107| 
         000001a9 0392 
    1148                      .dwpsn  file "../sources/dual_axis_servo_drive_user_cpu.c",line 109,column 9,is_stmt,isa 0
    1149 000001aa E802          MOVIZ     R1H,#16672            ; [CPU_FPU] |109| 
         000001ab 0901 
    1150                      .dwpsn  file "../sources/dual_axis_servo_drive_user_cpu.c",line 108,column 9,is_stmt,isa 0
    1151 000001ac D056          MOVB      XAR0,#86              ; [CPU_ALU] |108| 
    1152                      .dwpsn  file "../sources/dual_axis_servo_drive_user_cpu.c",line 138,column 9,is_stmt,isa 0
    1153 000001ad E801          MOVIZ     R3H,#14503            ; [CPU_FPU] |138| 
         000001ae C53B 
    1154                      .dwpsn  file "../sources/dual_axis_servo_drive_user_cpu.c",line 108,column 9,is_stmt,isa 0
    1155 000001af E203          MOV32     *+XAR2[AR0],R2H       ; [CPU_FPU] |108| 
TMS320C2000 Assembler PC v22.6.2 Wed Dec 10 14:16:25 2025

Copyright (c) 1996-2018 Texas Instruments Incorporated
dual_axis_servo_drive_user_cpu.asm                                   PAGE   28

         000001b0 0292 
    1156                      .dwpsn  file "../sources/dual_axis_servo_drive_user_cpu.c",line 109,column 9,is_stmt,isa 0
    1157 000001b1 D058          MOVB      XAR0,#88              ; [CPU_ALU] |109| 
    1158                      .dwpsn  file "../sources/dual_axis_servo_drive_user_cpu.c",line 138,column 9,is_stmt,isa 0
    1159 000001b2 E80E          MOVXI     R3H,#50604            ; [CPU_FPU] |138| 
         000001b3 2D63 
    1160                      .dwpsn  file "../sources/dual_axis_servo_drive_user_cpu.c",line 139,column 9,is_stmt,isa 0
    1161 000001b4 E801          MOVIZ     R2H,#16067            ; [CPU_FPU] |139| 
         000001b5 F61A 
    1162                      .dwpsn  file "../sources/dual_axis_servo_drive_user_cpu.c",line 109,column 9,is_stmt,isa 0
    1163 000001b6 E203          MOV32     *+XAR2[AR0],R1H       ; [CPU_FPU] |109| 
         000001b7 0192 
    1164                      .dwpsn  file "../sources/dual_axis_servo_drive_user_cpu.c",line 138,column 9,is_stmt,isa 0
    1165 000001b8 8D00          MOVL      XAR0,#360             ; [CPU_ALU] |138| 
         000001b9 0168 
    1166                      .dwpsn  file "../sources/dual_axis_servo_drive_user_cpu.c",line 140,column 9,is_stmt,isa 0
    1167 000001ba E801          MOVIZ     R1H,#16067            ; [CPU_FPU] |140| 
         000001bb F619 
    1168                      .dwpsn  file "../sources/dual_axis_servo_drive_user_cpu.c",line 139,column 9,is_stmt,isa 0
    1169 000001bc E809          MOVXI     R2H,#15953            ; [CPU_FPU] |139| 
         000001bd F28A 
    1170                      .dwpsn  file "../sources/dual_axis_servo_drive_user_cpu.c",line 138,column 9,is_stmt,isa 0
    1171 000001be E203          MOV32     *+XAR2[AR0],R3H       ; [CPU_FPU] |138| 
         000001bf 0392 
    1172                      .dwpsn  file "../sources/dual_axis_servo_drive_user_cpu.c",line 139,column 9,is_stmt,isa 0
    1173 000001c0 8D00          MOVL      XAR0,#362             ; [CPU_ALU] |139| 
         000001c1 016A 
    1174                      .dwpsn  file "../sources/dual_axis_servo_drive_user_cpu.c",line 140,column 9,is_stmt,isa 0
    1175 000001c2 E809          MOVXI     R1H,#15953            ; [CPU_FPU] |140| 
         000001c3 F289 
    1176                      .dwpsn  file "../sources/dual_axis_servo_drive_user_cpu.c",line 141,column 9,is_stmt,isa 0
    1177 000001c4 E801          MOVIZ     R3H,#14642            ; [CPU_FPU] |141| 
         000001c5 C993 
    1178                      .dwpsn  file "../sources/dual_axis_servo_drive_user_cpu.c",line 139,column 9,is_stmt,isa 0
    1179 000001c6 E203          MOV32     *+XAR2[AR0],R2H       ; [CPU_FPU] |139| 
         000001c7 0292 
    1180                      .dwpsn  file "../sources/dual_axis_servo_drive_user_cpu.c",line 140,column 9,is_stmt,isa 0
    1181 000001c8 8D00          MOVL      XAR0,#364             ; [CPU_ALU] |140| 
         000001c9 016C 
    1182                      .dwpsn  file "../sources/dual_axis_servo_drive_user_cpu.c",line 142,column 9,is_stmt,isa 0
    1183 000001ca E801          MOVIZ     R2H,#14642            ; [CPU_FPU] |142| 
         000001cb C992 
    1184                      .dwpsn  file "../sources/dual_axis_servo_drive_user_cpu.c",line 141,column 9,is_stmt,isa 0
    1185 000001cc E808          MOVXI     R3H,#2594             ; [CPU_FPU] |141| 
         000001cd 5113 
    1186                      .dwpsn  file "../sources/dual_axis_servo_drive_user_cpu.c",line 140,column 9,is_stmt,isa 0
    1187 000001ce E203          MOV32     *+XAR2[AR0],R1H       ; [CPU_FPU] |140| 
         000001cf 0192 
    1188                      .dwpsn  file "../sources/dual_axis_servo_drive_user_cpu.c",line 141,column 9,is_stmt,isa 0
    1189 000001d0 8D00          MOVL      XAR0,#366             ; [CPU_ALU] |141| 
         000001d1 016E 
    1190                      .dwpsn  file "../sources/dual_axis_servo_drive_user_cpu.c",line 142,column 9,is_stmt,isa 0
    1191 000001d2 E808          MOVXI     R2H,#2594             ; [CPU_FPU] |142| 
         000001d3 5112 
    1192                      .dwpsn  file "../sources/dual_axis_servo_drive_user_cpu.c",line 143,column 9,is_stmt,isa 0
TMS320C2000 Assembler PC v22.6.2 Wed Dec 10 14:16:25 2025

Copyright (c) 1996-2018 Texas Instruments Incorporated
dual_axis_servo_drive_user_cpu.asm                                   PAGE   29

    1193 000001d4 E801          MOVIZ     R1H,#15651            ; [CPU_FPU] |143| 
         000001d5 E919 
    1194                      .dwpsn  file "../sources/dual_axis_servo_drive_user_cpu.c",line 141,column 9,is_stmt,isa 0
    1195 000001d6 E203          MOV32     *+XAR2[AR0],R3H       ; [CPU_FPU] |141| 
         000001d7 0392 
    1196                      .dwpsn  file "../sources/dual_axis_servo_drive_user_cpu.c",line 142,column 9,is_stmt,isa 0
    1197 000001d8 8D00          MOVL      XAR0,#368             ; [CPU_ALU] |142| 
         000001d9 0170 
    1198                      .dwpsn  file "../sources/dual_axis_servo_drive_user_cpu.c",line 145,column 9,is_stmt,isa 0
    1199 000001da E802          MOVIZ     R3H,#17693            ; [CPU_FPU] |145| 
         000001db 28EB 
    1200                      .dwpsn  file "../sources/dual_axis_servo_drive_user_cpu.c",line 143,column 9,is_stmt,isa 0
    1201 000001dc E80E          MOVXI     R1H,#55050            ; [CPU_FPU] |143| 
         000001dd B851 
    1202                      .dwpsn  file "../sources/dual_axis_servo_drive_user_cpu.c",line 142,column 9,is_stmt,isa 0
    1203 000001de E203          MOV32     *+XAR2[AR0],R2H       ; [CPU_FPU] |142| 
         000001df 0292 
    1204                      .dwpsn  file "../sources/dual_axis_servo_drive_user_cpu.c",line 143,column 9,is_stmt,isa 0
    1205 000001e0 8D00          MOVL      XAR0,#382             ; [CPU_ALU] |143| 
         000001e1 017E 
    1206                      .dwpsn  file "../sources/dual_axis_servo_drive_user_cpu.c",line 145,column 9,is_stmt,isa 0
    1207 000001e2 E808          MOVXI     R3H,#5219             ; [CPU_FPU] |145| 
         000001e3 A31B 
    1208                      .dwpsn  file "../sources/dual_axis_servo_drive_user_cpu.c",line 146,column 9,is_stmt,isa 0
    1209 000001e4 E802          MOVIZ     R2H,#17476            ; [CPU_FPU] |146| 
         000001e5 2222 
    1210                      .dwpsn  file "../sources/dual_axis_servo_drive_user_cpu.c",line 143,column 9,is_stmt,isa 0
    1211 000001e6 E203          MOV32     *+XAR2[AR0],R1H       ; [CPU_FPU] |143| 
         000001e7 0192 
    1212                      .dwpsn  file "../sources/dual_axis_servo_drive_user_cpu.c",line 145,column 9,is_stmt,isa 0
    1213 000001e8 8D00          MOVL      XAR0,#384             ; [CPU_ALU] |145| 
         000001e9 0180 
    1214                      .dwpsn  file "../sources/dual_axis_servo_drive_user_cpu.c",line 147,column 9,is_stmt,isa 0
    1215 000001ea E802          MOVIZ     R1H,#17476            ; [CPU_FPU] |147| 
         000001eb 2221 
    1216                      .dwpsn  file "../sources/dual_axis_servo_drive_user_cpu.c",line 146,column 9,is_stmt,isa 0
    1217 000001ec E80A          MOVXI     R2H,#22908            ; [CPU_FPU] |146| 
         000001ed CBE2 
    1218                      .dwpsn  file "../sources/dual_axis_servo_drive_user_cpu.c",line 145,column 9,is_stmt,isa 0
    1219 000001ee E203          MOV32     *+XAR2[AR0],R3H       ; [CPU_FPU] |145| 
         000001ef 0392 
    1220                      .dwpsn  file "../sources/dual_axis_servo_drive_user_cpu.c",line 146,column 9,is_stmt,isa 0
    1221 000001f0 8D00          MOVL      XAR0,#376             ; [CPU_ALU] |146| 
         000001f1 0178 
    1222                      .dwpsn  file "../sources/dual_axis_servo_drive_user_cpu.c",line 147,column 9,is_stmt,isa 0
    1223 000001f2 E80A          MOVXI     R1H,#22908            ; [CPU_FPU] |147| 
         000001f3 CBE1 
    1224                      .dwpsn  file "../sources/dual_axis_servo_drive_user_cpu.c",line 76,column 9,is_stmt,isa 0
    1225 000001f4 E801          MOVIZ     R3H,#14723            ; [CPU_FPU] |76| 
         000001f5 CC1B 
    1226                      .dwpsn  file "../sources/dual_axis_servo_drive_user_cpu.c",line 146,column 9,is_stmt,isa 0
    1227 000001f6 E203          MOV32     *+XAR2[AR0],R2H       ; [CPU_FPU] |146| 
         000001f7 0292 
    1228                      .dwpsn  file "../sources/dual_axis_servo_drive_user_cpu.c",line 147,column 9,is_stmt,isa 0
    1229 000001f8 8D00          MOVL      XAR0,#378             ; [CPU_ALU] |147| 
TMS320C2000 Assembler PC v22.6.2 Wed Dec 10 14:16:25 2025

Copyright (c) 1996-2018 Texas Instruments Incorporated
dual_axis_servo_drive_user_cpu.asm                                   PAGE   30

         000001f9 017A 
    1230                      .dwpsn  file "../sources/dual_axis_servo_drive_user_cpu.c",line 78,column 9,is_stmt,isa 0
    1231 000001fa E801          MOVIZ     R2H,#14503            ; [CPU_FPU] |78| 
         000001fb C53A 
    1232                      .dwpsn  file "../sources/dual_axis_servo_drive_user_cpu.c",line 76,column 9,is_stmt,isa 0
    1233 000001fc E808          MOVXI     R3H,#4719             ; [CPU_FPU] |76| 
         000001fd 937B 
    1234                      .dwpsn  file "../sources/dual_axis_servo_drive_user_cpu.c",line 147,column 9,is_stmt,isa 0
    1235 000001fe E203          MOV32     *+XAR2[AR0],R1H       ; [CPU_FPU] |147| 
         000001ff 0192 
    1236                      .dwpsn  file "../sources/dual_axis_servo_drive_user_cpu.c",line 76,column 9,is_stmt,isa 0
    1237 00000200 D00A          MOVB      XAR0,#10              ; [CPU_ALU] |76| 
    1238                      .dwpsn  file "../sources/dual_axis_servo_drive_user_cpu.c",line 78,column 9,is_stmt,isa 0
    1239 00000201 E80E          MOVXI     R2H,#50605            ; [CPU_FPU] |78| 
         00000202 2D6A 
    1240                      .dwpsn  file "../sources/dual_axis_servo_drive_user_cpu.c",line 82,column 9,is_stmt,isa 0
    1241 00000203 E801          MOVIZ     R1H,#15564            ; [CPU_FPU] |82| 
         00000204 E661 
    1242                      .dwpsn  file "../sources/dual_axis_servo_drive_user_cpu.c",line 76,column 9,is_stmt,isa 0
    1243 00000205 E203          MOV32     *+XAR2[AR0],R3H       ; [CPU_FPU] |76| 
         00000206 0392 
    1244                      .dwpsn  file "../sources/dual_axis_servo_drive_user_cpu.c",line 78,column 9,is_stmt,isa 0
    1245 00000207 D00C          MOVB      XAR0,#12              ; [CPU_ALU] |78| 
    1246                      .dwpsn  file "../sources/dual_axis_servo_drive_user_cpu.c",line 86,column 9,is_stmt,isa 0
    1247 00000208 E801          MOVIZ     R3H,#15948            ; [CPU_FPU] |86| 
         00000209 F263 
    1248                      .dwpsn  file "../sources/dual_axis_servo_drive_user_cpu.c",line 82,column 9,is_stmt,isa 0
    1249 0000020a E80E          MOVXI     R1H,#52429            ; [CPU_FPU] |82| 
         0000020b 6669 
    1250                      .dwpsn  file "../sources/dual_axis_servo_drive_user_cpu.c",line 78,column 9,is_stmt,isa 0
    1251 0000020c E203          MOV32     *+XAR2[AR0],R2H       ; [CPU_FPU] |78| 
         0000020d 0292 
    1252                      .dwpsn  file "../sources/dual_axis_servo_drive_user_cpu.c",line 82,column 9,is_stmt,isa 0
    1253 0000020e D016          MOVB      XAR0,#22              ; [CPU_ALU] |82| 
    1254                      .dwpsn  file "../sources/dual_axis_servo_drive_user_cpu.c",line 86,column 9,is_stmt,isa 0
    1255 0000020f E80E          MOVXI     R3H,#52429            ; [CPU_FPU] |86| 
         00000210 666B 
    1256                      .dwpsn  file "../sources/dual_axis_servo_drive_user_cpu.c",line 97,column 9,is_stmt,isa 0
    1257 00000211 E801          MOVIZ     R2H,#15820            ; [CPU_FPU] |97| 
         00000212 EE62 
    1258                      .dwpsn  file "../sources/dual_axis_servo_drive_user_cpu.c",line 82,column 9,is_stmt,isa 0
    1259 00000213 E203          MOV32     *+XAR2[AR0],R1H       ; [CPU_FPU] |82| 
         00000214 0192 
    1260                      .dwpsn  file "../sources/dual_axis_servo_drive_user_cpu.c",line 86,column 9,is_stmt,isa 0
    1261 00000215 D01E          MOVB      XAR0,#30              ; [CPU_ALU] |86| 
    1262                      .dwpsn  file "../sources/dual_axis_servo_drive_user_cpu.c",line 98,column 9,is_stmt,isa 0
    1263 00000216 E801          MOVIZ     R1H,#15692            ; [CPU_FPU] |98| 
         00000217 EA61 
    1264                      .dwpsn  file "../sources/dual_axis_servo_drive_user_cpu.c",line 97,column 9,is_stmt,isa 0
    1265 00000218 E80E          MOVXI     R2H,#52429            ; [CPU_FPU] |97| 
         00000219 666A 
    1266                      .dwpsn  file "../sources/dual_axis_servo_drive_user_cpu.c",line 86,column 9,is_stmt,isa 0
    1267 0000021a E203          MOV32     *+XAR2[AR0],R3H       ; [CPU_FPU] |86| 
         0000021b 0392 
    1268                      .dwpsn  file "../sources/dual_axis_servo_drive_user_cpu.c",line 97,column 9,is_stmt,isa 0
TMS320C2000 Assembler PC v22.6.2 Wed Dec 10 14:16:25 2025

Copyright (c) 1996-2018 Texas Instruments Incorporated
dual_axis_servo_drive_user_cpu.asm                                   PAGE   31

    1269 0000021c D02C          MOVB      XAR0,#44              ; [CPU_ALU] |97| 
    1270                      .dwpsn  file "../sources/dual_axis_servo_drive_user_cpu.c",line 98,column 9,is_stmt,isa 0
    1271 0000021d E80E          MOVXI     R1H,#52429            ; [CPU_FPU] |98| 
         0000021e 6669 
    1272                      .dwpsn  file "../sources/dual_axis_servo_drive_user_cpu.c",line 104,column 9,is_stmt,isa 0
    1273 0000021f E802          MOVIZ     R3H,#17144            ; [CPU_FPU] |104| 
         00000220 17C3 
    1274                      .dwpsn  file "../sources/dual_axis_servo_drive_user_cpu.c",line 97,column 9,is_stmt,isa 0
    1275 00000221 E203          MOV32     *+XAR2[AR0],R2H       ; [CPU_FPU] |97| 
         00000222 0292 
    1276                      .dwpsn  file "../sources/dual_axis_servo_drive_user_cpu.c",line 98,column 9,is_stmt,isa 0
    1277 00000223 D030          MOVB      XAR0,#48              ; [CPU_ALU] |98| 
    1278                      .dwpsn  file "../sources/dual_axis_servo_drive_user_cpu.c",line 105,column 9,is_stmt,isa 0
    1279 00000224 E802          MOVIZ     R2H,#16969            ; [CPU_FPU] |105| 
         00000225 124A 
    1280                      .dwpsn  file "../sources/dual_axis_servo_drive_user_cpu.c",line 104,column 9,is_stmt,isa 0
    1281 00000226 E809          MOVXI     R3H,#15888            ; [CPU_FPU] |104| 
         00000227 F083 
    1282                      .dwpsn  file "../sources/dual_axis_servo_drive_user_cpu.c",line 98,column 9,is_stmt,isa 0
    1283 00000228 E203          MOV32     *+XAR2[AR0],R1H       ; [CPU_FPU] |98| 
         00000229 0192 
    1284                      .dwpsn  file "../sources/dual_axis_servo_drive_user_cpu.c",line 104,column 9,is_stmt,isa 0
    1285 0000022a D044          MOVB      XAR0,#68              ; [CPU_ALU] |104| 
    1286                      .dwpsn  file "../sources/dual_axis_servo_drive_user_cpu.c",line 105,column 9,is_stmt,isa 0
    1287 0000022b E808          MOVXI     R2H,#2010             ; [CPU_FPU] |105| 
         0000022c 3ED2 
    1288                      .dwpsn  file "../sources/dual_axis_servo_drive_user_cpu.c",line 112,column 9,is_stmt,isa 0
    1289 0000022d E801          MOVIZ     R1H,#16249            ; [CPU_FPU] |112| 
         0000022e FBC9 
    1290                      .dwpsn  file "../sources/dual_axis_servo_drive_user_cpu.c",line 104,column 9,is_stmt,isa 0
    1291 0000022f E203          MOV32     *+XAR2[AR0],R3H       ; [CPU_FPU] |104| 
         00000230 0392 
    1292                      .dwpsn  file "../sources/dual_axis_servo_drive_user_cpu.c",line 105,column 9,is_stmt,isa 0
    1293 00000231 D046          MOVB      XAR0,#70              ; [CPU_ALU] |105| 
    1294                      .dwpsn  file "../sources/dual_axis_servo_drive_user_cpu.c",line 112,column 9,is_stmt,isa 0
    1295 00000232 E80C          MOVXI     R1H,#39322            ; [CPU_FPU] |112| 
         00000233 CCD1 
    1296                      .dwpsn  file "../sources/dual_axis_servo_drive_user_cpu.c",line 105,column 9,is_stmt,isa 0
    1297 00000234 E203          MOV32     *+XAR2[AR0],R2H       ; [CPU_FPU] |105| 
         00000235 0292 
    1298                      .dwpsn  file "../sources/dual_axis_servo_drive_user_cpu.c",line 112,column 9,is_stmt,isa 0
    1299 00000236 D00E          MOVB      XAR0,#14              ; [CPU_ALU] |112| 
    1300 00000237 E203          MOV32     *+XAR2[AR0],R1H       ; [CPU_FPU] |112| 
         00000238 0192 
    1301                      .dwpsn  file "../sources/dual_axis_servo_drive_user_cpu.c",line 70,column 9,is_stmt,isa 0
    1302 00000239 8D00          MOVL      XAR0,#450             ; [CPU_ALU] |70| 
         0000023a 01C2 
    1303 0000023b 2B92          MOV       *+XAR2[AR0],#0        ; [CPU_ALU] |70| 
    1304                      .dwpsn  file "../sources/dual_axis_servo_drive_user_cpu.c",line 149,column 9,is_stmt,isa 0
    1305 0000023c 8D00          MOVL      XAR0,#442             ; [CPU_ALU] |149| 
         0000023d 01BA 
    1306 0000023e 56BF          MOVB      *+XAR2[AR0],#23,UNC   ; [CPU_ALU] |149| 
         0000023f 1792 
    1307                      .dwpsn  file "../sources/dual_axis_servo_drive_user_cpu.c",line 150,column 9,is_stmt,isa 0
    1308 00000240 8D00          MOVL      XAR0,#443             ; [CPU_ALU] |150| 
TMS320C2000 Assembler PC v22.6.2 Wed Dec 10 14:16:25 2025

Copyright (c) 1996-2018 Texas Instruments Incorporated
dual_axis_servo_drive_user_cpu.asm                                   PAGE   32

         00000241 01BB 
    1309 00000242 56BF          MOVB      *+XAR2[AR0],#42,UNC   ; [CPU_ALU] |150| 
         00000243 2A92 
    1310                      .dwpsn  file "../sources/dual_axis_servo_drive_user_cpu.c",line 151,column 9,is_stmt,isa 0
    1311 00000244 8D00          MOVL      XAR0,#444             ; [CPU_ALU] |151| 
         00000245 01BC 
    1312 00000246 56BF          MOVB      *+XAR2[AR0],#5,UNC    ; [CPU_ALU] |151| 
         00000247 0592 
    1313                      .dwpsn  file "../sources/dual_axis_servo_drive_user_cpu.c",line 153,column 9,is_stmt,isa 0
    1314 00000248 8D00          MOVL      XAR0,#440             ; [CPU_ALU] |153| 
         00000249 01B8 
    1315 0000024a 2892          MOV       *+XAR2[AR0],#2978     ; [CPU_ALU] |153| 
         0000024b 0BA2 
    1316                      .dwpsn  file "../sources/dual_axis_servo_drive_user_cpu.c",line 156,column 9,is_stmt,isa 0
    1317 0000024c 8D00          MOVL      XAR0,#441             ; [CPU_ALU] |156| 
         0000024d 01B9 
    1318 0000024e 2892          MOV       *+XAR2[AR0],#1118     ; [CPU_ALU] |156| 
         0000024f 045E 
    1319                      .dwpsn  file "../sources/dual_axis_servo_drive_user_cpu.c",line 165,column 9,is_stmt,isa 0
    1320 00000250 A042          MOVL      *-SP[2],XAR5          ; [CPU_ALU] |165| 
    1321 00000251 D500          MOVB      XAR5,#0               ; [CPU_ALU] |165| 
    1322 00000252 A844          MOVL      *-SP[4],XAR4          ; [CPU_ALU] |165| 
    1323 00000253 8AA2          MOVL      XAR4,XAR2             ; [CPU_ALU] |165| 
    1324 00000254 2B45          MOV       *-SP[5],#0            ; [CPU_ALU] |165| 
    1325              $C$DW$36        .dwtag  DW_TAG_TI_branch
    1326                      .dwattr $C$DW$36, DW_AT_low_pc(0x00)
    1327                      .dwattr $C$DW$36, DW_AT_name("FCL_initADC_2In")
    1328                      .dwattr $C$DW$36, DW_AT_TI_call
    1329              
    1330 00000255 7640!         LCR       #||FCL_initADC_2In||  ; [CPU_ALU] |165| 
         00000256 0000 
    1331                      ; call occurs [#||FCL_initADC_2In||] ; [] |165| 
    1332                      .dwpsn  file "../sources/dual_axis_servo_drive_user_cpu.c",line 171,column 9,is_stmt,isa 0
    1333 00000257 8F00          MOVL      XAR4,#2834            ; [CPU_ARAU] |171| 
         00000258 0B12 
    1334 00000259       ||$C$L10||:    
    1335                      .dwpsn  file "../sources/dual_axis_servo_drive_user_cpu.c",line 169,column 9,is_stmt,isa 0
    1336 00000259 8D40          MOVL      XAR1,#427             ; [CPU_ALU] |169| 
         0000025a 01AB 
    1337                      .dwpsn  file "../sources/dual_axis_servo_drive_user_cpu.c",line 171,column 9,is_stmt,isa 0
    1338 0000025b 8D00          MOVL      XAR0,#404             ; [CPU_ALU] |171| 
         0000025c 0194 
    1339                      .dwpsn  file "../sources/dual_axis_servo_drive_user_cpu.c",line 169,column 9,is_stmt,isa 0
    1340 0000025d 2B9A          MOV       *+XAR2[AR1],#0        ; [CPU_ALU] |169| 
    1341                      .dwpsn  file "../sources/dual_axis_servo_drive_user_cpu.c",line 171,column 9,is_stmt,isa 0
    1342 0000025e A892          MOVL      *+XAR2[AR0],XAR4      ; [CPU_ALU] |171| 
    1343 0000025f       ||$C$L11||:    
    1344                      .dwpsn  file "../sources/dual_axis_servo_drive_user_cpu.c",line 286,column 5,is_stmt,isa 0
    1345 0000025f 06D3          MOVL      ACC,*+XAR3[2]         ; [CPU_ALU] |286| 
    1346 00000260 1E42          MOVL      *-SP[2],ACC           ; [CPU_ALU] |286| 
    1347 00000261 8AA2          MOVL      XAR4,XAR2             ; [CPU_ALU] |286| 
    1348 00000262 06E3          MOVL      ACC,*+XAR3[4]         ; [CPU_ALU] |286| 
    1349 00000263 1E44          MOVL      *-SP[4],ACC           ; [CPU_ALU] |286| 
    1350 00000264 06C3          MOVL      ACC,*+XAR3[0]         ; [CPU_ALU] |286| 
    1351              $C$DW$37        .dwtag  DW_TAG_TI_branch
TMS320C2000 Assembler PC v22.6.2 Wed Dec 10 14:16:25 2025

Copyright (c) 1996-2018 Texas Instruments Incorporated
dual_axis_servo_drive_user_cpu.asm                                   PAGE   33

    1352                      .dwattr $C$DW$37, DW_AT_low_pc(0x00)
    1353                      .dwattr $C$DW$37, DW_AT_name("FCL_initPWM")
    1354                      .dwattr $C$DW$37, DW_AT_TI_call
    1355              
    1356 00000265 7640!         LCR       #||FCL_initPWM||      ; [CPU_ALU] |286| 
         00000266 0000 
    1357                      ; call occurs [#||FCL_initPWM||] ; [] |286| 
    1358                      .dwpsn  file "../sources/dual_axis_servo_drive_user_cpu.c",line 290,column 5,is_stmt,isa 0
    1359 00000267 D00E          MOVB      XAR0,#14              ; [CPU_ALU] |290| 
    1360 00000268 8AA2          MOVL      XAR4,XAR2             ; [CPU_ALU] |290| 
    1361 00000269 0693          MOVL      ACC,*+XAR3[AR0]       ; [CPU_ALU] |290| 
    1362              $C$DW$38        .dwtag  DW_TAG_TI_branch
    1363                      .dwattr $C$DW$38, DW_AT_low_pc(0x00)
    1364                      .dwattr $C$DW$38, DW_AT_name("FCL_initQEP")
    1365                      .dwattr $C$DW$38, DW_AT_TI_call
    1366              
    1367 0000026a 7640!         LCR       #||FCL_initQEP||      ; [CPU_ALU] |290| 
         0000026b 0000 
    1368                      ; call occurs [#||FCL_initQEP||] ; [] |290| 
    1369 0000026c FE86          SUBB      SP,#6                 ; [CPU_ARAU] 
    1370                      .dwcfi  cfa_offset, -8
    1371 0000026d 82BE          MOVL      XAR3,*--SP            ; [CPU_ALU] 
    1372                      .dwcfi  cfa_offset, -6
    1373                      .dwcfi  restore_reg, 11
    1374 0000026e 86BE          MOVL      XAR2,*--SP            ; [CPU_ALU] 
    1375                      .dwcfi  cfa_offset, -4
    1376                      .dwcfi  restore_reg, 9
    1377 0000026f 8BBE          MOVL      XAR1,*--SP            ; [CPU_ALU] 
    1378                      .dwcfi  cfa_offset, -2
    1379                      .dwcfi  restore_reg, 7
    1380              $C$DW$39        .dwtag  DW_TAG_TI_branch
    1381                      .dwattr $C$DW$39, DW_AT_low_pc(0x00)
    1382                      .dwattr $C$DW$39, DW_AT_TI_return
    1383              
    1384 00000270 0006          LRETR     ; [CPU_ALU] 
    1385                      ; return occurs ; [] 
    1386                      .dwattr $C$DW$30, DW_AT_TI_end_file("../sources/dual_axis_servo_drive_user_cpu.c")
    1387                      .dwattr $C$DW$30, DW_AT_TI_end_line(0x125)
    1388                      .dwattr $C$DW$30, DW_AT_TI_end_column(0x01)
    1389                      .dwendentry
    1390                      .dwendtag $C$DW$30
    1391              
    1392 00000000               .sect   ".text:initControlVars"
    1393                      .clink
    1394                      .global ||initControlVars||
    1395              
    1396              $C$DW$40        .dwtag  DW_TAG_subprogram
    1397                      .dwattr $C$DW$40, DW_AT_name("initControlVars")
    1398                      .dwattr $C$DW$40, DW_AT_low_pc(||initControlVars||)
    1399                      .dwattr $C$DW$40, DW_AT_high_pc(0x00)
    1400                      .dwattr $C$DW$40, DW_AT_linkage_name("initControlVars")
    1401                      .dwattr $C$DW$40, DW_AT_external
    1402                      .dwattr $C$DW$40, DW_AT_decl_file("../sources/dual_axis_servo_drive_user_cpu.c")
    1403                      .dwattr $C$DW$40, DW_AT_decl_line(0x12a)
    1404                      .dwattr $C$DW$40, DW_AT_decl_column(0x06)
TMS320C2000 Assembler PC v22.6.2 Wed Dec 10 14:16:25 2025

Copyright (c) 1996-2018 Texas Instruments Incorporated
dual_axis_servo_drive_user_cpu.asm                                   PAGE   34

    1405                      .dwattr $C$DW$40, DW_AT_TI_max_frame_size(-8)
    1406                      .dwpsn  file "../sources/dual_axis_servo_drive_user_cpu.c",line 299,column 1,is_stmt,address ||initCo
    1407              
    1408                      .dwfde $C$DW$CIE, ||initControlVars||
    1409              $C$DW$41        .dwtag  DW_TAG_formal_parameter
    1410                      .dwattr $C$DW$41, DW_AT_name("pMotor")
    1411                      .dwattr $C$DW$41, DW_AT_type(*$C$DW$T$138)
    1412                      .dwattr $C$DW$41, DW_AT_location[DW_OP_reg12]
    1413              
    1414              
    1415              ;***************************************************************
    1416              ;* FNAME: initControlVars               FR SIZE:   6           *
    1417              ;*                                                             *
    1418              ;* FUNCTION ENVIRONMENT                                        *
    1419              ;*                                                             *
    1420              ;* FUNCTION PROPERTIES                                         *
    1421              ;*                            0 Parameter,  0 Auto,  6 SOE     *
    1422              ;***************************************************************
    1423              
    1424              ||initControlVars||:
    1425              ;* AR4   assigned to pMotor
    1426              $C$DW$42        .dwtag  DW_TAG_variable
    1427                      .dwattr $C$DW$42, DW_AT_name("pMotor")
    1428                      .dwattr $C$DW$42, DW_AT_type(*$C$DW$T$139)
    1429                      .dwattr $C$DW$42, DW_AT_location[DW_OP_reg12]
    1430              
    1431                      .dwcfi  cfa_offset, -2
    1432                      .dwcfi  save_reg_to_mem, 26, 0
    1433 00000000 B2BD          MOVL      *SP++,XAR1            ; [CPU_ALU] 
    1434                      .dwcfi  save_reg_to_mem, 7, 2
    1435                      .dwcfi  cfa_offset, -4
    1436                      .dwpsn  file "../sources/dual_axis_servo_drive_user_cpu.c",line 343,column 5,is_stmt,isa 0
    1437 00000001 D00C          MOVB      XAR0,#12              ; [CPU_ALU] |343| 
    1438 00000002 E203          MOV32     *SP++,R4H             ; [CPU_FPU] 
         00000003 04BD 
    1439                      .dwcfi  save_reg_to_mem, 59, 4
    1440                      .dwcfi  cfa_offset, -6
    1441                      .dwpsn  file "../sources/dual_axis_servo_drive_user_cpu.c",line 351,column 5,is_stmt,isa 0
    1442 00000004 8D40          MOVL      XAR1,#330             ; [CPU_ALU] |351| 
         00000005 014A 
    1443 00000006 E203          MOV32     *SP++,R5H             ; [CPU_FPU] 
         00000007 05BD 
    1444                      .dwcfi  save_reg_to_mem, 63, 6
    1445                      .dwcfi  cfa_offset, -8
    1446                      .dwpsn  file "../sources/dual_axis_servo_drive_user_cpu.c",line 343,column 5,is_stmt,isa 0
    1447 00000008 E2AF          MOV32     R0H,*+XAR4[AR0]       ; [CPU_FPU] |343| 
         00000009 0094 
    1448 0000000a E850          MPYF32    R0H,R0H,#16840        ; [CPU_FPU] |343| 
         0000000b 7200 
    1449 0000000c 8D00          MOVL      XAR0,#298             ; [CPU_ALU] |343| 
         0000000d 012A 
    1450 0000000e E203          MOV32     *+XAR4[AR0],R0H       ; [CPU_FPU] |343| 
         0000000f 0094 
    1451                      .dwpsn  file "../sources/dual_axis_servo_drive_user_cpu.c",line 342,column 5,is_stmt,isa 0
    1452 00000010 E801          MOVIZ     R0H,#16256            ; [CPU_FPU] |342| 
TMS320C2000 Assembler PC v22.6.2 Wed Dec 10 14:16:25 2025

Copyright (c) 1996-2018 Texas Instruments Incorporated
dual_axis_servo_drive_user_cpu.asm                                   PAGE   35

         00000011 FC00 
    1453                      .dwpsn  file "../sources/dual_axis_servo_drive_user_cpu.c",line 351,column 5,is_stmt,isa 0
    1454 00000012 0694          MOVL      ACC,*+XAR4[AR0]       ; [CPU_ALU] |351| 
    1455                      .dwpsn  file "../sources/dual_axis_servo_drive_user_cpu.c",line 342,column 5,is_stmt,isa 0
    1456 00000013 8D00          MOVL      XAR0,#296             ; [CPU_ALU] |342| 
         00000014 0128 
    1457                      .dwpsn  file "../sources/dual_axis_servo_drive_user_cpu.c",line 351,column 5,is_stmt,isa 0
    1458 00000015 1E9C          MOVL      *+XAR4[AR1],ACC       ; [CPU_ALU] |351| 
    1459                      .dwpsn  file "../sources/dual_axis_servo_drive_user_cpu.c",line 342,column 5,is_stmt,isa 0
    1460 00000016 E203          MOV32     *+XAR4[AR0],R0H       ; [CPU_FPU] |342| 
         00000017 0094 
    1461                      .dwpsn  file "../sources/dual_axis_servo_drive_user_cpu.c",line 350,column 5,is_stmt,isa 0
    1462 00000018 0694          MOVL      ACC,*+XAR4[AR0]       ; [CPU_ALU] |350| 
    1463 00000019 8D00          MOVL      XAR0,#328             ; [CPU_ALU] |350| 
         0000001a 0148 
    1464 0000001b 1E94          MOVL      *+XAR4[AR0],ACC       ; [CPU_ALU] |350| 
    1465                      .dwpsn  file "../sources/dual_axis_servo_drive_user_cpu.c",line 352,column 5,is_stmt,isa 0
    1466 0000001c 8D00          MOVL      XAR0,#330             ; [CPU_ALU] |352| 
         0000001d 014A 
    1467 0000001e E2AF          MOV32     R0H,*+XAR4[AR0]       ; [CPU_FPU] |352| 
         0000001f 0094 
    1468 00000020 8D00          MOVL      XAR0,#328             ; [CPU_ALU] |352| 
         00000021 0148 
    1469 00000022 E84F          MPYF32    R0H,R0H,#16128        ; [CPU_FPU] |352| 
         00000023 C000 
    1470 00000024 E2AF          MOV32     R1H,*+XAR4[AR0]       ; [CPU_FPU] |352| 
         00000025 0194 
    1471                      .dwpsn  file "../sources/dual_axis_servo_drive_user_cpu.c",line 355,column 5,is_stmt,isa 0
    1472 00000026 8D00          MOVL      XAR0,#330             ; [CPU_ALU] |355| 
         00000027 014A 
    1473                      .dwpsn  file "../sources/dual_axis_servo_drive_user_cpu.c",line 352,column 5,is_stmt,isa 0
    1474              
    1475                      MOV32     R1H,*+XAR4[AR0]       ; [CPU_FPU] |355| 
    1476 00000028 E312  ||      ADDF32    R0H,R0H,R1H           ; [CPU_FPU] |352| 
         00000029 0194 
    1477              
    1478                      .dwpsn  file "../sources/dual_axis_servo_drive_user_cpu.c",line 355,column 5,is_stmt,isa 0
    1479 0000002a 8D00          MOVL      XAR0,#328             ; [CPU_ALU] |355| 
         0000002b 0148 
    1480 0000002c E84F          MPYF32    R2H,R1H,#16128        ; [CPU_FPU] |355| 
         0000002d C00A 
    1481 0000002e E2AF          MOV32     R1H,*+XAR4[AR0]       ; [CPU_FPU] |355| 
         0000002f 0194 
    1482                      .dwpsn  file "../sources/dual_axis_servo_drive_user_cpu.c",line 352,column 5,is_stmt,isa 0
    1483 00000030 8D00          MOVL      XAR0,#332             ; [CPU_ALU] |352| 
         00000031 014C 
    1484 00000032 E203          MOV32     *+XAR4[AR0],R0H       ; [CPU_FPU] |352| 
         00000033 0094 
    1485                      .dwpsn  file "../sources/dual_axis_servo_drive_user_cpu.c",line 324,column 5,is_stmt,isa 0
    1486 00000034 D00C          MOVB      XAR0,#12              ; [CPU_ALU] |324| 
    1487 00000035 E2AF          MOV32     R0H,*+XAR4[6]         ; [CPU_FPU] |324| 
         00000036 00F4 
    1488              
    1489                      MOV32     R1H,*+XAR4[AR0]       ; [CPU_FPU] |324| 
    1490 00000037 E322  ||      SUBF32    R2H,R2H,R1H           ; [CPU_FPU] |355| 
TMS320C2000 Assembler PC v22.6.2 Wed Dec 10 14:16:25 2025

Copyright (c) 1996-2018 Texas Instruments Incorporated
dual_axis_servo_drive_user_cpu.asm                                   PAGE   36

         00000038 9194 
    1491              
    1492                      .dwpsn  file "../sources/dual_axis_servo_drive_user_cpu.c",line 344,column 5,is_stmt,isa 0
    1493 00000039 8D00          MOVL      XAR0,#298             ; [CPU_ALU] |344| 
         0000003a 012A 
    1494                      .dwpsn  file "../sources/dual_axis_servo_drive_user_cpu.c",line 324,column 5,is_stmt,isa 0
    1495              
    1496                      MOV32     R0H,*+XAR4[AR0]       ; [CPU_FPU] |344| 
    1497 0000003b E300  ||      MPYF32    R5H,R1H,R0H           ; [CPU_FPU] |324| 
         0000003c 6894 
    1498              
    1499                      .dwpsn  file "../sources/dual_axis_servo_drive_user_cpu.c",line 344,column 5,is_stmt,isa 0
    1500 0000003d 8D00          MOVL      XAR0,#296             ; [CPU_ALU] |344| 
         0000003e 0128 
    1501 0000003f E84F          MPYF32    R0H,R0H,#16128        ; [CPU_FPU] |344| 
         00000040 C000 
    1502 00000041 E2AF          MOV32     R1H,*+XAR4[AR0]       ; [CPU_FPU] |344| 
         00000042 0194 
    1503                      .dwpsn  file "../sources/dual_axis_servo_drive_user_cpu.c",line 345,column 5,is_stmt,isa 0
    1504 00000043 8D00          MOVL      XAR0,#298             ; [CPU_ALU] |345| 
         00000044 012A 
    1505                      .dwpsn  file "../sources/dual_axis_servo_drive_user_cpu.c",line 344,column 5,is_stmt,isa 0
    1506              
    1507                      MOV32     R0H,*+XAR4[AR0]       ; [CPU_FPU] |345| 
    1508 00000045 E310  ||      ADDF32    R4H,R1H,R0H           ; [CPU_FPU] |344| 
         00000046 6094 
    1509              
    1510                      .dwpsn  file "../sources/dual_axis_servo_drive_user_cpu.c",line 345,column 5,is_stmt,isa 0
    1511 00000047 8D00          MOVL      XAR0,#296             ; [CPU_ALU] |345| 
         00000048 0128 
    1512 00000049 E84F          MPYF32    R1H,R0H,#16128        ; [CPU_FPU] |345| 
         0000004a C001 
    1513 0000004b E2AF          MOV32     R0H,*+XAR4[AR0]       ; [CPU_FPU] |345| 
         0000004c 0094 
    1514                      .dwpsn  file "../sources/dual_axis_servo_drive_user_cpu.c",line 365,column 5,is_stmt,isa 0
    1515 0000004d D00C          MOVB      XAR0,#12              ; [CPU_ALU] |365| 
    1516                      .dwpsn  file "../sources/dual_axis_servo_drive_user_cpu.c",line 345,column 5,is_stmt,isa 0
    1517 0000004e E720          SUBF32    R3H,R1H,R0H           ; [CPU_FPU] |345| 
         0000004f 000B 
    1518                      .dwpsn  file "../sources/dual_axis_servo_drive_user_cpu.c",line 365,column 5,is_stmt,isa 0
    1519 00000050 E802          MOVIZ     R0H,#16585            ; [CPU_FPU] |365| 
         00000051 0648 
    1520 00000052 E808          MOVXI     R0H,#4059             ; [CPU_FPU] |365| 
         00000053 7ED8 
    1521 00000054 E2AF          MOV32     R1H,*+XAR4[AR0]       ; [CPU_FPU] |365| 
         00000055 0194 
    1522 00000056 E700          MPYF32    R0H,R0H,R1H           ; [CPU_FPU] |365| 
         00000057 0040 
    1523 00000058 7700          NOP       ; [CPU_ALU] 
    1524 00000059 E850          MPYF32    R0H,R0H,#16544        ; [CPU_FPU] |365| 
         0000005a 2800 
    1525 0000005b 7700          NOP       ; [CPU_ALU] 
    1526 0000005c E88F          ADDF32    R0H,R0H,#16256        ; [CPU_FPU] |365| 
         0000005d E000 
    1527 0000005e 7700          NOP       ; [CPU_ALU] 
TMS320C2000 Assembler PC v22.6.2 Wed Dec 10 14:16:25 2025

Copyright (c) 1996-2018 Texas Instruments Incorporated
dual_axis_servo_drive_user_cpu.asm                                   PAGE   37

    1528 0000005f E801          MOVIZ     R1H,#16256            ; [CPU_FPU] |365| 
         00000060 FC01 
    1529 00000061 E274          DIVF32    R0H,R1H,R0H           ; [CPU_FPU] |365| 
         00000062 0008 
    1530 00000063 7700          NOP       ; [CPU_ALU] 
    1531 00000064 7700          NOP       ; [CPU_ALU] 
    1532 00000065 7700          NOP       ; [CPU_ALU] 
    1533 00000066 D0BA          MOVB      XAR0,#186             ; [CPU_ALU] |365| 
    1534 00000067 E203          MOV32     *+XAR4[AR0],R0H       ; [CPU_FPU] |365| 
         00000068 0094 
    1535                      .dwpsn  file "../sources/dual_axis_servo_drive_user_cpu.c",line 358,column 5,is_stmt,isa 0
    1536 00000069 D00E          MOVB      XAR0,#14              ; [CPU_ALU] |358| 
    1537 0000006a E801          MOVIZ     R0H,#16204            ; [CPU_FPU] |358| 
         0000006b FA60 
    1538 0000006c E2AF          MOV32     R1H,*+XAR4[AR0]       ; [CPU_FPU] |358| 
         0000006d 0194 
    1539 0000006e E80E          MOVXI     R0H,#52429            ; [CPU_FPU] |358| 
         0000006f 6668 
    1540 00000070 E700          MPYF32    R0H,R0H,R1H           ; [CPU_FPU] |358| 
         00000071 0040 
    1541 00000072 8D00          MOVL      XAR0,#336             ; [CPU_ALU] |358| 
         00000073 0150 
    1542 00000074 E203          MOV32     *+XAR4[AR0],R0H       ; [CPU_FPU] |358| 
         00000075 0094 
    1543                      .dwpsn  file "../sources/dual_axis_servo_drive_user_cpu.c",line 359,column 5,is_stmt,isa 0
    1544 00000076 D00E          MOVB      XAR0,#14              ; [CPU_ALU] |359| 
    1545 00000077 E805          MOVIZ     R0H,#48972            ; [CPU_FPU] |359| 
         00000078 FA60 
    1546 00000079 E80E          MOVXI     R0H,#52429            ; [CPU_FPU] |359| 
         0000007a 6668 
    1547 0000007b E2AF          MOV32     R1H,*+XAR4[AR0]       ; [CPU_FPU] |359| 
         0000007c 0194 
    1548 0000007d E700          MPYF32    R0H,R0H,R1H           ; [CPU_FPU] |359| 
         0000007e 0040 
    1549 0000007f 8D00          MOVL      XAR0,#338             ; [CPU_ALU] |359| 
         00000080 0152 
    1550 00000081 E203          MOV32     *+XAR4[AR0],R0H       ; [CPU_FPU] |359| 
         00000082 0094 
    1551                      .dwpsn  file "../sources/dual_axis_servo_drive_user_cpu.c",line 324,column 5,is_stmt,isa 0
    1552 00000083 D05C          MOVB      XAR0,#92              ; [CPU_ALU] |324| 
    1553                      .dwpsn  file "../sources/dual_axis_servo_drive_user_cpu.c",line 362,column 5,is_stmt,isa 0
    1554 00000084 E2AF          MOV32     R0H,*+XAR4[6]         ; [CPU_FPU] |362| 
         00000085 00F4 
    1555                      .dwpsn  file "../sources/dual_axis_servo_drive_user_cpu.c",line 324,column 5,is_stmt,isa 0
    1556 00000086 E203          MOV32     *+XAR4[AR0],R5H       ; [CPU_FPU] |324| 
         00000087 0594 
    1557                      .dwpsn  file "../sources/dual_axis_servo_drive_user_cpu.c",line 362,column 5,is_stmt,isa 0
    1558 00000088 D00C          MOVB      XAR0,#12              ; [CPU_ALU] |362| 
    1559 00000089 E2AF          MOV32     R1H,*+XAR4[AR0]       ; [CPU_FPU] |362| 
         0000008a 0194 
    1560 0000008b E700          MPYF32    R0H,R1H,R0H           ; [CPU_FPU] |362| 
         0000008c 0008 
    1561 0000008d 7700          NOP       ; [CPU_ALU] 
    1562 0000008e E801          MOVIZ     R1H,#16256            ; [CPU_FPU] |362| 
         0000008f FC01 
TMS320C2000 Assembler PC v22.6.2 Wed Dec 10 14:16:25 2025

Copyright (c) 1996-2018 Texas Instruments Incorporated
dual_axis_servo_drive_user_cpu.asm                                   PAGE   38

    1563 00000090 E274          DIVF32    R0H,R1H,R0H           ; [CPU_FPU] |362| 
         00000091 0008 
    1564 00000092 7700          NOP       ; [CPU_ALU] 
    1565 00000093 7700          NOP       ; [CPU_ALU] 
    1566 00000094 7700          NOP       ; [CPU_ALU] 
    1567 00000095 D0B8          MOVB      XAR0,#184             ; [CPU_ALU] |362| 
    1568 00000096 E203          MOV32     *+XAR4[AR0],R0H       ; [CPU_FPU] |362| 
         00000097 0094 
    1569                      .dwpsn  file "../sources/dual_axis_servo_drive_user_cpu.c",line 367,column 5,is_stmt,isa 0
    1570 00000098 E2AF          MOV32     R0H,*+XAR4[6]         ; [CPU_FPU] |367| 
         00000099 00F4 
    1571 0000009a E850          MPYF32    R1H,R0H,#17008        ; [CPU_FPU] |367| 
         0000009b 9C01 
    1572 0000009c D008          MOVB      XAR0,#8               ; [CPU_ALU] |367| 
    1573 0000009d E2AF          MOV32     R0H,*+XAR4[AR0]       ; [CPU_FPU] |367| 
         0000009e 0094 
    1574 0000009f E274          DIVF32    R0H,R1H,R0H           ; [CPU_FPU] |367| 
         000000a0 0008 
    1575 000000a1 7700          NOP       ; [CPU_ALU] 
    1576                      .dwpsn  file "../sources/dual_axis_servo_drive_user_cpu.c",line 313,column 5,is_stmt,isa 0
    1577 000000a2 8F40          MOVL      XAR5,#5000            ; [CPU_ARAU] |313| 
         000000a3 1388 
    1578                      .dwpsn  file "../sources/dual_axis_servo_drive_user_cpu.c",line 319,column 5,is_stmt,isa 0
    1579 000000a4 0201          MOVB      ACC,#1                ; [CPU_ALU] |319| 
    1580                      .dwpsn  file "../sources/dual_axis_servo_drive_user_cpu.c",line 313,column 5,is_stmt,isa 0
    1581 000000a5 A0D4          MOVL      *+XAR4[2],XAR5        ; [CPU_ALU] |313| 
    1582                      .dwpsn  file "../sources/dual_axis_servo_drive_user_cpu.c",line 367,column 5,is_stmt,isa 0
    1583 000000a6 E68A          F32TOUI32 R0H,R0H               ; [CPU_FPU] |367| 
         000000a7 0000 
    1584 000000a8 D0B6          MOVB      XAR0,#182             ; [CPU_ALU] |367| 
    1585 000000a9 E203          MOV32     *+XAR4[AR0],R0H       ; [CPU_FPU] |367| 
         000000aa 0094 
    1586                      .dwpsn  file "../sources/dual_axis_servo_drive_user_cpu.c",line 344,column 5,is_stmt,isa 0
    1587 000000ab 8D00          MOVL      XAR0,#300             ; [CPU_ALU] |344| 
         000000ac 012C 
    1588 000000ad E203          MOV32     *+XAR4[AR0],R4H       ; [CPU_FPU] |344| 
         000000ae 0494 
    1589                      .dwpsn  file "../sources/dual_axis_servo_drive_user_cpu.c",line 345,column 5,is_stmt,isa 0
    1590 000000af 8D00          MOVL      XAR0,#302             ; [CPU_ALU] |345| 
         000000b0 012E 
    1591 000000b1 E203          MOV32     *+XAR4[AR0],R3H       ; [CPU_FPU] |345| 
         000000b2 0394 
    1592                      .dwpsn  file "../sources/dual_axis_servo_drive_user_cpu.c",line 366,column 5,is_stmt,isa 0
    1593 000000b3 D0BA          MOVB      XAR0,#186             ; [CPU_ALU] |366| 
    1594 000000b4 E2AF          MOV32     R0H,*+XAR4[AR0]       ; [CPU_FPU] |366| 
         000000b5 0094 
    1595 000000b6 E8CF          SUBF32    R0H,#16256,R0H        ; [CPU_FPU] |366| 
         000000b7 E000 
    1596 000000b8 D0BC          MOVB      XAR0,#188             ; [CPU_ALU] |366| 
    1597 000000b9 E203          MOV32     *+XAR4[AR0],R0H       ; [CPU_FPU] |366| 
         000000ba 0094 
    1598                      .dwpsn  file "../sources/dual_axis_servo_drive_user_cpu.c",line 346,column 5,is_stmt,isa 0
    1599 000000bb D00E          MOVB      XAR0,#14              ; [CPU_ALU] |346| 
    1600 000000bc E2AF          MOV32     R0H,*+XAR4[AR0]       ; [CPU_FPU] |346| 
         000000bd 0094 
TMS320C2000 Assembler PC v22.6.2 Wed Dec 10 14:16:25 2025

Copyright (c) 1996-2018 Texas Instruments Incorporated
dual_axis_servo_drive_user_cpu.asm                                   PAGE   39

    1601 000000be E84F          MPYF32    R0H,R0H,#16128        ; [CPU_FPU] |346| 
         000000bf C000 
    1602 000000c0 8D00          MOVL      XAR0,#304             ; [CPU_ALU] |346| 
         000000c1 0130 
    1603 000000c2 E203          MOV32     *+XAR4[AR0],R0H       ; [CPU_FPU] |346| 
         000000c3 0094 
    1604                      .dwpsn  file "../sources/dual_axis_servo_drive_user_cpu.c",line 347,column 5,is_stmt,isa 0
    1605 000000c4 D00E          MOVB      XAR0,#14              ; [CPU_ALU] |347| 
    1606 000000c5 E2AF          MOV32     R0H,*+XAR4[AR0]       ; [CPU_FPU] |347| 
         000000c6 0094 
    1607 000000c7 E86F          MPYF32    R0H,R0H,#48896        ; [CPU_FPU] |347| 
         000000c8 C000 
    1608 000000c9 8D00          MOVL      XAR0,#306             ; [CPU_ALU] |347| 
         000000ca 0132 
    1609 000000cb E203          MOV32     *+XAR4[AR0],R0H       ; [CPU_FPU] |347| 
         000000cc 0094 
    1610                      .dwpsn  file "../sources/dual_axis_servo_drive_user_cpu.c",line 372,column 5,is_stmt,isa 0
    1611 000000cd D00C          MOVB      XAR0,#12              ; [CPU_ALU] |372| 
    1612 000000ce E2AF          MOV32     R0H,*+XAR4[AR0]       ; [CPU_FPU] |372| 
         000000cf 0094 
    1613 000000d0 E850          MPYF32    R0H,R0H,#16752        ; [CPU_FPU] |372| 
         000000d1 5C00 
    1614 000000d2 D0CC          MOVB      XAR0,#204             ; [CPU_ALU] |372| 
    1615 000000d3 E203          MOV32     *+XAR4[AR0],R0H       ; [CPU_FPU] |372| 
         000000d4 0094 
    1616                      .dwpsn  file "../sources/dual_axis_servo_drive_user_cpu.c",line 319,column 5,is_stmt,isa 0
    1617 000000d5 D068          MOVB      XAR0,#104             ; [CPU_ALU] |319| 
    1618                      .dwpsn  file "../sources/dual_axis_servo_drive_user_cpu.c",line 328,column 5,is_stmt,isa 0
    1619 000000d6 E801          MOVIZ     R0H,#16000            ; [CPU_FPU] |328| 
         000000d7 F400 
    1620                      .dwpsn  file "../sources/dual_axis_servo_drive_user_cpu.c",line 319,column 5,is_stmt,isa 0
    1621 000000d8 1E94          MOVL      *+XAR4[AR0],ACC       ; [CPU_ALU] |319| 
    1622                      .dwpsn  file "../sources/dual_axis_servo_drive_user_cpu.c",line 328,column 5,is_stmt,isa 0
    1623 000000d9 8D00          MOVL      XAR0,#268             ; [CPU_ALU] |328| 
         000000da 010C 
    1624 000000db E203          MOV32     *+XAR4[AR0],R0H       ; [CPU_FPU] |328| 
         000000dc 0094 
    1625                      .dwpsn  file "../sources/dual_axis_servo_drive_user_cpu.c",line 330,column 5,is_stmt,isa 0
    1626 000000dd 8D00          MOVL      XAR0,#272             ; [CPU_ALU] |330| 
         000000de 0110 
    1627 000000df E801          MOVIZ     R0H,#16256            ; [CPU_FPU] |330| 
         000000e0 FC00 
    1628 000000e1 E203          MOV32     *+XAR4[AR0],R0H       ; [CPU_FPU] |330| 
         000000e2 0094 
    1629                      .dwpsn  file "../sources/dual_axis_servo_drive_user_cpu.c",line 331,column 5,is_stmt,isa 0
    1630 000000e3 8D00          MOVL      XAR0,#274             ; [CPU_ALU] |331| 
         000000e4 0112 
    1631 000000e5 E805          MOVIZ     R0H,#49024            ; [CPU_FPU] |331| 
         000000e6 FC00 
    1632 000000e7 E203          MOV32     *+XAR4[AR0],R0H       ; [CPU_FPU] |331| 
         000000e8 0094 
    1633                      .dwpsn  file "../sources/dual_axis_servo_drive_user_cpu.c",line 320,column 5,is_stmt,isa 0
    1634 000000e9 D06A          MOVB      XAR0,#106             ; [CPU_ALU] |320| 
    1635 000000ea E805          MOVIZ     R0H,#49024            ; [CPU_FPU] |320| 
         000000eb FC00 
TMS320C2000 Assembler PC v22.6.2 Wed Dec 10 14:16:25 2025

Copyright (c) 1996-2018 Texas Instruments Incorporated
dual_axis_servo_drive_user_cpu.asm                                   PAGE   40

    1636 000000ec E203          MOV32     *+XAR4[AR0],R0H       ; [CPU_FPU] |320| 
         000000ed 0094 
    1637                      .dwpsn  file "../sources/dual_axis_servo_drive_user_cpu.c",line 321,column 5,is_stmt,isa 0
    1638 000000ee D06C          MOVB      XAR0,#108             ; [CPU_ALU] |321| 
    1639 000000ef E801          MOVIZ     R0H,#16256            ; [CPU_FPU] |321| 
         000000f0 FC00 
    1640 000000f1 E203          MOV32     *+XAR4[AR0],R0H       ; [CPU_FPU] |321| 
         000000f2 0094 
    1641                      .dwpsn  file "../sources/dual_axis_servo_drive_user_cpu.c",line 325,column 5,is_stmt,isa 0
    1642 000000f3 D060          MOVB      XAR0,#96              ; [CPU_ALU] |325| 
    1643 000000f4 E801          MOVIZ     R0H,#16256            ; [CPU_FPU] |325| 
         000000f5 FC00 
    1644 000000f6 E203          MOV32     *+XAR4[AR0],R0H       ; [CPU_FPU] |325| 
         000000f7 0094 
    1645                      .dwpsn  file "../sources/dual_axis_servo_drive_user_cpu.c",line 326,column 5,is_stmt,isa 0
    1646 000000f8 D064          MOVB      XAR0,#100             ; [CPU_ALU] |326| 
    1647 000000f9 E801          MOVIZ     R0H,#16256            ; [CPU_FPU] |326| 
         000000fa FC00 
    1648 000000fb E203          MOV32     *+XAR4[AR0],R0H       ; [CPU_FPU] |326| 
         000000fc 0094 
    1649                      .dwpsn  file "../sources/dual_axis_servo_drive_user_cpu.c",line 334,column 5,is_stmt,isa 0
    1650 000000fd D0EA          MOVB      XAR0,#234             ; [CPU_ALU] |334| 
    1651 000000fe E801          MOVIZ     R0H,#16000            ; [CPU_FPU] |334| 
         000000ff F400 
    1652 00000100 E203          MOV32     *+XAR4[AR0],R0H       ; [CPU_FPU] |334| 
         00000101 0094 
    1653                      .dwpsn  file "../sources/dual_axis_servo_drive_user_cpu.c",line 336,column 5,is_stmt,isa 0
    1654 00000102 D0EE          MOVB      XAR0,#238             ; [CPU_ALU] |336| 
    1655 00000103 E590          ZERO      R0H                   ; [CPU_FPU] |336| 
    1656 00000104 E203          MOV32     *+XAR4[AR0],R0H       ; [CPU_FPU] |336| 
         00000105 0094 
    1657                      .dwpsn  file "../sources/dual_axis_servo_drive_user_cpu.c",line 337,column 5,is_stmt,isa 0
    1658 00000106 D0E8          MOVB      XAR0,#232             ; [CPU_ALU] |337| 
    1659 00000107 E801          MOVIZ     R0H,#16256            ; [CPU_FPU] |337| 
         00000108 FC00 
    1660 00000109 E203          MOV32     *+XAR4[AR0],R0H       ; [CPU_FPU] |337| 
         0000010a 0094 
    1661                      .dwpsn  file "../sources/dual_axis_servo_drive_user_cpu.c",line 371,column 5,is_stmt,isa 0
    1662 0000010b D0CA          MOVB      XAR0,#202             ; [CPU_ALU] |371| 
    1663 0000010c E802          MOVIZ     R0H,#16752            ; [CPU_FPU] |371| 
         0000010d 0B80 
    1664 0000010e E203          MOV32     *+XAR4[AR0],R0H       ; [CPU_FPU] |371| 
         0000010f 0094 
    1665                      .dwpsn  file "../sources/dual_axis_servo_drive_user_cpu.c",line 373,column 5,is_stmt,isa 0
    1666 00000110 D0D0          MOVB      XAR0,#208             ; [CPU_ALU] |373| 
    1667 00000111 E801          MOVIZ     R0H,#16256            ; [CPU_FPU] |373| 
         00000112 FC00 
    1668 00000113 E203          MOV32     *+XAR4[AR0],R0H       ; [CPU_FPU] |373| 
         00000114 0094 
    1669                      .dwpsn  file "../sources/dual_axis_servo_drive_user_cpu.c",line 374,column 5,is_stmt,isa 0
    1670 00000115 D0D2          MOVB      XAR0,#210             ; [CPU_ALU] |374| 
    1671 00000116 E805          MOVIZ     R0H,#49024            ; [CPU_FPU] |374| 
         00000117 FC00 
    1672 00000118 E203          MOV32     *+XAR4[AR0],R0H       ; [CPU_FPU] |374| 
         00000119 0094 
TMS320C2000 Assembler PC v22.6.2 Wed Dec 10 14:16:25 2025

Copyright (c) 1996-2018 Texas Instruments Incorporated
dual_axis_servo_drive_user_cpu.asm                                   PAGE   41

    1673                      .dwpsn  file "../sources/dual_axis_servo_drive_user_cpu.c",line 375,column 5,is_stmt,isa 0
    1674 0000011a D0D6          MOVB      XAR0,#214             ; [CPU_ALU] |375| 
    1675 0000011b E590          ZERO      R0H                   ; [CPU_FPU] |375| 
    1676 0000011c E203          MOV32     *+XAR4[AR0],R0H       ; [CPU_FPU] |375| 
         0000011d 0094 
    1677                      .dwpsn  file "../sources/dual_axis_servo_drive_user_cpu.c",line 329,column 5,is_stmt,isa 0
    1678 0000011e 8D00          MOVL      XAR0,#270             ; [CPU_ALU] |329| 
         0000011f 010E 
    1679 00000120 E801          MOVIZ     R0H,#14979            ; [CPU_FPU] |329| 
         00000121 D418 
    1680 00000122 E808          MOVXI     R0H,#4719             ; [CPU_FPU] |329| 
         00000123 9378 
    1681 00000124 E203          MOV32     *+XAR4[AR0],R0H       ; [CPU_FPU] |329| 
         00000125 0094 
    1682                      .dwpsn  file "../sources/dual_axis_servo_drive_user_cpu.c",line 305,column 5,is_stmt,isa 0
    1683 00000126 D01E          MOVB      XAR0,#30              ; [CPU_ALU] |305| 
    1684 00000127 E801          MOVIZ     R0H,#15948            ; [CPU_FPU] |305| 
         00000128 F260 
    1685 00000129 E80E          MOVXI     R0H,#52429            ; [CPU_FPU] |305| 
         0000012a 6668 
    1686 0000012b E203          MOV32     *+XAR4[AR0],R0H       ; [CPU_FPU] |305| 
         0000012c 0094 
    1687                      .dwpsn  file "../sources/dual_axis_servo_drive_user_cpu.c",line 306,column 5,is_stmt,isa 0
    1688 0000012d D026          MOVB      XAR0,#38              ; [CPU_ALU] |306| 
    1689 0000012e E801          MOVIZ     R0H,#15820            ; [CPU_FPU] |306| 
         0000012f EE60 
    1690 00000130 E80E          MOVXI     R0H,#52429            ; [CPU_FPU] |306| 
         00000131 6668 
    1691 00000132 E203          MOV32     *+XAR4[AR0],R0H       ; [CPU_FPU] |306| 
         00000133 0094 
    1692                      .dwpsn  file "../sources/dual_axis_servo_drive_user_cpu.c",line 307,column 5,is_stmt,isa 0
    1693 00000134 D02C          MOVB      XAR0,#44              ; [CPU_ALU] |307| 
    1694 00000135 E801          MOVIZ     R0H,#15820            ; [CPU_FPU] |307| 
         00000136 EE60 
    1695 00000137 E80E          MOVXI     R0H,#52429            ; [CPU_FPU] |307| 
         00000138 6668 
    1696 00000139 E203          MOV32     *+XAR4[AR0],R0H       ; [CPU_FPU] |307| 
         0000013a 0094 
    1697                      .dwpsn  file "../sources/dual_axis_servo_drive_user_cpu.c",line 308,column 5,is_stmt,isa 0
    1698 0000013b D030          MOVB      XAR0,#48              ; [CPU_ALU] |308| 
    1699 0000013c E801          MOVIZ     R0H,#15523            ; [CPU_FPU] |308| 
         0000013d E518 
    1700 0000013e E80E          MOVXI     R0H,#55050            ; [CPU_FPU] |308| 
         0000013f B850 
    1701 00000140 E203          MOV32     *+XAR4[AR0],R0H       ; [CPU_FPU] |308| 
         00000141 0094 
    1702                      .dwpsn  file "../sources/dual_axis_servo_drive_user_cpu.c",line 335,column 5,is_stmt,isa 0
    1703 00000142 D0EC          MOVB      XAR0,#236             ; [CPU_ALU] |335| 
    1704 00000143 E801          MOVIZ     R0H,#14979            ; [CPU_FPU] |335| 
         00000144 D418 
    1705 00000145 E808          MOVXI     R0H,#4719             ; [CPU_FPU] |335| 
         00000146 9378 
    1706 00000147 E203          MOV32     *+XAR4[AR0],R0H       ; [CPU_FPU] |335| 
         00000148 0094 
    1707                      .dwpsn  file "../sources/dual_axis_servo_drive_user_cpu.c",line 338,column 5,is_stmt,isa 0
TMS320C2000 Assembler PC v22.6.2 Wed Dec 10 14:16:25 2025

Copyright (c) 1996-2018 Texas Instruments Incorporated
dual_axis_servo_drive_user_cpu.asm                                   PAGE   42

    1708 00000149 D0F2          MOVB      XAR0,#242             ; [CPU_ALU] |338| 
    1709 0000014a E801          MOVIZ     R0H,#16243            ; [CPU_FPU] |338| 
         0000014b FB98 
    1710 0000014c E809          MOVXI     R0H,#13107            ; [CPU_FPU] |338| 
         0000014d 9998 
    1711 0000014e E203          MOV32     *+XAR4[AR0],R0H       ; [CPU_FPU] |338| 
         0000014f 0094 
    1712                      .dwpsn  file "../sources/dual_axis_servo_drive_user_cpu.c",line 339,column 5,is_stmt,isa 0
    1713 00000150 D0F4          MOVB      XAR0,#244             ; [CPU_ALU] |339| 
    1714 00000151 E805          MOVIZ     R0H,#49011            ; [CPU_FPU] |339| 
         00000152 FB98 
    1715 00000153 E809          MOVXI     R0H,#13107            ; [CPU_FPU] |339| 
         00000154 9998 
    1716 00000155 E203          MOV32     *+XAR4[AR0],R0H       ; [CPU_FPU] |339| 
         00000156 0094 
    1717                      .dwpsn  file "../sources/dual_axis_servo_drive_user_cpu.c",line 300,column 5,is_stmt,isa 0
    1718 00000157 8D00          MOVL      XAR0,#446             ; [CPU_ALU] |300| 
         00000158 01BE 
    1719                      .dwpsn  file "../sources/dual_axis_servo_drive_user_cpu.c",line 314,column 5,is_stmt,isa 0
    1720 00000159 E801          MOVIZ     R0H,#14979            ; [CPU_FPU] |314| 
         0000015a D418 
    1721                      .dwpsn  file "../sources/dual_axis_servo_drive_user_cpu.c",line 300,column 5,is_stmt,isa 0
    1722 0000015b 2B94          MOV       *+XAR4[AR0],#0        ; [CPU_ALU] |300| 
    1723                      .dwpsn  file "../sources/dual_axis_servo_drive_user_cpu.c",line 301,column 5,is_stmt,isa 0
    1724 0000015c 8D00          MOVL      XAR0,#447             ; [CPU_ALU] |301| 
         0000015d 01BF 
    1725                      .dwpsn  file "../sources/dual_axis_servo_drive_user_cpu.c",line 314,column 5,is_stmt,isa 0
    1726 0000015e E808          MOVXI     R0H,#4719             ; [CPU_FPU] |314| 
         0000015f 9378 
    1727                      .dwpsn  file "../sources/dual_axis_servo_drive_user_cpu.c",line 301,column 5,is_stmt,isa 0
    1728 00000160 2B94          MOV       *+XAR4[AR0],#0        ; [CPU_ALU] |301| 
    1729                      .dwpsn  file "../sources/dual_axis_servo_drive_user_cpu.c",line 302,column 5,is_stmt,isa 0
    1730 00000161 8D00          MOVL      XAR0,#445             ; [CPU_ALU] |302| 
         00000162 01BD 
    1731                      .dwpsn  file "../sources/dual_axis_servo_drive_user_cpu.c",line 314,column 5,is_stmt,isa 0
    1732 00000163 E203          MOV32     *+XAR4[4],R0H         ; [CPU_FPU] |314| 
         00000164 00E4 
    1733                      .dwpsn  file "../sources/dual_axis_servo_drive_user_cpu.c",line 302,column 5,is_stmt,isa 0
    1734 00000165 2B94          MOV       *+XAR4[AR0],#0        ; [CPU_ALU] |302| 
    1735                      .dwpsn  file "../sources/dual_axis_servo_drive_user_cpu.c",line 310,column 5,is_stmt,isa 0
    1736 00000166 8D00          MOVL      XAR0,#437             ; [CPU_ALU] |310| 
         00000167 01B5 
    1737 00000168 2894          MOV       *+XAR4[AR0],#2000     ; [CPU_ALU] |310| 
         00000169 07D0 
    1738                      .dwpsn  file "../sources/dual_axis_servo_drive_user_cpu.c",line 376,column 5,is_stmt,isa 0
    1739 0000016a E2AF          MOV32     R0H,*+XAR4[6]         ; [CPU_FPU] |376| 
         0000016b 00F4 
    1740                      .dwpsn  file "../sources/dual_axis_servo_drive_user_cpu.c",line 311,column 5,is_stmt,isa 0
    1741 0000016c 8D00          MOVL      XAR0,#438             ; [CPU_ALU] |311| 
         0000016d 01B6 
    1742 0000016e 56BF          MOVB      *+XAR4[AR0],#2,UNC    ; [CPU_ALU] |311| 
         0000016f 0294 
    1743                      .dwpsn  file "../sources/dual_axis_servo_drive_user_cpu.c",line 312,column 5,is_stmt,isa 0
    1744 00000170 8D00          MOVL      XAR0,#439             ; [CPU_ALU] |312| 
         00000171 01B7 
TMS320C2000 Assembler PC v22.6.2 Wed Dec 10 14:16:25 2025

Copyright (c) 1996-2018 Texas Instruments Incorporated
dual_axis_servo_drive_user_cpu.asm                                   PAGE   43

    1745 00000172 2B94          MOV       *+XAR4[AR0],#0        ; [CPU_ALU] |312| 
    1746                      .dwpsn  file "../sources/dual_axis_servo_drive_user_cpu.c",line 315,column 5,is_stmt,isa 0
    1747 00000173 8D00          MOVL      XAR0,#428             ; [CPU_ALU] |315| 
         00000174 01AC 
    1748 00000175 56BF          MOVB      *+XAR4[AR0],#1,UNC    ; [CPU_ALU] |315| 
         00000176 0194 
    1749                      .dwpsn  file "../sources/dual_axis_servo_drive_user_cpu.c",line 378,column 5,is_stmt,isa 0
    1750 00000177 8D00          MOVL      XAR0,#434             ; [CPU_ALU] |378| 
         00000178 01B2 
    1751 00000179 56BF          MOVB      *+XAR4[AR0],#10,UNC   ; [CPU_ALU] |378| 
         0000017a 0A94 
    1752                      .dwpsn  file "../sources/dual_axis_servo_drive_user_cpu.c",line 376,column 5,is_stmt,isa 0
    1753 0000017b D00C          MOVB      XAR0,#12              ; [CPU_ALU] |376| 
    1754 0000017c E2AF          MOV32     R1H,*+XAR4[AR0]       ; [CPU_FPU] |376| 
         0000017d 0194 
    1755 0000017e E700          MPYF32    R0H,R1H,R0H           ; [CPU_FPU] |376| 
         0000017f 0008 
    1756 00000180 D0DC          MOVB      XAR0,#220             ; [CPU_ALU] |376| 
    1757 00000181 E203          MOV32     *+XAR4[AR0],R0H       ; [CPU_FPU] |376| 
         00000182 0094 
    1758                      .dwpsn  file "../sources/dual_axis_servo_drive_user_cpu.c",line 355,column 5,is_stmt,isa 0
    1759 00000183 8D00          MOVL      XAR0,#334             ; [CPU_ALU] |355| 
         00000184 014E 
    1760 00000185 E203          MOV32     *+XAR4[AR0],R2H       ; [CPU_FPU] |355| 
         00000186 0294 
    1761 00000187 E2AF          MOV32     R5H,*--SP             ; [CPU_FPU] 
         00000188 05BE 
    1762                      .dwcfi  cfa_offset, -6
    1763                      .dwcfi  restore_reg, 63
    1764 00000189 E2AF          MOV32     R4H,*--SP             ; [CPU_FPU] 
         0000018a 04BE 
    1765                      .dwcfi  cfa_offset, -4
    1766                      .dwcfi  restore_reg, 59
    1767 0000018b 8BBE          MOVL      XAR1,*--SP            ; [CPU_ALU] 
    1768                      .dwcfi  cfa_offset, -2
    1769                      .dwcfi  restore_reg, 7
    1770              $C$DW$43        .dwtag  DW_TAG_TI_branch
    1771                      .dwattr $C$DW$43, DW_AT_low_pc(0x00)
    1772                      .dwattr $C$DW$43, DW_AT_TI_return
    1773              
    1774 0000018c 0006          LRETR     ; [CPU_ALU] 
    1775                      ; return occurs ; [] 
    1776                      .dwattr $C$DW$40, DW_AT_TI_end_file("../sources/dual_axis_servo_drive_user_cpu.c")
    1777                      .dwattr $C$DW$40, DW_AT_TI_end_line(0x186)
    1778                      .dwattr $C$DW$40, DW_AT_TI_end_column(0x01)
    1779                      .dwendentry
    1780                      .dwendtag $C$DW$40
    1781              
    1782 00000000               .sect   ".text:__signbitl"
    1783                      .clink
    1784                      .global ||__signbitl||
    1785              
    1786              $C$DW$44        .dwtag  DW_TAG_subprogram
    1787                      .dwattr $C$DW$44, DW_AT_name("__signbitl")
    1788                      .dwattr $C$DW$44, DW_AT_low_pc(||__signbitl||)
TMS320C2000 Assembler PC v22.6.2 Wed Dec 10 14:16:25 2025

Copyright (c) 1996-2018 Texas Instruments Incorporated
dual_axis_servo_drive_user_cpu.asm                                   PAGE   44

    1789                      .dwattr $C$DW$44, DW_AT_high_pc(0x00)
    1790                      .dwattr $C$DW$44, DW_AT_linkage_name("__signbitl")
    1791                      .dwattr $C$DW$44, DW_AT_external
    1792                      .dwattr $C$DW$44, DW_AT_type(*$C$DW$T$10)
    1793                      .dwattr $C$DW$44, DW_AT_decl_file("C:/ti/ccs2031/ccs/tools/compiler/ti-cgt-c2000_22.6.2.LTS/include/_
    1794                      .dwattr $C$DW$44, DW_AT_decl_line(0x16f)
    1795                      .dwattr $C$DW$44, DW_AT_decl_column(0x18)
    1796                      .dwattr $C$DW$44, DW_AT_TI_max_frame_size(-6)
    1797                      .dwpsn  file "C:/ti/ccs2031/ccs/tools/compiler/ti-cgt-c2000_22.6.2.LTS/include/_defs.h",line 368,colu
    1798              
    1799                      .dwfde $C$DW$CIE, ||__signbitl||
    1800              $C$DW$45        .dwtag  DW_TAG_formal_parameter
    1801                      .dwattr $C$DW$45, DW_AT_name("e")
    1802                      .dwattr $C$DW$45, DW_AT_type(*$C$DW$T$175)
    1803                      .dwattr $C$DW$45, DW_AT_location[DW_OP_reg12]
    1804              
    1805              
    1806              ;***************************************************************
    1807              ;* FNAME: __signbitl                    FR SIZE:   4           *
    1808              ;*                                                             *
    1809              ;* FUNCTION ENVIRONMENT                                        *
    1810              ;*                                                             *
    1811              ;* FUNCTION PROPERTIES                                         *
    1812              ;*                            4 Parameter,  0 Auto,  0 SOE     *
    1813              ;***************************************************************
    1814              
    1815              ||__signbitl||:
    1816              ;* AR4   assigned to e
    1817              $C$DW$46        .dwtag  DW_TAG_variable
    1818                      .dwattr $C$DW$46, DW_AT_name("e")
    1819                      .dwattr $C$DW$46, DW_AT_type(*$C$DW$T$176)
    1820                      .dwattr $C$DW$46, DW_AT_location[DW_OP_reg12]
    1821              
    1822                      .dwcfi  cfa_offset, -2
    1823                      .dwcfi  save_reg_to_mem, 26, 0
    1824 00000000 FE04          ADDB      SP,#4                 ; [CPU_ARAU] 
    1825                      .dwcfi  cfa_offset, -6
    1826                      .dwpsn  file "C:/ti/ccs2031/ccs/tools/compiler/ti-cgt-c2000_22.6.2.LTS/include/_defs.h",line 368,colu
    1827 00000001 0200          MOVB      ACC,#0                ; [CPU_ALU] |368| 
    1828 00000002 1E44          MOVL      *-SP[4],ACC           ; [CPU_ALU] |368| 
    1829 00000003 2B42          MOV       *-SP[2],#0            ; [CPU_ALU] |368| 
    1830 00000004 2B41          MOV       *-SP[1],#0            ; [CPU_ALU] |368| 
    1831 00000005 A3C4          MOVL      P,*+XAR4[0]           ; [CPU_ALU] |368| 
    1832 00000006 06D4          MOVL      ACC,*+XAR4[2]         ; [CPU_ALU] |368| 
    1833 00000007 18AB          AND       PL,#0                 ; [CPU_ALU] |368| 
         00000008 0000 
    1834 00000009 18AA          AND       PH,#0                 ; [CPU_ALU] |368| 
         0000000a 0000 
    1835 0000000b 9000          ANDB      AL,#0                 ; [CPU_ALU] |368| 
    1836 0000000c 18A8          AND       AH,#32768             ; [CPU_ALU] |368| 
         0000000d 8000 
    1837              $C$DW$47        .dwtag  DW_TAG_TI_branch
    1838                      .dwattr $C$DW$47, DW_AT_low_pc(0x00)
    1839                      .dwattr $C$DW$47, DW_AT_name("__c28xabi_cmpull")
    1840                      .dwattr $C$DW$47, DW_AT_TI_call
TMS320C2000 Assembler PC v22.6.2 Wed Dec 10 14:16:25 2025

Copyright (c) 1996-2018 Texas Instruments Incorporated
dual_axis_servo_drive_user_cpu.asm                                   PAGE   45

    1841              
    1842 0000000e 7640!         LCR       #||__c28xabi_cmpull|| ; [CPU_ALU] |368| 
         0000000f 0000 
    1843                      ; call occurs [#||__c28xabi_cmpull||] ; [] |368| 
    1844 00000010 9B00          MOVB      AH,#0                 ; [CPU_ALU] |368| 
    1845 00000011 5200          CMPB      AL,#0                 ; [CPU_ALU] |368| 
    1846 00000012 56B0          MOVB      AH,#1,NEQ             ; [CPU_ALU] |368| 
         00000013 01A8 
    1847 00000014 92A8          MOV       AL,AH                 ; [CPU_ALU] |368| 
    1848 00000015 FE84          SUBB      SP,#4                 ; [CPU_ARAU] 
    1849                      .dwcfi  cfa_offset, -2
    1850              $C$DW$48        .dwtag  DW_TAG_TI_branch
    1851                      .dwattr $C$DW$48, DW_AT_low_pc(0x00)
    1852                      .dwattr $C$DW$48, DW_AT_TI_return
    1853              
    1854 00000016 0006          LRETR     ; [CPU_ALU] 
    1855                      ; return occurs ; [] 
    1856                      .dwattr $C$DW$44, DW_AT_TI_end_file("C:/ti/ccs2031/ccs/tools/compiler/ti-cgt-c2000_22.6.2.LTS/include
    1857                      .dwattr $C$DW$44, DW_AT_TI_end_line(0x170)
    1858                      .dwattr $C$DW$44, DW_AT_TI_end_column(0x2b)
    1859                      .dwendentry
    1860                      .dwendtag $C$DW$44
    1861              
    1862 00000000               .sect   ".text:__signbitf"
    1863                      .clink
    1864                      .global ||__signbitf||
    1865              
    1866              $C$DW$49        .dwtag  DW_TAG_subprogram
    1867                      .dwattr $C$DW$49, DW_AT_name("__signbitf")
    1868                      .dwattr $C$DW$49, DW_AT_low_pc(||__signbitf||)
    1869                      .dwattr $C$DW$49, DW_AT_high_pc(0x00)
    1870                      .dwattr $C$DW$49, DW_AT_linkage_name("__signbitf")
    1871                      .dwattr $C$DW$49, DW_AT_external
    1872                      .dwattr $C$DW$49, DW_AT_type(*$C$DW$T$10)
    1873                      .dwattr $C$DW$49, DW_AT_decl_file("C:/ti/ccs2031/ccs/tools/compiler/ti-cgt-c2000_22.6.2.LTS/include/_
    1874                      .dwattr $C$DW$49, DW_AT_decl_line(0x16d)
    1875                      .dwattr $C$DW$49, DW_AT_decl_column(0x18)
    1876                      .dwattr $C$DW$49, DW_AT_TI_max_frame_size(-2)
    1877                      .dwpsn  file "C:/ti/ccs2031/ccs/tools/compiler/ti-cgt-c2000_22.6.2.LTS/include/_defs.h",line 366,colu
    1878              
    1879                      .dwfde $C$DW$CIE, ||__signbitf||
    1880              $C$DW$50        .dwtag  DW_TAG_formal_parameter
    1881                      .dwattr $C$DW$50, DW_AT_name("f")
    1882                      .dwattr $C$DW$50, DW_AT_type(*$C$DW$T$16)
    1883                      .dwattr $C$DW$50, DW_AT_location[DW_OP_regx 0x2b]
    1884              
    1885              
    1886              ;***************************************************************
    1887              ;* FNAME: __signbitf                    FR SIZE:   0           *
    1888              ;*                                                             *
    1889              ;* FUNCTION ENVIRONMENT                                        *
    1890              ;*                                                             *
    1891              ;* FUNCTION PROPERTIES                                         *
    1892              ;*                            0 Parameter,  0 Auto,  0 SOE     *
    1893              ;***************************************************************
TMS320C2000 Assembler PC v22.6.2 Wed Dec 10 14:16:25 2025

Copyright (c) 1996-2018 Texas Instruments Incorporated
dual_axis_servo_drive_user_cpu.asm                                   PAGE   46

    1894              
    1895              ||__signbitf||:
    1896              ;* R0    assigned to f
    1897              $C$DW$51        .dwtag  DW_TAG_variable
    1898                      .dwattr $C$DW$51, DW_AT_name("f")
    1899                      .dwattr $C$DW$51, DW_AT_type(*$C$DW$T$170)
    1900                      .dwattr $C$DW$51, DW_AT_location[DW_OP_regx 0x2b]
    1901              
    1902                      .dwcfi  cfa_offset, -2
    1903                      .dwcfi  save_reg_to_mem, 26, 0
    1904                      .dwpsn  file "C:/ti/ccs2031/ccs/tools/compiler/ti-cgt-c2000_22.6.2.LTS/include/_defs.h",line 366,colu
    1905 00000000 BFA9          MOV32     ACC,R0H               ; [CPU_FPU] |366| 
         00000001 0F12 
    1906 00000002 BE00          MOVB      XAR6,#0               ; [CPU_ALU] |366| 
    1907 00000003 9000          ANDB      AL,#0                 ; [CPU_ALU] |366| 
    1908 00000004 18A8          AND       AH,#32768             ; [CPU_ALU] |366| 
         00000005 8000 
    1909 00000006 FF58          TEST      ACC                   ; [CPU_ALU] |366| 
    1910 00000007 56B0          MOVB      XAR6,#1,NEQ           ; [CPU_ALU] |366| 
         00000008 01A6 
    1911 00000009 92A6          MOV       AL,AR6                ; [CPU_ALU] |366| 
    1912              $C$DW$52        .dwtag  DW_TAG_TI_branch
    1913                      .dwattr $C$DW$52, DW_AT_low_pc(0x00)
    1914                      .dwattr $C$DW$52, DW_AT_TI_return
    1915              
    1916 0000000a 0006          LRETR     ; [CPU_ALU] 
    1917                      ; return occurs ; [] 
    1918                      .dwattr $C$DW$49, DW_AT_TI_end_file("C:/ti/ccs2031/ccs/tools/compiler/ti-cgt-c2000_22.6.2.LTS/include
    1919                      .dwattr $C$DW$49, DW_AT_TI_end_line(0x16e)
    1920                      .dwattr $C$DW$49, DW_AT_TI_end_column(0x29)
    1921                      .dwendentry
    1922                      .dwendtag $C$DW$49
    1923              
    1924 00000000               .sect   ".text:__signbit"
    1925                      .clink
    1926                      .global ||__signbit||
    1927              
    1928              $C$DW$53        .dwtag  DW_TAG_subprogram
    1929                      .dwattr $C$DW$53, DW_AT_name("__signbit")
    1930                      .dwattr $C$DW$53, DW_AT_low_pc(||__signbit||)
    1931                      .dwattr $C$DW$53, DW_AT_high_pc(0x00)
    1932                      .dwattr $C$DW$53, DW_AT_linkage_name("__signbit")
    1933                      .dwattr $C$DW$53, DW_AT_external
    1934                      .dwattr $C$DW$53, DW_AT_type(*$C$DW$T$10)
    1935                      .dwattr $C$DW$53, DW_AT_decl_file("C:/ti/ccs2031/ccs/tools/compiler/ti-cgt-c2000_22.6.2.LTS/include/_
    1936                      .dwattr $C$DW$53, DW_AT_decl_line(0x16b)
    1937                      .dwattr $C$DW$53, DW_AT_decl_column(0x18)
    1938                      .dwattr $C$DW$53, DW_AT_TI_max_frame_size(-6)
    1939                      .dwpsn  file "C:/ti/ccs2031/ccs/tools/compiler/ti-cgt-c2000_22.6.2.LTS/include/_defs.h",line 364,colu
    1940              
    1941                      .dwfde $C$DW$CIE, ||__signbit||
    1942              $C$DW$54        .dwtag  DW_TAG_formal_parameter
    1943                      .dwattr $C$DW$54, DW_AT_name("d")
    1944                      .dwattr $C$DW$54, DW_AT_type(*$C$DW$T$172)
    1945                      .dwattr $C$DW$54, DW_AT_location[DW_OP_reg12]
TMS320C2000 Assembler PC v22.6.2 Wed Dec 10 14:16:25 2025

Copyright (c) 1996-2018 Texas Instruments Incorporated
dual_axis_servo_drive_user_cpu.asm                                   PAGE   47

    1946              
    1947              
    1948              ;***************************************************************
    1949              ;* FNAME: __signbit                     FR SIZE:   4           *
    1950              ;*                                                             *
    1951              ;* FUNCTION ENVIRONMENT                                        *
    1952              ;*                                                             *
    1953              ;* FUNCTION PROPERTIES                                         *
    1954              ;*                            4 Parameter,  0 Auto,  0 SOE     *
    1955              ;***************************************************************
    1956              
    1957              ||__signbit||:
    1958              ;* AR4   assigned to d
    1959              $C$DW$55        .dwtag  DW_TAG_variable
    1960                      .dwattr $C$DW$55, DW_AT_name("d")
    1961                      .dwattr $C$DW$55, DW_AT_type(*$C$DW$T$173)
    1962                      .dwattr $C$DW$55, DW_AT_location[DW_OP_reg12]
    1963              
    1964                      .dwcfi  cfa_offset, -2
    1965                      .dwcfi  save_reg_to_mem, 26, 0
    1966 00000000 FE04          ADDB      SP,#4                 ; [CPU_ARAU] 
    1967                      .dwcfi  cfa_offset, -6
    1968                      .dwpsn  file "C:/ti/ccs2031/ccs/tools/compiler/ti-cgt-c2000_22.6.2.LTS/include/_defs.h",line 364,colu
    1969 00000001 0200          MOVB      ACC,#0                ; [CPU_ALU] |364| 
    1970 00000002 1E44          MOVL      *-SP[4],ACC           ; [CPU_ALU] |364| 
    1971 00000003 2B42          MOV       *-SP[2],#0            ; [CPU_ALU] |364| 
    1972 00000004 2B41          MOV       *-SP[1],#0            ; [CPU_ALU] |364| 
    1973 00000005 A3C4          MOVL      P,*+XAR4[0]           ; [CPU_ALU] |364| 
    1974 00000006 06D4          MOVL      ACC,*+XAR4[2]         ; [CPU_ALU] |364| 
    1975 00000007 18AB          AND       PL,#0                 ; [CPU_ALU] |364| 
         00000008 0000 
    1976 00000009 18AA          AND       PH,#0                 ; [CPU_ALU] |364| 
         0000000a 0000 
    1977 0000000b 9000          ANDB      AL,#0                 ; [CPU_ALU] |364| 
    1978 0000000c 18A8          AND       AH,#32768             ; [CPU_ALU] |364| 
         0000000d 8000 
    1979              $C$DW$56        .dwtag  DW_TAG_TI_branch
    1980                      .dwattr $C$DW$56, DW_AT_low_pc(0x00)
    1981                      .dwattr $C$DW$56, DW_AT_name("__c28xabi_cmpull")
    1982                      .dwattr $C$DW$56, DW_AT_TI_call
    1983              
    1984 0000000e 7640!         LCR       #||__c28xabi_cmpull|| ; [CPU_ALU] |364| 
         0000000f 0000 
    1985                      ; call occurs [#||__c28xabi_cmpull||] ; [] |364| 
    1986 00000010 9B00          MOVB      AH,#0                 ; [CPU_ALU] |364| 
    1987 00000011 5200          CMPB      AL,#0                 ; [CPU_ALU] |364| 
    1988 00000012 56B0          MOVB      AH,#1,NEQ             ; [CPU_ALU] |364| 
         00000013 01A8 
    1989 00000014 92A8          MOV       AL,AH                 ; [CPU_ALU] |364| 
    1990 00000015 FE84          SUBB      SP,#4                 ; [CPU_ARAU] 
    1991                      .dwcfi  cfa_offset, -2
    1992              $C$DW$57        .dwtag  DW_TAG_TI_branch
    1993                      .dwattr $C$DW$57, DW_AT_low_pc(0x00)
    1994                      .dwattr $C$DW$57, DW_AT_TI_return
    1995              
TMS320C2000 Assembler PC v22.6.2 Wed Dec 10 14:16:25 2025

Copyright (c) 1996-2018 Texas Instruments Incorporated
dual_axis_servo_drive_user_cpu.asm                                   PAGE   48

    1996 00000016 0006          LRETR     ; [CPU_ALU] 
    1997                      ; return occurs ; [] 
    1998                      .dwattr $C$DW$53, DW_AT_TI_end_file("C:/ti/ccs2031/ccs/tools/compiler/ti-cgt-c2000_22.6.2.LTS/include
    1999                      .dwattr $C$DW$53, DW_AT_TI_end_line(0x16c)
    2000                      .dwattr $C$DW$53, DW_AT_TI_end_column(0x2a)
    2001                      .dwendentry
    2002                      .dwendtag $C$DW$53
    2003              
    2004 00000000               .sect   ".text:__relaxed_sqrtf"
    2005                      .clink
    2006                      .global ||__relaxed_sqrtf||
    2007              
    2008              $C$DW$58        .dwtag  DW_TAG_subprogram
    2009                      .dwattr $C$DW$58, DW_AT_name("__relaxed_sqrtf")
    2010                      .dwattr $C$DW$58, DW_AT_low_pc(||__relaxed_sqrtf||)
    2011                      .dwattr $C$DW$58, DW_AT_high_pc(0x00)
    2012                      .dwattr $C$DW$58, DW_AT_linkage_name("__relaxed_sqrtf")
    2013                      .dwattr $C$DW$58, DW_AT_external
    2014                      .dwattr $C$DW$58, DW_AT_type(*$C$DW$T$16)
    2015                      .dwattr $C$DW$58, DW_AT_decl_file("C:/ti/ccs2031/ccs/tools/compiler/ti-cgt-c2000_22.6.2.LTS/include/m
    2016                      .dwattr $C$DW$58, DW_AT_decl_line(0x103)
    2017                      .dwattr $C$DW$58, DW_AT_decl_column(0x10)
    2018                      .dwattr $C$DW$58, DW_AT_TI_max_frame_size(-2)
    2019                      .dwpsn  file "C:/ti/ccs2031/ccs/tools/compiler/ti-cgt-c2000_22.6.2.LTS/include/math.h",line 260,colum
    2020              
    2021                      .dwfde $C$DW$CIE, ||__relaxed_sqrtf||
    2022              $C$DW$59        .dwtag  DW_TAG_formal_parameter
    2023                      .dwattr $C$DW$59, DW_AT_name("x")
    2024                      .dwattr $C$DW$59, DW_AT_type(*$C$DW$T$16)
    2025                      .dwattr $C$DW$59, DW_AT_location[DW_OP_regx 0x2b]
    2026              
    2027              
    2028              ;***************************************************************
    2029              ;* FNAME: __relaxed_sqrtf               FR SIZE:   0           *
    2030              ;*                                                             *
    2031              ;* FUNCTION ENVIRONMENT                                        *
    2032              ;*                                                             *
    2033              ;* FUNCTION PROPERTIES                                         *
    2034              ;*                            0 Parameter,  0 Auto,  0 SOE     *
    2035              ;***************************************************************
    2036              
    2037              ||__relaxed_sqrtf||:
    2038              ;* R0    assigned to x
    2039              $C$DW$60        .dwtag  DW_TAG_variable
    2040                      .dwattr $C$DW$60, DW_AT_name("x")
    2041                      .dwattr $C$DW$60, DW_AT_type(*$C$DW$T$170)
    2042                      .dwattr $C$DW$60, DW_AT_location[DW_OP_regx 0x2b]
    2043              
    2044                      .dwcfi  cfa_offset, -2
    2045                      .dwcfi  save_reg_to_mem, 26, 0
    2046                      .dwpsn  file "C:/ti/ccs2031/ccs/tools/compiler/ti-cgt-c2000_22.6.2.LTS/include/math.h",line 261,colum
    2047 00000000 E277          SQRTF32   R0H,R0H               ; [CPU_FPU] |261| 
         00000001 0000 
    2048 00000002 7700          NOP       ; [CPU_ALU] 
    2049 00000003 7700          NOP       ; [CPU_ALU] 
TMS320C2000 Assembler PC v22.6.2 Wed Dec 10 14:16:25 2025

Copyright (c) 1996-2018 Texas Instruments Incorporated
dual_axis_servo_drive_user_cpu.asm                                   PAGE   49

    2050 00000004 7700          NOP       ; [CPU_ALU] 
    2051              $C$DW$61        .dwtag  DW_TAG_TI_branch
    2052                      .dwattr $C$DW$61, DW_AT_low_pc(0x00)
    2053                      .dwattr $C$DW$61, DW_AT_TI_return
    2054              
    2055 00000005 0006          LRETR     ; [CPU_ALU] 
    2056                      ; return occurs ; [] 
    2057                      .dwattr $C$DW$58, DW_AT_TI_end_file("C:/ti/ccs2031/ccs/tools/compiler/ti-cgt-c2000_22.6.2.LTS/include
    2058                      .dwattr $C$DW$58, DW_AT_TI_end_line(0x106)
    2059                      .dwattr $C$DW$58, DW_AT_TI_end_column(0x01)
    2060                      .dwendentry
    2061                      .dwendtag $C$DW$58
    2062              
    2063 00000000               .sect   ".text:__relaxed_sinf"
    2064                      .clink
    2065                      .global ||__relaxed_sinf||
    2066              
    2067              $C$DW$62        .dwtag  DW_TAG_subprogram
    2068                      .dwattr $C$DW$62, DW_AT_name("__relaxed_sinf")
    2069                      .dwattr $C$DW$62, DW_AT_low_pc(||__relaxed_sinf||)
    2070                      .dwattr $C$DW$62, DW_AT_high_pc(0x00)
    2071                      .dwattr $C$DW$62, DW_AT_linkage_name("__relaxed_sinf")
    2072                      .dwattr $C$DW$62, DW_AT_external
    2073                      .dwattr $C$DW$62, DW_AT_type(*$C$DW$T$16)
    2074                      .dwattr $C$DW$62, DW_AT_decl_file("C:/ti/ccs2031/ccs/tools/compiler/ti-cgt-c2000_22.6.2.LTS/include/m
    2075                      .dwattr $C$DW$62, DW_AT_decl_line(0x108)
    2076                      .dwattr $C$DW$62, DW_AT_decl_column(0x10)
    2077                      .dwattr $C$DW$62, DW_AT_TI_max_frame_size(-2)
    2078                      .dwpsn  file "C:/ti/ccs2031/ccs/tools/compiler/ti-cgt-c2000_22.6.2.LTS/include/math.h",line 265,colum
    2079              
    2080                      .dwfde $C$DW$CIE, ||__relaxed_sinf||
    2081              $C$DW$63        .dwtag  DW_TAG_formal_parameter
    2082                      .dwattr $C$DW$63, DW_AT_name("x")
    2083                      .dwattr $C$DW$63, DW_AT_type(*$C$DW$T$16)
    2084                      .dwattr $C$DW$63, DW_AT_location[DW_OP_regx 0x2b]
    2085              
    2086              
    2087              ;***************************************************************
    2088              ;* FNAME: __relaxed_sinf                FR SIZE:   0           *
    2089              ;*                                                             *
    2090              ;* FUNCTION ENVIRONMENT                                        *
    2091              ;*                                                             *
    2092              ;* FUNCTION PROPERTIES                                         *
    2093              ;*                            0 Parameter,  0 Auto,  0 SOE     *
    2094              ;***************************************************************
    2095              
    2096              ||__relaxed_sinf||:
    2097              ;* R0    assigned to x
    2098              $C$DW$64        .dwtag  DW_TAG_variable
    2099                      .dwattr $C$DW$64, DW_AT_name("x")
    2100                      .dwattr $C$DW$64, DW_AT_type(*$C$DW$T$170)
    2101                      .dwattr $C$DW$64, DW_AT_location[DW_OP_regx 0x2b]
    2102              
    2103                      .dwcfi  cfa_offset, -2
    2104                      .dwcfi  save_reg_to_mem, 26, 0
TMS320C2000 Assembler PC v22.6.2 Wed Dec 10 14:16:25 2025

Copyright (c) 1996-2018 Texas Instruments Incorporated
dual_axis_servo_drive_user_cpu.asm                                   PAGE   50

    2105                      .dwpsn  file "C:/ti/ccs2031/ccs/tools/compiler/ti-cgt-c2000_22.6.2.LTS/include/math.h",line 266,colum
    2106 00000000 E271          DIV2PIF32 R0H,R0H               ; [CPU_FPU] |266| 
         00000001 0000 
    2107 00000002 7700          NOP       ; [CPU_ALU] 
    2108 00000003 E278          SINPUF32  R0H,R0H               ; [CPU_FPU] |266| 
         00000004 0000 
    2109 00000005 7700          NOP       ; [CPU_ALU] 
    2110 00000006 7700          NOP       ; [CPU_ALU] 
    2111              $C$DW$65        .dwtag  DW_TAG_TI_branch
    2112                      .dwattr $C$DW$65, DW_AT_low_pc(0x00)
    2113                      .dwattr $C$DW$65, DW_AT_TI_return
    2114              
    2115 00000007 0006          LRETR     ; [CPU_ALU] 
    2116                      ; return occurs ; [] 
    2117                      .dwattr $C$DW$62, DW_AT_TI_end_file("C:/ti/ccs2031/ccs/tools/compiler/ti-cgt-c2000_22.6.2.LTS/include
    2118                      .dwattr $C$DW$62, DW_AT_TI_end_line(0x10b)
    2119                      .dwattr $C$DW$62, DW_AT_TI_end_column(0x01)
    2120                      .dwendentry
    2121                      .dwendtag $C$DW$62
    2122              
    2123 00000000               .sect   ".text:__relaxed_powf"
    2124                      .clink
    2125                      .global ||__relaxed_powf||
    2126              
    2127              $C$DW$66        .dwtag  DW_TAG_subprogram
    2128                      .dwattr $C$DW$66, DW_AT_name("__relaxed_powf")
    2129                      .dwattr $C$DW$66, DW_AT_low_pc(||__relaxed_powf||)
    2130                      .dwattr $C$DW$66, DW_AT_high_pc(0x00)
    2131                      .dwattr $C$DW$66, DW_AT_linkage_name("__relaxed_powf")
    2132                      .dwattr $C$DW$66, DW_AT_external
    2133                      .dwattr $C$DW$66, DW_AT_type(*$C$DW$T$16)
    2134                      .dwattr $C$DW$66, DW_AT_decl_file("C:/ti/ccs2031/ccs/tools/compiler/ti-cgt-c2000_22.6.2.LTS/include/m
    2135                      .dwattr $C$DW$66, DW_AT_decl_line(0x13b)
    2136                      .dwattr $C$DW$66, DW_AT_decl_column(0x10)
    2137                      .dwattr $C$DW$66, DW_AT_TI_max_frame_size(-4)
    2138                      .dwpsn  file "C:/ti/ccs2031/ccs/tools/compiler/ti-cgt-c2000_22.6.2.LTS/include/math.h",line 316,colum
    2139              
    2140                      .dwfde $C$DW$CIE, ||__relaxed_powf||
    2141              $C$DW$67        .dwtag  DW_TAG_formal_parameter
    2142                      .dwattr $C$DW$67, DW_AT_name("x")
    2143                      .dwattr $C$DW$67, DW_AT_type(*$C$DW$T$16)
    2144                      .dwattr $C$DW$67, DW_AT_location[DW_OP_regx 0x2b]
    2145              
    2146              $C$DW$68        .dwtag  DW_TAG_formal_parameter
    2147                      .dwattr $C$DW$68, DW_AT_name("y")
    2148                      .dwattr $C$DW$68, DW_AT_type(*$C$DW$T$16)
    2149                      .dwattr $C$DW$68, DW_AT_location[DW_OP_regx 0x2f]
    2150              
    2151              
    2152              ;***************************************************************
    2153              ;* FNAME: __relaxed_powf                FR SIZE:   2           *
    2154              ;*                                                             *
    2155              ;* FUNCTION ENVIRONMENT                                        *
    2156              ;*                                                             *
    2157              ;* FUNCTION PROPERTIES                                         *
TMS320C2000 Assembler PC v22.6.2 Wed Dec 10 14:16:25 2025

Copyright (c) 1996-2018 Texas Instruments Incorporated
dual_axis_servo_drive_user_cpu.asm                                   PAGE   51

    2158              ;*                            2 Parameter,  0 Auto,  0 SOE     *
    2159              ;***************************************************************
    2160              
    2161              ||__relaxed_powf||:
    2162              ;* R1    assigned to $O$C2
    2163              ;* R0    assigned to $O$K4
    2164              ;* R0    assigned to $O$R1
    2165              ;* R0    assigned to x
    2166              $C$DW$69        .dwtag  DW_TAG_variable
    2167                      .dwattr $C$DW$69, DW_AT_name("x")
    2168                      .dwattr $C$DW$69, DW_AT_type(*$C$DW$T$170)
    2169                      .dwattr $C$DW$69, DW_AT_location[DW_OP_regx 0x2b]
    2170              
    2171              ;* R1    assigned to y
    2172              $C$DW$70        .dwtag  DW_TAG_variable
    2173                      .dwattr $C$DW$70, DW_AT_name("y")
    2174                      .dwattr $C$DW$70, DW_AT_type(*$C$DW$T$170)
    2175                      .dwattr $C$DW$70, DW_AT_location[DW_OP_regx 0x2f]
    2176              
    2177              ;* R0    assigned to iexp2f
    2178              $C$DW$71        .dwtag  DW_TAG_variable
    2179                      .dwattr $C$DW$71, DW_AT_name("iexp2f")
    2180                      .dwattr $C$DW$71, DW_AT_type(*$C$DW$T$16)
    2181                      .dwattr $C$DW$71, DW_AT_location[DW_OP_regx 0x2b]
    2182              
    2183                      .dwcfi  cfa_offset, -2
    2184                      .dwcfi  save_reg_to_mem, 26, 0
    2185 00000000 FE02          ADDB      SP,#2                 ; [CPU_ARAU] 
    2186                      .dwcfi  cfa_offset, -4
    2187                      .dwpsn  file "C:/ti/ccs2031/ccs/tools/compiler/ti-cgt-c2000_22.6.2.LTS/include/math.h",line 298,colum
    2188 00000001 E272          LOG2F32   R0H,R0H               ; [CPU_FPU] |298| 
         00000002 0000 
    2189 00000003 7700          NOP       ; [CPU_ALU] 
    2190 00000004 7700          NOP       ; [CPU_ALU] 
    2191 00000005 7700          NOP       ; [CPU_ALU] 
    2192 00000006 E700          MPYF32    R1H,R1H,R0H           ; [CPU_FPU] |298| 
         00000007 0009 
    2193 00000008 7700          NOP       ; [CPU_ALU] 
    2194                      .dwpsn  file "C:/ti/ccs2031/ccs/tools/compiler/ti-cgt-c2000_22.6.2.LTS/include/math.h",line 299,colum
    2195 00000009 E5A1          CMPF32    R1H,#0                ; [CPU_FPU] |299| 
    2196 0000000a AD14          MOVST0    ZF, NF                ; [CPU_FPU] |299| 
    2197                      .dwpsn  file "C:/ti/ccs2031/ccs/tools/compiler/ti-cgt-c2000_22.6.2.LTS/include/math.h",line 298,colum
    2198 0000000b E273          IEXP2F32  R0H,R1H               ; [CPU_FPU] |298| 
         0000000c 0008 
    2199                      .dwpsn  file "C:/ti/ccs2031/ccs/tools/compiler/ti-cgt-c2000_22.6.2.LTS/include/math.h",line 299,colum
    2200 0000000d 6507          B         ||$C$L12||,LEQ        ; [CPU_ALU] |299| 
    2201                      ; branchcc occurs ; [] |299| 
    2202 0000000e E801          MOVIZ     R1H,#16256            ; [CPU_FPU] |299| 
         0000000f FC01 
    2203 00000010 E274          DIVF32    R0H,R1H,R0H           ; [CPU_FPU] |299| 
         00000011 0008 
    2204 00000012 7700          NOP       ; [CPU_ALU] 
    2205 00000013 7700          NOP       ; [CPU_ALU] 
    2206 00000014       ||$C$L12||:    
    2207 00000014 FE82          SUBB      SP,#2                 ; [CPU_ARAU] 
TMS320C2000 Assembler PC v22.6.2 Wed Dec 10 14:16:25 2025

Copyright (c) 1996-2018 Texas Instruments Incorporated
dual_axis_servo_drive_user_cpu.asm                                   PAGE   52

    2208                      .dwcfi  cfa_offset, -2
    2209              $C$DW$72        .dwtag  DW_TAG_TI_branch
    2210                      .dwattr $C$DW$72, DW_AT_low_pc(0x00)
    2211                      .dwattr $C$DW$72, DW_AT_TI_return
    2212              
    2213 00000015 0006          LRETR     ; [CPU_ALU] 
    2214                      ; return occurs ; [] 
    2215                      .dwattr $C$DW$66, DW_AT_TI_end_file("C:/ti/ccs2031/ccs/tools/compiler/ti-cgt-c2000_22.6.2.LTS/include
    2216                      .dwattr $C$DW$66, DW_AT_TI_end_line(0x141)
    2217                      .dwattr $C$DW$66, DW_AT_TI_end_column(0x01)
    2218                      .dwendentry
    2219                      .dwendtag $C$DW$66
    2220              
    2221 00000000               .sect   ".text:__relaxed_logf"
    2222                      .clink
    2223                      .global ||__relaxed_logf||
    2224              
    2225              $C$DW$73        .dwtag  DW_TAG_subprogram
    2226                      .dwattr $C$DW$73, DW_AT_name("__relaxed_logf")
    2227                      .dwattr $C$DW$73, DW_AT_low_pc(||__relaxed_logf||)
    2228                      .dwattr $C$DW$73, DW_AT_high_pc(0x00)
    2229                      .dwattr $C$DW$73, DW_AT_linkage_name("__relaxed_logf")
    2230                      .dwattr $C$DW$73, DW_AT_external
    2231                      .dwattr $C$DW$73, DW_AT_type(*$C$DW$T$16)
    2232                      .dwattr $C$DW$73, DW_AT_decl_file("C:/ti/ccs2031/ccs/tools/compiler/ti-cgt-c2000_22.6.2.LTS/include/m
    2233                      .dwattr $C$DW$73, DW_AT_decl_line(0x135)
    2234                      .dwattr $C$DW$73, DW_AT_decl_column(0x10)
    2235                      .dwattr $C$DW$73, DW_AT_TI_max_frame_size(-2)
    2236                      .dwpsn  file "C:/ti/ccs2031/ccs/tools/compiler/ti-cgt-c2000_22.6.2.LTS/include/math.h",line 310,colum
    2237              
    2238                      .dwfde $C$DW$CIE, ||__relaxed_logf||
    2239              $C$DW$74        .dwtag  DW_TAG_formal_parameter
    2240                      .dwattr $C$DW$74, DW_AT_name("x")
    2241                      .dwattr $C$DW$74, DW_AT_type(*$C$DW$T$16)
    2242                      .dwattr $C$DW$74, DW_AT_location[DW_OP_regx 0x2b]
    2243              
    2244              
    2245              ;***************************************************************
    2246              ;* FNAME: __relaxed_logf                FR SIZE:   0           *
    2247              ;*                                                             *
    2248              ;* FUNCTION ENVIRONMENT                                        *
    2249              ;*                                                             *
    2250              ;* FUNCTION PROPERTIES                                         *
    2251              ;*                            0 Parameter,  0 Auto,  0 SOE     *
    2252              ;***************************************************************
    2253              
    2254              ||__relaxed_logf||:
    2255              ;* R0    assigned to x
    2256              $C$DW$75        .dwtag  DW_TAG_variable
    2257                      .dwattr $C$DW$75, DW_AT_name("x")
    2258                      .dwattr $C$DW$75, DW_AT_type(*$C$DW$T$170)
    2259                      .dwattr $C$DW$75, DW_AT_location[DW_OP_regx 0x2b]
    2260              
    2261                      .dwcfi  cfa_offset, -2
    2262                      .dwcfi  save_reg_to_mem, 26, 0
TMS320C2000 Assembler PC v22.6.2 Wed Dec 10 14:16:25 2025

Copyright (c) 1996-2018 Texas Instruments Incorporated
dual_axis_servo_drive_user_cpu.asm                                   PAGE   53

    2263                      .dwpsn  file "C:/ti/ccs2031/ccs/tools/compiler/ti-cgt-c2000_22.6.2.LTS/include/math.h",line 312,colum
    2264 00000000 E272          LOG2F32   R1H,R0H               ; [CPU_FPU] |312| 
         00000001 0001 
    2265 00000002 7700          NOP       ; [CPU_ALU] 
    2266 00000003 E801          MOVIZ     R0H,#16177            ; [CPU_FPU] |312| 
         00000004 F988 
    2267 00000005 E80B          MOVXI     R0H,#29205            ; [CPU_FPU] |312| 
         00000006 90A8 
    2268 00000007 E700          MPYF32    R0H,R0H,R1H           ; [CPU_FPU] |312| 
         00000008 0040 
    2269              $C$DW$76        .dwtag  DW_TAG_TI_branch
    2270                      .dwattr $C$DW$76, DW_AT_low_pc(0x00)
    2271                      .dwattr $C$DW$76, DW_AT_TI_return
    2272              
    2273 00000009 0006          LRETR     ; [CPU_ALU] 
    2274                      ; return occurs ; [] 
    2275                      .dwattr $C$DW$73, DW_AT_TI_end_file("C:/ti/ccs2031/ccs/tools/compiler/ti-cgt-c2000_22.6.2.LTS/include
    2276                      .dwattr $C$DW$73, DW_AT_TI_end_line(0x139)
    2277                      .dwattr $C$DW$73, DW_AT_TI_end_column(0x01)
    2278                      .dwendentry
    2279                      .dwendtag $C$DW$73
    2280              
    2281 00000000               .sect   ".text:__relaxed_log2f"
    2282                      .clink
    2283                      .global ||__relaxed_log2f||
    2284              
    2285              $C$DW$77        .dwtag  DW_TAG_subprogram
    2286                      .dwattr $C$DW$77, DW_AT_name("__relaxed_log2f")
    2287                      .dwattr $C$DW$77, DW_AT_low_pc(||__relaxed_log2f||)
    2288                      .dwattr $C$DW$77, DW_AT_high_pc(0x00)
    2289                      .dwattr $C$DW$77, DW_AT_linkage_name("__relaxed_log2f")
    2290                      .dwattr $C$DW$77, DW_AT_external
    2291                      .dwattr $C$DW$77, DW_AT_type(*$C$DW$T$16)
    2292                      .dwattr $C$DW$77, DW_AT_decl_file("C:/ti/ccs2031/ccs/tools/compiler/ti-cgt-c2000_22.6.2.LTS/include/m
    2293                      .dwattr $C$DW$77, DW_AT_decl_line(0x123)
    2294                      .dwattr $C$DW$77, DW_AT_decl_column(0x10)
    2295                      .dwattr $C$DW$77, DW_AT_TI_max_frame_size(-2)
    2296                      .dwpsn  file "C:/ti/ccs2031/ccs/tools/compiler/ti-cgt-c2000_22.6.2.LTS/include/math.h",line 292,colum
    2297              
    2298                      .dwfde $C$DW$CIE, ||__relaxed_log2f||
    2299              $C$DW$78        .dwtag  DW_TAG_formal_parameter
    2300                      .dwattr $C$DW$78, DW_AT_name("x")
    2301                      .dwattr $C$DW$78, DW_AT_type(*$C$DW$T$16)
    2302                      .dwattr $C$DW$78, DW_AT_location[DW_OP_regx 0x2b]
    2303              
    2304              
    2305              ;***************************************************************
    2306              ;* FNAME: __relaxed_log2f               FR SIZE:   0           *
    2307              ;*                                                             *
    2308              ;* FUNCTION ENVIRONMENT                                        *
    2309              ;*                                                             *
    2310              ;* FUNCTION PROPERTIES                                         *
    2311              ;*                            0 Parameter,  0 Auto,  0 SOE     *
    2312              ;***************************************************************
    2313              
TMS320C2000 Assembler PC v22.6.2 Wed Dec 10 14:16:25 2025

Copyright (c) 1996-2018 Texas Instruments Incorporated
dual_axis_servo_drive_user_cpu.asm                                   PAGE   54

    2314              ||__relaxed_log2f||:
    2315              ;* R0    assigned to x
    2316              $C$DW$79        .dwtag  DW_TAG_variable
    2317                      .dwattr $C$DW$79, DW_AT_name("x")
    2318                      .dwattr $C$DW$79, DW_AT_type(*$C$DW$T$170)
    2319                      .dwattr $C$DW$79, DW_AT_location[DW_OP_regx 0x2b]
    2320              
    2321                      .dwcfi  cfa_offset, -2
    2322                      .dwcfi  save_reg_to_mem, 26, 0
    2323                      .dwpsn  file "C:/ti/ccs2031/ccs/tools/compiler/ti-cgt-c2000_22.6.2.LTS/include/math.h",line 293,colum
    2324 00000000 E272          LOG2F32   R0H,R0H               ; [CPU_FPU] |293| 
         00000001 0000 
    2325 00000002 7700          NOP       ; [CPU_ALU] 
    2326 00000003 7700          NOP       ; [CPU_ALU] 
    2327              $C$DW$80        .dwtag  DW_TAG_TI_branch
    2328                      .dwattr $C$DW$80, DW_AT_low_pc(0x00)
    2329                      .dwattr $C$DW$80, DW_AT_TI_return
    2330              
    2331 00000004 0006          LRETR     ; [CPU_ALU] 
    2332                      ; return occurs ; [] 
    2333                      .dwattr $C$DW$77, DW_AT_TI_end_file("C:/ti/ccs2031/ccs/tools/compiler/ti-cgt-c2000_22.6.2.LTS/include
    2334                      .dwattr $C$DW$77, DW_AT_TI_end_line(0x126)
    2335                      .dwattr $C$DW$77, DW_AT_TI_end_column(0x01)
    2336                      .dwendentry
    2337                      .dwendtag $C$DW$77
    2338              
    2339 00000000               .sect   ".text:__relaxed_fmodf"
    2340                      .clink
    2341                      .global ||__relaxed_fmodf||
    2342              
    2343              $C$DW$81        .dwtag  DW_TAG_subprogram
    2344                      .dwattr $C$DW$81, DW_AT_name("__relaxed_fmodf")
    2345                      .dwattr $C$DW$81, DW_AT_low_pc(||__relaxed_fmodf||)
    2346                      .dwattr $C$DW$81, DW_AT_high_pc(0x00)
    2347                      .dwattr $C$DW$81, DW_AT_linkage_name("__relaxed_fmodf")
    2348                      .dwattr $C$DW$81, DW_AT_external
    2349                      .dwattr $C$DW$81, DW_AT_type(*$C$DW$T$16)
    2350                      .dwattr $C$DW$81, DW_AT_decl_file("C:/ti/ccs2031/ccs/tools/compiler/ti-cgt-c2000_22.6.2.LTS/include/m
    2351                      .dwattr $C$DW$81, DW_AT_decl_line(0x11c)
    2352                      .dwattr $C$DW$81, DW_AT_decl_column(0x10)
    2353                      .dwattr $C$DW$81, DW_AT_TI_max_frame_size(-2)
    2354                      .dwpsn  file "C:/ti/ccs2031/ccs/tools/compiler/ti-cgt-c2000_22.6.2.LTS/include/math.h",line 285,colum
    2355              
    2356                      .dwfde $C$DW$CIE, ||__relaxed_fmodf||
    2357              $C$DW$82        .dwtag  DW_TAG_formal_parameter
    2358                      .dwattr $C$DW$82, DW_AT_name("y")
    2359                      .dwattr $C$DW$82, DW_AT_type(*$C$DW$T$16)
    2360                      .dwattr $C$DW$82, DW_AT_location[DW_OP_regx 0x2b]
    2361              
    2362              $C$DW$83        .dwtag  DW_TAG_formal_parameter
    2363                      .dwattr $C$DW$83, DW_AT_name("x")
    2364                      .dwattr $C$DW$83, DW_AT_type(*$C$DW$T$16)
    2365                      .dwattr $C$DW$83, DW_AT_location[DW_OP_regx 0x2f]
    2366              
    2367              
TMS320C2000 Assembler PC v22.6.2 Wed Dec 10 14:16:25 2025

Copyright (c) 1996-2018 Texas Instruments Incorporated
dual_axis_servo_drive_user_cpu.asm                                   PAGE   55

    2368              ;***************************************************************
    2369              ;* FNAME: __relaxed_fmodf               FR SIZE:   0           *
    2370              ;*                                                             *
    2371              ;* FUNCTION ENVIRONMENT                                        *
    2372              ;*                                                             *
    2373              ;* FUNCTION PROPERTIES                                         *
    2374              ;*                            0 Parameter,  0 Auto,  0 SOE     *
    2375              ;***************************************************************
    2376              
    2377              ||__relaxed_fmodf||:
    2378              ;* R0    assigned to y
    2379              $C$DW$84        .dwtag  DW_TAG_variable
    2380                      .dwattr $C$DW$84, DW_AT_name("y")
    2381                      .dwattr $C$DW$84, DW_AT_type(*$C$DW$T$170)
    2382                      .dwattr $C$DW$84, DW_AT_location[DW_OP_regx 0x2b]
    2383              
    2384              ;* R1    assigned to x
    2385              $C$DW$85        .dwtag  DW_TAG_variable
    2386                      .dwattr $C$DW$85, DW_AT_name("x")
    2387                      .dwattr $C$DW$85, DW_AT_type(*$C$DW$T$170)
    2388                      .dwattr $C$DW$85, DW_AT_location[DW_OP_regx 0x2f]
    2389              
    2390                      .dwcfi  cfa_offset, -2
    2391                      .dwcfi  save_reg_to_mem, 26, 0
    2392                      .dwpsn  file "C:/ti/ccs2031/ccs/tools/compiler/ti-cgt-c2000_22.6.2.LTS/include/math.h",line 286,colum
    2393 00000000 E274          DIVF32    R2H,R0H,R1H           ; [CPU_FPU] |286| 
         00000001 0042 
    2394 00000002 7700          NOP       ; [CPU_ALU] 
    2395 00000003 7700          NOP       ; [CPU_ALU] 
    2396 00000004 7700          NOP       ; [CPU_ALU] 
    2397 00000005 7700          NOP       ; [CPU_ALU] 
    2398 00000006 E688          F32TOI32  R2H,R2H               ; [CPU_FPU] |286| 
         00000007 0012 
    2399 00000008 7700          NOP       ; [CPU_ALU] 
    2400 00000009 E689          I32TOF32  R2H,R2H               ; [CPU_FPU] |286| 
         0000000a 0012 
    2401 0000000b 7700          NOP       ; [CPU_ALU] 
    2402 0000000c E700          MPYF32    R1H,R1H,R2H           ; [CPU_FPU] |286| 
         0000000d 0089 
    2403 0000000e 7700          NOP       ; [CPU_ALU] 
    2404 0000000f E720          SUBF32    R0H,R0H,R1H           ; [CPU_FPU] |286| 
         00000010 0040 
    2405              $C$DW$86        .dwtag  DW_TAG_TI_branch
    2406                      .dwattr $C$DW$86, DW_AT_low_pc(0x00)
    2407                      .dwattr $C$DW$86, DW_AT_TI_return
    2408              
    2409 00000011 0006          LRETR     ; [CPU_ALU] 
    2410                      ; return occurs ; [] 
    2411                      .dwattr $C$DW$81, DW_AT_TI_end_file("C:/ti/ccs2031/ccs/tools/compiler/ti-cgt-c2000_22.6.2.LTS/include
    2412                      .dwattr $C$DW$81, DW_AT_TI_end_line(0x11f)
    2413                      .dwattr $C$DW$81, DW_AT_TI_end_column(0x01)
    2414                      .dwendentry
    2415                      .dwendtag $C$DW$81
    2416              
    2417 00000000               .sect   ".text:__relaxed_fminf"
TMS320C2000 Assembler PC v22.6.2 Wed Dec 10 14:16:25 2025

Copyright (c) 1996-2018 Texas Instruments Incorporated
dual_axis_servo_drive_user_cpu.asm                                   PAGE   56

    2418                      .clink
    2419                      .global ||__relaxed_fminf||
    2420              
    2421              $C$DW$87        .dwtag  DW_TAG_subprogram
    2422                      .dwattr $C$DW$87, DW_AT_name("__relaxed_fminf")
    2423                      .dwattr $C$DW$87, DW_AT_low_pc(||__relaxed_fminf||)
    2424                      .dwattr $C$DW$87, DW_AT_high_pc(0x00)
    2425                      .dwattr $C$DW$87, DW_AT_linkage_name("__relaxed_fminf")
    2426                      .dwattr $C$DW$87, DW_AT_external
    2427                      .dwattr $C$DW$87, DW_AT_type(*$C$DW$T$16)
    2428                      .dwattr $C$DW$87, DW_AT_decl_file("C:/ti/ccs2031/ccs/tools/compiler/ti-cgt-c2000_22.6.2.LTS/include/m
    2429                      .dwattr $C$DW$87, DW_AT_decl_line(0xee)
    2430                      .dwattr $C$DW$87, DW_AT_decl_column(0x10)
    2431                      .dwattr $C$DW$87, DW_AT_TI_max_frame_size(-2)
    2432                      .dwpsn  file "C:/ti/ccs2031/ccs/tools/compiler/ti-cgt-c2000_22.6.2.LTS/include/math.h",line 239,colum
    2433              
    2434                      .dwfde $C$DW$CIE, ||__relaxed_fminf||
    2435              $C$DW$88        .dwtag  DW_TAG_formal_parameter
    2436                      .dwattr $C$DW$88, DW_AT_name("x")
    2437                      .dwattr $C$DW$88, DW_AT_type(*$C$DW$T$16)
    2438                      .dwattr $C$DW$88, DW_AT_location[DW_OP_regx 0x2b]
    2439              
    2440              $C$DW$89        .dwtag  DW_TAG_formal_parameter
    2441                      .dwattr $C$DW$89, DW_AT_name("y")
    2442                      .dwattr $C$DW$89, DW_AT_type(*$C$DW$T$16)
    2443                      .dwattr $C$DW$89, DW_AT_location[DW_OP_regx 0x2f]
    2444              
    2445              
    2446              ;***************************************************************
    2447              ;* FNAME: __relaxed_fminf               FR SIZE:   0           *
    2448              ;*                                                             *
    2449              ;* FUNCTION ENVIRONMENT                                        *
    2450              ;*                                                             *
    2451              ;* FUNCTION PROPERTIES                                         *
    2452              ;*                            0 Parameter,  0 Auto,  0 SOE     *
    2453              ;***************************************************************
    2454              
    2455              ||__relaxed_fminf||:
    2456              ;* R1    assigned to y
    2457              $C$DW$90        .dwtag  DW_TAG_variable
    2458                      .dwattr $C$DW$90, DW_AT_name("y")
    2459                      .dwattr $C$DW$90, DW_AT_type(*$C$DW$T$170)
    2460                      .dwattr $C$DW$90, DW_AT_location[DW_OP_regx 0x2f]
    2461              
    2462                      .dwcfi  cfa_offset, -2
    2463                      .dwcfi  save_reg_to_mem, 26, 0
    2464                      .dwpsn  file "C:/ti/ccs2031/ccs/tools/compiler/ti-cgt-c2000_22.6.2.LTS/include/math.h",line 240,colum
    2465 00000000 E697          MINF32    R0H,R1H               ; [CPU_FPU] |240| 
         00000001 0008 
    2466              $C$DW$91        .dwtag  DW_TAG_TI_branch
    2467                      .dwattr $C$DW$91, DW_AT_low_pc(0x00)
    2468                      .dwattr $C$DW$91, DW_AT_TI_return
    2469              
    2470 00000002 0006          LRETR     ; [CPU_ALU] 
    2471                      ; return occurs ; [] 
TMS320C2000 Assembler PC v22.6.2 Wed Dec 10 14:16:25 2025

Copyright (c) 1996-2018 Texas Instruments Incorporated
dual_axis_servo_drive_user_cpu.asm                                   PAGE   57

    2472                      .dwattr $C$DW$87, DW_AT_TI_end_file("C:/ti/ccs2031/ccs/tools/compiler/ti-cgt-c2000_22.6.2.LTS/include
    2473                      .dwattr $C$DW$87, DW_AT_TI_end_line(0xf1)
    2474                      .dwattr $C$DW$87, DW_AT_TI_end_column(0x01)
    2475                      .dwendentry
    2476                      .dwendtag $C$DW$87
    2477              
    2478 00000000               .sect   ".text:__relaxed_fmaxf"
    2479                      .clink
    2480                      .global ||__relaxed_fmaxf||
    2481              
    2482              $C$DW$92        .dwtag  DW_TAG_subprogram
    2483                      .dwattr $C$DW$92, DW_AT_name("__relaxed_fmaxf")
    2484                      .dwattr $C$DW$92, DW_AT_low_pc(||__relaxed_fmaxf||)
    2485                      .dwattr $C$DW$92, DW_AT_high_pc(0x00)
    2486                      .dwattr $C$DW$92, DW_AT_linkage_name("__relaxed_fmaxf")
    2487                      .dwattr $C$DW$92, DW_AT_external
    2488                      .dwattr $C$DW$92, DW_AT_type(*$C$DW$T$16)
    2489                      .dwattr $C$DW$92, DW_AT_decl_file("C:/ti/ccs2031/ccs/tools/compiler/ti-cgt-c2000_22.6.2.LTS/include/m
    2490                      .dwattr $C$DW$92, DW_AT_decl_line(0xe8)
    2491                      .dwattr $C$DW$92, DW_AT_decl_column(0x10)
    2492                      .dwattr $C$DW$92, DW_AT_TI_max_frame_size(-2)
    2493                      .dwpsn  file "C:/ti/ccs2031/ccs/tools/compiler/ti-cgt-c2000_22.6.2.LTS/include/math.h",line 233,colum
    2494              
    2495                      .dwfde $C$DW$CIE, ||__relaxed_fmaxf||
    2496              $C$DW$93        .dwtag  DW_TAG_formal_parameter
    2497                      .dwattr $C$DW$93, DW_AT_name("x")
    2498                      .dwattr $C$DW$93, DW_AT_type(*$C$DW$T$16)
    2499                      .dwattr $C$DW$93, DW_AT_location[DW_OP_regx 0x2b]
    2500              
    2501              $C$DW$94        .dwtag  DW_TAG_formal_parameter
    2502                      .dwattr $C$DW$94, DW_AT_name("y")
    2503                      .dwattr $C$DW$94, DW_AT_type(*$C$DW$T$16)
    2504                      .dwattr $C$DW$94, DW_AT_location[DW_OP_regx 0x2f]
    2505              
    2506              
    2507              ;***************************************************************
    2508              ;* FNAME: __relaxed_fmaxf               FR SIZE:   0           *
    2509              ;*                                                             *
    2510              ;* FUNCTION ENVIRONMENT                                        *
    2511              ;*                                                             *
    2512              ;* FUNCTION PROPERTIES                                         *
    2513              ;*                            0 Parameter,  0 Auto,  0 SOE     *
    2514              ;***************************************************************
    2515              
    2516              ||__relaxed_fmaxf||:
    2517              ;* R1    assigned to y
    2518              $C$DW$95        .dwtag  DW_TAG_variable
    2519                      .dwattr $C$DW$95, DW_AT_name("y")
    2520                      .dwattr $C$DW$95, DW_AT_type(*$C$DW$T$170)
    2521                      .dwattr $C$DW$95, DW_AT_location[DW_OP_regx 0x2f]
    2522              
    2523                      .dwcfi  cfa_offset, -2
    2524                      .dwcfi  save_reg_to_mem, 26, 0
    2525                      .dwpsn  file "C:/ti/ccs2031/ccs/tools/compiler/ti-cgt-c2000_22.6.2.LTS/include/math.h",line 234,colum
    2526 00000000 E696          MAXF32    R0H,R1H               ; [CPU_FPU] |234| 
TMS320C2000 Assembler PC v22.6.2 Wed Dec 10 14:16:25 2025

Copyright (c) 1996-2018 Texas Instruments Incorporated
dual_axis_servo_drive_user_cpu.asm                                   PAGE   58

         00000001 0008 
    2527              $C$DW$96        .dwtag  DW_TAG_TI_branch
    2528                      .dwattr $C$DW$96, DW_AT_low_pc(0x00)
    2529                      .dwattr $C$DW$96, DW_AT_TI_return
    2530              
    2531 00000002 0006          LRETR     ; [CPU_ALU] 
    2532                      ; return occurs ; [] 
    2533                      .dwattr $C$DW$92, DW_AT_TI_end_file("C:/ti/ccs2031/ccs/tools/compiler/ti-cgt-c2000_22.6.2.LTS/include
    2534                      .dwattr $C$DW$92, DW_AT_TI_end_line(0xeb)
    2535                      .dwattr $C$DW$92, DW_AT_TI_end_column(0x01)
    2536                      .dwendentry
    2537                      .dwendtag $C$DW$92
    2538              
    2539 00000000               .sect   ".text:__relaxed_expf"
    2540                      .clink
    2541                      .global ||__relaxed_expf||
    2542              
    2543              $C$DW$97        .dwtag  DW_TAG_subprogram
    2544                      .dwattr $C$DW$97, DW_AT_name("__relaxed_expf")
    2545                      .dwattr $C$DW$97, DW_AT_low_pc(||__relaxed_expf||)
    2546                      .dwattr $C$DW$97, DW_AT_high_pc(0x00)
    2547                      .dwattr $C$DW$97, DW_AT_linkage_name("__relaxed_expf")
    2548                      .dwattr $C$DW$97, DW_AT_external
    2549                      .dwattr $C$DW$97, DW_AT_type(*$C$DW$T$16)
    2550                      .dwattr $C$DW$97, DW_AT_decl_file("C:/ti/ccs2031/ccs/tools/compiler/ti-cgt-c2000_22.6.2.LTS/include/m
    2551                      .dwattr $C$DW$97, DW_AT_decl_line(0x12f)
    2552                      .dwattr $C$DW$97, DW_AT_decl_column(0x10)
    2553                      .dwattr $C$DW$97, DW_AT_TI_max_frame_size(-4)
    2554                      .dwpsn  file "C:/ti/ccs2031/ccs/tools/compiler/ti-cgt-c2000_22.6.2.LTS/include/math.h",line 304,colum
    2555              
    2556                      .dwfde $C$DW$CIE, ||__relaxed_expf||
    2557              $C$DW$98        .dwtag  DW_TAG_formal_parameter
    2558                      .dwattr $C$DW$98, DW_AT_name("x")
    2559                      .dwattr $C$DW$98, DW_AT_type(*$C$DW$T$16)
    2560                      .dwattr $C$DW$98, DW_AT_location[DW_OP_regx 0x2b]
    2561              
    2562              
    2563              ;***************************************************************
    2564              ;* FNAME: __relaxed_expf                FR SIZE:   2           *
    2565              ;*                                                             *
    2566              ;* FUNCTION ENVIRONMENT                                        *
    2567              ;*                                                             *
    2568              ;* FUNCTION PROPERTIES                                         *
    2569              ;*                            2 Parameter,  0 Auto,  0 SOE     *
    2570              ;***************************************************************
    2571              
    2572              ||__relaxed_expf||:
    2573              ;* R1    assigned to $O$C2
    2574              ;* R0    assigned to $O$K3
    2575              ;* R0    assigned to $O$R1
    2576              ;* R0    assigned to x
    2577              $C$DW$99        .dwtag  DW_TAG_variable
    2578                      .dwattr $C$DW$99, DW_AT_name("x")
    2579                      .dwattr $C$DW$99, DW_AT_type(*$C$DW$T$170)
    2580                      .dwattr $C$DW$99, DW_AT_location[DW_OP_regx 0x2b]
TMS320C2000 Assembler PC v22.6.2 Wed Dec 10 14:16:25 2025

Copyright (c) 1996-2018 Texas Instruments Incorporated
dual_axis_servo_drive_user_cpu.asm                                   PAGE   59

    2581              
    2582              ;* R0    assigned to iexp2f
    2583              $C$DW$100       .dwtag  DW_TAG_variable
    2584                      .dwattr $C$DW$100, DW_AT_name("iexp2f")
    2585                      .dwattr $C$DW$100, DW_AT_type(*$C$DW$T$16)
    2586                      .dwattr $C$DW$100, DW_AT_location[DW_OP_regx 0x2b]
    2587              
    2588                      .dwcfi  cfa_offset, -2
    2589                      .dwcfi  save_reg_to_mem, 26, 0
    2590 00000000 FE02          ADDB      SP,#2                 ; [CPU_ARAU] 
    2591                      .dwcfi  cfa_offset, -4
    2592                      .dwpsn  file "C:/ti/ccs2031/ccs/tools/compiler/ti-cgt-c2000_22.6.2.LTS/include/math.h",line 298,colum
    2593 00000001 E801          MOVIZ     R1H,#16312            ; [CPU_FPU] |298| 
         00000002 FDC1 
    2594 00000003 E80D          MOVXI     R1H,#43537            ; [CPU_FPU] |298| 
         00000004 5089 
    2595 00000005 E700          MPYF32    R1H,R1H,R0H           ; [CPU_FPU] |298| 
         00000006 0009 
    2596 00000007 7700          NOP       ; [CPU_ALU] 
    2597                      .dwpsn  file "C:/ti/ccs2031/ccs/tools/compiler/ti-cgt-c2000_22.6.2.LTS/include/math.h",line 299,colum
    2598 00000008 E5A1          CMPF32    R1H,#0                ; [CPU_FPU] |299| 
    2599 00000009 AD14          MOVST0    ZF, NF                ; [CPU_FPU] |299| 
    2600                      .dwpsn  file "C:/ti/ccs2031/ccs/tools/compiler/ti-cgt-c2000_22.6.2.LTS/include/math.h",line 298,colum
    2601 0000000a E273          IEXP2F32  R0H,R1H               ; [CPU_FPU] |298| 
         0000000b 0008 
    2602                      .dwpsn  file "C:/ti/ccs2031/ccs/tools/compiler/ti-cgt-c2000_22.6.2.LTS/include/math.h",line 299,colum
    2603 0000000c 6507          B         ||$C$L13||,LEQ        ; [CPU_ALU] |299| 
    2604                      ; branchcc occurs ; [] |299| 
    2605 0000000d E801          MOVIZ     R1H,#16256            ; [CPU_FPU] |299| 
         0000000e FC01 
    2606 0000000f E274          DIVF32    R0H,R1H,R0H           ; [CPU_FPU] |299| 
         00000010 0008 
    2607 00000011 7700          NOP       ; [CPU_ALU] 
    2608 00000012 7700          NOP       ; [CPU_ALU] 
    2609 00000013       ||$C$L13||:    
    2610 00000013 FE82          SUBB      SP,#2                 ; [CPU_ARAU] 
    2611                      .dwcfi  cfa_offset, -2
    2612              $C$DW$101       .dwtag  DW_TAG_TI_branch
    2613                      .dwattr $C$DW$101, DW_AT_low_pc(0x00)
    2614                      .dwattr $C$DW$101, DW_AT_TI_return
    2615              
    2616 00000014 0006          LRETR     ; [CPU_ALU] 
    2617                      ; return occurs ; [] 
    2618                      .dwattr $C$DW$97, DW_AT_TI_end_file("C:/ti/ccs2031/ccs/tools/compiler/ti-cgt-c2000_22.6.2.LTS/include
    2619                      .dwattr $C$DW$97, DW_AT_TI_end_line(0x133)
    2620                      .dwattr $C$DW$97, DW_AT_TI_end_column(0x01)
    2621                      .dwendentry
    2622                      .dwendtag $C$DW$97
    2623              
    2624 00000000               .sect   ".text:__relaxed_cosf"
    2625                      .clink
    2626                      .global ||__relaxed_cosf||
    2627              
    2628              $C$DW$102       .dwtag  DW_TAG_subprogram
    2629                      .dwattr $C$DW$102, DW_AT_name("__relaxed_cosf")
TMS320C2000 Assembler PC v22.6.2 Wed Dec 10 14:16:25 2025

Copyright (c) 1996-2018 Texas Instruments Incorporated
dual_axis_servo_drive_user_cpu.asm                                   PAGE   60

    2630                      .dwattr $C$DW$102, DW_AT_low_pc(||__relaxed_cosf||)
    2631                      .dwattr $C$DW$102, DW_AT_high_pc(0x00)
    2632                      .dwattr $C$DW$102, DW_AT_linkage_name("__relaxed_cosf")
    2633                      .dwattr $C$DW$102, DW_AT_external
    2634                      .dwattr $C$DW$102, DW_AT_type(*$C$DW$T$16)
    2635                      .dwattr $C$DW$102, DW_AT_decl_file("C:/ti/ccs2031/ccs/tools/compiler/ti-cgt-c2000_22.6.2.LTS/include/
    2636                      .dwattr $C$DW$102, DW_AT_decl_line(0x10d)
    2637                      .dwattr $C$DW$102, DW_AT_decl_column(0x10)
    2638                      .dwattr $C$DW$102, DW_AT_TI_max_frame_size(-2)
    2639                      .dwpsn  file "C:/ti/ccs2031/ccs/tools/compiler/ti-cgt-c2000_22.6.2.LTS/include/math.h",line 270,colum
    2640              
    2641                      .dwfde $C$DW$CIE, ||__relaxed_cosf||
    2642              $C$DW$103       .dwtag  DW_TAG_formal_parameter
    2643                      .dwattr $C$DW$103, DW_AT_name("x")
    2644                      .dwattr $C$DW$103, DW_AT_type(*$C$DW$T$16)
    2645                      .dwattr $C$DW$103, DW_AT_location[DW_OP_regx 0x2b]
    2646              
    2647              
    2648              ;***************************************************************
    2649              ;* FNAME: __relaxed_cosf                FR SIZE:   0           *
    2650              ;*                                                             *
    2651              ;* FUNCTION ENVIRONMENT                                        *
    2652              ;*                                                             *
    2653              ;* FUNCTION PROPERTIES                                         *
    2654              ;*                            0 Parameter,  0 Auto,  0 SOE     *
    2655              ;***************************************************************
    2656              
    2657              ||__relaxed_cosf||:
    2658              ;* R0    assigned to x
    2659              $C$DW$104       .dwtag  DW_TAG_variable
    2660                      .dwattr $C$DW$104, DW_AT_name("x")
    2661                      .dwattr $C$DW$104, DW_AT_type(*$C$DW$T$170)
    2662                      .dwattr $C$DW$104, DW_AT_location[DW_OP_regx 0x2b]
    2663              
    2664                      .dwcfi  cfa_offset, -2
    2665                      .dwcfi  save_reg_to_mem, 26, 0
    2666                      .dwpsn  file "C:/ti/ccs2031/ccs/tools/compiler/ti-cgt-c2000_22.6.2.LTS/include/math.h",line 271,colum
    2667 00000000 E271          DIV2PIF32 R0H,R0H               ; [CPU_FPU] |271| 
         00000001 0000 
    2668 00000002 7700          NOP       ; [CPU_ALU] 
    2669 00000003 E279          COSPUF32  R0H,R0H               ; [CPU_FPU] |271| 
         00000004 0000 
    2670 00000005 7700          NOP       ; [CPU_ALU] 
    2671 00000006 7700          NOP       ; [CPU_ALU] 
    2672              $C$DW$105       .dwtag  DW_TAG_TI_branch
    2673                      .dwattr $C$DW$105, DW_AT_low_pc(0x00)
    2674                      .dwattr $C$DW$105, DW_AT_TI_return
    2675              
    2676 00000007 0006          LRETR     ; [CPU_ALU] 
    2677                      ; return occurs ; [] 
    2678                      .dwattr $C$DW$102, DW_AT_TI_end_file("C:/ti/ccs2031/ccs/tools/compiler/ti-cgt-c2000_22.6.2.LTS/includ
    2679                      .dwattr $C$DW$102, DW_AT_TI_end_line(0x110)
    2680                      .dwattr $C$DW$102, DW_AT_TI_end_column(0x01)
    2681                      .dwendentry
    2682                      .dwendtag $C$DW$102
TMS320C2000 Assembler PC v22.6.2 Wed Dec 10 14:16:25 2025

Copyright (c) 1996-2018 Texas Instruments Incorporated
dual_axis_servo_drive_user_cpu.asm                                   PAGE   61

    2683              
    2684 00000000               .sect   ".text:__relaxed_atanf"
    2685                      .clink
    2686                      .global ||__relaxed_atanf||
    2687              
    2688              $C$DW$106       .dwtag  DW_TAG_subprogram
    2689                      .dwattr $C$DW$106, DW_AT_name("__relaxed_atanf")
    2690                      .dwattr $C$DW$106, DW_AT_low_pc(||__relaxed_atanf||)
    2691                      .dwattr $C$DW$106, DW_AT_high_pc(0x00)
    2692                      .dwattr $C$DW$106, DW_AT_linkage_name("__relaxed_atanf")
    2693                      .dwattr $C$DW$106, DW_AT_external
    2694                      .dwattr $C$DW$106, DW_AT_type(*$C$DW$T$16)
    2695                      .dwattr $C$DW$106, DW_AT_decl_file("C:/ti/ccs2031/ccs/tools/compiler/ti-cgt-c2000_22.6.2.LTS/include/
    2696                      .dwattr $C$DW$106, DW_AT_decl_line(0x112)
    2697                      .dwattr $C$DW$106, DW_AT_decl_column(0x10)
    2698                      .dwattr $C$DW$106, DW_AT_TI_max_frame_size(-2)
    2699                      .dwpsn  file "C:/ti/ccs2031/ccs/tools/compiler/ti-cgt-c2000_22.6.2.LTS/include/math.h",line 275,colum
    2700              
    2701                      .dwfde $C$DW$CIE, ||__relaxed_atanf||
    2702              $C$DW$107       .dwtag  DW_TAG_formal_parameter
    2703                      .dwattr $C$DW$107, DW_AT_name("x")
    2704                      .dwattr $C$DW$107, DW_AT_type(*$C$DW$T$16)
    2705                      .dwattr $C$DW$107, DW_AT_location[DW_OP_regx 0x2b]
    2706              
    2707              
    2708              ;***************************************************************
    2709              ;* FNAME: __relaxed_atanf               FR SIZE:   0           *
    2710              ;*                                                             *
    2711              ;* FUNCTION ENVIRONMENT                                        *
    2712              ;*                                                             *
    2713              ;* FUNCTION PROPERTIES                                         *
    2714              ;*                            0 Parameter,  0 Auto,  0 SOE     *
    2715              ;***************************************************************
    2716              
    2717              ||__relaxed_atanf||:
    2718              ;* R0    assigned to x
    2719              $C$DW$108       .dwtag  DW_TAG_variable
    2720                      .dwattr $C$DW$108, DW_AT_name("x")
    2721                      .dwattr $C$DW$108, DW_AT_type(*$C$DW$T$170)
    2722                      .dwattr $C$DW$108, DW_AT_location[DW_OP_regx 0x2b]
    2723              
    2724                      .dwcfi  cfa_offset, -2
    2725                      .dwcfi  save_reg_to_mem, 26, 0
    2726                      .dwpsn  file "C:/ti/ccs2031/ccs/tools/compiler/ti-cgt-c2000_22.6.2.LTS/include/math.h",line 276,colum
    2727 00000000 E801          MOVIZ     R1H,#16256            ; [CPU_FPU] |276| 
         00000001 FC01 
    2728 00000002 E27C          QUADF32   R1H,R0H,R0H,R1H       ; [CPU_FPU] |276| 
         00000003 0201 
    2729 00000004 7700          NOP       ; [CPU_ALU] 
    2730 00000005 7700          NOP       ; [CPU_ALU] 
    2731 00000006 7700          NOP       ; [CPU_ALU] 
    2732 00000007 7700          NOP       ; [CPU_ALU] 
    2733 00000008 E27A          ATANPUF32 R0H,R0H               ; [CPU_FPU] |276| 
         00000009 0000 
    2734 0000000a 7700          NOP       ; [CPU_ALU] 
TMS320C2000 Assembler PC v22.6.2 Wed Dec 10 14:16:25 2025

Copyright (c) 1996-2018 Texas Instruments Incorporated
dual_axis_servo_drive_user_cpu.asm                                   PAGE   62

    2735 0000000b 7700          NOP       ; [CPU_ALU] 
    2736 0000000c 7700          NOP       ; [CPU_ALU] 
    2737 0000000d E710          ADDF32    R0H,R0H,R1H           ; [CPU_FPU] |276| 
         0000000e 0040 
    2738 0000000f 7700          NOP       ; [CPU_ALU] 
    2739 00000010 7700          NOP       ; [CPU_ALU] 
    2740 00000011 E270          MPY2PIF32 R0H,R0H               ; [CPU_FPU] |276| 
         00000012 0000 
    2741 00000013 7700          NOP       ; [CPU_ALU] 
    2742              $C$DW$109       .dwtag  DW_TAG_TI_branch
    2743                      .dwattr $C$DW$109, DW_AT_low_pc(0x00)
    2744                      .dwattr $C$DW$109, DW_AT_TI_return
    2745              
    2746 00000014 0006          LRETR     ; [CPU_ALU] 
    2747                      ; return occurs ; [] 
    2748                      .dwattr $C$DW$106, DW_AT_TI_end_file("C:/ti/ccs2031/ccs/tools/compiler/ti-cgt-c2000_22.6.2.LTS/includ
    2749                      .dwattr $C$DW$106, DW_AT_TI_end_line(0x115)
    2750                      .dwattr $C$DW$106, DW_AT_TI_end_column(0x01)
    2751                      .dwendentry
    2752                      .dwendtag $C$DW$106
    2753              
    2754 00000000               .sect   ".text:__relaxed_atan2f"
    2755                      .clink
    2756                      .global ||__relaxed_atan2f||
    2757              
    2758              $C$DW$110       .dwtag  DW_TAG_subprogram
    2759                      .dwattr $C$DW$110, DW_AT_name("__relaxed_atan2f")
    2760                      .dwattr $C$DW$110, DW_AT_low_pc(||__relaxed_atan2f||)
    2761                      .dwattr $C$DW$110, DW_AT_high_pc(0x00)
    2762                      .dwattr $C$DW$110, DW_AT_linkage_name("__relaxed_atan2f")
    2763                      .dwattr $C$DW$110, DW_AT_external
    2764                      .dwattr $C$DW$110, DW_AT_type(*$C$DW$T$16)
    2765                      .dwattr $C$DW$110, DW_AT_decl_file("C:/ti/ccs2031/ccs/tools/compiler/ti-cgt-c2000_22.6.2.LTS/include/
    2766                      .dwattr $C$DW$110, DW_AT_decl_line(0x117)
    2767                      .dwattr $C$DW$110, DW_AT_decl_column(0x10)
    2768                      .dwattr $C$DW$110, DW_AT_TI_max_frame_size(-2)
    2769                      .dwpsn  file "C:/ti/ccs2031/ccs/tools/compiler/ti-cgt-c2000_22.6.2.LTS/include/math.h",line 280,colum
    2770              
    2771                      .dwfde $C$DW$CIE, ||__relaxed_atan2f||
    2772              $C$DW$111       .dwtag  DW_TAG_formal_parameter
    2773                      .dwattr $C$DW$111, DW_AT_name("y")
    2774                      .dwattr $C$DW$111, DW_AT_type(*$C$DW$T$16)
    2775                      .dwattr $C$DW$111, DW_AT_location[DW_OP_regx 0x2b]
    2776              
    2777              $C$DW$112       .dwtag  DW_TAG_formal_parameter
    2778                      .dwattr $C$DW$112, DW_AT_name("x")
    2779                      .dwattr $C$DW$112, DW_AT_type(*$C$DW$T$16)
    2780                      .dwattr $C$DW$112, DW_AT_location[DW_OP_regx 0x2f]
    2781              
    2782              
    2783              ;***************************************************************
    2784              ;* FNAME: __relaxed_atan2f              FR SIZE:   0           *
    2785              ;*                                                             *
    2786              ;* FUNCTION ENVIRONMENT                                        *
    2787              ;*                                                             *
TMS320C2000 Assembler PC v22.6.2 Wed Dec 10 14:16:25 2025

Copyright (c) 1996-2018 Texas Instruments Incorporated
dual_axis_servo_drive_user_cpu.asm                                   PAGE   63

    2788              ;* FUNCTION PROPERTIES                                         *
    2789              ;*                            0 Parameter,  0 Auto,  0 SOE     *
    2790              ;***************************************************************
    2791              
    2792              ||__relaxed_atan2f||:
    2793              ;* R0    assigned to y
    2794              $C$DW$113       .dwtag  DW_TAG_variable
    2795                      .dwattr $C$DW$113, DW_AT_name("y")
    2796                      .dwattr $C$DW$113, DW_AT_type(*$C$DW$T$170)
    2797                      .dwattr $C$DW$113, DW_AT_location[DW_OP_regx 0x2b]
    2798              
    2799              ;* R1    assigned to x
    2800              $C$DW$114       .dwtag  DW_TAG_variable
    2801                      .dwattr $C$DW$114, DW_AT_name("x")
    2802                      .dwattr $C$DW$114, DW_AT_type(*$C$DW$T$170)
    2803                      .dwattr $C$DW$114, DW_AT_location[DW_OP_regx 0x2f]
    2804              
    2805                      .dwcfi  cfa_offset, -2
    2806                      .dwcfi  save_reg_to_mem, 26, 0
    2807                      .dwpsn  file "C:/ti/ccs2031/ccs/tools/compiler/ti-cgt-c2000_22.6.2.LTS/include/math.h",line 281,colum
    2808 00000000 E27C          QUADF32   R1H,R0H,R0H,R1H       ; [CPU_FPU] |281| 
         00000001 0201 
    2809 00000002 7700          NOP       ; [CPU_ALU] 
    2810 00000003 7700          NOP       ; [CPU_ALU] 
    2811 00000004 7700          NOP       ; [CPU_ALU] 
    2812 00000005 7700          NOP       ; [CPU_ALU] 
    2813 00000006 E27A          ATANPUF32 R0H,R0H               ; [CPU_FPU] |281| 
         00000007 0000 
    2814 00000008 7700          NOP       ; [CPU_ALU] 
    2815 00000009 7700          NOP       ; [CPU_ALU] 
    2816 0000000a 7700          NOP       ; [CPU_ALU] 
    2817 0000000b E710          ADDF32    R0H,R0H,R1H           ; [CPU_FPU] |281| 
         0000000c 0040 
    2818 0000000d 7700          NOP       ; [CPU_ALU] 
    2819 0000000e 7700          NOP       ; [CPU_ALU] 
    2820 0000000f E270          MPY2PIF32 R0H,R0H               ; [CPU_FPU] |281| 
         00000010 0000 
    2821 00000011 7700          NOP       ; [CPU_ALU] 
    2822              $C$DW$115       .dwtag  DW_TAG_TI_branch
    2823                      .dwattr $C$DW$115, DW_AT_low_pc(0x00)
    2824                      .dwattr $C$DW$115, DW_AT_TI_return
    2825              
    2826 00000012 0006          LRETR     ; [CPU_ALU] 
    2827                      ; return occurs ; [] 
    2828                      .dwattr $C$DW$110, DW_AT_TI_end_file("C:/ti/ccs2031/ccs/tools/compiler/ti-cgt-c2000_22.6.2.LTS/includ
    2829                      .dwattr $C$DW$110, DW_AT_TI_end_line(0x11a)
    2830                      .dwattr $C$DW$110, DW_AT_TI_end_column(0x01)
    2831                      .dwendentry
    2832                      .dwendtag $C$DW$110
    2833              
    2834 00000000               .sect   ".text:__isnormall"
    2835                      .clink
    2836                      .global ||__isnormall||
    2837              
    2838              $C$DW$116       .dwtag  DW_TAG_subprogram
