TMS320C2000 Assembler PC v22.6.2 Wed Dec 10 14:45:02 2025

Copyright (c) 1996-2018 Texas Instruments Incorporated
dual_axis_servo_drive_hal.asm                                        PAGE    1

       1              ;***************************************************************
       2              ;* TMS320C2000 G3 C/C++ Codegen                               PC v22.6.2.LTS *
       3              ;* Date/Time created: Wed Dec 10 14:45:01 2025                 *
       4              ;***************************************************************
       5                      .compiler_opts --abi=eabi --diag_wrap=off --float_support=fpu32 --hll_source=on --idiv_support=idiv0 
       6                      .asg    XAR2, FP
       7              
       8              $C$DW$CU        .dwtag  DW_TAG_compile_unit
       9                      .dwattr $C$DW$CU, DW_AT_name("../sources/dual_axis_servo_drive_hal.c")
      10                      .dwattr $C$DW$CU, DW_AT_producer("TI TMS320C2000 G3 C/C++ Codegen PC v22.6.2.LTS Copyright (c) 1996-2
      11                      .dwattr $C$DW$CU, DW_AT_TI_version(0x01)
      12                      .dwattr $C$DW$CU, DW_AT_comp_dir("C:\Users\Teddy\Documents\GitHub\2512_TI_DSP_BLDC_MotorControlSDK\1.
      13              
      14              $C$DW$1 .dwtag  DW_TAG_subprogram
      15                      .dwattr $C$DW$1, DW_AT_name("Interrupt_enable")
      16                      .dwattr $C$DW$1, DW_AT_linkage_name("Interrupt_enable")
      17                      .dwattr $C$DW$1, DW_AT_declaration
      18                      .dwattr $C$DW$1, DW_AT_external
      19                      .dwattr $C$DW$1, DW_AT_decl_file("C:\ti\C2000Ware_MotorControl_SDK_5_04_00_00\c2000ware\driverlib\f28
      20                      .dwattr $C$DW$1, DW_AT_decl_line(0x1c7)
      21                      .dwattr $C$DW$1, DW_AT_decl_column(0x01)
      22              $C$DW$2 .dwtag  DW_TAG_formal_parameter
      23                      .dwattr $C$DW$2, DW_AT_type(*$C$DW$T$28)
      24              
      25                      .dwendtag $C$DW$1
      26              
      27              
      28              $C$DW$3 .dwtag  DW_TAG_subprogram
      29                      .dwattr $C$DW$3, DW_AT_name("Device_initGPIO")
      30                      .dwattr $C$DW$3, DW_AT_linkage_name("Device_initGPIO")
      31                      .dwattr $C$DW$3, DW_AT_declaration
      32                      .dwattr $C$DW$3, DW_AT_external
      33                      .dwattr $C$DW$3, DW_AT_decl_file("C:/ti/C2000Ware_MotorControl_SDK_5_04_00_00/c2000ware/device_suppor
      34                      .dwattr $C$DW$3, DW_AT_decl_line(0x1aa)
      35                      .dwattr $C$DW$3, DW_AT_decl_column(0x0d)
      36                      .dwendtag $C$DW$3
      37              
      38              
      39              $C$DW$4 .dwtag  DW_TAG_subprogram
      40                      .dwattr $C$DW$4, DW_AT_name("Interrupt_initModule")
      41                      .dwattr $C$DW$4, DW_AT_linkage_name("Interrupt_initModule")
      42                      .dwattr $C$DW$4, DW_AT_declaration
      43                      .dwattr $C$DW$4, DW_AT_external
      44                      .dwattr $C$DW$4, DW_AT_decl_file("C:\ti\C2000Ware_MotorControl_SDK_5_04_00_00\c2000ware\driverlib\f28
      45                      .dwattr $C$DW$4, DW_AT_decl_line(0x1a9)
      46                      .dwattr $C$DW$4, DW_AT_decl_column(0x01)
      47                      .dwendtag $C$DW$4
      48              
      49              
      50              $C$DW$5 .dwtag  DW_TAG_subprogram
      51                      .dwattr $C$DW$5, DW_AT_name("Interrupt_initVectorTable")
      52                      .dwattr $C$DW$5, DW_AT_linkage_name("Interrupt_initVectorTable")
      53                      .dwattr $C$DW$5, DW_AT_declaration
      54                      .dwattr $C$DW$5, DW_AT_external
      55                      .dwattr $C$DW$5, DW_AT_decl_file("C:\ti\C2000Ware_MotorControl_SDK_5_04_00_00\c2000ware\driverlib\f28
TMS320C2000 Assembler PC v22.6.2 Wed Dec 10 14:45:02 2025

Copyright (c) 1996-2018 Texas Instruments Incorporated
dual_axis_servo_drive_hal.asm                                        PAGE    2

      56                      .dwattr $C$DW$5, DW_AT_decl_line(0x1b4)
      57                      .dwattr $C$DW$5, DW_AT_decl_column(0x01)
      58                      .dwendtag $C$DW$5
      59              
      60              
      61              $C$DW$6 .dwtag  DW_TAG_subprogram
      62                      .dwattr $C$DW$6, DW_AT_name("SysCtl_delay")
      63                      .dwattr $C$DW$6, DW_AT_linkage_name("SysCtl_delay")
      64                      .dwattr $C$DW$6, DW_AT_declaration
      65                      .dwattr $C$DW$6, DW_AT_external
      66                      .dwattr $C$DW$6, DW_AT_decl_file("C:\ti\C2000Ware_MotorControl_SDK_5_04_00_00\c2000ware\driverlib\f28
      67                      .dwattr $C$DW$6, DW_AT_decl_line(0xcd7)
      68                      .dwattr $C$DW$6, DW_AT_decl_column(0x01)
      69              $C$DW$7 .dwtag  DW_TAG_formal_parameter
      70                      .dwattr $C$DW$7, DW_AT_type(*$C$DW$T$28)
      71              
      72                      .dwendtag $C$DW$6
      73              
      74              
      75              $C$DW$8 .dwtag  DW_TAG_subprogram
      76                      .dwattr $C$DW$8, DW_AT_name("ADC_setVREF")
      77                      .dwattr $C$DW$8, DW_AT_linkage_name("ADC_setVREF")
      78                      .dwattr $C$DW$8, DW_AT_declaration
      79                      .dwattr $C$DW$8, DW_AT_external
      80                      .dwattr $C$DW$8, DW_AT_decl_file("C:/ti/C2000Ware_MotorControl_SDK_5_04_00_00/c2000ware/driverlib/f28
      81                      .dwattr $C$DW$8, DW_AT_decl_line(0x7ee)
      82                      .dwattr $C$DW$8, DW_AT_decl_column(0x01)
      83              $C$DW$9 .dwtag  DW_TAG_formal_parameter
      84                      .dwattr $C$DW$9, DW_AT_type(*$C$DW$T$28)
      85              
      86              $C$DW$10        .dwtag  DW_TAG_formal_parameter
      87                      .dwattr $C$DW$10, DW_AT_type(*$C$DW$T$53)
      88              
      89              $C$DW$11        .dwtag  DW_TAG_formal_parameter
      90                      .dwattr $C$DW$11, DW_AT_type(*$C$DW$T$55)
      91              
      92                      .dwendtag $C$DW$8
      93              
      94              
      95              $C$DW$12        .dwtag  DW_TAG_subprogram
      96                      .dwattr $C$DW$12, DW_AT_name("CMPSS_configFilterHigh")
      97                      .dwattr $C$DW$12, DW_AT_linkage_name("CMPSS_configFilterHigh")
      98                      .dwattr $C$DW$12, DW_AT_declaration
      99                      .dwattr $C$DW$12, DW_AT_external
     100                      .dwattr $C$DW$12, DW_AT_decl_file("C:/ti/C2000Ware_MotorControl_SDK_5_04_00_00/c2000ware/driverlib/f2
     101                      .dwattr $C$DW$12, DW_AT_decl_line(0x4ff)
     102                      .dwattr $C$DW$12, DW_AT_decl_column(0x01)
     103              $C$DW$13        .dwtag  DW_TAG_formal_parameter
     104                      .dwattr $C$DW$13, DW_AT_type(*$C$DW$T$28)
     105              
     106              $C$DW$14        .dwtag  DW_TAG_formal_parameter
     107                      .dwattr $C$DW$14, DW_AT_type(*$C$DW$T$172)
     108              
     109              $C$DW$15        .dwtag  DW_TAG_formal_parameter
     110                      .dwattr $C$DW$15, DW_AT_type(*$C$DW$T$172)
TMS320C2000 Assembler PC v22.6.2 Wed Dec 10 14:45:02 2025

Copyright (c) 1996-2018 Texas Instruments Incorporated
dual_axis_servo_drive_hal.asm                                        PAGE    3

     111              
     112              $C$DW$16        .dwtag  DW_TAG_formal_parameter
     113                      .dwattr $C$DW$16, DW_AT_type(*$C$DW$T$172)
     114              
     115                      .dwendtag $C$DW$12
     116              
     117              
     118              $C$DW$17        .dwtag  DW_TAG_subprogram
     119                      .dwattr $C$DW$17, DW_AT_name("CMPSS_configFilterLow")
     120                      .dwattr $C$DW$17, DW_AT_linkage_name("CMPSS_configFilterLow")
     121                      .dwattr $C$DW$17, DW_AT_declaration
     122                      .dwattr $C$DW$17, DW_AT_external
     123                      .dwattr $C$DW$17, DW_AT_decl_file("C:/ti/C2000Ware_MotorControl_SDK_5_04_00_00/c2000ware/driverlib/f2
     124                      .dwattr $C$DW$17, DW_AT_decl_line(0x52f)
     125                      .dwattr $C$DW$17, DW_AT_decl_column(0x01)
     126              $C$DW$18        .dwtag  DW_TAG_formal_parameter
     127                      .dwattr $C$DW$18, DW_AT_type(*$C$DW$T$28)
     128              
     129              $C$DW$19        .dwtag  DW_TAG_formal_parameter
     130                      .dwattr $C$DW$19, DW_AT_type(*$C$DW$T$172)
     131              
     132              $C$DW$20        .dwtag  DW_TAG_formal_parameter
     133                      .dwattr $C$DW$20, DW_AT_type(*$C$DW$T$172)
     134              
     135              $C$DW$21        .dwtag  DW_TAG_formal_parameter
     136                      .dwattr $C$DW$21, DW_AT_type(*$C$DW$T$172)
     137              
     138                      .dwendtag $C$DW$17
     139              
     140              
     141              $C$DW$22        .dwtag  DW_TAG_subprogram
     142                      .dwattr $C$DW$22, DW_AT_name("motor1ControlISR")
     143                      .dwattr $C$DW$22, DW_AT_linkage_name("motor1ControlISR")
     144                      .dwattr $C$DW$22, DW_AT_declaration
     145                      .dwattr $C$DW$22, DW_AT_external
     146                      .dwattr $C$DW$22, DW_AT_decl_file("../sources/dual_axis_servo_drive_hal.c")
     147                      .dwattr $C$DW$22, DW_AT_decl_line(0x4b)
     148                      .dwattr $C$DW$22, DW_AT_decl_column(0x19)
     149                      .dwendtag $C$DW$22
     150              
     151              
     152              $C$DW$23        .dwtag  DW_TAG_subprogram
     153                      .dwattr $C$DW$23, DW_AT_name("motor2ControlISR")
     154                      .dwattr $C$DW$23, DW_AT_linkage_name("motor2ControlISR")
     155                      .dwattr $C$DW$23, DW_AT_declaration
     156                      .dwattr $C$DW$23, DW_AT_external
     157                      .dwattr $C$DW$23, DW_AT_decl_file("../sources/dual_axis_servo_drive_hal.c")
     158                      .dwattr $C$DW$23, DW_AT_decl_line(0x4c)
     159                      .dwattr $C$DW$23, DW_AT_decl_column(0x19)
     160                      .dwendtag $C$DW$23
     161              
     162              
     163              $C$DW$24        .dwtag  DW_TAG_subprogram
     164                      .dwattr $C$DW$24, DW_AT_name("CPUTimer_setEmulationMode")
     165                      .dwattr $C$DW$24, DW_AT_linkage_name("CPUTimer_setEmulationMode")
TMS320C2000 Assembler PC v22.6.2 Wed Dec 10 14:45:02 2025

Copyright (c) 1996-2018 Texas Instruments Incorporated
dual_axis_servo_drive_hal.asm                                        PAGE    4

     166                      .dwattr $C$DW$24, DW_AT_declaration
     167                      .dwattr $C$DW$24, DW_AT_external
     168                      .dwattr $C$DW$24, DW_AT_decl_file("C:/ti/C2000Ware_MotorControl_SDK_5_04_00_00/c2000ware/driverlib/f2
     169                      .dwattr $C$DW$24, DW_AT_decl_line(0x1e3)
     170                      .dwattr $C$DW$24, DW_AT_decl_column(0x0d)
     171              $C$DW$25        .dwtag  DW_TAG_formal_parameter
     172                      .dwattr $C$DW$25, DW_AT_type(*$C$DW$T$28)
     173              
     174              $C$DW$26        .dwtag  DW_TAG_formal_parameter
     175                      .dwattr $C$DW$26, DW_AT_type(*$C$DW$T$67)
     176              
     177                      .dwendtag $C$DW$24
     178              
     179              
     180              $C$DW$27        .dwtag  DW_TAG_subprogram
     181                      .dwattr $C$DW$27, DW_AT_name("GPIO_setPinConfig")
     182                      .dwattr $C$DW$27, DW_AT_linkage_name("GPIO_setPinConfig")
     183                      .dwattr $C$DW$27, DW_AT_declaration
     184                      .dwattr $C$DW$27, DW_AT_external
     185                      .dwattr $C$DW$27, DW_AT_decl_file("C:/ti/C2000Ware_MotorControl_SDK_5_04_00_00/c2000ware/driverlib/f2
     186                      .dwattr $C$DW$27, DW_AT_decl_line(0x420)
     187                      .dwattr $C$DW$27, DW_AT_decl_column(0x01)
     188              $C$DW$28        .dwtag  DW_TAG_formal_parameter
     189                      .dwattr $C$DW$28, DW_AT_type(*$C$DW$T$28)
     190              
     191                      .dwendtag $C$DW$27
     192              
     193              
     194              $C$DW$29        .dwtag  DW_TAG_subprogram
     195                      .dwattr $C$DW$29, DW_AT_name("GPIO_setDirectionMode")
     196                      .dwattr $C$DW$29, DW_AT_linkage_name("GPIO_setDirectionMode")
     197                      .dwattr $C$DW$29, DW_AT_declaration
     198                      .dwattr $C$DW$29, DW_AT_external
     199                      .dwattr $C$DW$29, DW_AT_decl_file("C:/ti/C2000Ware_MotorControl_SDK_5_04_00_00/c2000ware/driverlib/f2
     200                      .dwattr $C$DW$29, DW_AT_decl_line(0x356)
     201                      .dwattr $C$DW$29, DW_AT_decl_column(0x01)
     202              $C$DW$30        .dwtag  DW_TAG_formal_parameter
     203                      .dwattr $C$DW$30, DW_AT_type(*$C$DW$T$28)
     204              
     205              $C$DW$31        .dwtag  DW_TAG_formal_parameter
     206                      .dwattr $C$DW$31, DW_AT_type(*$C$DW$T$125)
     207              
     208                      .dwendtag $C$DW$29
     209              
     210              
     211              $C$DW$32        .dwtag  DW_TAG_subprogram
     212                      .dwattr $C$DW$32, DW_AT_name("GPIO_setPadConfig")
     213                      .dwattr $C$DW$32, DW_AT_linkage_name("GPIO_setPadConfig")
     214                      .dwattr $C$DW$32, DW_AT_declaration
     215                      .dwattr $C$DW$32, DW_AT_external
     216                      .dwattr $C$DW$32, DW_AT_decl_file("C:/ti/C2000Ware_MotorControl_SDK_5_04_00_00/c2000ware/driverlib/f2
     217                      .dwattr $C$DW$32, DW_AT_decl_line(0x39f)
     218                      .dwattr $C$DW$32, DW_AT_decl_column(0x01)
     219              $C$DW$33        .dwtag  DW_TAG_formal_parameter
     220                      .dwattr $C$DW$33, DW_AT_type(*$C$DW$T$28)
TMS320C2000 Assembler PC v22.6.2 Wed Dec 10 14:45:02 2025

Copyright (c) 1996-2018 Texas Instruments Incorporated
dual_axis_servo_drive_hal.asm                                        PAGE    5

     221              
     222              $C$DW$34        .dwtag  DW_TAG_formal_parameter
     223                      .dwattr $C$DW$34, DW_AT_type(*$C$DW$T$28)
     224              
     225                      .dwendtag $C$DW$32
     226              
     227              
     228              $C$DW$35        .dwtag  DW_TAG_subprogram
     229                      .dwattr $C$DW$35, DW_AT_name("GPIO_setQualificationMode")
     230                      .dwattr $C$DW$35, DW_AT_linkage_name("GPIO_setQualificationMode")
     231                      .dwattr $C$DW$35, DW_AT_declaration
     232                      .dwattr $C$DW$35, DW_AT_external
     233                      .dwattr $C$DW$35, DW_AT_decl_file("C:/ti/C2000Ware_MotorControl_SDK_5_04_00_00/c2000ware/driverlib/f2
     234                      .dwattr $C$DW$35, DW_AT_decl_line(0x3c6)
     235                      .dwattr $C$DW$35, DW_AT_decl_column(0x01)
     236              $C$DW$36        .dwtag  DW_TAG_formal_parameter
     237                      .dwattr $C$DW$36, DW_AT_type(*$C$DW$T$28)
     238              
     239              $C$DW$37        .dwtag  DW_TAG_formal_parameter
     240                      .dwattr $C$DW$37, DW_AT_type(*$C$DW$T$127)
     241              
     242                      .dwendtag $C$DW$35
     243              
     244              
     245              $C$DW$38        .dwtag  DW_TAG_subprogram
     246                      .dwattr $C$DW$38, DW_AT_name("GPIO_setQualificationPeriod")
     247                      .dwattr $C$DW$38, DW_AT_linkage_name("GPIO_setQualificationPeriod")
     248                      .dwattr $C$DW$38, DW_AT_declaration
     249                      .dwattr $C$DW$38, DW_AT_external
     250                      .dwattr $C$DW$38, DW_AT_decl_file("C:/ti/C2000Ware_MotorControl_SDK_5_04_00_00/c2000ware/driverlib/f2
     251                      .dwattr $C$DW$38, DW_AT_decl_line(0x3ed)
     252                      .dwattr $C$DW$38, DW_AT_decl_column(0x01)
     253              $C$DW$39        .dwtag  DW_TAG_formal_parameter
     254                      .dwattr $C$DW$39, DW_AT_type(*$C$DW$T$28)
     255              
     256              $C$DW$40        .dwtag  DW_TAG_formal_parameter
     257                      .dwattr $C$DW$40, DW_AT_type(*$C$DW$T$28)
     258              
     259                      .dwendtag $C$DW$38
     260              
     261              
     262              $C$DW$41        .dwtag  DW_TAG_subprogram
     263                      .dwattr $C$DW$41, DW_AT_name("XBAR_setEPWMMuxConfig")
     264                      .dwattr $C$DW$41, DW_AT_linkage_name("XBAR_setEPWMMuxConfig")
     265                      .dwattr $C$DW$41, DW_AT_declaration
     266                      .dwattr $C$DW$41, DW_AT_external
     267                      .dwattr $C$DW$41, DW_AT_decl_file("C:\ti\C2000Ware_MotorControl_SDK_5_04_00_00\c2000ware\driverlib\f2
     268                      .dwattr $C$DW$41, DW_AT_decl_line(0x4b3)
     269                      .dwattr $C$DW$41, DW_AT_decl_column(0x01)
     270              $C$DW$42        .dwtag  DW_TAG_formal_parameter
     271                      .dwattr $C$DW$42, DW_AT_type(*$C$DW$T$119)
     272              
     273              $C$DW$43        .dwtag  DW_TAG_formal_parameter
     274                      .dwattr $C$DW$43, DW_AT_type(*$C$DW$T$123)
     275              
TMS320C2000 Assembler PC v22.6.2 Wed Dec 10 14:45:02 2025

Copyright (c) 1996-2018 Texas Instruments Incorporated
dual_axis_servo_drive_hal.asm                                        PAGE    6

     276                      .dwendtag $C$DW$41
     277              
     278                      .global ||hlt||
     279 00000000               .data
     280                      .align  1
     281                      .elfsym ||hlt||,SYM_SIZE(1),SYM_BLOCKED(1)
     282 00000000       ||hlt||:
     283 00000000 7FFF          .bits           0x7fff,16
     284                                      ; hlt @ 0
     285              
     286              $C$DW$44        .dwtag  DW_TAG_variable
     287                      .dwattr $C$DW$44, DW_AT_name("hlt")
     288                      .dwattr $C$DW$44, DW_AT_linkage_name("hlt")
     289                      .dwattr $C$DW$44, DW_AT_location[DW_OP_addr ||hlt||]
     290                      .dwattr $C$DW$44, DW_AT_type(*$C$DW$T$172)
     291                      .dwattr $C$DW$44, DW_AT_external
     292                      .dwattr $C$DW$44, DW_AT_decl_file("../sources/dual_axis_servo_drive_hal.c")
     293                      .dwattr $C$DW$44, DW_AT_decl_line(0x3a)
     294                      .dwattr $C$DW$44, DW_AT_decl_column(0x0a)
     295              
     296                      .global ||llt||
     297 00000001               .data
     298                      .align  1
     299                      .elfsym ||llt||,SYM_SIZE(1),SYM_BLOCKED(1)
     300 00000001       ||llt||:
     301 00000001 0000          .bits           0,16
     302                                      ; llt @ 0
     303              
     304              $C$DW$45        .dwtag  DW_TAG_variable
     305                      .dwattr $C$DW$45, DW_AT_name("llt")
     306                      .dwattr $C$DW$45, DW_AT_linkage_name("llt")
     307                      .dwattr $C$DW$45, DW_AT_location[DW_OP_addr ||llt||]
     308                      .dwattr $C$DW$45, DW_AT_type(*$C$DW$T$172)
     309                      .dwattr $C$DW$45, DW_AT_external
     310                      .dwattr $C$DW$45, DW_AT_decl_file("../sources/dual_axis_servo_drive_hal.c")
     311                      .dwattr $C$DW$45, DW_AT_decl_line(0x3b)
     312                      .dwattr $C$DW$45, DW_AT_decl_column(0x0a)
     313              
     314              
     315              $C$DW$46        .dwtag  DW_TAG_subprogram
     316                      .dwattr $C$DW$46, DW_AT_name("__eallow")
     317                      .dwattr $C$DW$46, DW_AT_linkage_name("__eallow")
     318                      .dwattr $C$DW$46, DW_AT_declaration
     319                      .dwattr $C$DW$46, DW_AT_external
     320                      .dwendtag $C$DW$46
     321              
     322              
     323              $C$DW$47        .dwtag  DW_TAG_subprogram
     324                      .dwattr $C$DW$47, DW_AT_name("__edis")
     325                      .dwattr $C$DW$47, DW_AT_linkage_name("__edis")
     326                      .dwattr $C$DW$47, DW_AT_declaration
     327                      .dwattr $C$DW$47, DW_AT_external
     328                      .dwendtag $C$DW$47
     329              
     330              $C$DW$48        .dwtag  DW_TAG_variable
TMS320C2000 Assembler PC v22.6.2 Wed Dec 10 14:45:02 2025

Copyright (c) 1996-2018 Texas Instruments Incorporated
dual_axis_servo_drive_hal.asm                                        PAGE    7

     331                      .dwattr $C$DW$48, DW_AT_name("halMtr")
     332                      .dwattr $C$DW$48, DW_AT_linkage_name("halMtr")
     333                      .dwattr $C$DW$48, DW_AT_type(*$C$DW$T$139)
     334                      .dwattr $C$DW$48, DW_AT_declaration
     335                      .dwattr $C$DW$48, DW_AT_external
     336                      .dwattr $C$DW$48, DW_AT_decl_file("C:/ti/C2000Ware_MotorControl_SDK_5_04_00_00/solutions/boostxl_3phg
     337                      .dwattr $C$DW$48, DW_AT_decl_line(0xc8)
     338                      .dwattr $C$DW$48, DW_AT_decl_column(0x17)
     339              
     340                      .sblock ".data"
     341              ;       C:\ti\ccs2031\ccs\tools\compiler\ti-cgt-c2000_22.6.2.LTS\bin\opt2000.exe C:\\Users\\Teddy\\AppData\\L
     342              ;       C:\ti\ccs2031\ccs\tools\compiler\ti-cgt-c2000_22.6.2.LTS\bin\acia2000.exe -@C:\\Users\\Teddy\\AppData
     343 00000000               .sect   ".text:__signbitl"
     344                      .clink
     345                      .global ||__signbitl||
     346              
     347              $C$DW$49        .dwtag  DW_TAG_subprogram
     348                      .dwattr $C$DW$49, DW_AT_name("__signbitl")
     349                      .dwattr $C$DW$49, DW_AT_low_pc(||__signbitl||)
     350                      .dwattr $C$DW$49, DW_AT_high_pc(0x00)
     351                      .dwattr $C$DW$49, DW_AT_linkage_name("__signbitl")
     352                      .dwattr $C$DW$49, DW_AT_external
     353                      .dwattr $C$DW$49, DW_AT_type(*$C$DW$T$10)
     354                      .dwattr $C$DW$49, DW_AT_decl_file("C:/ti/ccs2031/ccs/tools/compiler/ti-cgt-c2000_22.6.2.LTS/include/_
     355                      .dwattr $C$DW$49, DW_AT_decl_line(0x16f)
     356                      .dwattr $C$DW$49, DW_AT_decl_column(0x18)
     357                      .dwattr $C$DW$49, DW_AT_TI_max_frame_size(-6)
     358                      .dwpsn  file "C:/ti/ccs2031/ccs/tools/compiler/ti-cgt-c2000_22.6.2.LTS/include/_defs.h",line 368,colu
     359              
     360                      .dwfde $C$DW$CIE, ||__signbitl||
     361              $C$DW$50        .dwtag  DW_TAG_formal_parameter
     362                      .dwattr $C$DW$50, DW_AT_name("e")
     363                      .dwattr $C$DW$50, DW_AT_type(*$C$DW$T$249)
     364                      .dwattr $C$DW$50, DW_AT_location[DW_OP_reg12]
     365              
     366              
     367              ;***************************************************************
     368              ;* FNAME: __signbitl                    FR SIZE:   4           *
     369              ;*                                                             *
     370              ;* FUNCTION ENVIRONMENT                                        *
     371              ;*                                                             *
     372              ;* FUNCTION PROPERTIES                                         *
     373              ;*                            4 Parameter,  0 Auto,  0 SOE     *
     374              ;***************************************************************
     375              
     376              ||__signbitl||:
     377              ;* AR4   assigned to e
     378              $C$DW$51        .dwtag  DW_TAG_variable
     379                      .dwattr $C$DW$51, DW_AT_name("e")
     380                      .dwattr $C$DW$51, DW_AT_type(*$C$DW$T$250)
     381                      .dwattr $C$DW$51, DW_AT_location[DW_OP_reg12]
     382              
     383                      .dwcfi  cfa_offset, -2
     384                      .dwcfi  save_reg_to_mem, 26, 0
     385 00000000 FE04          ADDB      SP,#4                 ; [CPU_ARAU] 
TMS320C2000 Assembler PC v22.6.2 Wed Dec 10 14:45:02 2025

Copyright (c) 1996-2018 Texas Instruments Incorporated
dual_axis_servo_drive_hal.asm                                        PAGE    8

     386                      .dwcfi  cfa_offset, -6
     387                      .dwpsn  file "C:/ti/ccs2031/ccs/tools/compiler/ti-cgt-c2000_22.6.2.LTS/include/_defs.h",line 368,colu
     388 00000001 0200          MOVB      ACC,#0                ; [CPU_ALU] |368| 
     389 00000002 1E44          MOVL      *-SP[4],ACC           ; [CPU_ALU] |368| 
     390 00000003 2B42          MOV       *-SP[2],#0            ; [CPU_ALU] |368| 
     391 00000004 2B41          MOV       *-SP[1],#0            ; [CPU_ALU] |368| 
     392 00000005 A3C4          MOVL      P,*+XAR4[0]           ; [CPU_ALU] |368| 
     393 00000006 06D4          MOVL      ACC,*+XAR4[2]         ; [CPU_ALU] |368| 
     394 00000007 18AB          AND       PL,#0                 ; [CPU_ALU] |368| 
         00000008 0000 
     395 00000009 18AA          AND       PH,#0                 ; [CPU_ALU] |368| 
         0000000a 0000 
     396 0000000b 9000          ANDB      AL,#0                 ; [CPU_ALU] |368| 
     397 0000000c 18A8          AND       AH,#32768             ; [CPU_ALU] |368| 
         0000000d 8000 
     398              $C$DW$52        .dwtag  DW_TAG_TI_branch
     399                      .dwattr $C$DW$52, DW_AT_low_pc(0x00)
     400                      .dwattr $C$DW$52, DW_AT_name("__c28xabi_cmpull")
     401                      .dwattr $C$DW$52, DW_AT_TI_call
     402              
     403 0000000e 7640!         LCR       #||__c28xabi_cmpull|| ; [CPU_ALU] |368| 
         0000000f 0000 
     404                      ; call occurs [#||__c28xabi_cmpull||] ; [] |368| 
     405 00000010 9B00          MOVB      AH,#0                 ; [CPU_ALU] |368| 
     406 00000011 5200          CMPB      AL,#0                 ; [CPU_ALU] |368| 
     407 00000012 56B0          MOVB      AH,#1,NEQ             ; [CPU_ALU] |368| 
         00000013 01A8 
     408 00000014 92A8          MOV       AL,AH                 ; [CPU_ALU] |368| 
     409 00000015 FE84          SUBB      SP,#4                 ; [CPU_ARAU] 
     410                      .dwcfi  cfa_offset, -2
     411              $C$DW$53        .dwtag  DW_TAG_TI_branch
     412                      .dwattr $C$DW$53, DW_AT_low_pc(0x00)
     413                      .dwattr $C$DW$53, DW_AT_TI_return
     414              
     415 00000016 0006          LRETR     ; [CPU_ALU] 
     416                      ; return occurs ; [] 
     417                      .dwattr $C$DW$49, DW_AT_TI_end_file("C:/ti/ccs2031/ccs/tools/compiler/ti-cgt-c2000_22.6.2.LTS/include
     418                      .dwattr $C$DW$49, DW_AT_TI_end_line(0x170)
     419                      .dwattr $C$DW$49, DW_AT_TI_end_column(0x2b)
     420                      .dwendentry
     421                      .dwendtag $C$DW$49
     422              
     423 00000000               .sect   ".text:__signbitf"
     424                      .clink
     425                      .global ||__signbitf||
     426              
     427              $C$DW$54        .dwtag  DW_TAG_subprogram
     428                      .dwattr $C$DW$54, DW_AT_name("__signbitf")
     429                      .dwattr $C$DW$54, DW_AT_low_pc(||__signbitf||)
     430                      .dwattr $C$DW$54, DW_AT_high_pc(0x00)
     431                      .dwattr $C$DW$54, DW_AT_linkage_name("__signbitf")
     432                      .dwattr $C$DW$54, DW_AT_external
     433                      .dwattr $C$DW$54, DW_AT_type(*$C$DW$T$10)
     434                      .dwattr $C$DW$54, DW_AT_decl_file("C:/ti/ccs2031/ccs/tools/compiler/ti-cgt-c2000_22.6.2.LTS/include/_
     435                      .dwattr $C$DW$54, DW_AT_decl_line(0x16d)
TMS320C2000 Assembler PC v22.6.2 Wed Dec 10 14:45:02 2025

Copyright (c) 1996-2018 Texas Instruments Incorporated
dual_axis_servo_drive_hal.asm                                        PAGE    9

     436                      .dwattr $C$DW$54, DW_AT_decl_column(0x18)
     437                      .dwattr $C$DW$54, DW_AT_TI_max_frame_size(-2)
     438                      .dwpsn  file "C:/ti/ccs2031/ccs/tools/compiler/ti-cgt-c2000_22.6.2.LTS/include/_defs.h",line 366,colu
     439              
     440                      .dwfde $C$DW$CIE, ||__signbitf||
     441              $C$DW$55        .dwtag  DW_TAG_formal_parameter
     442                      .dwattr $C$DW$55, DW_AT_name("f")
     443                      .dwattr $C$DW$55, DW_AT_type(*$C$DW$T$16)
     444                      .dwattr $C$DW$55, DW_AT_location[DW_OP_regx 0x2b]
     445              
     446              
     447              ;***************************************************************
     448              ;* FNAME: __signbitf                    FR SIZE:   0           *
     449              ;*                                                             *
     450              ;* FUNCTION ENVIRONMENT                                        *
     451              ;*                                                             *
     452              ;* FUNCTION PROPERTIES                                         *
     453              ;*                            0 Parameter,  0 Auto,  0 SOE     *
     454              ;***************************************************************
     455              
     456              ||__signbitf||:
     457              ;* R0    assigned to f
     458              $C$DW$56        .dwtag  DW_TAG_variable
     459                      .dwattr $C$DW$56, DW_AT_name("f")
     460                      .dwattr $C$DW$56, DW_AT_type(*$C$DW$T$245)
     461                      .dwattr $C$DW$56, DW_AT_location[DW_OP_regx 0x2b]
     462              
     463                      .dwcfi  cfa_offset, -2
     464                      .dwcfi  save_reg_to_mem, 26, 0
     465                      .dwpsn  file "C:/ti/ccs2031/ccs/tools/compiler/ti-cgt-c2000_22.6.2.LTS/include/_defs.h",line 366,colu
     466 00000000 BFA9          MOV32     ACC,R0H               ; [CPU_FPU] |366| 
         00000001 0F12 
     467 00000002 BE00          MOVB      XAR6,#0               ; [CPU_ALU] |366| 
     468 00000003 9000          ANDB      AL,#0                 ; [CPU_ALU] |366| 
     469 00000004 18A8          AND       AH,#32768             ; [CPU_ALU] |366| 
         00000005 8000 
     470 00000006 FF58          TEST      ACC                   ; [CPU_ALU] |366| 
     471 00000007 56B0          MOVB      XAR6,#1,NEQ           ; [CPU_ALU] |366| 
         00000008 01A6 
     472 00000009 92A6          MOV       AL,AR6                ; [CPU_ALU] |366| 
     473              $C$DW$57        .dwtag  DW_TAG_TI_branch
     474                      .dwattr $C$DW$57, DW_AT_low_pc(0x00)
     475                      .dwattr $C$DW$57, DW_AT_TI_return
     476              
     477 0000000a 0006          LRETR     ; [CPU_ALU] 
     478                      ; return occurs ; [] 
     479                      .dwattr $C$DW$54, DW_AT_TI_end_file("C:/ti/ccs2031/ccs/tools/compiler/ti-cgt-c2000_22.6.2.LTS/include
     480                      .dwattr $C$DW$54, DW_AT_TI_end_line(0x16e)
     481                      .dwattr $C$DW$54, DW_AT_TI_end_column(0x29)
     482                      .dwendentry
     483                      .dwendtag $C$DW$54
     484              
     485 00000000               .sect   ".text:__signbit"
     486                      .clink
     487                      .global ||__signbit||
TMS320C2000 Assembler PC v22.6.2 Wed Dec 10 14:45:02 2025

Copyright (c) 1996-2018 Texas Instruments Incorporated
dual_axis_servo_drive_hal.asm                                        PAGE   10

     488              
     489              $C$DW$58        .dwtag  DW_TAG_subprogram
     490                      .dwattr $C$DW$58, DW_AT_name("__signbit")
     491                      .dwattr $C$DW$58, DW_AT_low_pc(||__signbit||)
     492                      .dwattr $C$DW$58, DW_AT_high_pc(0x00)
     493                      .dwattr $C$DW$58, DW_AT_linkage_name("__signbit")
     494                      .dwattr $C$DW$58, DW_AT_external
     495                      .dwattr $C$DW$58, DW_AT_type(*$C$DW$T$10)
     496                      .dwattr $C$DW$58, DW_AT_decl_file("C:/ti/ccs2031/ccs/tools/compiler/ti-cgt-c2000_22.6.2.LTS/include/_
     497                      .dwattr $C$DW$58, DW_AT_decl_line(0x16b)
     498                      .dwattr $C$DW$58, DW_AT_decl_column(0x18)
     499                      .dwattr $C$DW$58, DW_AT_TI_max_frame_size(-6)
     500                      .dwpsn  file "C:/ti/ccs2031/ccs/tools/compiler/ti-cgt-c2000_22.6.2.LTS/include/_defs.h",line 364,colu
     501              
     502                      .dwfde $C$DW$CIE, ||__signbit||
     503              $C$DW$59        .dwtag  DW_TAG_formal_parameter
     504                      .dwattr $C$DW$59, DW_AT_name("d")
     505                      .dwattr $C$DW$59, DW_AT_type(*$C$DW$T$246)
     506                      .dwattr $C$DW$59, DW_AT_location[DW_OP_reg12]
     507              
     508              
     509              ;***************************************************************
     510              ;* FNAME: __signbit                     FR SIZE:   4           *
     511              ;*                                                             *
     512              ;* FUNCTION ENVIRONMENT                                        *
     513              ;*                                                             *
     514              ;* FUNCTION PROPERTIES                                         *
     515              ;*                            4 Parameter,  0 Auto,  0 SOE     *
     516              ;***************************************************************
     517              
     518              ||__signbit||:
     519              ;* AR4   assigned to d
     520              $C$DW$60        .dwtag  DW_TAG_variable
     521                      .dwattr $C$DW$60, DW_AT_name("d")
     522                      .dwattr $C$DW$60, DW_AT_type(*$C$DW$T$247)
     523                      .dwattr $C$DW$60, DW_AT_location[DW_OP_reg12]
     524              
     525                      .dwcfi  cfa_offset, -2
     526                      .dwcfi  save_reg_to_mem, 26, 0
     527 00000000 FE04          ADDB      SP,#4                 ; [CPU_ARAU] 
     528                      .dwcfi  cfa_offset, -6
     529                      .dwpsn  file "C:/ti/ccs2031/ccs/tools/compiler/ti-cgt-c2000_22.6.2.LTS/include/_defs.h",line 364,colu
     530 00000001 0200          MOVB      ACC,#0                ; [CPU_ALU] |364| 
     531 00000002 1E44          MOVL      *-SP[4],ACC           ; [CPU_ALU] |364| 
     532 00000003 2B42          MOV       *-SP[2],#0            ; [CPU_ALU] |364| 
     533 00000004 2B41          MOV       *-SP[1],#0            ; [CPU_ALU] |364| 
     534 00000005 A3C4          MOVL      P,*+XAR4[0]           ; [CPU_ALU] |364| 
     535 00000006 06D4          MOVL      ACC,*+XAR4[2]         ; [CPU_ALU] |364| 
     536 00000007 18AB          AND       PL,#0                 ; [CPU_ALU] |364| 
         00000008 0000 
     537 00000009 18AA          AND       PH,#0                 ; [CPU_ALU] |364| 
         0000000a 0000 
     538 0000000b 9000          ANDB      AL,#0                 ; [CPU_ALU] |364| 
     539 0000000c 18A8          AND       AH,#32768             ; [CPU_ALU] |364| 
         0000000d 8000 
TMS320C2000 Assembler PC v22.6.2 Wed Dec 10 14:45:02 2025

Copyright (c) 1996-2018 Texas Instruments Incorporated
dual_axis_servo_drive_hal.asm                                        PAGE   11

     540              $C$DW$61        .dwtag  DW_TAG_TI_branch
     541                      .dwattr $C$DW$61, DW_AT_low_pc(0x00)
     542                      .dwattr $C$DW$61, DW_AT_name("__c28xabi_cmpull")
     543                      .dwattr $C$DW$61, DW_AT_TI_call
     544              
     545 0000000e 7640!         LCR       #||__c28xabi_cmpull|| ; [CPU_ALU] |364| 
         0000000f 0000 
     546                      ; call occurs [#||__c28xabi_cmpull||] ; [] |364| 
     547 00000010 9B00          MOVB      AH,#0                 ; [CPU_ALU] |364| 
     548 00000011 5200          CMPB      AL,#0                 ; [CPU_ALU] |364| 
     549 00000012 56B0          MOVB      AH,#1,NEQ             ; [CPU_ALU] |364| 
         00000013 01A8 
     550 00000014 92A8          MOV       AL,AH                 ; [CPU_ALU] |364| 
     551 00000015 FE84          SUBB      SP,#4                 ; [CPU_ARAU] 
     552                      .dwcfi  cfa_offset, -2
     553              $C$DW$62        .dwtag  DW_TAG_TI_branch
     554                      .dwattr $C$DW$62, DW_AT_low_pc(0x00)
     555                      .dwattr $C$DW$62, DW_AT_TI_return
     556              
     557 00000016 0006          LRETR     ; [CPU_ALU] 
     558                      ; return occurs ; [] 
     559                      .dwattr $C$DW$58, DW_AT_TI_end_file("C:/ti/ccs2031/ccs/tools/compiler/ti-cgt-c2000_22.6.2.LTS/include
     560                      .dwattr $C$DW$58, DW_AT_TI_end_line(0x16c)
     561                      .dwattr $C$DW$58, DW_AT_TI_end_column(0x2a)
     562                      .dwendentry
     563                      .dwendtag $C$DW$58
     564              
     565 00000000               .sect   ".text:__relaxed_sqrtf"
     566                      .clink
     567                      .global ||__relaxed_sqrtf||
     568              
     569              $C$DW$63        .dwtag  DW_TAG_subprogram
     570                      .dwattr $C$DW$63, DW_AT_name("__relaxed_sqrtf")
     571                      .dwattr $C$DW$63, DW_AT_low_pc(||__relaxed_sqrtf||)
     572                      .dwattr $C$DW$63, DW_AT_high_pc(0x00)
     573                      .dwattr $C$DW$63, DW_AT_linkage_name("__relaxed_sqrtf")
     574                      .dwattr $C$DW$63, DW_AT_external
     575                      .dwattr $C$DW$63, DW_AT_type(*$C$DW$T$16)
     576                      .dwattr $C$DW$63, DW_AT_decl_file("C:/ti/ccs2031/ccs/tools/compiler/ti-cgt-c2000_22.6.2.LTS/include/m
     577                      .dwattr $C$DW$63, DW_AT_decl_line(0x103)
     578                      .dwattr $C$DW$63, DW_AT_decl_column(0x10)
     579                      .dwattr $C$DW$63, DW_AT_TI_max_frame_size(-2)
     580                      .dwpsn  file "C:/ti/ccs2031/ccs/tools/compiler/ti-cgt-c2000_22.6.2.LTS/include/math.h",line 260,colum
     581              
     582                      .dwfde $C$DW$CIE, ||__relaxed_sqrtf||
     583              $C$DW$64        .dwtag  DW_TAG_formal_parameter
     584                      .dwattr $C$DW$64, DW_AT_name("x")
     585                      .dwattr $C$DW$64, DW_AT_type(*$C$DW$T$16)
     586                      .dwattr $C$DW$64, DW_AT_location[DW_OP_regx 0x2b]
     587              
     588              
     589              ;***************************************************************
     590              ;* FNAME: __relaxed_sqrtf               FR SIZE:   0           *
     591              ;*                                                             *
     592              ;* FUNCTION ENVIRONMENT                                        *
TMS320C2000 Assembler PC v22.6.2 Wed Dec 10 14:45:02 2025

Copyright (c) 1996-2018 Texas Instruments Incorporated
dual_axis_servo_drive_hal.asm                                        PAGE   12

     593              ;*                                                             *
     594              ;* FUNCTION PROPERTIES                                         *
     595              ;*                            0 Parameter,  0 Auto,  0 SOE     *
     596              ;***************************************************************
     597              
     598              ||__relaxed_sqrtf||:
     599              ;* R0    assigned to x
     600              $C$DW$65        .dwtag  DW_TAG_variable
     601                      .dwattr $C$DW$65, DW_AT_name("x")
     602                      .dwattr $C$DW$65, DW_AT_type(*$C$DW$T$245)
     603                      .dwattr $C$DW$65, DW_AT_location[DW_OP_regx 0x2b]
     604              
     605                      .dwcfi  cfa_offset, -2
     606                      .dwcfi  save_reg_to_mem, 26, 0
     607                      .dwpsn  file "C:/ti/ccs2031/ccs/tools/compiler/ti-cgt-c2000_22.6.2.LTS/include/math.h",line 261,colum
     608 00000000 E277          SQRTF32   R0H,R0H               ; [CPU_FPU] |261| 
         00000001 0000 
     609 00000002 7700          NOP       ; [CPU_ALU] 
     610 00000003 7700          NOP       ; [CPU_ALU] 
     611 00000004 7700          NOP       ; [CPU_ALU] 
     612              $C$DW$66        .dwtag  DW_TAG_TI_branch
     613                      .dwattr $C$DW$66, DW_AT_low_pc(0x00)
     614                      .dwattr $C$DW$66, DW_AT_TI_return
     615              
     616 00000005 0006          LRETR     ; [CPU_ALU] 
     617                      ; return occurs ; [] 
     618                      .dwattr $C$DW$63, DW_AT_TI_end_file("C:/ti/ccs2031/ccs/tools/compiler/ti-cgt-c2000_22.6.2.LTS/include
     619                      .dwattr $C$DW$63, DW_AT_TI_end_line(0x106)
     620                      .dwattr $C$DW$63, DW_AT_TI_end_column(0x01)
     621                      .dwendentry
     622                      .dwendtag $C$DW$63
     623              
     624 00000000               .sect   ".text:__relaxed_sinf"
     625                      .clink
     626                      .global ||__relaxed_sinf||
     627              
     628              $C$DW$67        .dwtag  DW_TAG_subprogram
     629                      .dwattr $C$DW$67, DW_AT_name("__relaxed_sinf")
     630                      .dwattr $C$DW$67, DW_AT_low_pc(||__relaxed_sinf||)
     631                      .dwattr $C$DW$67, DW_AT_high_pc(0x00)
     632                      .dwattr $C$DW$67, DW_AT_linkage_name("__relaxed_sinf")
     633                      .dwattr $C$DW$67, DW_AT_external
     634                      .dwattr $C$DW$67, DW_AT_type(*$C$DW$T$16)
     635                      .dwattr $C$DW$67, DW_AT_decl_file("C:/ti/ccs2031/ccs/tools/compiler/ti-cgt-c2000_22.6.2.LTS/include/m
     636                      .dwattr $C$DW$67, DW_AT_decl_line(0x108)
     637                      .dwattr $C$DW$67, DW_AT_decl_column(0x10)
     638                      .dwattr $C$DW$67, DW_AT_TI_max_frame_size(-2)
     639                      .dwpsn  file "C:/ti/ccs2031/ccs/tools/compiler/ti-cgt-c2000_22.6.2.LTS/include/math.h",line 265,colum
     640              
     641                      .dwfde $C$DW$CIE, ||__relaxed_sinf||
     642              $C$DW$68        .dwtag  DW_TAG_formal_parameter
     643                      .dwattr $C$DW$68, DW_AT_name("x")
     644                      .dwattr $C$DW$68, DW_AT_type(*$C$DW$T$16)
     645                      .dwattr $C$DW$68, DW_AT_location[DW_OP_regx 0x2b]
     646              
TMS320C2000 Assembler PC v22.6.2 Wed Dec 10 14:45:02 2025

Copyright (c) 1996-2018 Texas Instruments Incorporated
dual_axis_servo_drive_hal.asm                                        PAGE   13

     647              
     648              ;***************************************************************
     649              ;* FNAME: __relaxed_sinf                FR SIZE:   0           *
     650              ;*                                                             *
     651              ;* FUNCTION ENVIRONMENT                                        *
     652              ;*                                                             *
     653              ;* FUNCTION PROPERTIES                                         *
     654              ;*                            0 Parameter,  0 Auto,  0 SOE     *
     655              ;***************************************************************
     656              
     657              ||__relaxed_sinf||:
     658              ;* R0    assigned to x
     659              $C$DW$69        .dwtag  DW_TAG_variable
     660                      .dwattr $C$DW$69, DW_AT_name("x")
     661                      .dwattr $C$DW$69, DW_AT_type(*$C$DW$T$245)
     662                      .dwattr $C$DW$69, DW_AT_location[DW_OP_regx 0x2b]
     663              
     664                      .dwcfi  cfa_offset, -2
     665                      .dwcfi  save_reg_to_mem, 26, 0
     666                      .dwpsn  file "C:/ti/ccs2031/ccs/tools/compiler/ti-cgt-c2000_22.6.2.LTS/include/math.h",line 266,colum
     667 00000000 E271          DIV2PIF32 R0H,R0H               ; [CPU_FPU] |266| 
         00000001 0000 
     668 00000002 7700          NOP       ; [CPU_ALU] 
     669 00000003 E278          SINPUF32  R0H,R0H               ; [CPU_FPU] |266| 
         00000004 0000 
     670 00000005 7700          NOP       ; [CPU_ALU] 
     671 00000006 7700          NOP       ; [CPU_ALU] 
     672              $C$DW$70        .dwtag  DW_TAG_TI_branch
     673                      .dwattr $C$DW$70, DW_AT_low_pc(0x00)
     674                      .dwattr $C$DW$70, DW_AT_TI_return
     675              
     676 00000007 0006          LRETR     ; [CPU_ALU] 
     677                      ; return occurs ; [] 
     678                      .dwattr $C$DW$67, DW_AT_TI_end_file("C:/ti/ccs2031/ccs/tools/compiler/ti-cgt-c2000_22.6.2.LTS/include
     679                      .dwattr $C$DW$67, DW_AT_TI_end_line(0x10b)
     680                      .dwattr $C$DW$67, DW_AT_TI_end_column(0x01)
     681                      .dwendentry
     682                      .dwendtag $C$DW$67
     683              
     684 00000000               .sect   ".text:__relaxed_powf"
     685                      .clink
     686                      .global ||__relaxed_powf||
     687              
     688              $C$DW$71        .dwtag  DW_TAG_subprogram
     689                      .dwattr $C$DW$71, DW_AT_name("__relaxed_powf")
     690                      .dwattr $C$DW$71, DW_AT_low_pc(||__relaxed_powf||)
     691                      .dwattr $C$DW$71, DW_AT_high_pc(0x00)
     692                      .dwattr $C$DW$71, DW_AT_linkage_name("__relaxed_powf")
     693                      .dwattr $C$DW$71, DW_AT_external
     694                      .dwattr $C$DW$71, DW_AT_type(*$C$DW$T$16)
     695                      .dwattr $C$DW$71, DW_AT_decl_file("C:/ti/ccs2031/ccs/tools/compiler/ti-cgt-c2000_22.6.2.LTS/include/m
     696                      .dwattr $C$DW$71, DW_AT_decl_line(0x13b)
     697                      .dwattr $C$DW$71, DW_AT_decl_column(0x10)
     698                      .dwattr $C$DW$71, DW_AT_TI_max_frame_size(-4)
     699                      .dwpsn  file "C:/ti/ccs2031/ccs/tools/compiler/ti-cgt-c2000_22.6.2.LTS/include/math.h",line 316,colum
TMS320C2000 Assembler PC v22.6.2 Wed Dec 10 14:45:02 2025

Copyright (c) 1996-2018 Texas Instruments Incorporated
dual_axis_servo_drive_hal.asm                                        PAGE   14

     700              
     701                      .dwfde $C$DW$CIE, ||__relaxed_powf||
     702              $C$DW$72        .dwtag  DW_TAG_formal_parameter
     703                      .dwattr $C$DW$72, DW_AT_name("x")
     704                      .dwattr $C$DW$72, DW_AT_type(*$C$DW$T$16)
     705                      .dwattr $C$DW$72, DW_AT_location[DW_OP_regx 0x2b]
     706              
     707              $C$DW$73        .dwtag  DW_TAG_formal_parameter
     708                      .dwattr $C$DW$73, DW_AT_name("y")
     709                      .dwattr $C$DW$73, DW_AT_type(*$C$DW$T$16)
     710                      .dwattr $C$DW$73, DW_AT_location[DW_OP_regx 0x2f]
     711              
     712              
     713              ;***************************************************************
     714              ;* FNAME: __relaxed_powf                FR SIZE:   2           *
     715              ;*                                                             *
     716              ;* FUNCTION ENVIRONMENT                                        *
     717              ;*                                                             *
     718              ;* FUNCTION PROPERTIES                                         *
     719              ;*                            2 Parameter,  0 Auto,  0 SOE     *
     720              ;***************************************************************
     721              
     722              ||__relaxed_powf||:
     723              ;* R1    assigned to $O$C2
     724              ;* R0    assigned to $O$K4
     725              ;* R0    assigned to $O$R1
     726              ;* R0    assigned to x
     727              $C$DW$74        .dwtag  DW_TAG_variable
     728                      .dwattr $C$DW$74, DW_AT_name("x")
     729                      .dwattr $C$DW$74, DW_AT_type(*$C$DW$T$245)
     730                      .dwattr $C$DW$74, DW_AT_location[DW_OP_regx 0x2b]
     731              
     732              ;* R1    assigned to y
     733              $C$DW$75        .dwtag  DW_TAG_variable
     734                      .dwattr $C$DW$75, DW_AT_name("y")
     735                      .dwattr $C$DW$75, DW_AT_type(*$C$DW$T$245)
     736                      .dwattr $C$DW$75, DW_AT_location[DW_OP_regx 0x2f]
     737              
     738              ;* R0    assigned to iexp2f
     739              $C$DW$76        .dwtag  DW_TAG_variable
     740                      .dwattr $C$DW$76, DW_AT_name("iexp2f")
     741                      .dwattr $C$DW$76, DW_AT_type(*$C$DW$T$16)
     742                      .dwattr $C$DW$76, DW_AT_location[DW_OP_regx 0x2b]
     743              
     744                      .dwcfi  cfa_offset, -2
     745                      .dwcfi  save_reg_to_mem, 26, 0
     746 00000000 FE02          ADDB      SP,#2                 ; [CPU_ARAU] 
     747                      .dwcfi  cfa_offset, -4
     748                      .dwpsn  file "C:/ti/ccs2031/ccs/tools/compiler/ti-cgt-c2000_22.6.2.LTS/include/math.h",line 298,colum
     749 00000001 E272          LOG2F32   R0H,R0H               ; [CPU_FPU] |298| 
         00000002 0000 
     750 00000003 7700          NOP       ; [CPU_ALU] 
     751 00000004 7700          NOP       ; [CPU_ALU] 
     752 00000005 7700          NOP       ; [CPU_ALU] 
     753 00000006 E700          MPYF32    R1H,R1H,R0H           ; [CPU_FPU] |298| 
TMS320C2000 Assembler PC v22.6.2 Wed Dec 10 14:45:02 2025

Copyright (c) 1996-2018 Texas Instruments Incorporated
dual_axis_servo_drive_hal.asm                                        PAGE   15

         00000007 0009 
     754 00000008 7700          NOP       ; [CPU_ALU] 
     755                      .dwpsn  file "C:/ti/ccs2031/ccs/tools/compiler/ti-cgt-c2000_22.6.2.LTS/include/math.h",line 299,colum
     756 00000009 E5A1          CMPF32    R1H,#0                ; [CPU_FPU] |299| 
     757 0000000a AD14          MOVST0    ZF, NF                ; [CPU_FPU] |299| 
     758                      .dwpsn  file "C:/ti/ccs2031/ccs/tools/compiler/ti-cgt-c2000_22.6.2.LTS/include/math.h",line 298,colum
     759 0000000b E273          IEXP2F32  R0H,R1H               ; [CPU_FPU] |298| 
         0000000c 0008 
     760                      .dwpsn  file "C:/ti/ccs2031/ccs/tools/compiler/ti-cgt-c2000_22.6.2.LTS/include/math.h",line 299,colum
     761 0000000d 6507          B         ||$C$L1||,LEQ         ; [CPU_ALU] |299| 
     762                      ; branchcc occurs ; [] |299| 
     763 0000000e E801          MOVIZ     R1H,#16256            ; [CPU_FPU] |299| 
         0000000f FC01 
     764 00000010 E274          DIVF32    R0H,R1H,R0H           ; [CPU_FPU] |299| 
         00000011 0008 
     765 00000012 7700          NOP       ; [CPU_ALU] 
     766 00000013 7700          NOP       ; [CPU_ALU] 
     767 00000014       ||$C$L1||:    
     768 00000014 FE82          SUBB      SP,#2                 ; [CPU_ARAU] 
     769                      .dwcfi  cfa_offset, -2
     770              $C$DW$77        .dwtag  DW_TAG_TI_branch
     771                      .dwattr $C$DW$77, DW_AT_low_pc(0x00)
     772                      .dwattr $C$DW$77, DW_AT_TI_return
     773              
     774 00000015 0006          LRETR     ; [CPU_ALU] 
     775                      ; return occurs ; [] 
     776                      .dwattr $C$DW$71, DW_AT_TI_end_file("C:/ti/ccs2031/ccs/tools/compiler/ti-cgt-c2000_22.6.2.LTS/include
     777                      .dwattr $C$DW$71, DW_AT_TI_end_line(0x141)
     778                      .dwattr $C$DW$71, DW_AT_TI_end_column(0x01)
     779                      .dwendentry
     780                      .dwendtag $C$DW$71
     781              
     782 00000000               .sect   ".text:__relaxed_logf"
     783                      .clink
     784                      .global ||__relaxed_logf||
     785              
     786              $C$DW$78        .dwtag  DW_TAG_subprogram
     787                      .dwattr $C$DW$78, DW_AT_name("__relaxed_logf")
     788                      .dwattr $C$DW$78, DW_AT_low_pc(||__relaxed_logf||)
     789                      .dwattr $C$DW$78, DW_AT_high_pc(0x00)
     790                      .dwattr $C$DW$78, DW_AT_linkage_name("__relaxed_logf")
     791                      .dwattr $C$DW$78, DW_AT_external
     792                      .dwattr $C$DW$78, DW_AT_type(*$C$DW$T$16)
     793                      .dwattr $C$DW$78, DW_AT_decl_file("C:/ti/ccs2031/ccs/tools/compiler/ti-cgt-c2000_22.6.2.LTS/include/m
     794                      .dwattr $C$DW$78, DW_AT_decl_line(0x135)
     795                      .dwattr $C$DW$78, DW_AT_decl_column(0x10)
     796                      .dwattr $C$DW$78, DW_AT_TI_max_frame_size(-2)
     797                      .dwpsn  file "C:/ti/ccs2031/ccs/tools/compiler/ti-cgt-c2000_22.6.2.LTS/include/math.h",line 310,colum
     798              
     799                      .dwfde $C$DW$CIE, ||__relaxed_logf||
     800              $C$DW$79        .dwtag  DW_TAG_formal_parameter
     801                      .dwattr $C$DW$79, DW_AT_name("x")
     802                      .dwattr $C$DW$79, DW_AT_type(*$C$DW$T$16)
     803                      .dwattr $C$DW$79, DW_AT_location[DW_OP_regx 0x2b]
     804              
TMS320C2000 Assembler PC v22.6.2 Wed Dec 10 14:45:02 2025

Copyright (c) 1996-2018 Texas Instruments Incorporated
dual_axis_servo_drive_hal.asm                                        PAGE   16

     805              
     806              ;***************************************************************
     807              ;* FNAME: __relaxed_logf                FR SIZE:   0           *
     808              ;*                                                             *
     809              ;* FUNCTION ENVIRONMENT                                        *
     810              ;*                                                             *
     811              ;* FUNCTION PROPERTIES                                         *
     812              ;*                            0 Parameter,  0 Auto,  0 SOE     *
     813              ;***************************************************************
     814              
     815              ||__relaxed_logf||:
     816              ;* R0    assigned to x
     817              $C$DW$80        .dwtag  DW_TAG_variable
     818                      .dwattr $C$DW$80, DW_AT_name("x")
     819                      .dwattr $C$DW$80, DW_AT_type(*$C$DW$T$245)
     820                      .dwattr $C$DW$80, DW_AT_location[DW_OP_regx 0x2b]
     821              
     822                      .dwcfi  cfa_offset, -2
     823                      .dwcfi  save_reg_to_mem, 26, 0
     824                      .dwpsn  file "C:/ti/ccs2031/ccs/tools/compiler/ti-cgt-c2000_22.6.2.LTS/include/math.h",line 312,colum
     825 00000000 E272          LOG2F32   R1H,R0H               ; [CPU_FPU] |312| 
         00000001 0001 
     826 00000002 7700          NOP       ; [CPU_ALU] 
     827 00000003 E801          MOVIZ     R0H,#16177            ; [CPU_FPU] |312| 
         00000004 F988 
     828 00000005 E80B          MOVXI     R0H,#29205            ; [CPU_FPU] |312| 
         00000006 90A8 
     829 00000007 E700          MPYF32    R0H,R0H,R1H           ; [CPU_FPU] |312| 
         00000008 0040 
     830              $C$DW$81        .dwtag  DW_TAG_TI_branch
     831                      .dwattr $C$DW$81, DW_AT_low_pc(0x00)
     832                      .dwattr $C$DW$81, DW_AT_TI_return
     833              
     834 00000009 0006          LRETR     ; [CPU_ALU] 
     835                      ; return occurs ; [] 
     836                      .dwattr $C$DW$78, DW_AT_TI_end_file("C:/ti/ccs2031/ccs/tools/compiler/ti-cgt-c2000_22.6.2.LTS/include
     837                      .dwattr $C$DW$78, DW_AT_TI_end_line(0x139)
     838                      .dwattr $C$DW$78, DW_AT_TI_end_column(0x01)
     839                      .dwendentry
     840                      .dwendtag $C$DW$78
     841              
     842 00000000               .sect   ".text:__relaxed_log2f"
     843                      .clink
     844                      .global ||__relaxed_log2f||
     845              
     846              $C$DW$82        .dwtag  DW_TAG_subprogram
     847                      .dwattr $C$DW$82, DW_AT_name("__relaxed_log2f")
     848                      .dwattr $C$DW$82, DW_AT_low_pc(||__relaxed_log2f||)
     849                      .dwattr $C$DW$82, DW_AT_high_pc(0x00)
     850                      .dwattr $C$DW$82, DW_AT_linkage_name("__relaxed_log2f")
     851                      .dwattr $C$DW$82, DW_AT_external
     852                      .dwattr $C$DW$82, DW_AT_type(*$C$DW$T$16)
     853                      .dwattr $C$DW$82, DW_AT_decl_file("C:/ti/ccs2031/ccs/tools/compiler/ti-cgt-c2000_22.6.2.LTS/include/m
     854                      .dwattr $C$DW$82, DW_AT_decl_line(0x123)
     855                      .dwattr $C$DW$82, DW_AT_decl_column(0x10)
TMS320C2000 Assembler PC v22.6.2 Wed Dec 10 14:45:02 2025

Copyright (c) 1996-2018 Texas Instruments Incorporated
dual_axis_servo_drive_hal.asm                                        PAGE   17

     856                      .dwattr $C$DW$82, DW_AT_TI_max_frame_size(-2)
     857                      .dwpsn  file "C:/ti/ccs2031/ccs/tools/compiler/ti-cgt-c2000_22.6.2.LTS/include/math.h",line 292,colum
     858              
     859                      .dwfde $C$DW$CIE, ||__relaxed_log2f||
     860              $C$DW$83        .dwtag  DW_TAG_formal_parameter
     861                      .dwattr $C$DW$83, DW_AT_name("x")
     862                      .dwattr $C$DW$83, DW_AT_type(*$C$DW$T$16)
     863                      .dwattr $C$DW$83, DW_AT_location[DW_OP_regx 0x2b]
     864              
     865              
     866              ;***************************************************************
     867              ;* FNAME: __relaxed_log2f               FR SIZE:   0           *
     868              ;*                                                             *
     869              ;* FUNCTION ENVIRONMENT                                        *
     870              ;*                                                             *
     871              ;* FUNCTION PROPERTIES                                         *
     872              ;*                            0 Parameter,  0 Auto,  0 SOE     *
     873              ;***************************************************************
     874              
     875              ||__relaxed_log2f||:
     876              ;* R0    assigned to x
     877              $C$DW$84        .dwtag  DW_TAG_variable
     878                      .dwattr $C$DW$84, DW_AT_name("x")
     879                      .dwattr $C$DW$84, DW_AT_type(*$C$DW$T$245)
     880                      .dwattr $C$DW$84, DW_AT_location[DW_OP_regx 0x2b]
     881              
     882                      .dwcfi  cfa_offset, -2
     883                      .dwcfi  save_reg_to_mem, 26, 0
     884                      .dwpsn  file "C:/ti/ccs2031/ccs/tools/compiler/ti-cgt-c2000_22.6.2.LTS/include/math.h",line 293,colum
     885 00000000 E272          LOG2F32   R0H,R0H               ; [CPU_FPU] |293| 
         00000001 0000 
     886 00000002 7700          NOP       ; [CPU_ALU] 
     887 00000003 7700          NOP       ; [CPU_ALU] 
     888              $C$DW$85        .dwtag  DW_TAG_TI_branch
     889                      .dwattr $C$DW$85, DW_AT_low_pc(0x00)
     890                      .dwattr $C$DW$85, DW_AT_TI_return
     891              
     892 00000004 0006          LRETR     ; [CPU_ALU] 
     893                      ; return occurs ; [] 
     894                      .dwattr $C$DW$82, DW_AT_TI_end_file("C:/ti/ccs2031/ccs/tools/compiler/ti-cgt-c2000_22.6.2.LTS/include
     895                      .dwattr $C$DW$82, DW_AT_TI_end_line(0x126)
     896                      .dwattr $C$DW$82, DW_AT_TI_end_column(0x01)
     897                      .dwendentry
     898                      .dwendtag $C$DW$82
     899              
     900 00000000               .sect   ".text:__relaxed_fmodf"
     901                      .clink
     902                      .global ||__relaxed_fmodf||
     903              
     904              $C$DW$86        .dwtag  DW_TAG_subprogram
     905                      .dwattr $C$DW$86, DW_AT_name("__relaxed_fmodf")
     906                      .dwattr $C$DW$86, DW_AT_low_pc(||__relaxed_fmodf||)
     907                      .dwattr $C$DW$86, DW_AT_high_pc(0x00)
     908                      .dwattr $C$DW$86, DW_AT_linkage_name("__relaxed_fmodf")
     909                      .dwattr $C$DW$86, DW_AT_external
TMS320C2000 Assembler PC v22.6.2 Wed Dec 10 14:45:02 2025

Copyright (c) 1996-2018 Texas Instruments Incorporated
dual_axis_servo_drive_hal.asm                                        PAGE   18

     910                      .dwattr $C$DW$86, DW_AT_type(*$C$DW$T$16)
     911                      .dwattr $C$DW$86, DW_AT_decl_file("C:/ti/ccs2031/ccs/tools/compiler/ti-cgt-c2000_22.6.2.LTS/include/m
     912                      .dwattr $C$DW$86, DW_AT_decl_line(0x11c)
     913                      .dwattr $C$DW$86, DW_AT_decl_column(0x10)
     914                      .dwattr $C$DW$86, DW_AT_TI_max_frame_size(-2)
     915                      .dwpsn  file "C:/ti/ccs2031/ccs/tools/compiler/ti-cgt-c2000_22.6.2.LTS/include/math.h",line 285,colum
     916              
     917                      .dwfde $C$DW$CIE, ||__relaxed_fmodf||
     918              $C$DW$87        .dwtag  DW_TAG_formal_parameter
     919                      .dwattr $C$DW$87, DW_AT_name("y")
     920                      .dwattr $C$DW$87, DW_AT_type(*$C$DW$T$16)
     921                      .dwattr $C$DW$87, DW_AT_location[DW_OP_regx 0x2b]
     922              
     923              $C$DW$88        .dwtag  DW_TAG_formal_parameter
     924                      .dwattr $C$DW$88, DW_AT_name("x")
     925                      .dwattr $C$DW$88, DW_AT_type(*$C$DW$T$16)
     926                      .dwattr $C$DW$88, DW_AT_location[DW_OP_regx 0x2f]
     927              
     928              
     929              ;***************************************************************
     930              ;* FNAME: __relaxed_fmodf               FR SIZE:   0           *
     931              ;*                                                             *
     932              ;* FUNCTION ENVIRONMENT                                        *
     933              ;*                                                             *
     934              ;* FUNCTION PROPERTIES                                         *
     935              ;*                            0 Parameter,  0 Auto,  0 SOE     *
     936              ;***************************************************************
     937              
     938              ||__relaxed_fmodf||:
     939              ;* R0    assigned to y
     940              $C$DW$89        .dwtag  DW_TAG_variable
     941                      .dwattr $C$DW$89, DW_AT_name("y")
     942                      .dwattr $C$DW$89, DW_AT_type(*$C$DW$T$245)
     943                      .dwattr $C$DW$89, DW_AT_location[DW_OP_regx 0x2b]
     944              
     945              ;* R1    assigned to x
     946              $C$DW$90        .dwtag  DW_TAG_variable
     947                      .dwattr $C$DW$90, DW_AT_name("x")
     948                      .dwattr $C$DW$90, DW_AT_type(*$C$DW$T$245)
     949                      .dwattr $C$DW$90, DW_AT_location[DW_OP_regx 0x2f]
     950              
     951                      .dwcfi  cfa_offset, -2
     952                      .dwcfi  save_reg_to_mem, 26, 0
     953                      .dwpsn  file "C:/ti/ccs2031/ccs/tools/compiler/ti-cgt-c2000_22.6.2.LTS/include/math.h",line 286,colum
     954 00000000 E274          DIVF32    R2H,R0H,R1H           ; [CPU_FPU] |286| 
         00000001 0042 
     955 00000002 7700          NOP       ; [CPU_ALU] 
     956 00000003 7700          NOP       ; [CPU_ALU] 
     957 00000004 7700          NOP       ; [CPU_ALU] 
     958 00000005 7700          NOP       ; [CPU_ALU] 
     959 00000006 E688          F32TOI32  R2H,R2H               ; [CPU_FPU] |286| 
         00000007 0012 
     960 00000008 7700          NOP       ; [CPU_ALU] 
     961 00000009 E689          I32TOF32  R2H,R2H               ; [CPU_FPU] |286| 
         0000000a 0012 
TMS320C2000 Assembler PC v22.6.2 Wed Dec 10 14:45:02 2025

Copyright (c) 1996-2018 Texas Instruments Incorporated
dual_axis_servo_drive_hal.asm                                        PAGE   19

     962 0000000b 7700          NOP       ; [CPU_ALU] 
     963 0000000c E700          MPYF32    R1H,R1H,R2H           ; [CPU_FPU] |286| 
         0000000d 0089 
     964 0000000e 7700          NOP       ; [CPU_ALU] 
     965 0000000f E720          SUBF32    R0H,R0H,R1H           ; [CPU_FPU] |286| 
         00000010 0040 
     966              $C$DW$91        .dwtag  DW_TAG_TI_branch
     967                      .dwattr $C$DW$91, DW_AT_low_pc(0x00)
     968                      .dwattr $C$DW$91, DW_AT_TI_return
     969              
     970 00000011 0006          LRETR     ; [CPU_ALU] 
     971                      ; return occurs ; [] 
     972                      .dwattr $C$DW$86, DW_AT_TI_end_file("C:/ti/ccs2031/ccs/tools/compiler/ti-cgt-c2000_22.6.2.LTS/include
     973                      .dwattr $C$DW$86, DW_AT_TI_end_line(0x11f)
     974                      .dwattr $C$DW$86, DW_AT_TI_end_column(0x01)
     975                      .dwendentry
     976                      .dwendtag $C$DW$86
     977              
     978 00000000               .sect   ".text:__relaxed_fminf"
     979                      .clink
     980                      .global ||__relaxed_fminf||
     981              
     982              $C$DW$92        .dwtag  DW_TAG_subprogram
     983                      .dwattr $C$DW$92, DW_AT_name("__relaxed_fminf")
     984                      .dwattr $C$DW$92, DW_AT_low_pc(||__relaxed_fminf||)
     985                      .dwattr $C$DW$92, DW_AT_high_pc(0x00)
     986                      .dwattr $C$DW$92, DW_AT_linkage_name("__relaxed_fminf")
     987                      .dwattr $C$DW$92, DW_AT_external
     988                      .dwattr $C$DW$92, DW_AT_type(*$C$DW$T$16)
     989                      .dwattr $C$DW$92, DW_AT_decl_file("C:/ti/ccs2031/ccs/tools/compiler/ti-cgt-c2000_22.6.2.LTS/include/m
     990                      .dwattr $C$DW$92, DW_AT_decl_line(0xee)
     991                      .dwattr $C$DW$92, DW_AT_decl_column(0x10)
     992                      .dwattr $C$DW$92, DW_AT_TI_max_frame_size(-2)
     993                      .dwpsn  file "C:/ti/ccs2031/ccs/tools/compiler/ti-cgt-c2000_22.6.2.LTS/include/math.h",line 239,colum
     994              
     995                      .dwfde $C$DW$CIE, ||__relaxed_fminf||
     996              $C$DW$93        .dwtag  DW_TAG_formal_parameter
     997                      .dwattr $C$DW$93, DW_AT_name("x")
     998                      .dwattr $C$DW$93, DW_AT_type(*$C$DW$T$16)
     999                      .dwattr $C$DW$93, DW_AT_location[DW_OP_regx 0x2b]
    1000              
    1001              $C$DW$94        .dwtag  DW_TAG_formal_parameter
    1002                      .dwattr $C$DW$94, DW_AT_name("y")
    1003                      .dwattr $C$DW$94, DW_AT_type(*$C$DW$T$16)
    1004                      .dwattr $C$DW$94, DW_AT_location[DW_OP_regx 0x2f]
    1005              
    1006              
    1007              ;***************************************************************
    1008              ;* FNAME: __relaxed_fminf               FR SIZE:   0           *
    1009              ;*                                                             *
    1010              ;* FUNCTION ENVIRONMENT                                        *
    1011              ;*                                                             *
    1012              ;* FUNCTION PROPERTIES                                         *
    1013              ;*                            0 Parameter,  0 Auto,  0 SOE     *
    1014              ;***************************************************************
TMS320C2000 Assembler PC v22.6.2 Wed Dec 10 14:45:02 2025

Copyright (c) 1996-2018 Texas Instruments Incorporated
dual_axis_servo_drive_hal.asm                                        PAGE   20

    1015              
    1016              ||__relaxed_fminf||:
    1017              ;* R1    assigned to y
    1018              $C$DW$95        .dwtag  DW_TAG_variable
    1019                      .dwattr $C$DW$95, DW_AT_name("y")
    1020                      .dwattr $C$DW$95, DW_AT_type(*$C$DW$T$245)
    1021                      .dwattr $C$DW$95, DW_AT_location[DW_OP_regx 0x2f]
    1022              
    1023                      .dwcfi  cfa_offset, -2
    1024                      .dwcfi  save_reg_to_mem, 26, 0
    1025                      .dwpsn  file "C:/ti/ccs2031/ccs/tools/compiler/ti-cgt-c2000_22.6.2.LTS/include/math.h",line 240,colum
    1026 00000000 E697          MINF32    R0H,R1H               ; [CPU_FPU] |240| 
         00000001 0008 
    1027              $C$DW$96        .dwtag  DW_TAG_TI_branch
    1028                      .dwattr $C$DW$96, DW_AT_low_pc(0x00)
    1029                      .dwattr $C$DW$96, DW_AT_TI_return
    1030              
    1031 00000002 0006          LRETR     ; [CPU_ALU] 
    1032                      ; return occurs ; [] 
    1033                      .dwattr $C$DW$92, DW_AT_TI_end_file("C:/ti/ccs2031/ccs/tools/compiler/ti-cgt-c2000_22.6.2.LTS/include
    1034                      .dwattr $C$DW$92, DW_AT_TI_end_line(0xf1)
    1035                      .dwattr $C$DW$92, DW_AT_TI_end_column(0x01)
    1036                      .dwendentry
    1037                      .dwendtag $C$DW$92
    1038              
    1039 00000000               .sect   ".text:__relaxed_fmaxf"
    1040                      .clink
    1041                      .global ||__relaxed_fmaxf||
    1042              
    1043              $C$DW$97        .dwtag  DW_TAG_subprogram
    1044                      .dwattr $C$DW$97, DW_AT_name("__relaxed_fmaxf")
    1045                      .dwattr $C$DW$97, DW_AT_low_pc(||__relaxed_fmaxf||)
    1046                      .dwattr $C$DW$97, DW_AT_high_pc(0x00)
    1047                      .dwattr $C$DW$97, DW_AT_linkage_name("__relaxed_fmaxf")
    1048                      .dwattr $C$DW$97, DW_AT_external
    1049                      .dwattr $C$DW$97, DW_AT_type(*$C$DW$T$16)
    1050                      .dwattr $C$DW$97, DW_AT_decl_file("C:/ti/ccs2031/ccs/tools/compiler/ti-cgt-c2000_22.6.2.LTS/include/m
    1051                      .dwattr $C$DW$97, DW_AT_decl_line(0xe8)
    1052                      .dwattr $C$DW$97, DW_AT_decl_column(0x10)
    1053                      .dwattr $C$DW$97, DW_AT_TI_max_frame_size(-2)
    1054                      .dwpsn  file "C:/ti/ccs2031/ccs/tools/compiler/ti-cgt-c2000_22.6.2.LTS/include/math.h",line 233,colum
    1055              
    1056                      .dwfde $C$DW$CIE, ||__relaxed_fmaxf||
    1057              $C$DW$98        .dwtag  DW_TAG_formal_parameter
    1058                      .dwattr $C$DW$98, DW_AT_name("x")
    1059                      .dwattr $C$DW$98, DW_AT_type(*$C$DW$T$16)
    1060                      .dwattr $C$DW$98, DW_AT_location[DW_OP_regx 0x2b]
    1061              
    1062              $C$DW$99        .dwtag  DW_TAG_formal_parameter
    1063                      .dwattr $C$DW$99, DW_AT_name("y")
    1064                      .dwattr $C$DW$99, DW_AT_type(*$C$DW$T$16)
    1065                      .dwattr $C$DW$99, DW_AT_location[DW_OP_regx 0x2f]
    1066              
    1067              
    1068              ;***************************************************************
TMS320C2000 Assembler PC v22.6.2 Wed Dec 10 14:45:02 2025

Copyright (c) 1996-2018 Texas Instruments Incorporated
dual_axis_servo_drive_hal.asm                                        PAGE   21

    1069              ;* FNAME: __relaxed_fmaxf               FR SIZE:   0           *
    1070              ;*                                                             *
    1071              ;* FUNCTION ENVIRONMENT                                        *
    1072              ;*                                                             *
    1073              ;* FUNCTION PROPERTIES                                         *
    1074              ;*                            0 Parameter,  0 Auto,  0 SOE     *
    1075              ;***************************************************************
    1076              
    1077              ||__relaxed_fmaxf||:
    1078              ;* R1    assigned to y
    1079              $C$DW$100       .dwtag  DW_TAG_variable
    1080                      .dwattr $C$DW$100, DW_AT_name("y")
    1081                      .dwattr $C$DW$100, DW_AT_type(*$C$DW$T$245)
    1082                      .dwattr $C$DW$100, DW_AT_location[DW_OP_regx 0x2f]
    1083              
    1084                      .dwcfi  cfa_offset, -2
    1085                      .dwcfi  save_reg_to_mem, 26, 0
    1086                      .dwpsn  file "C:/ti/ccs2031/ccs/tools/compiler/ti-cgt-c2000_22.6.2.LTS/include/math.h",line 234,colum
    1087 00000000 E696          MAXF32    R0H,R1H               ; [CPU_FPU] |234| 
         00000001 0008 
    1088              $C$DW$101       .dwtag  DW_TAG_TI_branch
    1089                      .dwattr $C$DW$101, DW_AT_low_pc(0x00)
    1090                      .dwattr $C$DW$101, DW_AT_TI_return
    1091              
    1092 00000002 0006          LRETR     ; [CPU_ALU] 
    1093                      ; return occurs ; [] 
    1094                      .dwattr $C$DW$97, DW_AT_TI_end_file("C:/ti/ccs2031/ccs/tools/compiler/ti-cgt-c2000_22.6.2.LTS/include
    1095                      .dwattr $C$DW$97, DW_AT_TI_end_line(0xeb)
    1096                      .dwattr $C$DW$97, DW_AT_TI_end_column(0x01)
    1097                      .dwendentry
    1098                      .dwendtag $C$DW$97
    1099              
    1100 00000000               .sect   ".text:__relaxed_expf"
    1101                      .clink
    1102                      .global ||__relaxed_expf||
    1103              
    1104              $C$DW$102       .dwtag  DW_TAG_subprogram
    1105                      .dwattr $C$DW$102, DW_AT_name("__relaxed_expf")
    1106                      .dwattr $C$DW$102, DW_AT_low_pc(||__relaxed_expf||)
    1107                      .dwattr $C$DW$102, DW_AT_high_pc(0x00)
    1108                      .dwattr $C$DW$102, DW_AT_linkage_name("__relaxed_expf")
    1109                      .dwattr $C$DW$102, DW_AT_external
    1110                      .dwattr $C$DW$102, DW_AT_type(*$C$DW$T$16)
    1111                      .dwattr $C$DW$102, DW_AT_decl_file("C:/ti/ccs2031/ccs/tools/compiler/ti-cgt-c2000_22.6.2.LTS/include/
    1112                      .dwattr $C$DW$102, DW_AT_decl_line(0x12f)
    1113                      .dwattr $C$DW$102, DW_AT_decl_column(0x10)
    1114                      .dwattr $C$DW$102, DW_AT_TI_max_frame_size(-4)
    1115                      .dwpsn  file "C:/ti/ccs2031/ccs/tools/compiler/ti-cgt-c2000_22.6.2.LTS/include/math.h",line 304,colum
    1116              
    1117                      .dwfde $C$DW$CIE, ||__relaxed_expf||
    1118              $C$DW$103       .dwtag  DW_TAG_formal_parameter
    1119                      .dwattr $C$DW$103, DW_AT_name("x")
    1120                      .dwattr $C$DW$103, DW_AT_type(*$C$DW$T$16)
    1121                      .dwattr $C$DW$103, DW_AT_location[DW_OP_regx 0x2b]
    1122              
TMS320C2000 Assembler PC v22.6.2 Wed Dec 10 14:45:02 2025

Copyright (c) 1996-2018 Texas Instruments Incorporated
dual_axis_servo_drive_hal.asm                                        PAGE   22

    1123              
    1124              ;***************************************************************
    1125              ;* FNAME: __relaxed_expf                FR SIZE:   2           *
    1126              ;*                                                             *
    1127              ;* FUNCTION ENVIRONMENT                                        *
    1128              ;*                                                             *
    1129              ;* FUNCTION PROPERTIES                                         *
    1130              ;*                            2 Parameter,  0 Auto,  0 SOE     *
    1131              ;***************************************************************
    1132              
    1133              ||__relaxed_expf||:
    1134              ;* R1    assigned to $O$C2
    1135              ;* R0    assigned to $O$K3
    1136              ;* R0    assigned to $O$R1
    1137              ;* R0    assigned to x
    1138              $C$DW$104       .dwtag  DW_TAG_variable
    1139                      .dwattr $C$DW$104, DW_AT_name("x")
    1140                      .dwattr $C$DW$104, DW_AT_type(*$C$DW$T$245)
    1141                      .dwattr $C$DW$104, DW_AT_location[DW_OP_regx 0x2b]
    1142              
    1143              ;* R0    assigned to iexp2f
    1144              $C$DW$105       .dwtag  DW_TAG_variable
    1145                      .dwattr $C$DW$105, DW_AT_name("iexp2f")
    1146                      .dwattr $C$DW$105, DW_AT_type(*$C$DW$T$16)
    1147                      .dwattr $C$DW$105, DW_AT_location[DW_OP_regx 0x2b]
    1148              
    1149                      .dwcfi  cfa_offset, -2
    1150                      .dwcfi  save_reg_to_mem, 26, 0
    1151 00000000 FE02          ADDB      SP,#2                 ; [CPU_ARAU] 
    1152                      .dwcfi  cfa_offset, -4
    1153                      .dwpsn  file "C:/ti/ccs2031/ccs/tools/compiler/ti-cgt-c2000_22.6.2.LTS/include/math.h",line 298,colum
    1154 00000001 E801          MOVIZ     R1H,#16312            ; [CPU_FPU] |298| 
         00000002 FDC1 
    1155 00000003 E80D          MOVXI     R1H,#43537            ; [CPU_FPU] |298| 
         00000004 5089 
    1156 00000005 E700          MPYF32    R1H,R1H,R0H           ; [CPU_FPU] |298| 
         00000006 0009 
    1157 00000007 7700          NOP       ; [CPU_ALU] 
    1158                      .dwpsn  file "C:/ti/ccs2031/ccs/tools/compiler/ti-cgt-c2000_22.6.2.LTS/include/math.h",line 299,colum
    1159 00000008 E5A1          CMPF32    R1H,#0                ; [CPU_FPU] |299| 
    1160 00000009 AD14          MOVST0    ZF, NF                ; [CPU_FPU] |299| 
    1161                      .dwpsn  file "C:/ti/ccs2031/ccs/tools/compiler/ti-cgt-c2000_22.6.2.LTS/include/math.h",line 298,colum
    1162 0000000a E273          IEXP2F32  R0H,R1H               ; [CPU_FPU] |298| 
         0000000b 0008 
    1163                      .dwpsn  file "C:/ti/ccs2031/ccs/tools/compiler/ti-cgt-c2000_22.6.2.LTS/include/math.h",line 299,colum
    1164 0000000c 6507          B         ||$C$L2||,LEQ         ; [CPU_ALU] |299| 
    1165                      ; branchcc occurs ; [] |299| 
    1166 0000000d E801          MOVIZ     R1H,#16256            ; [CPU_FPU] |299| 
         0000000e FC01 
    1167 0000000f E274          DIVF32    R0H,R1H,R0H           ; [CPU_FPU] |299| 
         00000010 0008 
    1168 00000011 7700          NOP       ; [CPU_ALU] 
    1169 00000012 7700          NOP       ; [CPU_ALU] 
    1170 00000013       ||$C$L2||:    
    1171 00000013 FE82          SUBB      SP,#2                 ; [CPU_ARAU] 
TMS320C2000 Assembler PC v22.6.2 Wed Dec 10 14:45:02 2025

Copyright (c) 1996-2018 Texas Instruments Incorporated
dual_axis_servo_drive_hal.asm                                        PAGE   23

    1172                      .dwcfi  cfa_offset, -2
    1173              $C$DW$106       .dwtag  DW_TAG_TI_branch
    1174                      .dwattr $C$DW$106, DW_AT_low_pc(0x00)
    1175                      .dwattr $C$DW$106, DW_AT_TI_return
    1176              
    1177 00000014 0006          LRETR     ; [CPU_ALU] 
    1178                      ; return occurs ; [] 
    1179                      .dwattr $C$DW$102, DW_AT_TI_end_file("C:/ti/ccs2031/ccs/tools/compiler/ti-cgt-c2000_22.6.2.LTS/includ
    1180                      .dwattr $C$DW$102, DW_AT_TI_end_line(0x133)
    1181                      .dwattr $C$DW$102, DW_AT_TI_end_column(0x01)
    1182                      .dwendentry
    1183                      .dwendtag $C$DW$102
    1184              
    1185 00000000               .sect   ".text:__relaxed_cosf"
    1186                      .clink
    1187                      .global ||__relaxed_cosf||
    1188              
    1189              $C$DW$107       .dwtag  DW_TAG_subprogram
    1190                      .dwattr $C$DW$107, DW_AT_name("__relaxed_cosf")
    1191                      .dwattr $C$DW$107, DW_AT_low_pc(||__relaxed_cosf||)
    1192                      .dwattr $C$DW$107, DW_AT_high_pc(0x00)
    1193                      .dwattr $C$DW$107, DW_AT_linkage_name("__relaxed_cosf")
    1194                      .dwattr $C$DW$107, DW_AT_external
    1195                      .dwattr $C$DW$107, DW_AT_type(*$C$DW$T$16)
    1196                      .dwattr $C$DW$107, DW_AT_decl_file("C:/ti/ccs2031/ccs/tools/compiler/ti-cgt-c2000_22.6.2.LTS/include/
    1197                      .dwattr $C$DW$107, DW_AT_decl_line(0x10d)
    1198                      .dwattr $C$DW$107, DW_AT_decl_column(0x10)
    1199                      .dwattr $C$DW$107, DW_AT_TI_max_frame_size(-2)
    1200                      .dwpsn  file "C:/ti/ccs2031/ccs/tools/compiler/ti-cgt-c2000_22.6.2.LTS/include/math.h",line 270,colum
    1201              
    1202                      .dwfde $C$DW$CIE, ||__relaxed_cosf||
    1203              $C$DW$108       .dwtag  DW_TAG_formal_parameter
    1204                      .dwattr $C$DW$108, DW_AT_name("x")
    1205                      .dwattr $C$DW$108, DW_AT_type(*$C$DW$T$16)
    1206                      .dwattr $C$DW$108, DW_AT_location[DW_OP_regx 0x2b]
    1207              
    1208              
    1209              ;***************************************************************
    1210              ;* FNAME: __relaxed_cosf                FR SIZE:   0           *
    1211              ;*                                                             *
    1212              ;* FUNCTION ENVIRONMENT                                        *
    1213              ;*                                                             *
    1214              ;* FUNCTION PROPERTIES                                         *
    1215              ;*                            0 Parameter,  0 Auto,  0 SOE     *
    1216              ;***************************************************************
    1217              
    1218              ||__relaxed_cosf||:
    1219              ;* R0    assigned to x
    1220              $C$DW$109       .dwtag  DW_TAG_variable
    1221                      .dwattr $C$DW$109, DW_AT_name("x")
    1222                      .dwattr $C$DW$109, DW_AT_type(*$C$DW$T$245)
    1223                      .dwattr $C$DW$109, DW_AT_location[DW_OP_regx 0x2b]
    1224              
    1225                      .dwcfi  cfa_offset, -2
    1226                      .dwcfi  save_reg_to_mem, 26, 0
TMS320C2000 Assembler PC v22.6.2 Wed Dec 10 14:45:02 2025

Copyright (c) 1996-2018 Texas Instruments Incorporated
dual_axis_servo_drive_hal.asm                                        PAGE   24

    1227                      .dwpsn  file "C:/ti/ccs2031/ccs/tools/compiler/ti-cgt-c2000_22.6.2.LTS/include/math.h",line 271,colum
    1228 00000000 E271          DIV2PIF32 R0H,R0H               ; [CPU_FPU] |271| 
         00000001 0000 
    1229 00000002 7700          NOP       ; [CPU_ALU] 
    1230 00000003 E279          COSPUF32  R0H,R0H               ; [CPU_FPU] |271| 
         00000004 0000 
    1231 00000005 7700          NOP       ; [CPU_ALU] 
    1232 00000006 7700          NOP       ; [CPU_ALU] 
    1233              $C$DW$110       .dwtag  DW_TAG_TI_branch
    1234                      .dwattr $C$DW$110, DW_AT_low_pc(0x00)
    1235                      .dwattr $C$DW$110, DW_AT_TI_return
    1236              
    1237 00000007 0006          LRETR     ; [CPU_ALU] 
    1238                      ; return occurs ; [] 
    1239                      .dwattr $C$DW$107, DW_AT_TI_end_file("C:/ti/ccs2031/ccs/tools/compiler/ti-cgt-c2000_22.6.2.LTS/includ
    1240                      .dwattr $C$DW$107, DW_AT_TI_end_line(0x110)
    1241                      .dwattr $C$DW$107, DW_AT_TI_end_column(0x01)
    1242                      .dwendentry
    1243                      .dwendtag $C$DW$107
    1244              
    1245 00000000               .sect   ".text:__relaxed_atanf"
    1246                      .clink
    1247                      .global ||__relaxed_atanf||
    1248              
    1249              $C$DW$111       .dwtag  DW_TAG_subprogram
    1250                      .dwattr $C$DW$111, DW_AT_name("__relaxed_atanf")
    1251                      .dwattr $C$DW$111, DW_AT_low_pc(||__relaxed_atanf||)
    1252                      .dwattr $C$DW$111, DW_AT_high_pc(0x00)
    1253                      .dwattr $C$DW$111, DW_AT_linkage_name("__relaxed_atanf")
    1254                      .dwattr $C$DW$111, DW_AT_external
    1255                      .dwattr $C$DW$111, DW_AT_type(*$C$DW$T$16)
    1256                      .dwattr $C$DW$111, DW_AT_decl_file("C:/ti/ccs2031/ccs/tools/compiler/ti-cgt-c2000_22.6.2.LTS/include/
    1257                      .dwattr $C$DW$111, DW_AT_decl_line(0x112)
    1258                      .dwattr $C$DW$111, DW_AT_decl_column(0x10)
    1259                      .dwattr $C$DW$111, DW_AT_TI_max_frame_size(-2)
    1260                      .dwpsn  file "C:/ti/ccs2031/ccs/tools/compiler/ti-cgt-c2000_22.6.2.LTS/include/math.h",line 275,colum
    1261              
    1262                      .dwfde $C$DW$CIE, ||__relaxed_atanf||
    1263              $C$DW$112       .dwtag  DW_TAG_formal_parameter
    1264                      .dwattr $C$DW$112, DW_AT_name("x")
    1265                      .dwattr $C$DW$112, DW_AT_type(*$C$DW$T$16)
    1266                      .dwattr $C$DW$112, DW_AT_location[DW_OP_regx 0x2b]
    1267              
    1268              
    1269              ;***************************************************************
    1270              ;* FNAME: __relaxed_atanf               FR SIZE:   0           *
    1271              ;*                                                             *
    1272              ;* FUNCTION ENVIRONMENT                                        *
    1273              ;*                                                             *
    1274              ;* FUNCTION PROPERTIES                                         *
    1275              ;*                            0 Parameter,  0 Auto,  0 SOE     *
    1276              ;***************************************************************
    1277              
    1278              ||__relaxed_atanf||:
    1279              ;* R0    assigned to x
TMS320C2000 Assembler PC v22.6.2 Wed Dec 10 14:45:02 2025

Copyright (c) 1996-2018 Texas Instruments Incorporated
dual_axis_servo_drive_hal.asm                                        PAGE   25

    1280              $C$DW$113       .dwtag  DW_TAG_variable
    1281                      .dwattr $C$DW$113, DW_AT_name("x")
    1282                      .dwattr $C$DW$113, DW_AT_type(*$C$DW$T$245)
    1283                      .dwattr $C$DW$113, DW_AT_location[DW_OP_regx 0x2b]
    1284              
    1285                      .dwcfi  cfa_offset, -2
    1286                      .dwcfi  save_reg_to_mem, 26, 0
    1287                      .dwpsn  file "C:/ti/ccs2031/ccs/tools/compiler/ti-cgt-c2000_22.6.2.LTS/include/math.h",line 276,colum
    1288 00000000 E801          MOVIZ     R1H,#16256            ; [CPU_FPU] |276| 
         00000001 FC01 
    1289 00000002 E27C          QUADF32   R1H,R0H,R0H,R1H       ; [CPU_FPU] |276| 
         00000003 0201 
    1290 00000004 7700          NOP       ; [CPU_ALU] 
    1291 00000005 7700          NOP       ; [CPU_ALU] 
    1292 00000006 7700          NOP       ; [CPU_ALU] 
    1293 00000007 7700          NOP       ; [CPU_ALU] 
    1294 00000008 E27A          ATANPUF32 R0H,R0H               ; [CPU_FPU] |276| 
         00000009 0000 
    1295 0000000a 7700          NOP       ; [CPU_ALU] 
    1296 0000000b 7700          NOP       ; [CPU_ALU] 
    1297 0000000c 7700          NOP       ; [CPU_ALU] 
    1298 0000000d E710          ADDF32    R0H,R0H,R1H           ; [CPU_FPU] |276| 
         0000000e 0040 
    1299 0000000f 7700          NOP       ; [CPU_ALU] 
    1300 00000010 7700          NOP       ; [CPU_ALU] 
    1301 00000011 E270          MPY2PIF32 R0H,R0H               ; [CPU_FPU] |276| 
         00000012 0000 
    1302 00000013 7700          NOP       ; [CPU_ALU] 
    1303              $C$DW$114       .dwtag  DW_TAG_TI_branch
    1304                      .dwattr $C$DW$114, DW_AT_low_pc(0x00)
    1305                      .dwattr $C$DW$114, DW_AT_TI_return
    1306              
    1307 00000014 0006          LRETR     ; [CPU_ALU] 
    1308                      ; return occurs ; [] 
    1309                      .dwattr $C$DW$111, DW_AT_TI_end_file("C:/ti/ccs2031/ccs/tools/compiler/ti-cgt-c2000_22.6.2.LTS/includ
    1310                      .dwattr $C$DW$111, DW_AT_TI_end_line(0x115)
    1311                      .dwattr $C$DW$111, DW_AT_TI_end_column(0x01)
    1312                      .dwendentry
    1313                      .dwendtag $C$DW$111
    1314              
    1315 00000000               .sect   ".text:__relaxed_atan2f"
    1316                      .clink
    1317                      .global ||__relaxed_atan2f||
    1318              
    1319              $C$DW$115       .dwtag  DW_TAG_subprogram
    1320                      .dwattr $C$DW$115, DW_AT_name("__relaxed_atan2f")
    1321                      .dwattr $C$DW$115, DW_AT_low_pc(||__relaxed_atan2f||)
    1322                      .dwattr $C$DW$115, DW_AT_high_pc(0x00)
    1323                      .dwattr $C$DW$115, DW_AT_linkage_name("__relaxed_atan2f")
    1324                      .dwattr $C$DW$115, DW_AT_external
    1325                      .dwattr $C$DW$115, DW_AT_type(*$C$DW$T$16)
    1326                      .dwattr $C$DW$115, DW_AT_decl_file("C:/ti/ccs2031/ccs/tools/compiler/ti-cgt-c2000_22.6.2.LTS/include/
    1327                      .dwattr $C$DW$115, DW_AT_decl_line(0x117)
    1328                      .dwattr $C$DW$115, DW_AT_decl_column(0x10)
    1329                      .dwattr $C$DW$115, DW_AT_TI_max_frame_size(-2)
TMS320C2000 Assembler PC v22.6.2 Wed Dec 10 14:45:02 2025

Copyright (c) 1996-2018 Texas Instruments Incorporated
dual_axis_servo_drive_hal.asm                                        PAGE   26

    1330                      .dwpsn  file "C:/ti/ccs2031/ccs/tools/compiler/ti-cgt-c2000_22.6.2.LTS/include/math.h",line 280,colum
    1331              
    1332                      .dwfde $C$DW$CIE, ||__relaxed_atan2f||
    1333              $C$DW$116       .dwtag  DW_TAG_formal_parameter
    1334                      .dwattr $C$DW$116, DW_AT_name("y")
    1335                      .dwattr $C$DW$116, DW_AT_type(*$C$DW$T$16)
    1336                      .dwattr $C$DW$116, DW_AT_location[DW_OP_regx 0x2b]
    1337              
    1338              $C$DW$117       .dwtag  DW_TAG_formal_parameter
    1339                      .dwattr $C$DW$117, DW_AT_name("x")
    1340                      .dwattr $C$DW$117, DW_AT_type(*$C$DW$T$16)
    1341                      .dwattr $C$DW$117, DW_AT_location[DW_OP_regx 0x2f]
    1342              
    1343              
    1344              ;***************************************************************
    1345              ;* FNAME: __relaxed_atan2f              FR SIZE:   0           *
    1346              ;*                                                             *
    1347              ;* FUNCTION ENVIRONMENT                                        *
    1348              ;*                                                             *
    1349              ;* FUNCTION PROPERTIES                                         *
    1350              ;*                            0 Parameter,  0 Auto,  0 SOE     *
    1351              ;***************************************************************
    1352              
    1353              ||__relaxed_atan2f||:
    1354              ;* R0    assigned to y
    1355              $C$DW$118       .dwtag  DW_TAG_variable
    1356                      .dwattr $C$DW$118, DW_AT_name("y")
    1357                      .dwattr $C$DW$118, DW_AT_type(*$C$DW$T$245)
    1358                      .dwattr $C$DW$118, DW_AT_location[DW_OP_regx 0x2b]
    1359              
    1360              ;* R1    assigned to x
    1361              $C$DW$119       .dwtag  DW_TAG_variable
    1362                      .dwattr $C$DW$119, DW_AT_name("x")
    1363                      .dwattr $C$DW$119, DW_AT_type(*$C$DW$T$245)
    1364                      .dwattr $C$DW$119, DW_AT_location[DW_OP_regx 0x2f]
    1365              
    1366                      .dwcfi  cfa_offset, -2
    1367                      .dwcfi  save_reg_to_mem, 26, 0
    1368                      .dwpsn  file "C:/ti/ccs2031/ccs/tools/compiler/ti-cgt-c2000_22.6.2.LTS/include/math.h",line 281,colum
    1369 00000000 E27C          QUADF32   R1H,R0H,R0H,R1H       ; [CPU_FPU] |281| 
         00000001 0201 
    1370 00000002 7700          NOP       ; [CPU_ALU] 
    1371 00000003 7700          NOP       ; [CPU_ALU] 
    1372 00000004 7700          NOP       ; [CPU_ALU] 
    1373 00000005 7700          NOP       ; [CPU_ALU] 
    1374 00000006 E27A          ATANPUF32 R0H,R0H               ; [CPU_FPU] |281| 
         00000007 0000 
    1375 00000008 7700          NOP       ; [CPU_ALU] 
    1376 00000009 7700          NOP       ; [CPU_ALU] 
    1377 0000000a 7700          NOP       ; [CPU_ALU] 
    1378 0000000b E710          ADDF32    R0H,R0H,R1H           ; [CPU_FPU] |281| 
         0000000c 0040 
    1379 0000000d 7700          NOP       ; [CPU_ALU] 
    1380 0000000e 7700          NOP       ; [CPU_ALU] 
    1381 0000000f E270          MPY2PIF32 R0H,R0H               ; [CPU_FPU] |281| 
TMS320C2000 Assembler PC v22.6.2 Wed Dec 10 14:45:02 2025

Copyright (c) 1996-2018 Texas Instruments Incorporated
dual_axis_servo_drive_hal.asm                                        PAGE   27

         00000010 0000 
    1382 00000011 7700          NOP       ; [CPU_ALU] 
    1383              $C$DW$120       .dwtag  DW_TAG_TI_branch
    1384                      .dwattr $C$DW$120, DW_AT_low_pc(0x00)
    1385                      .dwattr $C$DW$120, DW_AT_TI_return
    1386              
    1387 00000012 0006          LRETR     ; [CPU_ALU] 
    1388                      ; return occurs ; [] 
    1389                      .dwattr $C$DW$115, DW_AT_TI_end_file("C:/ti/ccs2031/ccs/tools/compiler/ti-cgt-c2000_22.6.2.LTS/includ
    1390                      .dwattr $C$DW$115, DW_AT_TI_end_line(0x11a)
    1391                      .dwattr $C$DW$115, DW_AT_TI_end_column(0x01)
    1392                      .dwendentry
    1393                      .dwendtag $C$DW$115
    1394              
    1395 00000000               .sect   ".text:__isnormall"
    1396                      .clink
    1397                      .global ||__isnormall||
    1398              
    1399              $C$DW$121       .dwtag  DW_TAG_subprogram
    1400                      .dwattr $C$DW$121, DW_AT_name("__isnormall")
    1401                      .dwattr $C$DW$121, DW_AT_low_pc(||__isnormall||)
    1402                      .dwattr $C$DW$121, DW_AT_high_pc(0x00)
    1403                      .dwattr $C$DW$121, DW_AT_linkage_name("__isnormall")
    1404                      .dwattr $C$DW$121, DW_AT_external
    1405                      .dwattr $C$DW$121, DW_AT_type(*$C$DW$T$10)
    1406                      .dwattr $C$DW$121, DW_AT_decl_file("C:/ti/ccs2031/ccs/tools/compiler/ti-cgt-c2000_22.6.2.LTS/include/
    1407                      .dwattr $C$DW$121, DW_AT_decl_line(0x167)
    1408                      .dwattr $C$DW$121, DW_AT_decl_column(0x18)
    1409                      .dwattr $C$DW$121, DW_AT_TI_max_frame_size(-6)
    1410                      .dwpsn  file "C:/ti/ccs2031/ccs/tools/compiler/ti-cgt-c2000_22.6.2.LTS/include/_defs.h",line 360,colu
    1411              
    1412                      .dwfde $C$DW$CIE, ||__isnormall||
    1413              $C$DW$122       .dwtag  DW_TAG_formal_parameter
    1414                      .dwattr $C$DW$122, DW_AT_name("e")
    1415                      .dwattr $C$DW$122, DW_AT_type(*$C$DW$T$249)
    1416                      .dwattr $C$DW$122, DW_AT_location[DW_OP_reg12]
    1417              
    1418              
    1419              ;***************************************************************
    1420              ;* FNAME: __isnormall                   FR SIZE:   4           *
    1421              ;*                                                             *
    1422              ;* FUNCTION ENVIRONMENT                                        *
    1423              ;*                                                             *
    1424              ;* FUNCTION PROPERTIES                                         *
    1425              ;*                            4 Parameter,  0 Auto,  0 SOE     *
    1426              ;***************************************************************
    1427              
    1428              ||__isnormall||:
    1429              ;* AR5   assigned to $O$C2
    1430              ;* AR6   assigned to $O$S1
    1431              ;* AR4   assigned to e
    1432              $C$DW$123       .dwtag  DW_TAG_variable
    1433                      .dwattr $C$DW$123, DW_AT_name("e")
    1434                      .dwattr $C$DW$123, DW_AT_type(*$C$DW$T$250)
    1435                      .dwattr $C$DW$123, DW_AT_location[DW_OP_reg12]
TMS320C2000 Assembler PC v22.6.2 Wed Dec 10 14:45:02 2025

Copyright (c) 1996-2018 Texas Instruments Incorporated
dual_axis_servo_drive_hal.asm                                        PAGE   28

    1436              
    1437                      .dwcfi  cfa_offset, -2
    1438                      .dwcfi  save_reg_to_mem, 26, 0
    1439 00000000 FE04          ADDB      SP,#4                 ; [CPU_ARAU] 
    1440                      .dwcfi  cfa_offset, -6
    1441                      .dwpsn  file "C:/ti/ccs2031/ccs/tools/compiler/ti-cgt-c2000_22.6.2.LTS/include/_defs.h",line 360,colu
    1442 00000001 83C4          MOVL      XAR5,*+XAR4[0]        ; [CPU_ALU] |360| 
    1443 00000002 8AD4          MOVL      XAR4,*+XAR4[2]        ; [CPU_ALU] |360| 
    1444 00000003 BE00          MOVB      XAR6,#0               ; [CPU_ALU] |360| 
    1445 00000004 28AC          MOV       T,#52                 ; [CPU_ALU] |360| 
         00000005 0034 
    1446 00000006 A0AB          MOVL      P,XAR5                ; [CPU_ALU] |360| 
    1447 00000007 A8A9          MOVL      ACC,XAR4              ; [CPU_ALU] |360| 
    1448 00000008 C244          MOVL      *-SP[4],XAR6          ; [CPU_ALU] |360| 
    1449 00000009 2B42          MOV       *-SP[2],#0            ; [CPU_ALU] |360| 
    1450 0000000a 565B          LSR64     ACC:P,T               ; [CPU_ALU] |360| 
    1451 0000000b 2B41          MOV       *-SP[1],#0            ; [CPU_FPU] |360| 
    1452 0000000c 9000          ANDB      AL,#0                 ; [CPU_ALU] |360| 
    1453 0000000d 9100          ANDB      AH,#0                 ; [CPU_ALU] |360| 
    1454 0000000e 18AB          AND       PL,#2047              ; [CPU_ALU] |360| 
         0000000f 07FF 
    1455 00000010 18AA          AND       PH,#0                 ; [CPU_ALU] |360| 
         00000011 0000 
    1456              $C$DW$124       .dwtag  DW_TAG_TI_branch
    1457                      .dwattr $C$DW$124, DW_AT_low_pc(0x00)
    1458                      .dwattr $C$DW$124, DW_AT_name("__c28xabi_cmpull")
    1459                      .dwattr $C$DW$124, DW_AT_TI_call
    1460              
    1461 00000012 7640!         LCR       #||__c28xabi_cmpull|| ; [CPU_ALU] |360| 
         00000013 0000 
    1462                      ; call occurs [#||__c28xabi_cmpull||] ; [] |360| 
    1463 00000014 BE00          MOVB      XAR6,#0               ; [CPU_ALU] |360| 
    1464 00000015 5200          CMPB      AL,#0                 ; [CPU_ALU] |360| 
    1465 00000016 610E          B         ||$C$L3||,EQ          ; [CPU_ALU] |360| 
    1466                      ; branchcc occurs ; [] |360| 
    1467 00000017 A0AB          MOVL      P,XAR5                ; [CPU_ALU] |360| 
    1468 00000018 A8A9          MOVL      ACC,XAR4              ; [CPU_ALU] |360| 
    1469 00000019 28AC          MOV       T,#48                 ; [CPU_ALU] |360| 
         0000001a 0030 
    1470 0000001b 565B          LSR64     ACC:P,T               ; [CPU_ALU] |360| 
    1471 0000001c 18AB          AND       PL,#0x7ff0            ; [CPU_ALU] |360| 
         0000001d 7FF0 
    1472 0000001e 80AB          MOVZ      AR7,PL                ; [CPU_ALU] |360| 
    1473 0000001f FF20          MOV       ACC,#32752            ; [CPU_ALU] |360| 
         00000020 7FF0 
    1474 00000021 0FA7          CMPL      ACC,XAR7              ; [CPU_ALU] |360| 
    1475 00000022 56B0          MOVB      XAR6,#1,NEQ           ; [CPU_ALU] |360| 
         00000023 01A6 
    1476 00000024       ||$C$L3||:    
    1477 00000024 FE84          SUBB      SP,#4                 ; [CPU_ARAU] 
    1478                      .dwcfi  cfa_offset, -2
    1479 00000025 92A6          MOV       AL,AR6                ; [CPU_ALU] |360| 
    1480              $C$DW$125       .dwtag  DW_TAG_TI_branch
    1481                      .dwattr $C$DW$125, DW_AT_low_pc(0x00)
    1482                      .dwattr $C$DW$125, DW_AT_TI_return
TMS320C2000 Assembler PC v22.6.2 Wed Dec 10 14:45:02 2025

Copyright (c) 1996-2018 Texas Instruments Incorporated
dual_axis_servo_drive_hal.asm                                        PAGE   29

    1483              
    1484 00000026 0006          LRETR     ; [CPU_ALU] 
    1485                      ; return occurs ; [] 
    1486                      .dwattr $C$DW$121, DW_AT_TI_end_file("C:/ti/ccs2031/ccs/tools/compiler/ti-cgt-c2000_22.6.2.LTS/includ
    1487                      .dwattr $C$DW$121, DW_AT_TI_end_line(0x169)
    1488                      .dwattr $C$DW$121, DW_AT_TI_end_column(0x31)
    1489                      .dwendentry
    1490                      .dwendtag $C$DW$121
    1491              
    1492 00000000               .sect   ".text:__isnormalf"
    1493                      .clink
    1494                      .global ||__isnormalf||
    1495              
    1496              $C$DW$126       .dwtag  DW_TAG_subprogram
    1497                      .dwattr $C$DW$126, DW_AT_name("__isnormalf")
    1498                      .dwattr $C$DW$126, DW_AT_low_pc(||__isnormalf||)
    1499                      .dwattr $C$DW$126, DW_AT_high_pc(0x00)
    1500                      .dwattr $C$DW$126, DW_AT_linkage_name("__isnormalf")
    1501                      .dwattr $C$DW$126, DW_AT_external
    1502                      .dwattr $C$DW$126, DW_AT_type(*$C$DW$T$10)
    1503                      .dwattr $C$DW$126, DW_AT_decl_file("C:/ti/ccs2031/ccs/tools/compiler/ti-cgt-c2000_22.6.2.LTS/include/
    1504                      .dwattr $C$DW$126, DW_AT_decl_line(0x163)
    1505                      .dwattr $C$DW$126, DW_AT_decl_column(0x18)
    1506                      .dwattr $C$DW$126, DW_AT_TI_max_frame_size(-2)
    1507                      .dwpsn  file "C:/ti/ccs2031/ccs/tools/compiler/ti-cgt-c2000_22.6.2.LTS/include/_defs.h",line 356,colu
    1508              
    1509                      .dwfde $C$DW$CIE, ||__isnormalf||
    1510              $C$DW$127       .dwtag  DW_TAG_formal_parameter
    1511                      .dwattr $C$DW$127, DW_AT_name("f")
    1512                      .dwattr $C$DW$127, DW_AT_type(*$C$DW$T$16)
    1513                      .dwattr $C$DW$127, DW_AT_location[DW_OP_regx 0x2b]
    1514              
    1515              
    1516              ;***************************************************************
    1517              ;* FNAME: __isnormalf                   FR SIZE:   0           *
    1518              ;*                                                             *
    1519              ;* FUNCTION ENVIRONMENT                                        *
    1520              ;*                                                             *
    1521              ;* FUNCTION PROPERTIES                                         *
    1522              ;*                            0 Parameter,  0 Auto,  0 SOE     *
    1523              ;***************************************************************
    1524              
    1525              ||__isnormalf||:
    1526              ;* PL    assigned to $O$K3
    1527              ;* AR6   assigned to $O$S1
    1528              ;* R0    assigned to f
    1529              $C$DW$128       .dwtag  DW_TAG_variable
    1530                      .dwattr $C$DW$128, DW_AT_name("f")
    1531                      .dwattr $C$DW$128, DW_AT_type(*$C$DW$T$245)
    1532                      .dwattr $C$DW$128, DW_AT_location[DW_OP_regx 0x2b]
    1533              
    1534                      .dwcfi  cfa_offset, -2
    1535                      .dwcfi  save_reg_to_mem, 26, 0
    1536                      .dwpsn  file "C:/ti/ccs2031/ccs/tools/compiler/ti-cgt-c2000_22.6.2.LTS/include/_defs.h",line 356,colu
    1537 00000000 BFAB          MOV32     P,R0H                 ; [CPU_FPU] |356| 
TMS320C2000 Assembler PC v22.6.2 Wed Dec 10 14:45:02 2025

Copyright (c) 1996-2018 Texas Instruments Incorporated
dual_axis_servo_drive_hal.asm                                        PAGE   30

         00000001 0F12 
    1538 00000002 28AC          MOV       T,#23                 ; [CPU_ALU] |356| 
         00000003 0017 
    1539 00000004 A9A9          MOVL      ACC,P                 ; [CPU_ALU] |356| 
    1540 00000005 BE00          MOVB      XAR6,#0               ; [CPU_ALU] |356| 
    1541 00000006 5622          LSRL      ACC,T                 ; [CPU_ALU] |356| 
    1542 00000007 90FF          ANDB      AL,#0xff              ; [CPU_ALU] |356| 
    1543 00000008 6109          B         ||$C$L4||,EQ          ; [CPU_ALU] |356| 
    1544                      ; branchcc occurs ; [] |356| 
    1545 00000009 CCAA          AND       AL,PH,#0x7f80         ; [CPU_ALU] |356| 
         0000000a 7F80 
    1546 0000000b 80A9          MOVZ      AR7,AL                ; [CPU_ALU] |356| 
    1547 0000000c FF20          MOV       ACC,#32640            ; [CPU_ALU] |356| 
         0000000d 7F80 
    1548 0000000e 0FA7          CMPL      ACC,XAR7              ; [CPU_ALU] |356| 
    1549 0000000f 56B0          MOVB      XAR6,#1,NEQ           ; [CPU_ALU] |356| 
         00000010 01A6 
    1550 00000011       ||$C$L4||:    
    1551 00000011 92A6          MOV       AL,AR6                ; [CPU_ALU] |356| 
    1552              $C$DW$129       .dwtag  DW_TAG_TI_branch
    1553                      .dwattr $C$DW$129, DW_AT_low_pc(0x00)
    1554                      .dwattr $C$DW$129, DW_AT_TI_return
    1555              
    1556 00000012 0006          LRETR     ; [CPU_ALU] 
    1557                      ; return occurs ; [] 
    1558                      .dwattr $C$DW$126, DW_AT_TI_end_file("C:/ti/ccs2031/ccs/tools/compiler/ti-cgt-c2000_22.6.2.LTS/includ
    1559                      .dwattr $C$DW$126, DW_AT_TI_end_line(0x165)
    1560                      .dwattr $C$DW$126, DW_AT_TI_end_column(0x2f)
    1561                      .dwendentry
    1562                      .dwendtag $C$DW$126
    1563              
    1564 00000000               .sect   ".text:__isnormal"
    1565                      .clink
    1566                      .global ||__isnormal||
    1567              
    1568              $C$DW$130       .dwtag  DW_TAG_subprogram
    1569                      .dwattr $C$DW$130, DW_AT_name("__isnormal")
    1570                      .dwattr $C$DW$130, DW_AT_low_pc(||__isnormal||)
    1571                      .dwattr $C$DW$130, DW_AT_high_pc(0x00)
    1572                      .dwattr $C$DW$130, DW_AT_linkage_name("__isnormal")
    1573                      .dwattr $C$DW$130, DW_AT_external
    1574                      .dwattr $C$DW$130, DW_AT_type(*$C$DW$T$10)
    1575                      .dwattr $C$DW$130, DW_AT_decl_file("C:/ti/ccs2031/ccs/tools/compiler/ti-cgt-c2000_22.6.2.LTS/include/
    1576                      .dwattr $C$DW$130, DW_AT_decl_line(0x15f)
    1577                      .dwattr $C$DW$130, DW_AT_decl_column(0x18)
    1578                      .dwattr $C$DW$130, DW_AT_TI_max_frame_size(-6)
    1579                      .dwpsn  file "C:/ti/ccs2031/ccs/tools/compiler/ti-cgt-c2000_22.6.2.LTS/include/_defs.h",line 352,colu
    1580              
    1581                      .dwfde $C$DW$CIE, ||__isnormal||
    1582              $C$DW$131       .dwtag  DW_TAG_formal_parameter
    1583                      .dwattr $C$DW$131, DW_AT_name("d")
    1584                      .dwattr $C$DW$131, DW_AT_type(*$C$DW$T$246)
    1585                      .dwattr $C$DW$131, DW_AT_location[DW_OP_reg12]
    1586              
    1587              
TMS320C2000 Assembler PC v22.6.2 Wed Dec 10 14:45:02 2025

Copyright (c) 1996-2018 Texas Instruments Incorporated
dual_axis_servo_drive_hal.asm                                        PAGE   31

    1588              ;***************************************************************
    1589              ;* FNAME: __isnormal                    FR SIZE:   4           *
    1590              ;*                                                             *
    1591              ;* FUNCTION ENVIRONMENT                                        *
    1592              ;*                                                             *
    1593              ;* FUNCTION PROPERTIES                                         *
    1594              ;*                            4 Parameter,  0 Auto,  0 SOE     *
    1595              ;***************************************************************
    1596              
    1597              ||__isnormal||:
    1598              ;* AR5   assigned to $O$C2
    1599              ;* AR6   assigned to $O$S1
    1600              ;* AR4   assigned to d
    1601              $C$DW$132       .dwtag  DW_TAG_variable
    1602                      .dwattr $C$DW$132, DW_AT_name("d")
    1603                      .dwattr $C$DW$132, DW_AT_type(*$C$DW$T$247)
    1604                      .dwattr $C$DW$132, DW_AT_location[DW_OP_reg12]
    1605              
    1606                      .dwcfi  cfa_offset, -2
    1607                      .dwcfi  save_reg_to_mem, 26, 0
    1608 00000000 FE04          ADDB      SP,#4                 ; [CPU_ARAU] 
    1609                      .dwcfi  cfa_offset, -6
    1610                      .dwpsn  file "C:/ti/ccs2031/ccs/tools/compiler/ti-cgt-c2000_22.6.2.LTS/include/_defs.h",line 352,colu
    1611 00000001 83C4          MOVL      XAR5,*+XAR4[0]        ; [CPU_ALU] |352| 
    1612 00000002 8AD4          MOVL      XAR4,*+XAR4[2]        ; [CPU_ALU] |352| 
    1613 00000003 BE00          MOVB      XAR6,#0               ; [CPU_ALU] |352| 
    1614 00000004 28AC          MOV       T,#52                 ; [CPU_ALU] |352| 
         00000005 0034 
    1615 00000006 A0AB          MOVL      P,XAR5                ; [CPU_ALU] |352| 
    1616 00000007 A8A9          MOVL      ACC,XAR4              ; [CPU_ALU] |352| 
    1617 00000008 C244          MOVL      *-SP[4],XAR6          ; [CPU_ALU] |352| 
    1618 00000009 2B42          MOV       *-SP[2],#0            ; [CPU_ALU] |352| 
    1619 0000000a 565B          LSR64     ACC:P,T               ; [CPU_ALU] |352| 
    1620 0000000b 2B41          MOV       *-SP[1],#0            ; [CPU_FPU] |352| 
    1621 0000000c 9000          ANDB      AL,#0                 ; [CPU_ALU] |352| 
    1622 0000000d 9100          ANDB      AH,#0                 ; [CPU_ALU] |352| 
    1623 0000000e 18AB          AND       PL,#2047              ; [CPU_ALU] |352| 
         0000000f 07FF 
    1624 00000010 18AA          AND       PH,#0                 ; [CPU_ALU] |352| 
         00000011 0000 
    1625              $C$DW$133       .dwtag  DW_TAG_TI_branch
    1626                      .dwattr $C$DW$133, DW_AT_low_pc(0x00)
    1627                      .dwattr $C$DW$133, DW_AT_name("__c28xabi_cmpull")
    1628                      .dwattr $C$DW$133, DW_AT_TI_call
    1629              
    1630 00000012 7640!         LCR       #||__c28xabi_cmpull|| ; [CPU_ALU] |352| 
         00000013 0000 
    1631                      ; call occurs [#||__c28xabi_cmpull||] ; [] |352| 
    1632 00000014 BE00          MOVB      XAR6,#0               ; [CPU_ALU] |352| 
    1633 00000015 5200          CMPB      AL,#0                 ; [CPU_ALU] |352| 
    1634 00000016 610E          B         ||$C$L5||,EQ          ; [CPU_ALU] |352| 
    1635                      ; branchcc occurs ; [] |352| 
    1636 00000017 A0AB          MOVL      P,XAR5                ; [CPU_ALU] |352| 
    1637 00000018 A8A9          MOVL      ACC,XAR4              ; [CPU_ALU] |352| 
    1638 00000019 28AC          MOV       T,#48                 ; [CPU_ALU] |352| 
TMS320C2000 Assembler PC v22.6.2 Wed Dec 10 14:45:02 2025

Copyright (c) 1996-2018 Texas Instruments Incorporated
dual_axis_servo_drive_hal.asm                                        PAGE   32

         0000001a 0030 
    1639 0000001b 565B          LSR64     ACC:P,T               ; [CPU_ALU] |352| 
    1640 0000001c 18AB          AND       PL,#0x7ff0            ; [CPU_ALU] |352| 
         0000001d 7FF0 
    1641 0000001e 80AB          MOVZ      AR7,PL                ; [CPU_ALU] |352| 
    1642 0000001f FF20          MOV       ACC,#32752            ; [CPU_ALU] |352| 
         00000020 7FF0 
    1643 00000021 0FA7          CMPL      ACC,XAR7              ; [CPU_ALU] |352| 
    1644 00000022 56B0          MOVB      XAR6,#1,NEQ           ; [CPU_ALU] |352| 
         00000023 01A6 
    1645 00000024       ||$C$L5||:    
    1646 00000024 FE84          SUBB      SP,#4                 ; [CPU_ARAU] 
    1647                      .dwcfi  cfa_offset, -2
    1648 00000025 92A6          MOV       AL,AR6                ; [CPU_ALU] |352| 
    1649              $C$DW$134       .dwtag  DW_TAG_TI_branch
    1650                      .dwattr $C$DW$134, DW_AT_low_pc(0x00)
    1651                      .dwattr $C$DW$134, DW_AT_TI_return
    1652              
    1653 00000026 0006          LRETR     ; [CPU_ALU] 
    1654                      ; return occurs ; [] 
    1655                      .dwattr $C$DW$130, DW_AT_TI_end_file("C:/ti/ccs2031/ccs/tools/compiler/ti-cgt-c2000_22.6.2.LTS/includ
    1656                      .dwattr $C$DW$130, DW_AT_TI_end_line(0x161)
    1657                      .dwattr $C$DW$130, DW_AT_TI_end_column(0x30)
    1658                      .dwendentry
    1659                      .dwendtag $C$DW$130
    1660              
    1661 00000000               .sect   ".text:__isnanl"
    1662                      .clink
    1663                      .global ||__isnanl||
    1664              
    1665              $C$DW$135       .dwtag  DW_TAG_subprogram
    1666                      .dwattr $C$DW$135, DW_AT_name("__isnanl")
    1667                      .dwattr $C$DW$135, DW_AT_low_pc(||__isnanl||)
    1668                      .dwattr $C$DW$135, DW_AT_high_pc(0x00)
    1669                      .dwattr $C$DW$135, DW_AT_linkage_name("__isnanl")
    1670                      .dwattr $C$DW$135, DW_AT_external
    1671                      .dwattr $C$DW$135, DW_AT_type(*$C$DW$T$10)
    1672                      .dwattr $C$DW$135, DW_AT_decl_file("C:/ti/ccs2031/ccs/tools/compiler/ti-cgt-c2000_22.6.2.LTS/include/
    1673                      .dwattr $C$DW$135, DW_AT_decl_line(0x15b)
    1674                      .dwattr $C$DW$135, DW_AT_decl_column(0x18)
    1675                      .dwattr $C$DW$135, DW_AT_TI_max_frame_size(-6)
    1676                      .dwpsn  file "C:/ti/ccs2031/ccs/tools/compiler/ti-cgt-c2000_22.6.2.LTS/include/_defs.h",line 348,colu
    1677              
    1678                      .dwfde $C$DW$CIE, ||__isnanl||
    1679              $C$DW$136       .dwtag  DW_TAG_formal_parameter
    1680                      .dwattr $C$DW$136, DW_AT_name("e")
    1681                      .dwattr $C$DW$136, DW_AT_type(*$C$DW$T$249)
    1682                      .dwattr $C$DW$136, DW_AT_location[DW_OP_reg12]
    1683              
    1684              
    1685              ;***************************************************************
    1686              ;* FNAME: __isnanl                      FR SIZE:   4           *
    1687              ;*                                                             *
    1688              ;* FUNCTION ENVIRONMENT                                        *
    1689              ;*                                                             *
TMS320C2000 Assembler PC v22.6.2 Wed Dec 10 14:45:02 2025

Copyright (c) 1996-2018 Texas Instruments Incorporated
dual_axis_servo_drive_hal.asm                                        PAGE   33

    1690              ;* FUNCTION PROPERTIES                                         *
    1691              ;*                            4 Parameter,  0 Auto,  0 SOE     *
    1692              ;***************************************************************
    1693              
    1694              ||__isnanl||:
    1695              ;* AR7   assigned to $O$C2
    1696              ;* AR4   assigned to $O$S1
    1697              ;* AR4   assigned to e
    1698              $C$DW$137       .dwtag  DW_TAG_variable
    1699                      .dwattr $C$DW$137, DW_AT_name("e")
    1700                      .dwattr $C$DW$137, DW_AT_type(*$C$DW$T$250)
    1701                      .dwattr $C$DW$137, DW_AT_location[DW_OP_reg12]
    1702              
    1703                      .dwcfi  cfa_offset, -2
    1704                      .dwcfi  save_reg_to_mem, 26, 0
    1705 00000000 FE04          ADDB      SP,#4                 ; [CPU_ARAU] 
    1706                      .dwcfi  cfa_offset, -6
    1707                      .dwpsn  file "C:/ti/ccs2031/ccs/tools/compiler/ti-cgt-c2000_22.6.2.LTS/include/_defs.h",line 348,colu
    1708 00000001 C5C4          MOVL      XAR7,*+XAR4[0]        ; [CPU_ALU] |348| 
    1709 00000002 06D4          MOVL      ACC,*+XAR4[2]         ; [CPU_ALU] |348| 
    1710 00000003 28AC          MOV       T,#48                 ; [CPU_ALU] |348| 
         00000004 0030 
    1711 00000005 1EA6          MOVL      XAR6,ACC              ; [CPU_ALU] |348| 
    1712 00000006 A3A7          MOVL      P,XAR7                ; [CPU_ALU] |348| 
    1713 00000007 D400          MOVB      XAR4,#0               ; [CPU_ALU] |348| 
    1714 00000008 565B          LSR64     ACC:P,T               ; [CPU_ALU] |348| 
    1715 00000009 2BAA          MOV       PH,#0                 ; [CPU_ALU] |348| 
    1716 0000000a 18AB          AND       PL,#0x7ff0            ; [CPU_ALU] |348| 
         0000000b 7FF0 
    1717 0000000c FF20          MOV       ACC,#32752            ; [CPU_ALU] |348| 
         0000000d 7FF0 
    1718 0000000e 0FAB          CMPL      ACC,P                 ; [CPU_ALU] |348| 
    1719 0000000f 6013          B         ||$C$L6||,NEQ         ; [CPU_ALU] |348| 
    1720                      ; branchcc occurs ; [] |348| 
    1721 00000010 06A6          MOVL      ACC,XAR6              ; [CPU_ALU] |348| 
    1722 00000011 A3A7          MOVL      P,XAR7                ; [CPU_ALU] |348| 
    1723 00000012 BE00          MOVB      XAR6,#0               ; [CPU_ALU] |348| 
    1724 00000013 18A9          AND       AL,#65535             ; [CPU_ALU] |348| 
         00000014 FFFF 
    1725 00000015 910F          ANDB      AH,#15                ; [CPU_ALU] |348| 
    1726 00000016 18AB          AND       PL,#65535             ; [CPU_ALU] |348| 
         00000017 FFFF 
    1727 00000018 18AA          AND       PH,#65535             ; [CPU_ALU] |348| 
         00000019 FFFF 
    1728 0000001a C244          MOVL      *-SP[4],XAR6          ; [CPU_FPU] |348| 
    1729 0000001b 2B42          MOV       *-SP[2],#0            ; [CPU_FPU] |348| 
    1730 0000001c 2B41          MOV       *-SP[1],#0            ; [CPU_FPU] |348| 
    1731              $C$DW$138       .dwtag  DW_TAG_TI_branch
    1732                      .dwattr $C$DW$138, DW_AT_low_pc(0x00)
    1733                      .dwattr $C$DW$138, DW_AT_name("__c28xabi_cmpull")
    1734                      .dwattr $C$DW$138, DW_AT_TI_call
    1735              
    1736 0000001d 7640!         LCR       #||__c28xabi_cmpull|| ; [CPU_ALU] |348| 
         0000001e 0000 
    1737                      ; call occurs [#||__c28xabi_cmpull||] ; [] |348| 
TMS320C2000 Assembler PC v22.6.2 Wed Dec 10 14:45:02 2025

Copyright (c) 1996-2018 Texas Instruments Incorporated
dual_axis_servo_drive_hal.asm                                        PAGE   34

    1738 0000001f 5200          CMPB      AL,#0                 ; [CPU_ALU] |348| 
    1739 00000020 56B0          MOVB      XAR4,#1,NEQ           ; [CPU_ALU] |348| 
         00000021 01A4 
    1740 00000022       ||$C$L6||:    
    1741 00000022 FE84          SUBB      SP,#4                 ; [CPU_ARAU] 
    1742                      .dwcfi  cfa_offset, -2
    1743 00000023 92A4          MOV       AL,AR4                ; [CPU_ALU] |348| 
    1744              $C$DW$139       .dwtag  DW_TAG_TI_branch
    1745                      .dwattr $C$DW$139, DW_AT_low_pc(0x00)
    1746                      .dwattr $C$DW$139, DW_AT_TI_return
    1747              
    1748 00000024 0006          LRETR     ; [CPU_ALU] 
    1749                      ; return occurs ; [] 
    1750                      .dwattr $C$DW$135, DW_AT_TI_end_file("C:/ti/ccs2031/ccs/tools/compiler/ti-cgt-c2000_22.6.2.LTS/includ
    1751                      .dwattr $C$DW$135, DW_AT_TI_end_line(0x15d)
    1752                      .dwattr $C$DW$135, DW_AT_TI_end_column(0x30)
    1753                      .dwendentry
    1754                      .dwendtag $C$DW$135
    1755              
    1756 00000000               .sect   ".text:__isnanf"
    1757                      .clink
    1758                      .global ||__isnanf||
    1759              
    1760              $C$DW$140       .dwtag  DW_TAG_subprogram
    1761                      .dwattr $C$DW$140, DW_AT_name("__isnanf")
    1762                      .dwattr $C$DW$140, DW_AT_low_pc(||__isnanf||)
    1763                      .dwattr $C$DW$140, DW_AT_high_pc(0x00)
    1764                      .dwattr $C$DW$140, DW_AT_linkage_name("__isnanf")
    1765                      .dwattr $C$DW$140, DW_AT_external
    1766                      .dwattr $C$DW$140, DW_AT_type(*$C$DW$T$10)
    1767                      .dwattr $C$DW$140, DW_AT_decl_file("C:/ti/ccs2031/ccs/tools/compiler/ti-cgt-c2000_22.6.2.LTS/include/
    1768                      .dwattr $C$DW$140, DW_AT_decl_line(0x158)
    1769                      .dwattr $C$DW$140, DW_AT_decl_column(0x18)
    1770                      .dwattr $C$DW$140, DW_AT_TI_max_frame_size(-2)
    1771                      .dwpsn  file "C:/ti/ccs2031/ccs/tools/compiler/ti-cgt-c2000_22.6.2.LTS/include/_defs.h",line 345,colu
    1772              
    1773                      .dwfde $C$DW$CIE, ||__isnanf||
    1774              $C$DW$141       .dwtag  DW_TAG_formal_parameter
    1775                      .dwattr $C$DW$141, DW_AT_name("f")
    1776                      .dwattr $C$DW$141, DW_AT_type(*$C$DW$T$16)
    1777                      .dwattr $C$DW$141, DW_AT_location[DW_OP_regx 0x2b]
    1778              
    1779              
    1780              ;***************************************************************
    1781              ;* FNAME: __isnanf                      FR SIZE:   0           *
    1782              ;*                                                             *
    1783              ;* FUNCTION ENVIRONMENT                                        *
    1784              ;*                                                             *
    1785              ;* FUNCTION PROPERTIES                                         *
    1786              ;*                            0 Parameter,  0 Auto,  0 SOE     *
    1787              ;***************************************************************
    1788              
    1789              ||__isnanf||:
    1790              ;* PL    assigned to $O$K3
    1791              ;* AR6   assigned to $O$S1
TMS320C2000 Assembler PC v22.6.2 Wed Dec 10 14:45:02 2025

Copyright (c) 1996-2018 Texas Instruments Incorporated
dual_axis_servo_drive_hal.asm                                        PAGE   35

    1792              ;* R0    assigned to f
    1793              $C$DW$142       .dwtag  DW_TAG_variable
    1794                      .dwattr $C$DW$142, DW_AT_name("f")
    1795                      .dwattr $C$DW$142, DW_AT_type(*$C$DW$T$245)
    1796                      .dwattr $C$DW$142, DW_AT_location[DW_OP_regx 0x2b]
    1797              
    1798                      .dwcfi  cfa_offset, -2
    1799                      .dwcfi  save_reg_to_mem, 26, 0
    1800                      .dwpsn  file "C:/ti/ccs2031/ccs/tools/compiler/ti-cgt-c2000_22.6.2.LTS/include/_defs.h",line 345,colu
    1801 00000000 BFAB          MOV32     P,R0H                 ; [CPU_FPU] |345| 
         00000001 0F12 
    1802 00000002 CCAA          AND       AL,PH,#0x7f80         ; [CPU_ALU] |345| 
         00000003 7F80 
    1803 00000004 80A9          MOVZ      AR7,AL                ; [CPU_ALU] |345| 
    1804 00000005 BE00          MOVB      XAR6,#0               ; [CPU_ALU] |345| 
    1805 00000006 FF20          MOV       ACC,#32640            ; [CPU_ALU] |345| 
         00000007 7F80 
    1806 00000008 0FA7          CMPL      ACC,XAR7              ; [CPU_ALU] |345| 
    1807 00000009 6006          B         ||$C$L7||,NEQ         ; [CPU_ALU] |345| 
    1808                      ; branchcc occurs ; [] |345| 
    1809 0000000a A9A9          MOVL      ACC,P                 ; [CPU_ALU] |345| 
    1810 0000000b 917F          ANDB      AH,#127               ; [CPU_ALU] |345| 
    1811 0000000c FF58          TEST      ACC                   ; [CPU_ALU] |345| 
    1812 0000000d 56B0          MOVB      XAR6,#1,NEQ           ; [CPU_ALU] |345| 
         0000000e 01A6 
    1813 0000000f       ||$C$L7||:    
    1814 0000000f 92A6          MOV       AL,AR6                ; [CPU_ALU] |345| 
    1815              $C$DW$143       .dwtag  DW_TAG_TI_branch
    1816                      .dwattr $C$DW$143, DW_AT_low_pc(0x00)
    1817                      .dwattr $C$DW$143, DW_AT_TI_return
    1818              
    1819 00000010 0006          LRETR     ; [CPU_ALU] 
    1820                      ; return occurs ; [] 
    1821                      .dwattr $C$DW$140, DW_AT_TI_end_file("C:/ti/ccs2031/ccs/tools/compiler/ti-cgt-c2000_22.6.2.LTS/includ
    1822                      .dwattr $C$DW$140, DW_AT_TI_end_line(0x15a)
    1823                      .dwattr $C$DW$140, DW_AT_TI_end_column(0x2e)
    1824                      .dwendentry
    1825                      .dwendtag $C$DW$140
    1826              
    1827 00000000               .sect   ".text:__isnan"
    1828                      .clink
    1829                      .global ||__isnan||
    1830              
    1831              $C$DW$144       .dwtag  DW_TAG_subprogram
    1832                      .dwattr $C$DW$144, DW_AT_name("__isnan")
    1833                      .dwattr $C$DW$144, DW_AT_low_pc(||__isnan||)
    1834                      .dwattr $C$DW$144, DW_AT_high_pc(0x00)
    1835                      .dwattr $C$DW$144, DW_AT_linkage_name("__isnan")
    1836                      .dwattr $C$DW$144, DW_AT_external
    1837                      .dwattr $C$DW$144, DW_AT_type(*$C$DW$T$10)
    1838                      .dwattr $C$DW$144, DW_AT_decl_file("C:/ti/ccs2031/ccs/tools/compiler/ti-cgt-c2000_22.6.2.LTS/include/
    1839                      .dwattr $C$DW$144, DW_AT_decl_line(0x155)
    1840                      .dwattr $C$DW$144, DW_AT_decl_column(0x18)
    1841                      .dwattr $C$DW$144, DW_AT_TI_max_frame_size(-6)
    1842                      .dwpsn  file "C:/ti/ccs2031/ccs/tools/compiler/ti-cgt-c2000_22.6.2.LTS/include/_defs.h",line 342,colu
TMS320C2000 Assembler PC v22.6.2 Wed Dec 10 14:45:02 2025

Copyright (c) 1996-2018 Texas Instruments Incorporated
dual_axis_servo_drive_hal.asm                                        PAGE   36

    1843              
    1844                      .dwfde $C$DW$CIE, ||__isnan||
    1845              $C$DW$145       .dwtag  DW_TAG_formal_parameter
    1846                      .dwattr $C$DW$145, DW_AT_name("d")
    1847                      .dwattr $C$DW$145, DW_AT_type(*$C$DW$T$246)
    1848                      .dwattr $C$DW$145, DW_AT_location[DW_OP_reg12]
    1849              
    1850              
    1851              ;***************************************************************
    1852              ;* FNAME: __isnan                       FR SIZE:   4           *
    1853              ;*                                                             *
    1854              ;* FUNCTION ENVIRONMENT                                        *
    1855              ;*                                                             *
    1856              ;* FUNCTION PROPERTIES                                         *
    1857              ;*                            4 Parameter,  0 Auto,  0 SOE     *
    1858              ;***************************************************************
    1859              
    1860              ||__isnan||:
    1861              ;* AR7   assigned to $O$C2
    1862              ;* AR4   assigned to $O$S1
    1863              ;* AR4   assigned to d
    1864              $C$DW$146       .dwtag  DW_TAG_variable
    1865                      .dwattr $C$DW$146, DW_AT_name("d")
    1866                      .dwattr $C$DW$146, DW_AT_type(*$C$DW$T$247)
    1867                      .dwattr $C$DW$146, DW_AT_location[DW_OP_reg12]
    1868              
    1869                      .dwcfi  cfa_offset, -2
    1870                      .dwcfi  save_reg_to_mem, 26, 0
    1871 00000000 FE04          ADDB      SP,#4                 ; [CPU_ARAU] 
    1872                      .dwcfi  cfa_offset, -6
    1873                      .dwpsn  file "C:/ti/ccs2031/ccs/tools/compiler/ti-cgt-c2000_22.6.2.LTS/include/_defs.h",line 342,colu
    1874 00000001 C5C4          MOVL      XAR7,*+XAR4[0]        ; [CPU_ALU] |342| 
    1875 00000002 06D4          MOVL      ACC,*+XAR4[2]         ; [CPU_ALU] |342| 
    1876 00000003 28AC          MOV       T,#48                 ; [CPU_ALU] |342| 
         00000004 0030 
    1877 00000005 1EA6          MOVL      XAR6,ACC              ; [CPU_ALU] |342| 
    1878 00000006 A3A7          MOVL      P,XAR7                ; [CPU_ALU] |342| 
    1879 00000007 D400          MOVB      XAR4,#0               ; [CPU_ALU] |342| 
    1880 00000008 565B          LSR64     ACC:P,T               ; [CPU_ALU] |342| 
    1881 00000009 2BAA          MOV       PH,#0                 ; [CPU_ALU] |342| 
    1882 0000000a 18AB          AND       PL,#0x7ff0            ; [CPU_ALU] |342| 
         0000000b 7FF0 
    1883 0000000c FF20          MOV       ACC,#32752            ; [CPU_ALU] |342| 
         0000000d 7FF0 
    1884 0000000e 0FAB          CMPL      ACC,P                 ; [CPU_ALU] |342| 
    1885 0000000f 6013          B         ||$C$L8||,NEQ         ; [CPU_ALU] |342| 
    1886                      ; branchcc occurs ; [] |342| 
    1887 00000010 06A6          MOVL      ACC,XAR6              ; [CPU_ALU] |342| 
    1888 00000011 A3A7          MOVL      P,XAR7                ; [CPU_ALU] |342| 
    1889 00000012 BE00          MOVB      XAR6,#0               ; [CPU_ALU] |342| 
    1890 00000013 18A9          AND       AL,#65535             ; [CPU_ALU] |342| 
         00000014 FFFF 
    1891 00000015 910F          ANDB      AH,#15                ; [CPU_ALU] |342| 
    1892 00000016 18AB          AND       PL,#65535             ; [CPU_ALU] |342| 
         00000017 FFFF 
TMS320C2000 Assembler PC v22.6.2 Wed Dec 10 14:45:02 2025

Copyright (c) 1996-2018 Texas Instruments Incorporated
dual_axis_servo_drive_hal.asm                                        PAGE   37

    1893 00000018 18AA          AND       PH,#65535             ; [CPU_ALU] |342| 
         00000019 FFFF 
    1894 0000001a C244          MOVL      *-SP[4],XAR6          ; [CPU_FPU] |342| 
    1895 0000001b 2B42          MOV       *-SP[2],#0            ; [CPU_FPU] |342| 
    1896 0000001c 2B41          MOV       *-SP[1],#0            ; [CPU_FPU] |342| 
    1897              $C$DW$147       .dwtag  DW_TAG_TI_branch
    1898                      .dwattr $C$DW$147, DW_AT_low_pc(0x00)
    1899                      .dwattr $C$DW$147, DW_AT_name("__c28xabi_cmpull")
    1900                      .dwattr $C$DW$147, DW_AT_TI_call
    1901              
    1902 0000001d 7640!         LCR       #||__c28xabi_cmpull|| ; [CPU_ALU] |342| 
         0000001e 0000 
    1903                      ; call occurs [#||__c28xabi_cmpull||] ; [] |342| 
    1904 0000001f 5200          CMPB      AL,#0                 ; [CPU_ALU] |342| 
    1905 00000020 56B0          MOVB      XAR4,#1,NEQ           ; [CPU_ALU] |342| 
         00000021 01A4 
    1906 00000022       ||$C$L8||:    
    1907 00000022 FE84          SUBB      SP,#4                 ; [CPU_ARAU] 
    1908                      .dwcfi  cfa_offset, -2
    1909 00000023 92A4          MOV       AL,AR4                ; [CPU_ALU] |342| 
    1910              $C$DW$148       .dwtag  DW_TAG_TI_branch
    1911                      .dwattr $C$DW$148, DW_AT_low_pc(0x00)
    1912                      .dwattr $C$DW$148, DW_AT_TI_return
    1913              
    1914 00000024 0006          LRETR     ; [CPU_ALU] 
    1915                      ; return occurs ; [] 
    1916                      .dwattr $C$DW$144, DW_AT_TI_end_file("C:/ti/ccs2031/ccs/tools/compiler/ti-cgt-c2000_22.6.2.LTS/includ
    1917                      .dwattr $C$DW$144, DW_AT_TI_end_line(0x157)
    1918                      .dwattr $C$DW$144, DW_AT_TI_end_column(0x2f)
    1919                      .dwendentry
    1920                      .dwendtag $C$DW$144
    1921              
    1922 00000000               .sect   ".text:__isinfl"
    1923                      .clink
    1924                      .global ||__isinfl||
    1925              
    1926              $C$DW$149       .dwtag  DW_TAG_subprogram
    1927                      .dwattr $C$DW$149, DW_AT_name("__isinfl")
    1928                      .dwattr $C$DW$149, DW_AT_low_pc(||__isinfl||)
    1929                      .dwattr $C$DW$149, DW_AT_high_pc(0x00)
    1930                      .dwattr $C$DW$149, DW_AT_linkage_name("__isinfl")
    1931                      .dwattr $C$DW$149, DW_AT_external
    1932                      .dwattr $C$DW$149, DW_AT_type(*$C$DW$T$10)
    1933                      .dwattr $C$DW$149, DW_AT_decl_file("C:/ti/ccs2031/ccs/tools/compiler/ti-cgt-c2000_22.6.2.LTS/include/
    1934                      .dwattr $C$DW$149, DW_AT_decl_line(0x17a)
    1935                      .dwattr $C$DW$149, DW_AT_decl_column(0x18)
    1936                      .dwattr $C$DW$149, DW_AT_TI_max_frame_size(-6)
    1937                      .dwpsn  file "C:/ti/ccs2031/ccs/tools/compiler/ti-cgt-c2000_22.6.2.LTS/include/_defs.h",line 379,colu
    1938              
    1939                      .dwfde $C$DW$CIE, ||__isinfl||
    1940              $C$DW$150       .dwtag  DW_TAG_formal_parameter
    1941                      .dwattr $C$DW$150, DW_AT_name("e")
    1942                      .dwattr $C$DW$150, DW_AT_type(*$C$DW$T$249)
    1943                      .dwattr $C$DW$150, DW_AT_location[DW_OP_reg12]
    1944              
TMS320C2000 Assembler PC v22.6.2 Wed Dec 10 14:45:02 2025

Copyright (c) 1996-2018 Texas Instruments Incorporated
dual_axis_servo_drive_hal.asm                                        PAGE   38

    1945              
    1946              ;***************************************************************
    1947              ;* FNAME: __isinfl                      FR SIZE:   4           *
    1948              ;*                                                             *
    1949              ;* FUNCTION ENVIRONMENT                                        *
    1950              ;*                                                             *
    1951              ;* FUNCTION PROPERTIES                                         *
    1952              ;*                            4 Parameter,  0 Auto,  0 SOE     *
    1953              ;***************************************************************
    1954              
    1955              ||__isinfl||:
    1956              ;* AR7   assigned to $O$C2
    1957              ;* AR4   assigned to $O$S1
    1958              ;* AR4   assigned to e
    1959              $C$DW$151       .dwtag  DW_TAG_variable
    1960                      .dwattr $C$DW$151, DW_AT_name("e")
    1961                      .dwattr $C$DW$151, DW_AT_type(*$C$DW$T$250)
    1962                      .dwattr $C$DW$151, DW_AT_location[DW_OP_reg12]
    1963              
    1964                      .dwcfi  cfa_offset, -2
    1965                      .dwcfi  save_reg_to_mem, 26, 0
    1966 00000000 FE04          ADDB      SP,#4                 ; [CPU_ARAU] 
    1967                      .dwcfi  cfa_offset, -6
    1968                      .dwpsn  file "C:/ti/ccs2031/ccs/tools/compiler/ti-cgt-c2000_22.6.2.LTS/include/_defs.h",line 379,colu
    1969 00000001 C5C4          MOVL      XAR7,*+XAR4[0]        ; [CPU_ALU] |379| 
    1970 00000002 06D4          MOVL      ACC,*+XAR4[2]         ; [CPU_ALU] |379| 
    1971 00000003 28AC          MOV       T,#48                 ; [CPU_ALU] |379| 
         00000004 0030 
    1972 00000005 1EA6          MOVL      XAR6,ACC              ; [CPU_ALU] |379| 
    1973 00000006 A3A7          MOVL      P,XAR7                ; [CPU_ALU] |379| 
    1974 00000007 D400          MOVB      XAR4,#0               ; [CPU_ALU] |379| 
    1975 00000008 565B          LSR64     ACC:P,T               ; [CPU_ALU] |379| 
    1976 00000009 2BAA          MOV       PH,#0                 ; [CPU_ALU] |379| 
    1977 0000000a 18AB          AND       PL,#0x7ff0            ; [CPU_ALU] |379| 
         0000000b 7FF0 
    1978 0000000c FF20          MOV       ACC,#32752            ; [CPU_ALU] |379| 
         0000000d 7FF0 
    1979 0000000e 0FAB          CMPL      ACC,P                 ; [CPU_ALU] |379| 
    1980 0000000f 6013          B         ||$C$L9||,NEQ         ; [CPU_ALU] |379| 
    1981                      ; branchcc occurs ; [] |379| 
    1982 00000010 06A6          MOVL      ACC,XAR6              ; [CPU_ALU] |379| 
    1983 00000011 A3A7          MOVL      P,XAR7                ; [CPU_ALU] |379| 
    1984 00000012 BE00          MOVB      XAR6,#0               ; [CPU_ALU] |379| 
    1985 00000013 18A9          AND       AL,#65535             ; [CPU_ALU] |379| 
         00000014 FFFF 
    1986 00000015 910F          ANDB      AH,#15                ; [CPU_ALU] |379| 
    1987 00000016 18AB          AND       PL,#65535             ; [CPU_ALU] |379| 
         00000017 FFFF 
    1988 00000018 18AA          AND       PH,#65535             ; [CPU_ALU] |379| 
         00000019 FFFF 
    1989 0000001a C244          MOVL      *-SP[4],XAR6          ; [CPU_FPU] |379| 
    1990 0000001b 2B42          MOV       *-SP[2],#0            ; [CPU_FPU] |379| 
    1991 0000001c 2B41          MOV       *-SP[1],#0            ; [CPU_FPU] |379| 
    1992              $C$DW$152       .dwtag  DW_TAG_TI_branch
    1993                      .dwattr $C$DW$152, DW_AT_low_pc(0x00)
TMS320C2000 Assembler PC v22.6.2 Wed Dec 10 14:45:02 2025

Copyright (c) 1996-2018 Texas Instruments Incorporated
dual_axis_servo_drive_hal.asm                                        PAGE   39

    1994                      .dwattr $C$DW$152, DW_AT_name("__c28xabi_cmpull")
    1995                      .dwattr $C$DW$152, DW_AT_TI_call
    1996              
    1997 0000001d 7640!         LCR       #||__c28xabi_cmpull|| ; [CPU_ALU] |379| 
         0000001e 0000 
    1998                      ; call occurs [#||__c28xabi_cmpull||] ; [] |379| 
    1999 0000001f 5200          CMPB      AL,#0                 ; [CPU_ALU] |379| 
    2000 00000020 56B1          MOVB      XAR4,#1,EQ            ; [CPU_ALU] |379| 
         00000021 01A4 
    2001 00000022       ||$C$L9||:    
    2002 00000022 FE84          SUBB      SP,#4                 ; [CPU_ARAU] 
    2003                      .dwcfi  cfa_offset, -2
    2004 00000023 92A4          MOV       AL,AR4                ; [CPU_ALU] |379| 
    2005              $C$DW$153       .dwtag  DW_TAG_TI_branch
    2006                      .dwattr $C$DW$153, DW_AT_low_pc(0x00)
    2007                      .dwattr $C$DW$153, DW_AT_TI_return
    2008              
    2009 00000024 0006          LRETR     ; [CPU_ALU] 
    2010                      ; return occurs ; [] 
    2011                      .dwattr $C$DW$149, DW_AT_TI_end_file("C:/ti/ccs2031/ccs/tools/compiler/ti-cgt-c2000_22.6.2.LTS/includ
    2012                      .dwattr $C$DW$149, DW_AT_TI_end_line(0x17b)
    2013                      .dwattr $C$DW$149, DW_AT_TI_end_column(0x4c)
    2014                      .dwendentry
    2015                      .dwendtag $C$DW$149
    2016              
    2017 00000000               .sect   ".text:__isinff"
    2018                      .clink
    2019                      .global ||__isinff||
    2020              
    2021              $C$DW$154       .dwtag  DW_TAG_subprogram
    2022                      .dwattr $C$DW$154, DW_AT_name("__isinff")
    2023                      .dwattr $C$DW$154, DW_AT_low_pc(||__isinff||)
    2024                      .dwattr $C$DW$154, DW_AT_high_pc(0x00)
    2025                      .dwattr $C$DW$154, DW_AT_linkage_name("__isinff")
    2026                      .dwattr $C$DW$154, DW_AT_external
    2027                      .dwattr $C$DW$154, DW_AT_type(*$C$DW$T$10)
    2028                      .dwattr $C$DW$154, DW_AT_decl_file("C:/ti/ccs2031/ccs/tools/compiler/ti-cgt-c2000_22.6.2.LTS/include/
    2029                      .dwattr $C$DW$154, DW_AT_decl_line(0x176)
    2030                      .dwattr $C$DW$154, DW_AT_decl_column(0x18)
    2031                      .dwattr $C$DW$154, DW_AT_TI_max_frame_size(-2)
    2032                      .dwpsn  file "C:/ti/ccs2031/ccs/tools/compiler/ti-cgt-c2000_22.6.2.LTS/include/_defs.h",line 375,colu
    2033              
    2034                      .dwfde $C$DW$CIE, ||__isinff||
    2035              $C$DW$155       .dwtag  DW_TAG_formal_parameter
    2036                      .dwattr $C$DW$155, DW_AT_name("f")
    2037                      .dwattr $C$DW$155, DW_AT_type(*$C$DW$T$16)
    2038                      .dwattr $C$DW$155, DW_AT_location[DW_OP_regx 0x2b]
    2039              
    2040              
    2041              ;***************************************************************
    2042              ;* FNAME: __isinff                      FR SIZE:   0           *
    2043              ;*                                                             *
    2044              ;* FUNCTION ENVIRONMENT                                        *
    2045              ;*                                                             *
    2046              ;* FUNCTION PROPERTIES                                         *
TMS320C2000 Assembler PC v22.6.2 Wed Dec 10 14:45:02 2025

Copyright (c) 1996-2018 Texas Instruments Incorporated
dual_axis_servo_drive_hal.asm                                        PAGE   40

    2047              ;*                            0 Parameter,  0 Auto,  0 SOE     *
    2048              ;***************************************************************
    2049              
    2050              ||__isinff||:
    2051              ;* PL    assigned to $O$K3
    2052              ;* AR6   assigned to $O$S1
    2053              ;* R0    assigned to f
    2054              $C$DW$156       .dwtag  DW_TAG_variable
    2055                      .dwattr $C$DW$156, DW_AT_name("f")
    2056                      .dwattr $C$DW$156, DW_AT_type(*$C$DW$T$245)
    2057                      .dwattr $C$DW$156, DW_AT_location[DW_OP_regx 0x2b]
    2058              
    2059                      .dwcfi  cfa_offset, -2
    2060                      .dwcfi  save_reg_to_mem, 26, 0
    2061                      .dwpsn  file "C:/ti/ccs2031/ccs/tools/compiler/ti-cgt-c2000_22.6.2.LTS/include/_defs.h",line 375,colu
    2062 00000000 BFAB          MOV32     P,R0H                 ; [CPU_FPU] |375| 
         00000001 0F12 
    2063 00000002 CCAA          AND       AL,PH,#0x7f80         ; [CPU_ALU] |375| 
         00000003 7F80 
    2064 00000004 80A9          MOVZ      AR7,AL                ; [CPU_ALU] |375| 
    2065 00000005 BE00          MOVB      XAR6,#0               ; [CPU_ALU] |375| 
    2066 00000006 FF20          MOV       ACC,#32640            ; [CPU_ALU] |375| 
         00000007 7F80 
    2067 00000008 0FA7          CMPL      ACC,XAR7              ; [CPU_ALU] |375| 
    2068 00000009 6006          B         ||$C$L10||,NEQ        ; [CPU_ALU] |375| 
    2069                      ; branchcc occurs ; [] |375| 
    2070 0000000a A9A9          MOVL      ACC,P                 ; [CPU_ALU] |375| 
    2071 0000000b 917F          ANDB      AH,#127               ; [CPU_ALU] |375| 
    2072 0000000c FF58          TEST      ACC                   ; [CPU_ALU] |375| 
    2073 0000000d 56B1          MOVB      XAR6,#1,EQ            ; [CPU_ALU] |375| 
         0000000e 01A6 
    2074 0000000f       ||$C$L10||:    
    2075 0000000f 92A6          MOV       AL,AR6                ; [CPU_ALU] |375| 
    2076              $C$DW$157       .dwtag  DW_TAG_TI_branch
    2077                      .dwattr $C$DW$157, DW_AT_low_pc(0x00)
    2078                      .dwattr $C$DW$157, DW_AT_TI_return
    2079              
    2080 00000010 0006          LRETR     ; [CPU_ALU] 
    2081                      ; return occurs ; [] 
    2082                      .dwattr $C$DW$154, DW_AT_TI_end_file("C:/ti/ccs2031/ccs/tools/compiler/ti-cgt-c2000_22.6.2.LTS/includ
    2083                      .dwattr $C$DW$154, DW_AT_TI_end_line(0x177)
    2084                      .dwattr $C$DW$154, DW_AT_TI_end_column(0x48)
    2085                      .dwendentry
    2086                      .dwendtag $C$DW$154
    2087              
    2088 00000000               .sect   ".text:__isinf"
    2089                      .clink
    2090                      .global ||__isinf||
    2091              
    2092              $C$DW$158       .dwtag  DW_TAG_subprogram
    2093                      .dwattr $C$DW$158, DW_AT_name("__isinf")
    2094                      .dwattr $C$DW$158, DW_AT_low_pc(||__isinf||)
    2095                      .dwattr $C$DW$158, DW_AT_high_pc(0x00)
    2096                      .dwattr $C$DW$158, DW_AT_linkage_name("__isinf")
    2097                      .dwattr $C$DW$158, DW_AT_external
TMS320C2000 Assembler PC v22.6.2 Wed Dec 10 14:45:02 2025

Copyright (c) 1996-2018 Texas Instruments Incorporated
dual_axis_servo_drive_hal.asm                                        PAGE   41

    2098                      .dwattr $C$DW$158, DW_AT_type(*$C$DW$T$10)
    2099                      .dwattr $C$DW$158, DW_AT_decl_file("C:/ti/ccs2031/ccs/tools/compiler/ti-cgt-c2000_22.6.2.LTS/include/
    2100                      .dwattr $C$DW$158, DW_AT_decl_line(0x178)
    2101                      .dwattr $C$DW$158, DW_AT_decl_column(0x18)
    2102                      .dwattr $C$DW$158, DW_AT_TI_max_frame_size(-6)
    2103                      .dwpsn  file "C:/ti/ccs2031/ccs/tools/compiler/ti-cgt-c2000_22.6.2.LTS/include/_defs.h",line 377,colu
    2104              
    2105                      .dwfde $C$DW$CIE, ||__isinf||
    2106              $C$DW$159       .dwtag  DW_TAG_formal_parameter
    2107                      .dwattr $C$DW$159, DW_AT_name("d")
    2108                      .dwattr $C$DW$159, DW_AT_type(*$C$DW$T$246)
    2109                      .dwattr $C$DW$159, DW_AT_location[DW_OP_reg12]
    2110              
    2111              
    2112              ;***************************************************************
    2113              ;* FNAME: __isinf                       FR SIZE:   4           *
    2114              ;*                                                             *
    2115              ;* FUNCTION ENVIRONMENT                                        *
    2116              ;*                                                             *
    2117              ;* FUNCTION PROPERTIES                                         *
    2118              ;*                            4 Parameter,  0 Auto,  0 SOE     *
    2119              ;***************************************************************
    2120              
    2121              ||__isinf||:
    2122              ;* AR7   assigned to $O$C2
    2123              ;* AR4   assigned to $O$S1
    2124              ;* AR4   assigned to d
    2125              $C$DW$160       .dwtag  DW_TAG_variable
    2126                      .dwattr $C$DW$160, DW_AT_name("d")
    2127                      .dwattr $C$DW$160, DW_AT_type(*$C$DW$T$247)
    2128                      .dwattr $C$DW$160, DW_AT_location[DW_OP_reg12]
    2129              
    2130                      .dwcfi  cfa_offset, -2
    2131                      .dwcfi  save_reg_to_mem, 26, 0
    2132 00000000 FE04          ADDB      SP,#4                 ; [CPU_ARAU] 
    2133                      .dwcfi  cfa_offset, -6
    2134                      .dwpsn  file "C:/ti/ccs2031/ccs/tools/compiler/ti-cgt-c2000_22.6.2.LTS/include/_defs.h",line 377,colu
    2135 00000001 C5C4          MOVL      XAR7,*+XAR4[0]        ; [CPU_ALU] |377| 
    2136 00000002 06D4          MOVL      ACC,*+XAR4[2]         ; [CPU_ALU] |377| 
    2137 00000003 28AC          MOV       T,#48                 ; [CPU_ALU] |377| 
         00000004 0030 
    2138 00000005 1EA6          MOVL      XAR6,ACC              ; [CPU_ALU] |377| 
    2139 00000006 A3A7          MOVL      P,XAR7                ; [CPU_ALU] |377| 
    2140 00000007 D400          MOVB      XAR4,#0               ; [CPU_ALU] |377| 
    2141 00000008 565B          LSR64     ACC:P,T               ; [CPU_ALU] |377| 
    2142 00000009 2BAA          MOV       PH,#0                 ; [CPU_ALU] |377| 
    2143 0000000a 18AB          AND       PL,#0x7ff0            ; [CPU_ALU] |377| 
         0000000b 7FF0 
    2144 0000000c FF20          MOV       ACC,#32752            ; [CPU_ALU] |377| 
         0000000d 7FF0 
    2145 0000000e 0FAB          CMPL      ACC,P                 ; [CPU_ALU] |377| 
    2146 0000000f 6013          B         ||$C$L11||,NEQ        ; [CPU_ALU] |377| 
    2147                      ; branchcc occurs ; [] |377| 
    2148 00000010 06A6          MOVL      ACC,XAR6              ; [CPU_ALU] |377| 
    2149 00000011 A3A7          MOVL      P,XAR7                ; [CPU_ALU] |377| 
TMS320C2000 Assembler PC v22.6.2 Wed Dec 10 14:45:02 2025

Copyright (c) 1996-2018 Texas Instruments Incorporated
dual_axis_servo_drive_hal.asm                                        PAGE   42

    2150 00000012 BE00          MOVB      XAR6,#0               ; [CPU_ALU] |377| 
    2151 00000013 18A9          AND       AL,#65535             ; [CPU_ALU] |377| 
         00000014 FFFF 
    2152 00000015 910F          ANDB      AH,#15                ; [CPU_ALU] |377| 
    2153 00000016 18AB          AND       PL,#65535             ; [CPU_ALU] |377| 
         00000017 FFFF 
    2154 00000018 18AA          AND       PH,#65535             ; [CPU_ALU] |377| 
         00000019 FFFF 
    2155 0000001a C244          MOVL      *-SP[4],XAR6          ; [CPU_FPU] |377| 
    2156 0000001b 2B42          MOV       *-SP[2],#0            ; [CPU_FPU] |377| 
    2157 0000001c 2B41          MOV       *-SP[1],#0            ; [CPU_FPU] |377| 
    2158              $C$DW$161       .dwtag  DW_TAG_TI_branch
    2159                      .dwattr $C$DW$161, DW_AT_low_pc(0x00)
    2160                      .dwattr $C$DW$161, DW_AT_name("__c28xabi_cmpull")
    2161                      .dwattr $C$DW$161, DW_AT_TI_call
    2162              
    2163 0000001d 7640!         LCR       #||__c28xabi_cmpull|| ; [CPU_ALU] |377| 
         0000001e 0000 
    2164                      ; call occurs [#||__c28xabi_cmpull||] ; [] |377| 
    2165 0000001f 5200          CMPB      AL,#0                 ; [CPU_ALU] |377| 
    2166 00000020 56B1          MOVB      XAR4,#1,EQ            ; [CPU_ALU] |377| 
         00000021 01A4 
    2167 00000022       ||$C$L11||:    
    2168 00000022 FE84          SUBB      SP,#4                 ; [CPU_ARAU] 
    2169                      .dwcfi  cfa_offset, -2
    2170 00000023 92A4          MOV       AL,AR4                ; [CPU_ALU] |377| 
    2171              $C$DW$162       .dwtag  DW_TAG_TI_branch
    2172                      .dwattr $C$DW$162, DW_AT_low_pc(0x00)
    2173                      .dwattr $C$DW$162, DW_AT_TI_return
    2174              
    2175 00000024 0006          LRETR     ; [CPU_ALU] 
    2176                      ; return occurs ; [] 
    2177                      .dwattr $C$DW$158, DW_AT_TI_end_file("C:/ti/ccs2031/ccs/tools/compiler/ti-cgt-c2000_22.6.2.LTS/includ
    2178                      .dwattr $C$DW$158, DW_AT_TI_end_line(0x179)
    2179                      .dwattr $C$DW$158, DW_AT_TI_end_column(0x4a)
    2180                      .dwendentry
    2181                      .dwendtag $C$DW$158
    2182              
    2183 00000000               .sect   ".text:__isfinitel"
    2184                      .clink
    2185                      .global ||__isfinitel||
    2186              
    2187              $C$DW$163       .dwtag  DW_TAG_subprogram
    2188                      .dwattr $C$DW$163, DW_AT_name("__isfinitel")
    2189                      .dwattr $C$DW$163, DW_AT_low_pc(||__isfinitel||)
    2190                      .dwattr $C$DW$163, DW_AT_high_pc(0x00)
    2191                      .dwattr $C$DW$163, DW_AT_linkage_name("__isfinitel")
    2192                      .dwattr $C$DW$163, DW_AT_external
    2193                      .dwattr $C$DW$163, DW_AT_type(*$C$DW$T$10)
    2194                      .dwattr $C$DW$163, DW_AT_decl_file("C:/ti/ccs2031/ccs/tools/compiler/ti-cgt-c2000_22.6.2.LTS/include/
    2195                      .dwattr $C$DW$163, DW_AT_decl_line(0x152)
    2196                      .dwattr $C$DW$163, DW_AT_decl_column(0x18)
    2197                      .dwattr $C$DW$163, DW_AT_TI_max_frame_size(-2)
    2198                      .dwpsn  file "C:/ti/ccs2031/ccs/tools/compiler/ti-cgt-c2000_22.6.2.LTS/include/_defs.h",line 339,colu
    2199              
TMS320C2000 Assembler PC v22.6.2 Wed Dec 10 14:45:02 2025

Copyright (c) 1996-2018 Texas Instruments Incorporated
dual_axis_servo_drive_hal.asm                                        PAGE   43

    2200                      .dwfde $C$DW$CIE, ||__isfinitel||
    2201              $C$DW$164       .dwtag  DW_TAG_formal_parameter
    2202                      .dwattr $C$DW$164, DW_AT_name("e")
    2203                      .dwattr $C$DW$164, DW_AT_type(*$C$DW$T$249)
    2204                      .dwattr $C$DW$164, DW_AT_location[DW_OP_reg12]
    2205              
    2206              
    2207              ;***************************************************************
    2208              ;* FNAME: __isfinitel                   FR SIZE:   0           *
    2209              ;*                                                             *
    2210              ;* FUNCTION ENVIRONMENT                                        *
    2211              ;*                                                             *
    2212              ;* FUNCTION PROPERTIES                                         *
    2213              ;*                            0 Parameter,  0 Auto,  0 SOE     *
    2214              ;***************************************************************
    2215              
    2216              ||__isfinitel||:
    2217              ;* AR4   assigned to e
    2218              $C$DW$165       .dwtag  DW_TAG_variable
    2219                      .dwattr $C$DW$165, DW_AT_name("e")
    2220                      .dwattr $C$DW$165, DW_AT_type(*$C$DW$T$250)
    2221                      .dwattr $C$DW$165, DW_AT_location[DW_OP_reg12]
    2222              
    2223                      .dwcfi  cfa_offset, -2
    2224                      .dwcfi  save_reg_to_mem, 26, 0
    2225                      .dwpsn  file "C:/ti/ccs2031/ccs/tools/compiler/ti-cgt-c2000_22.6.2.LTS/include/_defs.h",line 339,colu
    2226 00000000 A3C4          MOVL      P,*+XAR4[0]           ; [CPU_ALU] |339| 
    2227 00000001 06D4          MOVL      ACC,*+XAR4[2]         ; [CPU_ALU] |339| 
    2228 00000002 28AC          MOV       T,#48                 ; [CPU_ALU] |339| 
         00000003 0030 
    2229 00000004 565B          LSR64     ACC:P,T               ; [CPU_ALU] |339| 
    2230 00000005 18AB          AND       PL,#0x7ff0            ; [CPU_ALU] |339| 
         00000006 7FF0 
    2231 00000007 80AB          MOVZ      AR7,PL                ; [CPU_ALU] |339| 
    2232 00000008 FF20          MOV       ACC,#32752            ; [CPU_ALU] |339| 
         00000009 7FF0 
    2233 0000000a BE00          MOVB      XAR6,#0               ; [CPU_ALU] |339| 
    2234 0000000b 0FA7          CMPL      ACC,XAR7              ; [CPU_ALU] |339| 
    2235 0000000c 56B0          MOVB      XAR6,#1,NEQ           ; [CPU_ALU] |339| 
         0000000d 01A6 
    2236 0000000e 92A6          MOV       AL,AR6                ; [CPU_ALU] |339| 
    2237              $C$DW$166       .dwtag  DW_TAG_TI_branch
    2238                      .dwattr $C$DW$166, DW_AT_low_pc(0x00)
    2239                      .dwattr $C$DW$166, DW_AT_TI_return
    2240              
    2241 0000000f 0006          LRETR     ; [CPU_ALU] 
    2242                      ; return occurs ; [] 
    2243                      .dwattr $C$DW$163, DW_AT_TI_end_file("C:/ti/ccs2031/ccs/tools/compiler/ti-cgt-c2000_22.6.2.LTS/includ
    2244                      .dwattr $C$DW$163, DW_AT_TI_end_line(0x153)
    2245                      .dwattr $C$DW$163, DW_AT_TI_end_column(0x2f)
    2246                      .dwendentry
    2247                      .dwendtag $C$DW$163
    2248              
    2249 00000000               .sect   ".text:__isfinitef"
    2250                      .clink
TMS320C2000 Assembler PC v22.6.2 Wed Dec 10 14:45:02 2025

Copyright (c) 1996-2018 Texas Instruments Incorporated
dual_axis_servo_drive_hal.asm                                        PAGE   44

    2251                      .global ||__isfinitef||
    2252              
    2253              $C$DW$167       .dwtag  DW_TAG_subprogram
    2254                      .dwattr $C$DW$167, DW_AT_name("__isfinitef")
    2255                      .dwattr $C$DW$167, DW_AT_low_pc(||__isfinitef||)
    2256                      .dwattr $C$DW$167, DW_AT_high_pc(0x00)
    2257                      .dwattr $C$DW$167, DW_AT_linkage_name("__isfinitef")
    2258                      .dwattr $C$DW$167, DW_AT_external
    2259                      .dwattr $C$DW$167, DW_AT_type(*$C$DW$T$10)
    2260                      .dwattr $C$DW$167, DW_AT_decl_file("C:/ti/ccs2031/ccs/tools/compiler/ti-cgt-c2000_22.6.2.LTS/include/
    2261                      .dwattr $C$DW$167, DW_AT_decl_line(0x150)
    2262                      .dwattr $C$DW$167, DW_AT_decl_column(0x18)
    2263                      .dwattr $C$DW$167, DW_AT_TI_max_frame_size(-2)
    2264                      .dwpsn  file "C:/ti/ccs2031/ccs/tools/compiler/ti-cgt-c2000_22.6.2.LTS/include/_defs.h",line 337,colu
    2265              
    2266                      .dwfde $C$DW$CIE, ||__isfinitef||
    2267              $C$DW$168       .dwtag  DW_TAG_formal_parameter
    2268                      .dwattr $C$DW$168, DW_AT_name("f")
    2269                      .dwattr $C$DW$168, DW_AT_type(*$C$DW$T$16)
    2270                      .dwattr $C$DW$168, DW_AT_location[DW_OP_regx 0x2b]
    2271              
    2272              
    2273              ;***************************************************************
    2274              ;* FNAME: __isfinitef                   FR SIZE:   0           *
    2275              ;*                                                             *
    2276              ;* FUNCTION ENVIRONMENT                                        *
    2277              ;*                                                             *
    2278              ;* FUNCTION PROPERTIES                                         *
    2279              ;*                            0 Parameter,  0 Auto,  0 SOE     *
    2280              ;***************************************************************
    2281              
    2282              ||__isfinitef||:
    2283              ;* R0    assigned to f
    2284              $C$DW$169       .dwtag  DW_TAG_variable
    2285                      .dwattr $C$DW$169, DW_AT_name("f")
    2286                      .dwattr $C$DW$169, DW_AT_type(*$C$DW$T$245)
    2287                      .dwattr $C$DW$169, DW_AT_location[DW_OP_regx 0x2b]
    2288              
    2289                      .dwcfi  cfa_offset, -2
    2290                      .dwcfi  save_reg_to_mem, 26, 0
    2291                      .dwpsn  file "C:/ti/ccs2031/ccs/tools/compiler/ti-cgt-c2000_22.6.2.LTS/include/_defs.h",line 337,colu
    2292 00000000 BFAB          MOV32     P,R0H                 ; [CPU_FPU] |337| 
         00000001 0F12 
    2293 00000002 18AA          AND       PH,#0x7f80            ; [CPU_ALU] |337| 
         00000003 7F80 
    2294 00000004 80AA          MOVZ      AR7,PH                ; [CPU_ALU] |337| 
    2295 00000005 FF20          MOV       ACC,#32640            ; [CPU_ALU] |337| 
         00000006 7F80 
    2296 00000007 BE00          MOVB      XAR6,#0               ; [CPU_ALU] |337| 
    2297 00000008 0FA7          CMPL      ACC,XAR7              ; [CPU_ALU] |337| 
    2298 00000009 56B0          MOVB      XAR6,#1,NEQ           ; [CPU_ALU] |337| 
         0000000a 01A6 
    2299 0000000b 92A6          MOV       AL,AR6                ; [CPU_ALU] |337| 
    2300              $C$DW$170       .dwtag  DW_TAG_TI_branch
    2301                      .dwattr $C$DW$170, DW_AT_low_pc(0x00)
TMS320C2000 Assembler PC v22.6.2 Wed Dec 10 14:45:02 2025

Copyright (c) 1996-2018 Texas Instruments Incorporated
dual_axis_servo_drive_hal.asm                                        PAGE   45

    2302                      .dwattr $C$DW$170, DW_AT_TI_return
    2303              
    2304 0000000c 0006          LRETR     ; [CPU_ALU] 
    2305                      ; return occurs ; [] 
    2306                      .dwattr $C$DW$167, DW_AT_TI_end_file("C:/ti/ccs2031/ccs/tools/compiler/ti-cgt-c2000_22.6.2.LTS/includ
    2307                      .dwattr $C$DW$167, DW_AT_TI_end_line(0x151)
    2308                      .dwattr $C$DW$167, DW_AT_TI_end_column(0x2d)
    2309                      .dwendentry
    2310                      .dwendtag $C$DW$167
    2311              
    2312 00000000               .sect   ".text:__isfinite"
    2313                      .clink
    2314                      .global ||__isfinite||
    2315              
    2316              $C$DW$171       .dwtag  DW_TAG_subprogram
    2317                      .dwattr $C$DW$171, DW_AT_name("__isfinite")
    2318                      .dwattr $C$DW$171, DW_AT_low_pc(||__isfinite||)
    2319                      .dwattr $C$DW$171, DW_AT_high_pc(0x00)
    2320                      .dwattr $C$DW$171, DW_AT_linkage_name("__isfinite")
    2321                      .dwattr $C$DW$171, DW_AT_external
    2322                      .dwattr $C$DW$171, DW_AT_type(*$C$DW$T$10)
    2323                      .dwattr $C$DW$171, DW_AT_decl_file("C:/ti/ccs2031/ccs/tools/compiler/ti-cgt-c2000_22.6.2.LTS/include/
    2324                      .dwattr $C$DW$171, DW_AT_decl_line(0x14e)
    2325                      .dwattr $C$DW$171, DW_AT_decl_column(0x18)
    2326                      .dwattr $C$DW$171, DW_AT_TI_max_frame_size(-2)
    2327                      .dwpsn  file "C:/ti/ccs2031/ccs/tools/compiler/ti-cgt-c2000_22.6.2.LTS/include/_defs.h",line 335,colu
    2328              
    2329                      .dwfde $C$DW$CIE, ||__isfinite||
    2330              $C$DW$172       .dwtag  DW_TAG_formal_parameter
    2331                      .dwattr $C$DW$172, DW_AT_name("d")
    2332                      .dwattr $C$DW$172, DW_AT_type(*$C$DW$T$246)
    2333                      .dwattr $C$DW$172, DW_AT_location[DW_OP_reg12]
    2334              
    2335              
    2336              ;***************************************************************
    2337              ;* FNAME: __isfinite                    FR SIZE:   0           *
    2338              ;*                                                             *
    2339              ;* FUNCTION ENVIRONMENT                                        *
    2340              ;*                                                             *
    2341              ;* FUNCTION PROPERTIES                                         *
    2342              ;*                            0 Parameter,  0 Auto,  0 SOE     *
    2343              ;***************************************************************
    2344              
    2345              ||__isfinite||:
    2346              ;* AR4   assigned to d
    2347              $C$DW$173       .dwtag  DW_TAG_variable
    2348                      .dwattr $C$DW$173, DW_AT_name("d")
    2349                      .dwattr $C$DW$173, DW_AT_type(*$C$DW$T$247)
    2350                      .dwattr $C$DW$173, DW_AT_location[DW_OP_reg12]
    2351              
    2352                      .dwcfi  cfa_offset, -2
    2353                      .dwcfi  save_reg_to_mem, 26, 0
    2354                      .dwpsn  file "C:/ti/ccs2031/ccs/tools/compiler/ti-cgt-c2000_22.6.2.LTS/include/_defs.h",line 335,colu
    2355 00000000 A3C4          MOVL      P,*+XAR4[0]           ; [CPU_ALU] |335| 
    2356 00000001 06D4          MOVL      ACC,*+XAR4[2]         ; [CPU_ALU] |335| 
TMS320C2000 Assembler PC v22.6.2 Wed Dec 10 14:45:02 2025

Copyright (c) 1996-2018 Texas Instruments Incorporated
dual_axis_servo_drive_hal.asm                                        PAGE   46

    2357 00000002 28AC          MOV       T,#48                 ; [CPU_ALU] |335| 
         00000003 0030 
    2358 00000004 565B          LSR64     ACC:P,T               ; [CPU_ALU] |335| 
    2359 00000005 18AB          AND       PL,#0x7ff0            ; [CPU_ALU] |335| 
         00000006 7FF0 
    2360 00000007 80AB          MOVZ      AR7,PL                ; [CPU_ALU] |335| 
    2361 00000008 FF20          MOV       ACC,#32752            ; [CPU_ALU] |335| 
         00000009 7FF0 
    2362 0000000a BE00          MOVB      XAR6,#0               ; [CPU_ALU] |335| 
    2363 0000000b 0FA7          CMPL      ACC,XAR7              ; [CPU_ALU] |335| 
    2364 0000000c 56B0          MOVB      XAR6,#1,NEQ           ; [CPU_ALU] |335| 
         0000000d 01A6 
    2365 0000000e 92A6          MOV       AL,AR6                ; [CPU_ALU] |335| 
    2366              $C$DW$174       .dwtag  DW_TAG_TI_branch
    2367                      .dwattr $C$DW$174, DW_AT_low_pc(0x00)
    2368                      .dwattr $C$DW$174, DW_AT_TI_return
    2369              
    2370 0000000f 0006          LRETR     ; [CPU_ALU] 
    2371                      ; return occurs ; [] 
    2372                      .dwattr $C$DW$171, DW_AT_TI_end_file("C:/ti/ccs2031/ccs/tools/compiler/ti-cgt-c2000_22.6.2.LTS/includ
    2373                      .dwattr $C$DW$171, DW_AT_TI_end_line(0x14f)
    2374                      .dwattr $C$DW$171, DW_AT_TI_end_column(0x2e)
    2375                      .dwendentry
    2376                      .dwendtag $C$DW$171
    2377              
    2378 00000000               .sect   ".text:__fpclassifyl"
    2379                      .clink
    2380                      .global ||__fpclassifyl||
    2381              
    2382              $C$DW$175       .dwtag  DW_TAG_subprogram
    2383                      .dwattr $C$DW$175, DW_AT_name("__fpclassifyl")
    2384                      .dwattr $C$DW$175, DW_AT_low_pc(||__fpclassifyl||)
    2385                      .dwattr $C$DW$175, DW_AT_high_pc(0x00)
    2386                      .dwattr $C$DW$175, DW_AT_linkage_name("__fpclassifyl")
    2387                      .dwattr $C$DW$175, DW_AT_external
    2388                      .dwattr $C$DW$175, DW_AT_type(*$C$DW$T$10)
    2389                      .dwattr $C$DW$175, DW_AT_decl_file("C:/ti/ccs2031/ccs/tools/compiler/ti-cgt-c2000_22.6.2.LTS/include/
    2390                      .dwattr $C$DW$175, DW_AT_decl_line(0x1ae)
    2391                      .dwattr $C$DW$175, DW_AT_decl_column(0x18)
    2392                      .dwattr $C$DW$175, DW_AT_TI_max_frame_size(-10)
    2393                      .dwpsn  file "C:/ti/ccs2031/ccs/tools/compiler/ti-cgt-c2000_22.6.2.LTS/include/_defs.h",line 431,colu
    2394              
    2395                      .dwfde $C$DW$CIE, ||__fpclassifyl||
    2396              $C$DW$176       .dwtag  DW_TAG_formal_parameter
    2397                      .dwattr $C$DW$176, DW_AT_name("e")
    2398                      .dwattr $C$DW$176, DW_AT_type(*$C$DW$T$249)
    2399                      .dwattr $C$DW$176, DW_AT_location[DW_OP_reg12]
    2400              
    2401              
    2402              ;***************************************************************
    2403              ;* FNAME: __fpclassifyl                 FR SIZE:   8           *
    2404              ;*                                                             *
    2405              ;* FUNCTION ENVIRONMENT                                        *
    2406              ;*                                                             *
    2407              ;* FUNCTION PROPERTIES                                         *
TMS320C2000 Assembler PC v22.6.2 Wed Dec 10 14:45:02 2025

Copyright (c) 1996-2018 Texas Instruments Incorporated
dual_axis_servo_drive_hal.asm                                        PAGE   47

    2408              ;*                            4 Parameter,  4 Auto,  0 SOE     *
    2409              ;***************************************************************
    2410              
    2411              ||__fpclassifyl||:
    2412              $C$DW$177       .dwtag  DW_TAG_variable
    2413                      .dwattr $C$DW$177, DW_AT_name("e")
    2414                      .dwattr $C$DW$177, DW_AT_type(*$C$DW$T$18)
    2415                      .dwattr $C$DW$177, DW_AT_location[DW_OP_breg20 -8]
    2416              
    2417              ;* AR5   assigned to $O$C1
    2418              ;* AR4   assigned to e
    2419              $C$DW$178       .dwtag  DW_TAG_variable
    2420                      .dwattr $C$DW$178, DW_AT_name("e")
    2421                      .dwattr $C$DW$178, DW_AT_type(*$C$DW$T$250)
    2422                      .dwattr $C$DW$178, DW_AT_location[DW_OP_reg12]
    2423              
    2424                      .dwcfi  cfa_offset, -2
    2425                      .dwcfi  save_reg_to_mem, 26, 0
    2426 00000000 FE08          ADDB      SP,#8                 ; [CPU_ARAU] 
    2427                      .dwcfi  cfa_offset, -10
    2428 00000001 C4D4          MOVL      XAR6,*+XAR4[2]        ; [CPU_ALU] |431| 
    2429 00000002 06C4          MOVL      ACC,*+XAR4[0]         ; [CPU_ALU] |431| 
    2430 00000003 1E48          MOVL      *-SP[8],ACC           ; [CPU_ALU] |431| 
    2431 00000004 C246          MOVL      *-SP[6],XAR6          ; [CPU_ALU] |431| 
    2432                      .dwpsn  file "C:/ti/ccs2031/ccs/tools/compiler/ti-cgt-c2000_22.6.2.LTS/include/_defs.h",line 432,colu
    2433 00000005 8348          MOVL      XAR5,*-SP[8]          ; [CPU_ALU] |432| 
    2434 00000006 8A46          MOVL      XAR4,*-SP[6]          ; [CPU_ALU] |432| 
    2435                      .dwpsn  file "C:/ti/ccs2031/ccs/tools/compiler/ti-cgt-c2000_22.6.2.LTS/include/_defs.h",line 436,colu
    2436 00000007 28AC          MOV       T,#48                 ; [CPU_ALU] |436| 
         00000008 0030 
    2437 00000009 A0AB          MOVL      P,XAR5                ; [CPU_ALU] |436| 
    2438 0000000a A8A9          MOVL      ACC,XAR4              ; [CPU_ALU] |436| 
    2439 0000000b 565B          LSR64     ACC:P,T               ; [CPU_ALU] |436| 
    2440 0000000c 18AB          AND       PL,#0x7ff0            ; [CPU_ALU] |436| 
         0000000d 7FF0 
    2441 0000000e 88AB          MOVZ      AR6,PL                ; [CPU_ALU] |436| 
    2442 0000000f FF20          MOV       ACC,#32752            ; [CPU_ALU] |436| 
         00000010 7FF0 
    2443 00000011 0FA6          CMPL      ACC,XAR6              ; [CPU_ALU] |436| 
    2444 00000012 6016          B         ||$C$L13||,NEQ        ; [CPU_ALU] |436| 
    2445                      ; branchcc occurs ; [] |436| 
    2446 00000013 0200          MOVB      ACC,#0                ; [CPU_ALU] |436| 
    2447 00000014 1E44          MOVL      *-SP[4],ACC           ; [CPU_ALU] |436| 
    2448 00000015 2B42          MOV       *-SP[2],#0            ; [CPU_ALU] |436| 
    2449 00000016 2B41          MOV       *-SP[1],#0            ; [CPU_ALU] |436| 
    2450 00000017 A348          MOVL      P,*-SP[8]             ; [CPU_ALU] |436| 
    2451 00000018 0646          MOVL      ACC,*-SP[6]           ; [CPU_ALU] |436| 
    2452 00000019 18AB          AND       PL,#65535             ; [CPU_ALU] |436| 
         0000001a FFFF 
    2453 0000001b 18AA          AND       PH,#65535             ; [CPU_ALU] |436| 
         0000001c FFFF 
    2454 0000001d 18A9          AND       AL,#65535             ; [CPU_ALU] |436| 
         0000001e FFFF 
    2455 0000001f 910F          ANDB      AH,#15                ; [CPU_ALU] |436| 
    2456              $C$DW$179       .dwtag  DW_TAG_TI_branch
TMS320C2000 Assembler PC v22.6.2 Wed Dec 10 14:45:02 2025

Copyright (c) 1996-2018 Texas Instruments Incorporated
dual_axis_servo_drive_hal.asm                                        PAGE   48

    2457                      .dwattr $C$DW$179, DW_AT_low_pc(0x00)
    2458                      .dwattr $C$DW$179, DW_AT_name("__c28xabi_cmpull")
    2459                      .dwattr $C$DW$179, DW_AT_TI_call
    2460              
    2461 00000020 7640!         LCR       #||__c28xabi_cmpull|| ; [CPU_ALU] |436| 
         00000021 0000 
    2462                      ; call occurs [#||__c28xabi_cmpull||] ; [] |436| 
    2463 00000022 5200          CMPB      AL,#0                 ; [CPU_ALU] |436| 
    2464 00000023 6103          B         ||$C$L12||,EQ         ; [CPU_ALU] |436| 
    2465                      ; branchcc occurs ; [] |436| 
    2466 00000024 9A02          MOVB      AL,#2                 ; [CPU_ALU] |436| 
    2467 00000025 6F2D          B         ||$C$L16||,UNC        ; [CPU_ALU] |436| 
    2468                      ; branch occurs ; [] |436| 
    2469 00000026       ||$C$L12||:    
    2470 00000026 9A01          MOVB      AL,#1                 ; [CPU_ALU] |436| 
    2471 00000027 6F2B          B         ||$C$L16||,UNC        ; [CPU_ALU] |436| 
    2472                      ; branch occurs ; [] |436| 
    2473 00000028       ||$C$L13||:    
    2474 00000028 BE00          MOVB      XAR6,#0               ; [CPU_ALU] |436| 
    2475 00000029 A0AB          MOVL      P,XAR5                ; [CPU_ALU] |436| 
    2476 0000002a A8A9          MOVL      ACC,XAR4              ; [CPU_ALU] |436| 
    2477 0000002b 28AC          MOV       T,#52                 ; [CPU_ALU] |436| 
         0000002c 0034 
    2478 0000002d C244          MOVL      *-SP[4],XAR6          ; [CPU_ALU] |436| 
    2479 0000002e 2B42          MOV       *-SP[2],#0            ; [CPU_ALU] |436| 
    2480 0000002f 565B          LSR64     ACC:P,T               ; [CPU_ALU] |436| 
    2481 00000030 2B41          MOV       *-SP[1],#0            ; [CPU_FPU] |436| 
    2482 00000031 9000          ANDB      AL,#0                 ; [CPU_ALU] |436| 
    2483 00000032 9100          ANDB      AH,#0                 ; [CPU_ALU] |436| 
    2484 00000033 18AB          AND       PL,#2047              ; [CPU_ALU] |436| 
         00000034 07FF 
    2485 00000035 18AA          AND       PH,#0                 ; [CPU_ALU] |436| 
         00000036 0000 
    2486              $C$DW$180       .dwtag  DW_TAG_TI_branch
    2487                      .dwattr $C$DW$180, DW_AT_low_pc(0x00)
    2488                      .dwattr $C$DW$180, DW_AT_name("__c28xabi_cmpull")
    2489                      .dwattr $C$DW$180, DW_AT_TI_call
    2490              
    2491 00000037 7640!         LCR       #||__c28xabi_cmpull|| ; [CPU_ALU] |436| 
         00000038 0000 
    2492                      ; call occurs [#||__c28xabi_cmpull||] ; [] |436| 
    2493 00000039 5200          CMPB      AL,#0                 ; [CPU_ALU] |436| 
    2494 0000003a 6104          B         ||$C$L14||,EQ         ; [CPU_ALU] |436| 
    2495                      ; branchcc occurs ; [] |436| 
    2496 0000003b 28A9          MOV       AL,#-1                ; [CPU_ALU] |436| 
         0000003c FFFF 
    2497 0000003d 6F15          B         ||$C$L16||,UNC        ; [CPU_ALU] |436| 
    2498                      ; branch occurs ; [] |436| 
    2499 0000003e       ||$C$L14||:    
    2500 0000003e C244          MOVL      *-SP[4],XAR6          ; [CPU_ALU] |436| 
    2501 0000003f A8A9          MOVL      ACC,XAR4              ; [CPU_ALU] |436| 
    2502 00000040 A0AB          MOVL      P,XAR5                ; [CPU_ALU] |436| 
    2503 00000041 2B42          MOV       *-SP[2],#0            ; [CPU_ALU] |436| 
    2504 00000042 18A9          AND       AL,#65535             ; [CPU_ALU] |436| 
         00000043 FFFF 
TMS320C2000 Assembler PC v22.6.2 Wed Dec 10 14:45:02 2025

Copyright (c) 1996-2018 Texas Instruments Incorporated
dual_axis_servo_drive_hal.asm                                        PAGE   49

    2505 00000044 910F          ANDB      AH,#15                ; [CPU_ALU] |436| 
    2506 00000045 18AB          AND       PL,#65535             ; [CPU_ALU] |436| 
         00000046 FFFF 
    2507 00000047 18AA          AND       PH,#65535             ; [CPU_ALU] |436| 
         00000048 FFFF 
    2508 00000049 2B41          MOV       *-SP[1],#0            ; [CPU_FPU] |436| 
    2509              $C$DW$181       .dwtag  DW_TAG_TI_branch
    2510                      .dwattr $C$DW$181, DW_AT_low_pc(0x00)
    2511                      .dwattr $C$DW$181, DW_AT_name("__c28xabi_cmpull")
    2512                      .dwattr $C$DW$181, DW_AT_TI_call
    2513              
    2514 0000004a 7640!         LCR       #||__c28xabi_cmpull|| ; [CPU_ALU] |436| 
         0000004b 0000 
    2515                      ; call occurs [#||__c28xabi_cmpull||] ; [] |436| 
    2516 0000004c 5200          CMPB      AL,#0                 ; [CPU_ALU] |436| 
    2517 0000004d 6104          B         ||$C$L15||,EQ         ; [CPU_ALU] |436| 
    2518                      ; branchcc occurs ; [] |436| 
    2519 0000004e 28A9          MOV       AL,#-2                ; [CPU_ALU] |436| 
         0000004f FFFE 
    2520 00000050 6F02          B         ||$C$L16||,UNC        ; [CPU_ALU] |436| 
    2521                      ; branch occurs ; [] |436| 
    2522 00000051       ||$C$L15||:    
    2523 00000051 9A00          MOVB      AL,#0                 ; [CPU_ALU] |436| 
    2524 00000052       ||$C$L16||:    
    2525 00000052 FE88          SUBB      SP,#8                 ; [CPU_ARAU] 
    2526                      .dwcfi  cfa_offset, -2
    2527              $C$DW$182       .dwtag  DW_TAG_TI_branch
    2528                      .dwattr $C$DW$182, DW_AT_low_pc(0x00)
    2529                      .dwattr $C$DW$182, DW_AT_TI_return
    2530              
    2531 00000053 0006          LRETR     ; [CPU_ALU] 
    2532                      ; return occurs ; [] 
    2533                      .dwattr $C$DW$175, DW_AT_TI_end_file("C:/ti/ccs2031/ccs/tools/compiler/ti-cgt-c2000_22.6.2.LTS/includ
    2534                      .dwattr $C$DW$175, DW_AT_TI_end_line(0x1bd)
    2535                      .dwattr $C$DW$175, DW_AT_TI_end_column(0x01)
    2536                      .dwendentry
    2537                      .dwendtag $C$DW$175
    2538              
    2539 00000000               .sect   ".text:__fpclassifyf"
    2540                      .clink
    2541                      .global ||__fpclassifyf||
    2542              
    2543              $C$DW$183       .dwtag  DW_TAG_subprogram
    2544                      .dwattr $C$DW$183, DW_AT_name("__fpclassifyf")
    2545                      .dwattr $C$DW$183, DW_AT_low_pc(||__fpclassifyf||)
    2546                      .dwattr $C$DW$183, DW_AT_high_pc(0x00)
    2547                      .dwattr $C$DW$183, DW_AT_linkage_name("__fpclassifyf")
    2548                      .dwattr $C$DW$183, DW_AT_external
    2549                      .dwattr $C$DW$183, DW_AT_type(*$C$DW$T$10)
    2550                      .dwattr $C$DW$183, DW_AT_decl_file("C:/ti/ccs2031/ccs/tools/compiler/ti-cgt-c2000_22.6.2.LTS/include/
    2551                      .dwattr $C$DW$183, DW_AT_decl_line(0x18c)
    2552                      .dwattr $C$DW$183, DW_AT_decl_column(0x18)
    2553                      .dwattr $C$DW$183, DW_AT_TI_max_frame_size(-2)
    2554                      .dwpsn  file "C:/ti/ccs2031/ccs/tools/compiler/ti-cgt-c2000_22.6.2.LTS/include/_defs.h",line 397,colu
    2555              
TMS320C2000 Assembler PC v22.6.2 Wed Dec 10 14:45:02 2025

Copyright (c) 1996-2018 Texas Instruments Incorporated
dual_axis_servo_drive_hal.asm                                        PAGE   50

    2556                      .dwfde $C$DW$CIE, ||__fpclassifyf||
    2557              $C$DW$184       .dwtag  DW_TAG_formal_parameter
    2558                      .dwattr $C$DW$184, DW_AT_name("f")
    2559                      .dwattr $C$DW$184, DW_AT_type(*$C$DW$T$16)
    2560                      .dwattr $C$DW$184, DW_AT_location[DW_OP_regx 0x2b]
    2561              
    2562              
    2563              ;***************************************************************
    2564              ;* FNAME: __fpclassifyf                 FR SIZE:   0           *
    2565              ;*                                                             *
    2566              ;* FUNCTION ENVIRONMENT                                        *
    2567              ;*                                                             *
    2568              ;* FUNCTION PROPERTIES                                         *
    2569              ;*                            0 Parameter,  0 Auto,  0 SOE     *
    2570              ;***************************************************************
    2571              
    2572              ||__fpclassifyf||:
    2573              ;* PL    assigned to $O$K1
    2574              ;* R0    assigned to f
    2575              $C$DW$185       .dwtag  DW_TAG_variable
    2576                      .dwattr $C$DW$185, DW_AT_name("f")
    2577                      .dwattr $C$DW$185, DW_AT_type(*$C$DW$T$245)
    2578                      .dwattr $C$DW$185, DW_AT_location[DW_OP_regx 0x2b]
    2579              
    2580                      .dwcfi  cfa_offset, -2
    2581                      .dwcfi  save_reg_to_mem, 26, 0
    2582                      .dwpsn  file "C:/ti/ccs2031/ccs/tools/compiler/ti-cgt-c2000_22.6.2.LTS/include/_defs.h",line 398,colu
    2583 00000000 BFAB          MOV32     P,R0H                 ; [CPU_FPU] |398| 
         00000001 0F12 
    2584                      .dwpsn  file "C:/ti/ccs2031/ccs/tools/compiler/ti-cgt-c2000_22.6.2.LTS/include/_defs.h",line 402,colu
    2585 00000002 CCAA          AND       AL,PH,#0x7f80         ; [CPU_ALU] |402| 
         00000003 7F80 
    2586 00000004 88A9          MOVZ      AR6,AL                ; [CPU_ALU] |402| 
    2587 00000005 FF20          MOV       ACC,#32640            ; [CPU_ALU] |402| 
         00000006 7F80 
    2588 00000007 0FA6          CMPL      ACC,XAR6              ; [CPU_ALU] |402| 
    2589 00000008 6009          B         ||$C$L18||,NEQ        ; [CPU_ALU] |402| 
    2590                      ; branchcc occurs ; [] |402| 
    2591 00000009 A9A9          MOVL      ACC,P                 ; [CPU_ALU] |402| 
    2592 0000000a 917F          ANDB      AH,#127               ; [CPU_ALU] |402| 
    2593 0000000b FF58          TEST      ACC                   ; [CPU_ALU] |402| 
    2594 0000000c 6103          B         ||$C$L17||,EQ         ; [CPU_ALU] |402| 
    2595                      ; branchcc occurs ; [] |402| 
    2596                      .dwcfi  remember_state
    2597 0000000d 9A02          MOVB      AL,#2                 ; [CPU_ALU] |402| 
    2598              $C$DW$186       .dwtag  DW_TAG_TI_branch
    2599                      .dwattr $C$DW$186, DW_AT_low_pc(0x00)
    2600                      .dwattr $C$DW$186, DW_AT_TI_return
    2601              
    2602 0000000e 0006          LRETR     ; [CPU_ALU] 
    2603                      ; return occurs ; [] 
    2604                      .dwcfi  restore_state
    2605 0000000f       ||$C$L17||:    
    2606                      .dwcfi  remember_state
    2607 0000000f 9A01          MOVB      AL,#1                 ; [CPU_ALU] |402| 
TMS320C2000 Assembler PC v22.6.2 Wed Dec 10 14:45:02 2025

Copyright (c) 1996-2018 Texas Instruments Incorporated
dual_axis_servo_drive_hal.asm                                        PAGE   51

    2608              $C$DW$187       .dwtag  DW_TAG_TI_branch
    2609                      .dwattr $C$DW$187, DW_AT_low_pc(0x00)
    2610                      .dwattr $C$DW$187, DW_AT_TI_return
    2611              
    2612 00000010 0006          LRETR     ; [CPU_ALU] 
    2613                      ; return occurs ; [] 
    2614                      .dwcfi  restore_state
    2615 00000011       ||$C$L18||:    
    2616 00000011 A9A9          MOVL      ACC,P                 ; [CPU_ALU] |402| 
    2617 00000012 28AC          MOV       T,#23                 ; [CPU_ALU] |402| 
         00000013 0017 
    2618 00000014 5622          LSRL      ACC,T                 ; [CPU_ALU] |402| 
    2619 00000015 90FF          ANDB      AL,#0xff              ; [CPU_ALU] |402| 
    2620 00000016 6104          B         ||$C$L19||,EQ         ; [CPU_ALU] |402| 
    2621                      ; branchcc occurs ; [] |402| 
    2622                      .dwcfi  remember_state
    2623 00000017 28A9          MOV       AL,#-1                ; [CPU_ALU] |402| 
         00000018 FFFF 
    2624              $C$DW$188       .dwtag  DW_TAG_TI_branch
    2625                      .dwattr $C$DW$188, DW_AT_low_pc(0x00)
    2626                      .dwattr $C$DW$188, DW_AT_TI_return
    2627              
    2628 00000019 0006          LRETR     ; [CPU_ALU] 
    2629                      ; return occurs ; [] 
    2630                      .dwcfi  restore_state
    2631 0000001a       ||$C$L19||:    
    2632 0000001a A9A9          MOVL      ACC,P                 ; [CPU_ALU] |402| 
    2633 0000001b 917F          ANDB      AH,#127               ; [CPU_ALU] |402| 
    2634 0000001c FF58          TEST      ACC                   ; [CPU_ALU] |402| 
    2635 0000001d 6104          B         ||$C$L20||,EQ         ; [CPU_ALU] |402| 
    2636                      ; branchcc occurs ; [] |402| 
    2637                      .dwcfi  remember_state
    2638 0000001e 28A9          MOV       AL,#-2                ; [CPU_ALU] |402| 
         0000001f FFFE 
    2639              $C$DW$189       .dwtag  DW_TAG_TI_branch
    2640                      .dwattr $C$DW$189, DW_AT_low_pc(0x00)
    2641                      .dwattr $C$DW$189, DW_AT_TI_return
    2642              
    2643 00000020 0006          LRETR     ; [CPU_ALU] 
    2644                      ; return occurs ; [] 
    2645                      .dwcfi  restore_state
    2646 00000021       ||$C$L20||:    
    2647 00000021 9A00          MOVB      AL,#0                 ; [CPU_ALU] |402| 
    2648              $C$DW$190       .dwtag  DW_TAG_TI_branch
    2649                      .dwattr $C$DW$190, DW_AT_low_pc(0x00)
    2650                      .dwattr $C$DW$190, DW_AT_TI_return
    2651              
    2652 00000022 0006          LRETR     ; [CPU_ALU] 
    2653                      ; return occurs ; [] 
    2654                      .dwattr $C$DW$183, DW_AT_TI_end_file("C:/ti/ccs2031/ccs/tools/compiler/ti-cgt-c2000_22.6.2.LTS/includ
    2655                      .dwattr $C$DW$183, DW_AT_TI_end_line(0x19b)
    2656                      .dwattr $C$DW$183, DW_AT_TI_end_column(0x01)
    2657                      .dwendentry
    2658                      .dwendtag $C$DW$183
    2659              
TMS320C2000 Assembler PC v22.6.2 Wed Dec 10 14:45:02 2025

Copyright (c) 1996-2018 Texas Instruments Incorporated
dual_axis_servo_drive_hal.asm                                        PAGE   52

    2660 00000000               .sect   ".text:__fpclassify"
    2661                      .clink
    2662                      .global ||__fpclassify||
    2663              
    2664              $C$DW$191       .dwtag  DW_TAG_subprogram
    2665                      .dwattr $C$DW$191, DW_AT_name("__fpclassify")
    2666                      .dwattr $C$DW$191, DW_AT_low_pc(||__fpclassify||)
    2667                      .dwattr $C$DW$191, DW_AT_high_pc(0x00)
    2668                      .dwattr $C$DW$191, DW_AT_linkage_name("__fpclassify")
    2669                      .dwattr $C$DW$191, DW_AT_external
    2670                      .dwattr $C$DW$191, DW_AT_type(*$C$DW$T$10)
    2671                      .dwattr $C$DW$191, DW_AT_decl_file("C:/ti/ccs2031/ccs/tools/compiler/ti-cgt-c2000_22.6.2.LTS/include/
    2672                      .dwattr $C$DW$191, DW_AT_decl_line(0x19d)
    2673                      .dwattr $C$DW$191, DW_AT_decl_column(0x18)
    2674                      .dwattr $C$DW$191, DW_AT_TI_max_frame_size(-10)
    2675                      .dwpsn  file "C:/ti/ccs2031/ccs/tools/compiler/ti-cgt-c2000_22.6.2.LTS/include/_defs.h",line 414,colu
    2676              
    2677                      .dwfde $C$DW$CIE, ||__fpclassify||
    2678              $C$DW$192       .dwtag  DW_TAG_formal_parameter
    2679                      .dwattr $C$DW$192, DW_AT_name("d")
    2680                      .dwattr $C$DW$192, DW_AT_type(*$C$DW$T$246)
    2681                      .dwattr $C$DW$192, DW_AT_location[DW_OP_reg12]
    2682              
    2683              
    2684              ;***************************************************************
    2685              ;* FNAME: __fpclassify                  FR SIZE:   8           *
    2686              ;*                                                             *
    2687              ;* FUNCTION ENVIRONMENT                                        *
    2688              ;*                                                             *
    2689              ;* FUNCTION PROPERTIES                                         *
    2690              ;*                            4 Parameter,  4 Auto,  0 SOE     *
    2691              ;***************************************************************
    2692              
    2693              ||__fpclassify||:
    2694              $C$DW$193       .dwtag  DW_TAG_variable
    2695                      .dwattr $C$DW$193, DW_AT_name("d")
    2696                      .dwattr $C$DW$193, DW_AT_type(*$C$DW$T$17)
    2697                      .dwattr $C$DW$193, DW_AT_location[DW_OP_breg20 -8]
    2698              
    2699              ;* AR5   assigned to $O$C1
    2700              ;* AR4   assigned to d
    2701              $C$DW$194       .dwtag  DW_TAG_variable
    2702                      .dwattr $C$DW$194, DW_AT_name("d")
    2703                      .dwattr $C$DW$194, DW_AT_type(*$C$DW$T$247)
    2704                      .dwattr $C$DW$194, DW_AT_location[DW_OP_reg12]
    2705              
    2706                      .dwcfi  cfa_offset, -2
    2707                      .dwcfi  save_reg_to_mem, 26, 0
    2708 00000000 FE08          ADDB      SP,#8                 ; [CPU_ARAU] 
    2709                      .dwcfi  cfa_offset, -10
    2710 00000001 C4D4          MOVL      XAR6,*+XAR4[2]        ; [CPU_ALU] |414| 
    2711 00000002 06C4          MOVL      ACC,*+XAR4[0]         ; [CPU_ALU] |414| 
    2712 00000003 1E48          MOVL      *-SP[8],ACC           ; [CPU_ALU] |414| 
    2713 00000004 C246          MOVL      *-SP[6],XAR6          ; [CPU_ALU] |414| 
    2714                      .dwpsn  file "C:/ti/ccs2031/ccs/tools/compiler/ti-cgt-c2000_22.6.2.LTS/include/_defs.h",line 415,colu
TMS320C2000 Assembler PC v22.6.2 Wed Dec 10 14:45:02 2025

Copyright (c) 1996-2018 Texas Instruments Incorporated
dual_axis_servo_drive_hal.asm                                        PAGE   53

    2715 00000005 8348          MOVL      XAR5,*-SP[8]          ; [CPU_ALU] |415| 
    2716 00000006 8A46          MOVL      XAR4,*-SP[6]          ; [CPU_ALU] |415| 
    2717                      .dwpsn  file "C:/ti/ccs2031/ccs/tools/compiler/ti-cgt-c2000_22.6.2.LTS/include/_defs.h",line 419,colu
    2718 00000007 28AC          MOV       T,#48                 ; [CPU_ALU] |419| 
         00000008 0030 
    2719 00000009 A0AB          MOVL      P,XAR5                ; [CPU_ALU] |419| 
    2720 0000000a A8A9          MOVL      ACC,XAR4              ; [CPU_ALU] |419| 
    2721 0000000b 565B          LSR64     ACC:P,T               ; [CPU_ALU] |419| 
    2722 0000000c 18AB          AND       PL,#0x7ff0            ; [CPU_ALU] |419| 
         0000000d 7FF0 
    2723 0000000e 88AB          MOVZ      AR6,PL                ; [CPU_ALU] |419| 
    2724 0000000f FF20          MOV       ACC,#32752            ; [CPU_ALU] |419| 
         00000010 7FF0 
    2725 00000011 0FA6          CMPL      ACC,XAR6              ; [CPU_ALU] |419| 
    2726 00000012 6016          B         ||$C$L22||,NEQ        ; [CPU_ALU] |419| 
    2727                      ; branchcc occurs ; [] |419| 
    2728 00000013 0200          MOVB      ACC,#0                ; [CPU_ALU] |419| 
    2729 00000014 1E44          MOVL      *-SP[4],ACC           ; [CPU_ALU] |419| 
    2730 00000015 2B42          MOV       *-SP[2],#0            ; [CPU_ALU] |419| 
    2731 00000016 2B41          MOV       *-SP[1],#0            ; [CPU_ALU] |419| 
    2732 00000017 A348          MOVL      P,*-SP[8]             ; [CPU_ALU] |419| 
    2733 00000018 0646          MOVL      ACC,*-SP[6]           ; [CPU_ALU] |419| 
    2734 00000019 18AB          AND       PL,#65535             ; [CPU_ALU] |419| 
         0000001a FFFF 
    2735 0000001b 18AA          AND       PH,#65535             ; [CPU_ALU] |419| 
         0000001c FFFF 
    2736 0000001d 18A9          AND       AL,#65535             ; [CPU_ALU] |419| 
         0000001e FFFF 
    2737 0000001f 910F          ANDB      AH,#15                ; [CPU_ALU] |419| 
    2738              $C$DW$195       .dwtag  DW_TAG_TI_branch
    2739                      .dwattr $C$DW$195, DW_AT_low_pc(0x00)
    2740                      .dwattr $C$DW$195, DW_AT_name("__c28xabi_cmpull")
    2741                      .dwattr $C$DW$195, DW_AT_TI_call
    2742              
    2743 00000020 7640!         LCR       #||__c28xabi_cmpull|| ; [CPU_ALU] |419| 
         00000021 0000 
    2744                      ; call occurs [#||__c28xabi_cmpull||] ; [] |419| 
    2745 00000022 5200          CMPB      AL,#0                 ; [CPU_ALU] |419| 
    2746 00000023 6103          B         ||$C$L21||,EQ         ; [CPU_ALU] |419| 
    2747                      ; branchcc occurs ; [] |419| 
    2748 00000024 9A02          MOVB      AL,#2                 ; [CPU_ALU] |419| 
    2749 00000025 6F2D          B         ||$C$L25||,UNC        ; [CPU_ALU] |419| 
    2750                      ; branch occurs ; [] |419| 
    2751 00000026       ||$C$L21||:    
    2752 00000026 9A01          MOVB      AL,#1                 ; [CPU_ALU] |419| 
    2753 00000027 6F2B          B         ||$C$L25||,UNC        ; [CPU_ALU] |419| 
    2754                      ; branch occurs ; [] |419| 
    2755 00000028       ||$C$L22||:    
    2756 00000028 BE00          MOVB      XAR6,#0               ; [CPU_ALU] |419| 
    2757 00000029 A0AB          MOVL      P,XAR5                ; [CPU_ALU] |419| 
    2758 0000002a A8A9          MOVL      ACC,XAR4              ; [CPU_ALU] |419| 
    2759 0000002b 28AC          MOV       T,#52                 ; [CPU_ALU] |419| 
         0000002c 0034 
    2760 0000002d C244          MOVL      *-SP[4],XAR6          ; [CPU_ALU] |419| 
    2761 0000002e 2B42          MOV       *-SP[2],#0            ; [CPU_ALU] |419| 
TMS320C2000 Assembler PC v22.6.2 Wed Dec 10 14:45:02 2025

Copyright (c) 1996-2018 Texas Instruments Incorporated
dual_axis_servo_drive_hal.asm                                        PAGE   54

    2762 0000002f 565B          LSR64     ACC:P,T               ; [CPU_ALU] |419| 
    2763 00000030 2B41          MOV       *-SP[1],#0            ; [CPU_FPU] |419| 
    2764 00000031 9000          ANDB      AL,#0                 ; [CPU_ALU] |419| 
    2765 00000032 9100          ANDB      AH,#0                 ; [CPU_ALU] |419| 
    2766 00000033 18AB          AND       PL,#2047              ; [CPU_ALU] |419| 
         00000034 07FF 
    2767 00000035 18AA          AND       PH,#0                 ; [CPU_ALU] |419| 
         00000036 0000 
    2768              $C$DW$196       .dwtag  DW_TAG_TI_branch
    2769                      .dwattr $C$DW$196, DW_AT_low_pc(0x00)
    2770                      .dwattr $C$DW$196, DW_AT_name("__c28xabi_cmpull")
    2771                      .dwattr $C$DW$196, DW_AT_TI_call
    2772              
    2773 00000037 7640!         LCR       #||__c28xabi_cmpull|| ; [CPU_ALU] |419| 
         00000038 0000 
    2774                      ; call occurs [#||__c28xabi_cmpull||] ; [] |419| 
    2775 00000039 5200          CMPB      AL,#0                 ; [CPU_ALU] |419| 
    2776 0000003a 6104          B         ||$C$L23||,EQ         ; [CPU_ALU] |419| 
    2777                      ; branchcc occurs ; [] |419| 
    2778 0000003b 28A9          MOV       AL,#-1                ; [CPU_ALU] |419| 
         0000003c FFFF 
    2779 0000003d 6F15          B         ||$C$L25||,UNC        ; [CPU_ALU] |419| 
    2780                      ; branch occurs ; [] |419| 
    2781 0000003e       ||$C$L23||:    
    2782 0000003e C244          MOVL      *-SP[4],XAR6          ; [CPU_ALU] |419| 
    2783 0000003f A8A9          MOVL      ACC,XAR4              ; [CPU_ALU] |419| 
    2784 00000040 A0AB          MOVL      P,XAR5                ; [CPU_ALU] |419| 
    2785 00000041 2B42          MOV       *-SP[2],#0            ; [CPU_ALU] |419| 
    2786 00000042 18A9          AND       AL,#65535             ; [CPU_ALU] |419| 
         00000043 FFFF 
    2787 00000044 910F          ANDB      AH,#15                ; [CPU_ALU] |419| 
    2788 00000045 18AB          AND       PL,#65535             ; [CPU_ALU] |419| 
         00000046 FFFF 
    2789 00000047 18AA          AND       PH,#65535             ; [CPU_ALU] |419| 
         00000048 FFFF 
    2790 00000049 2B41          MOV       *-SP[1],#0            ; [CPU_FPU] |419| 
    2791              $C$DW$197       .dwtag  DW_TAG_TI_branch
    2792                      .dwattr $C$DW$197, DW_AT_low_pc(0x00)
    2793                      .dwattr $C$DW$197, DW_AT_name("__c28xabi_cmpull")
    2794                      .dwattr $C$DW$197, DW_AT_TI_call
    2795              
    2796 0000004a 7640!         LCR       #||__c28xabi_cmpull|| ; [CPU_ALU] |419| 
         0000004b 0000 
    2797                      ; call occurs [#||__c28xabi_cmpull||] ; [] |419| 
    2798 0000004c 5200          CMPB      AL,#0                 ; [CPU_ALU] |419| 
    2799 0000004d 6104          B         ||$C$L24||,EQ         ; [CPU_ALU] |419| 
    2800                      ; branchcc occurs ; [] |419| 
    2801 0000004e 28A9          MOV       AL,#-2                ; [CPU_ALU] |419| 
         0000004f FFFE 
    2802 00000050 6F02          B         ||$C$L25||,UNC        ; [CPU_ALU] |419| 
    2803                      ; branch occurs ; [] |419| 
    2804 00000051       ||$C$L24||:    
    2805 00000051 9A00          MOVB      AL,#0                 ; [CPU_ALU] |419| 
    2806 00000052       ||$C$L25||:    
    2807 00000052 FE88          SUBB      SP,#8                 ; [CPU_ARAU] 
TMS320C2000 Assembler PC v22.6.2 Wed Dec 10 14:45:02 2025

Copyright (c) 1996-2018 Texas Instruments Incorporated
dual_axis_servo_drive_hal.asm                                        PAGE   55

    2808                      .dwcfi  cfa_offset, -2
    2809              $C$DW$198       .dwtag  DW_TAG_TI_branch
    2810                      .dwattr $C$DW$198, DW_AT_low_pc(0x00)
    2811                      .dwattr $C$DW$198, DW_AT_TI_return
    2812              
    2813 00000053 0006          LRETR     ; [CPU_ALU] 
    2814                      ; return occurs ; [] 
    2815                      .dwattr $C$DW$191, DW_AT_TI_end_file("C:/ti/ccs2031/ccs/tools/compiler/ti-cgt-c2000_22.6.2.LTS/includ
    2816                      .dwattr $C$DW$191, DW_AT_TI_end_line(0x1ac)
    2817                      .dwattr $C$DW$191, DW_AT_TI_end_column(0x01)
    2818                      .dwendentry
    2819                      .dwendtag $C$DW$191
    2820              
    2821 00000000               .sect   ".text:__fast_lldiv"
    2822                      .clink
    2823                      .global ||__fast_lldiv||
    2824              
    2825              $C$DW$199       .dwtag  DW_TAG_subprogram
    2826                      .dwattr $C$DW$199, DW_AT_name("__fast_lldiv")
    2827                      .dwattr $C$DW$199, DW_AT_low_pc(||__fast_lldiv||)
    2828                      .dwattr $C$DW$199, DW_AT_high_pc(0x00)
    2829                      .dwattr $C$DW$199, DW_AT_linkage_name("__fast_lldiv")
    2830                      .dwattr $C$DW$199, DW_AT_external
    2831                      .dwattr $C$DW$199, DW_AT_type(*$C$DW$T$132)
    2832                      .dwattr $C$DW$199, DW_AT_decl_file("C:/ti/ccs2031/ccs/tools/compiler/ti-cgt-c2000_22.6.2.LTS/include/
    2833                      .dwattr $C$DW$199, DW_AT_decl_line(0x1ab)
    2834                      .dwattr $C$DW$199, DW_AT_decl_column(0x12)
    2835                      .dwattr $C$DW$199, DW_AT_TI_max_frame_size(-14)
    2836                      .dwpsn  file "C:/ti/ccs2031/ccs/tools/compiler/ti-cgt-c2000_22.6.2.LTS/include/stdlib.h",line 428,col
    2837              
    2838                      .dwfde $C$DW$CIE, ||__fast_lldiv||
    2839              $C$DW$200       .dwtag  DW_TAG_formal_parameter
    2840                      .dwattr $C$DW$200, DW_AT_name("_numer")
    2841                      .dwattr $C$DW$200, DW_AT_type(*$C$DW$T$14)
    2842                      .dwattr $C$DW$200, DW_AT_location[DW_OP_reg2]
    2843              
    2844              $C$DW$201       .dwtag  DW_TAG_formal_parameter
    2845                      .dwattr $C$DW$201, DW_AT_name("_denom")
    2846                      .dwattr $C$DW$201, DW_AT_type(*$C$DW$T$14)
    2847                      .dwattr $C$DW$201, DW_AT_location[DW_OP_breg20 -18]
    2848              
    2849              
    2850              ;***************************************************************
    2851              ;* FNAME: __fast_lldiv                  FR SIZE:  12           *
    2852              ;*                                                             *
    2853              ;* FUNCTION ENVIRONMENT                                        *
    2854              ;*                                                             *
    2855              ;* FUNCTION PROPERTIES                                         *
    2856              ;*                            0 Parameter,  8 Auto,  4 SOE     *
    2857              ;***************************************************************
    2858              
    2859 00000000       ||__fast_lldiv||:
    2860                      .dwcfi  cfa_offset, -2
    2861                      .dwcfi  save_reg_to_mem, 26, 0
    2862 00000000 E203          MOV32     *SP++,R4H             ; [CPU_FPU] 
TMS320C2000 Assembler PC v22.6.2 Wed Dec 10 14:45:02 2025

Copyright (c) 1996-2018 Texas Instruments Incorporated
dual_axis_servo_drive_hal.asm                                        PAGE   56

         00000001 04BD 
    2863                      .dwcfi  save_reg_to_mem, 59, 2
    2864                      .dwcfi  cfa_offset, -4
    2865 00000002 E203          MOV32     *SP++,R5H             ; [CPU_FPU] 
         00000003 05BD 
    2866                      .dwcfi  save_reg_to_mem, 63, 4
    2867                      .dwcfi  cfa_offset, -6
    2868 00000004 FE08          ADDB      SP,#8                 ; [CPU_ARAU] 
    2869                      .dwcfi  cfa_offset, -14
    2870 00000005 1EA7          MOVL      XAR7,ACC              ; [CPU_ALU] |428| 
    2871 00000006 5CAD          MOVZ      AR4,SP                ; [CPU_ALU] |428| 
    2872 00000007 06A6          MOVL      ACC,XAR6              ; [CPU_ALU] |428| 
    2873                      .dwpsn  file "C:/ti/ccs2031/ccs/tools/compiler/ti-cgt-c2000_22.6.2.LTS/include/stdlib.h",line 429,col
    2874 00000008 C4A7          MOVL      XAR6,XAR7             ; [CPU_ALU] |429| 
    2875                      .dwpsn  file "C:/ti/ccs2031/ccs/tools/compiler/ti-cgt-c2000_22.6.2.LTS/include/stdlib.h",line 428,col
    2876 00000009 DC92          SUBB      XAR4,#18              ; [CPU_ARAU] |428| 
    2877                      .dwpsn  file "C:/ti/ccs2031/ccs/tools/compiler/ti-cgt-c2000_22.6.2.LTS/include/stdlib.h",line 429,col
    2878 0000000a E2AF          MOV32     R3H,*+XAR4[2]         ; [CPU_FPU] |429| 
         0000000b 03D4 
    2879 0000000c BDA6          MOV32     R1H,XAR6              ; [CPU_FPU] |429| 
         0000000d 0F16 
    2880 0000000e BDAB          MOV32     R0H,P                 ; [CPU_FPU] |429| 
         0000000f 0F12 
    2881 00000010 E2AF          MOV32     R5H,*+XAR4[0]         ; [CPU_FPU] |429| 
         00000011 05C4 
    2882 00000012 5CAD          MOVZ      AR4,SP                ; [CPU_ALU] |429| 
    2883 00000013 DC88          SUBB      XAR4,#8               ; [CPU_ARAU] |429| 
    2884 00000014 80A4          MOVZ      AR7,AR4               ; [CPU_ALU] |429| 
    2885 00000015 E5B8          ABSI64DIV64 R2H:R4H,R1H:R0H,R3H:R5H ; [CPU_FPU] |429| 
    2886 00000016 E565          SUBC2UI64 R2H:R4H,R1H:R0H,R3H:R5H ; [CPU_FPU] |429| 
    2887 00000017 E565          SUBC2UI64 R2H:R4H,R1H:R0H,R3H:R5H ; [CPU_FPU] |429| 
    2888 00000018 E565          SUBC2UI64 R2H:R4H,R1H:R0H,R3H:R5H ; [CPU_FPU] |429| 
    2889 00000019 E565          SUBC2UI64 R2H:R4H,R1H:R0H,R3H:R5H ; [CPU_FPU] |429| 
    2890 0000001a E565          SUBC2UI64 R2H:R4H,R1H:R0H,R3H:R5H ; [CPU_FPU] |429| 
    2891 0000001b E565          SUBC2UI64 R2H:R4H,R1H:R0H,R3H:R5H ; [CPU_FPU] |429| 
    2892 0000001c E565          SUBC2UI64 R2H:R4H,R1H:R0H,R3H:R5H ; [CPU_FPU] |429| 
    2893 0000001d E565          SUBC2UI64 R2H:R4H,R1H:R0H,R3H:R5H ; [CPU_FPU] |429| 
    2894 0000001e E565          SUBC2UI64 R2H:R4H,R1H:R0H,R3H:R5H ; [CPU_FPU] |429| 
    2895 0000001f E565          SUBC2UI64 R2H:R4H,R1H:R0H,R3H:R5H ; [CPU_FPU] |429| 
    2896 00000020 E565          SUBC2UI64 R2H:R4H,R1H:R0H,R3H:R5H ; [CPU_FPU] |429| 
    2897 00000021 E565          SUBC2UI64 R2H:R4H,R1H:R0H,R3H:R5H ; [CPU_FPU] |429| 
    2898 00000022 E565          SUBC2UI64 R2H:R4H,R1H:R0H,R3H:R5H ; [CPU_FPU] |429| 
    2899 00000023 E565          SUBC2UI64 R2H:R4H,R1H:R0H,R3H:R5H ; [CPU_FPU] |429| 
    2900 00000024 E565          SUBC2UI64 R2H:R4H,R1H:R0H,R3H:R5H ; [CPU_FPU] |429| 
    2901 00000025 E565          SUBC2UI64 R2H:R4H,R1H:R0H,R3H:R5H ; [CPU_FPU] |429| 
    2902 00000026 E565          SUBC2UI64 R2H:R4H,R1H:R0H,R3H:R5H ; [CPU_FPU] |429| 
    2903 00000027 E565          SUBC2UI64 R2H:R4H,R1H:R0H,R3H:R5H ; [CPU_FPU] |429| 
    2904 00000028 E565          SUBC2UI64 R2H:R4H,R1H:R0H,R3H:R5H ; [CPU_FPU] |429| 
    2905 00000029 E565          SUBC2UI64 R2H:R4H,R1H:R0H,R3H:R5H ; [CPU_FPU] |429| 
    2906 0000002a E565          SUBC2UI64 R2H:R4H,R1H:R0H,R3H:R5H ; [CPU_FPU] |429| 
    2907 0000002b E565          SUBC2UI64 R2H:R4H,R1H:R0H,R3H:R5H ; [CPU_FPU] |429| 
    2908 0000002c E565          SUBC2UI64 R2H:R4H,R1H:R0H,R3H:R5H ; [CPU_FPU] |429| 
    2909 0000002d E565          SUBC2UI64 R2H:R4H,R1H:R0H,R3H:R5H ; [CPU_FPU] |429| 
    2910 0000002e E565          SUBC2UI64 R2H:R4H,R1H:R0H,R3H:R5H ; [CPU_FPU] |429| 
    2911 0000002f E565          SUBC2UI64 R2H:R4H,R1H:R0H,R3H:R5H ; [CPU_FPU] |429| 
TMS320C2000 Assembler PC v22.6.2 Wed Dec 10 14:45:02 2025

Copyright (c) 1996-2018 Texas Instruments Incorporated
dual_axis_servo_drive_hal.asm                                        PAGE   57

    2912 00000030 E565          SUBC2UI64 R2H:R4H,R1H:R0H,R3H:R5H ; [CPU_FPU] |429| 
    2913 00000031 E565          SUBC2UI64 R2H:R4H,R1H:R0H,R3H:R5H ; [CPU_FPU] |429| 
    2914 00000032 E565          SUBC2UI64 R2H:R4H,R1H:R0H,R3H:R5H ; [CPU_FPU] |429| 
    2915 00000033 E565          SUBC2UI64 R2H:R4H,R1H:R0H,R3H:R5H ; [CPU_FPU] |429| 
    2916 00000034 E565          SUBC2UI64 R2H:R4H,R1H:R0H,R3H:R5H ; [CPU_FPU] |429| 
    2917 00000035 E565          SUBC2UI64 R2H:R4H,R1H:R0H,R3H:R5H ; [CPU_FPU] |429| 
    2918 00000036 E5BA          NEGI64DIV64 R1H:R0H,R2H:R4H     ; [CPU_FPU] |429| 
    2919 00000037 E203          MOV32     *-SP[6],R1H           ; [CPU_FPU] |429| 
         00000038 0146 
    2920 00000039 E203          MOV32     *-SP[8],R0H           ; [CPU_FPU] |429| 
         0000003a 0048 
    2921 0000003b E203          MOV32     *-SP[2],R2H           ; [CPU_FPU] |429| 
         0000003c 0242 
    2922 0000003d E203          MOV32     *-SP[4],R4H           ; [CPU_FPU] |429| 
         0000003e 0444 
    2923 0000003f 6104          B         ||$C$L26||,EQ         ; [CPU_ALU] |429| 
    2924                      ; branchcc occurs ; [] |429| 
    2925 00000040 8AA9          MOVL      XAR4,ACC              ; [CPU_ALU] |429| 
    2926 00000041 F607          RPT       #7
    2927 00000042 2484  ||     PREAD     *XAR4++,*XAR7         ; [CPU_ALU] |429| 
    2928 00000043       ||$C$L26||:    
    2929 00000043 FE88          SUBB      SP,#8                 ; [CPU_ARAU] 
    2930                      .dwcfi  cfa_offset, -6
    2931 00000044 E2AF          MOV32     R5H,*--SP             ; [CPU_FPU] 
         00000045 05BE 
    2932                      .dwcfi  cfa_offset, -4
    2933                      .dwcfi  restore_reg, 63
    2934 00000046 E2AF          MOV32     R4H,*--SP             ; [CPU_FPU] 
         00000047 04BE 
    2935                      .dwcfi  cfa_offset, -2
    2936                      .dwcfi  restore_reg, 59
    2937              $C$DW$202       .dwtag  DW_TAG_TI_branch
    2938                      .dwattr $C$DW$202, DW_AT_low_pc(0x00)
    2939                      .dwattr $C$DW$202, DW_AT_TI_return
    2940              
    2941 00000048 0006          LRETR     ; [CPU_ALU] 
    2942                      ; return occurs ; [] 
    2943                      .dwattr $C$DW$199, DW_AT_TI_end_file("C:/ti/ccs2031/ccs/tools/compiler/ti-cgt-c2000_22.6.2.LTS/includ
    2944                      .dwattr $C$DW$199, DW_AT_TI_end_line(0x1ae)
    2945                      .dwattr $C$DW$199, DW_AT_TI_end_column(0x01)
    2946                      .dwendentry
    2947                      .dwendtag $C$DW$199
    2948              
    2949 00000000               .sect   ".text:__fast_ldiv"
    2950                      .clink
    2951                      .global ||__fast_ldiv||
    2952              
    2953              $C$DW$203       .dwtag  DW_TAG_subprogram
    2954                      .dwattr $C$DW$203, DW_AT_name("__fast_ldiv")
    2955                      .dwattr $C$DW$203, DW_AT_low_pc(||__fast_ldiv||)
    2956                      .dwattr $C$DW$203, DW_AT_high_pc(0x00)
    2957                      .dwattr $C$DW$203, DW_AT_linkage_name("__fast_ldiv")
    2958                      .dwattr $C$DW$203, DW_AT_external
    2959                      .dwattr $C$DW$203, DW_AT_type(*$C$DW$T$129)
    2960                      .dwattr $C$DW$203, DW_AT_decl_file("C:/ti/ccs2031/ccs/tools/compiler/ti-cgt-c2000_22.6.2.LTS/include/
TMS320C2000 Assembler PC v22.6.2 Wed Dec 10 14:45:02 2025

Copyright (c) 1996-2018 Texas Instruments Incorporated
dual_axis_servo_drive_hal.asm                                        PAGE   58

    2961                      .dwattr $C$DW$203, DW_AT_decl_line(0x1a4)
    2962                      .dwattr $C$DW$203, DW_AT_decl_column(0x11)
    2963                      .dwattr $C$DW$203, DW_AT_TI_max_frame_size(-6)
    2964                      .dwpsn  file "C:/ti/ccs2031/ccs/tools/compiler/ti-cgt-c2000_22.6.2.LTS/include/stdlib.h",line 421,col
    2965              
    2966                      .dwfde $C$DW$CIE, ||__fast_ldiv||
    2967              $C$DW$204       .dwtag  DW_TAG_formal_parameter
    2968                      .dwattr $C$DW$204, DW_AT_name("_numer")
    2969                      .dwattr $C$DW$204, DW_AT_type(*$C$DW$T$12)
    2970                      .dwattr $C$DW$204, DW_AT_location[DW_OP_reg0]
    2971              
    2972              $C$DW$205       .dwtag  DW_TAG_formal_parameter
    2973                      .dwattr $C$DW$205, DW_AT_name("_denom")
    2974                      .dwattr $C$DW$205, DW_AT_type(*$C$DW$T$12)
    2975                      .dwattr $C$DW$205, DW_AT_location[DW_OP_breg20 -8]
    2976              
    2977              
    2978              ;***************************************************************
    2979              ;* FNAME: __fast_ldiv                   FR SIZE:   4           *
    2980              ;*                                                             *
    2981              ;* FUNCTION ENVIRONMENT                                        *
    2982              ;*                                                             *
    2983              ;* FUNCTION PROPERTIES                                         *
    2984              ;*                            0 Parameter,  4 Auto,  0 SOE     *
    2985              ;***************************************************************
    2986              
    2987              ||__fast_ldiv||:
    2988              ;* AR7   assigned to _numer
    2989              $C$DW$206       .dwtag  DW_TAG_variable
    2990                      .dwattr $C$DW$206, DW_AT_name("_numer")
    2991                      .dwattr $C$DW$206, DW_AT_type(*$C$DW$T$234)
    2992                      .dwattr $C$DW$206, DW_AT_location[DW_OP_reg18]
    2993              
    2994                      .dwcfi  cfa_offset, -2
    2995                      .dwcfi  save_reg_to_mem, 26, 0
    2996 00000000 FE04          ADDB      SP,#4                 ; [CPU_ARAU] 
    2997                      .dwcfi  cfa_offset, -6
    2998 00000001 1EA7          MOVL      XAR7,ACC              ; [CPU_ALU] |421| 
    2999                      .dwpsn  file "C:/ti/ccs2031/ccs/tools/compiler/ti-cgt-c2000_22.6.2.LTS/include/stdlib.h",line 422,col
    3000 00000002 5CAD          MOVZ      AR4,SP                ; [CPU_ALU] |422| 
    3001 00000003 BDA7          MOV32     R1H,XAR7              ; [CPU_FPU] |422| 
         00000004 0F16 
    3002 00000005 E2AF          MOV32     R3H,*-SP[8]           ; [CPU_FPU] |422| 
         00000006 0348 
    3003 00000007 DC84          SUBB      XAR4,#4               ; [CPU_ARAU] |422| 
    3004                      .dwpsn  file "C:/ti/ccs2031/ccs/tools/compiler/ti-cgt-c2000_22.6.2.LTS/include/stdlib.h",line 421,col
    3005 00000008 06A6          MOVL      ACC,XAR6              ; [CPU_ALU] |421| 
    3006                      .dwpsn  file "C:/ti/ccs2031/ccs/tools/compiler/ti-cgt-c2000_22.6.2.LTS/include/stdlib.h",line 422,col
    3007 00000009 80A4          MOVZ      AR7,AR4               ; [CPU_ALU] |422| 
    3008 0000000a E568          ABSI32DIV32 R2H,R1H,R3H         ; [CPU_FPU] |422| 
    3009 0000000b E564          SUBC4UI32 R2H,R1H,R3H           ; [CPU_FPU] |422| 
    3010 0000000c E564          SUBC4UI32 R2H,R1H,R3H           ; [CPU_FPU] |422| 
    3011 0000000d E564          SUBC4UI32 R2H,R1H,R3H           ; [CPU_FPU] |422| 
    3012 0000000e E564          SUBC4UI32 R2H,R1H,R3H           ; [CPU_FPU] |422| 
    3013 0000000f E564          SUBC4UI32 R2H,R1H,R3H           ; [CPU_FPU] |422| 
TMS320C2000 Assembler PC v22.6.2 Wed Dec 10 14:45:02 2025

Copyright (c) 1996-2018 Texas Instruments Incorporated
dual_axis_servo_drive_hal.asm                                        PAGE   59

    3014 00000010 E564          SUBC4UI32 R2H,R1H,R3H           ; [CPU_FPU] |422| 
    3015 00000011 E564          SUBC4UI32 R2H,R1H,R3H           ; [CPU_FPU] |422| 
    3016 00000012 E564          SUBC4UI32 R2H,R1H,R3H           ; [CPU_FPU] |422| 
    3017 00000013 E56A          NEGI32DIV32 R1H,R2H             ; [CPU_FPU] |422| 
    3018 00000014 E203          MOV32     *-SP[4],R1H           ; [CPU_FPU] |422| 
         00000015 0144 
    3019 00000016 E203          MOV32     *-SP[2],R2H           ; [CPU_FPU] |422| 
         00000017 0242 
    3020 00000018 6104          B         ||$C$L27||,EQ         ; [CPU_ALU] |422| 
    3021                      ; branchcc occurs ; [] |422| 
    3022 00000019 8AA9          MOVL      XAR4,ACC              ; [CPU_ALU] |422| 
    3023 0000001a F603          RPT       #3
    3024 0000001b 2484  ||     PREAD     *XAR4++,*XAR7         ; [CPU_ALU] |422| 
    3025 0000001c       ||$C$L27||:    
    3026 0000001c FE84          SUBB      SP,#4                 ; [CPU_ARAU] 
    3027                      .dwcfi  cfa_offset, -2
    3028              $C$DW$207       .dwtag  DW_TAG_TI_branch
    3029                      .dwattr $C$DW$207, DW_AT_low_pc(0x00)
    3030                      .dwattr $C$DW$207, DW_AT_TI_return
    3031              
    3032 0000001d 0006          LRETR     ; [CPU_ALU] 
    3033                      ; return occurs ; [] 
    3034                      .dwattr $C$DW$203, DW_AT_TI_end_file("C:/ti/ccs2031/ccs/tools/compiler/ti-cgt-c2000_22.6.2.LTS/includ
    3035                      .dwattr $C$DW$203, DW_AT_TI_end_line(0x1a7)
    3036                      .dwattr $C$DW$203, DW_AT_TI_end_column(0x01)
    3037                      .dwendentry
    3038                      .dwendtag $C$DW$203
    3039              
    3040 00000000               .sect   ".text:HAL_setupQEP"
    3041                      .clink
    3042                      .global ||HAL_setupQEP||
    3043              
    3044              $C$DW$208       .dwtag  DW_TAG_subprogram
    3045                      .dwattr $C$DW$208, DW_AT_name("HAL_setupQEP")
    3046                      .dwattr $C$DW$208, DW_AT_low_pc(||HAL_setupQEP||)
    3047                      .dwattr $C$DW$208, DW_AT_high_pc(0x00)
    3048                      .dwattr $C$DW$208, DW_AT_linkage_name("HAL_setupQEP")
    3049                      .dwattr $C$DW$208, DW_AT_external
    3050                      .dwattr $C$DW$208, DW_AT_decl_file("../sources/dual_axis_servo_drive_hal.c")
    3051                      .dwattr $C$DW$208, DW_AT_decl_line(0x52d)
    3052                      .dwattr $C$DW$208, DW_AT_decl_column(0x06)
    3053                      .dwattr $C$DW$208, DW_AT_TI_max_frame_size(-6)
    3054                      .dwpsn  file "../sources/dual_axis_servo_drive_hal.c",line 1326,column 1,is_stmt,address ||HAL_setupQ
    3055              
    3056                      .dwfde $C$DW$CIE, ||HAL_setupQEP||
    3057              $C$DW$209       .dwtag  DW_TAG_formal_parameter
    3058                      .dwattr $C$DW$209, DW_AT_name("handle")
    3059                      .dwattr $C$DW$209, DW_AT_type(*$C$DW$T$142)
    3060                      .dwattr $C$DW$209, DW_AT_location[DW_OP_reg12]
    3061              
    3062              
    3063              ;***************************************************************
    3064              ;* FNAME: HAL_setupQEP                  FR SIZE:   4           *
    3065              ;*                                                             *
    3066              ;* FUNCTION ENVIRONMENT                                        *
TMS320C2000 Assembler PC v22.6.2 Wed Dec 10 14:45:02 2025

Copyright (c) 1996-2018 Texas Instruments Incorporated
dual_axis_servo_drive_hal.asm                                        PAGE   60

    3067              ;*                                                             *
    3068              ;* FUNCTION PROPERTIES                                         *
    3069              ;*                            0 Parameter,  0 Auto,  4 SOE     *
    3070              ;***************************************************************
    3071              
    3072              ||HAL_setupQEP||:
    3073              ;* AR5   assigned to $O$C1
    3074              ;* AR5   assigned to $O$C2
    3075              ;* AL    assigned to $O$K18
    3076              ;* AR5   assigned to $O$U2
    3077              ;* AR4   assigned to handle
    3078              $C$DW$210       .dwtag  DW_TAG_variable
    3079                      .dwattr $C$DW$210, DW_AT_name("handle")
    3080                      .dwattr $C$DW$210, DW_AT_type(*$C$DW$T$143)
    3081                      .dwattr $C$DW$210, DW_AT_location[DW_OP_reg12]
    3082              
    3083              ;* AR5   assigned to base
    3084              $C$DW$211       .dwtag  DW_TAG_variable
    3085                      .dwattr $C$DW$211, DW_AT_name("base")
    3086                      .dwattr $C$DW$211, DW_AT_type(*$C$DW$T$28)
    3087                      .dwattr $C$DW$211, DW_AT_location[DW_OP_reg14]
    3088              
    3089              ;* AR6   assigned to base
    3090              $C$DW$212       .dwtag  DW_TAG_variable
    3091                      .dwattr $C$DW$212, DW_AT_name("base")
    3092                      .dwattr $C$DW$212, DW_AT_type(*$C$DW$T$28)
    3093                      .dwattr $C$DW$212, DW_AT_location[DW_OP_reg16]
    3094              
    3095                      .dwcfi  cfa_offset, -2
    3096                      .dwcfi  save_reg_to_mem, 26, 0
    3097 00000000 B2BD          MOVL      *SP++,XAR1            ; [CPU_ALU] 
    3098                      .dwcfi  save_reg_to_mem, 7, 2
    3099                      .dwcfi  cfa_offset, -4
    3100                      .dwpsn  file "C:/ti/C2000Ware_MotorControl_SDK_5_04_00_00/c2000ware/driverlib/f28002x/driverlib/eqep.
    3101 00000001 D10E          MOVB      XAR1,#14              ; [CPU_ALU] |473| 
    3102 00000002 AABD          MOVL      *SP++,XAR2            ; [CPU_ALU] 
    3103                      .dwcfi  save_reg_to_mem, 9, 4
    3104                      .dwcfi  cfa_offset, -6
    3105 00000003 839C          MOVL      XAR5,*+XAR4[AR1]      ; [CPU_ALU] |473| 
    3106 00000004 D014          MOVB      XAR0,#20              ; [CPU_ALU] |473| 
    3107                      .dwpsn  file "C:/ti/C2000Ware_MotorControl_SDK_5_04_00_00/c2000ware/driverlib/f28002x/driverlib/eqep.
    3108 00000005 D10E          MOVB      XAR1,#14              ; [CPU_ALU] |1832| 
    3109                      .dwpsn  file "C:/ti/C2000Ware_MotorControl_SDK_5_04_00_00/c2000ware/driverlib/f28002x/driverlib/eqep.
    3110 00000006 CC95          AND       AL,*+XAR5[AR0],#0x31ff ; [CPU_ALU] |473| 
         00000007 31FF 
    3111 00000008 D014          MOVB      XAR0,#20              ; [CPU_ALU] |473| 
    3112 00000009 9695          MOV       *+XAR5[AR0],AL        ; [CPU_ALU] |473| 
    3113                      .dwpsn  file "C:/ti/C2000Ware_MotorControl_SDK_5_04_00_00/c2000ware/driverlib/f28002x/driverlib/eqep.
    3114 0000000a 839C          MOVL      XAR5,*+XAR4[AR1]      ; [CPU_ALU] |1832| 
    3115 0000000b D015          MOVB      XAR0,#21              ; [CPU_ALU] |1832| 
    3116                      .dwpsn  file "C:/ti/C2000Ware_MotorControl_SDK_5_04_00_00/c2000ware/driverlib/f28002x/driverlib/eqep.
    3117 0000000c D10E          MOVB      XAR1,#14              ; [CPU_ALU] |1498| 
    3118                      .dwpsn  file "C:/ti/C2000Ware_MotorControl_SDK_5_04_00_00/c2000ware/driverlib/f28002x/driverlib/eqep.
    3119 0000000d CC95          AND       AL,*+XAR5[AR0],#0x3fff ; [CPU_ALU] |1832| 
         0000000e 3FFF 
TMS320C2000 Assembler PC v22.6.2 Wed Dec 10 14:45:02 2025

Copyright (c) 1996-2018 Texas Instruments Incorporated
dual_axis_servo_drive_hal.asm                                        PAGE   61

    3120 0000000f D015          MOVB      XAR0,#21              ; [CPU_ALU] |1832| 
    3121 00000010 1AA9          OR        AL,#0x8000            ; [CPU_ALU] |1832| 
         00000011 8000 
    3122 00000012 9695          MOV       *+XAR5[AR0],AL        ; [CPU_ALU] |1832| 
    3123                      .dwpsn  file "C:/ti/C2000Ware_MotorControl_SDK_5_04_00_00/c2000ware/driverlib/f28002x/driverlib/eqep.
    3124 00000013 839C          MOVL      XAR5,*+XAR4[AR1]      ; [CPU_ALU] |1498| 
    3125 00000014 D015          MOVB      XAR0,#21              ; [CPU_ALU] |1498| 
    3126                      .dwpsn  file "../sources/dual_axis_servo_drive_hal.c",line 1343,column 5,is_stmt,isa 0
    3127 00000015 7680!         MOVL      XAR6,#||halMtr||      ; [CPU_ARAU] |1343| 
         00000016 0000 
    3128                      .dwpsn  file "C:/ti/C2000Ware_MotorControl_SDK_5_04_00_00/c2000ware/driverlib/f28002x/driverlib/eqep.
    3129 00000017 CC95          AND       AL,*+XAR5[AR0],#0xff9f ; [CPU_ALU] |1498| 
         00000018 FF9F 
    3130 00000019 D015          MOVB      XAR0,#21              ; [CPU_ALU] |1498| 
    3131 0000001a 5014          ORB       AL,#0x14              ; [CPU_ALU] |1498| 
    3132 0000001b 9695          MOV       *+XAR5[AR0],AL        ; [CPU_ALU] |1498| 
    3133                      .dwpsn  file "../sources/dual_axis_servo_drive_hal.c",line 1343,column 5,is_stmt,isa 0
    3134 0000001c 06A6          MOVL      ACC,XAR6              ; [CPU_ALU] |1343| 
    3135 0000001d 0FA4          CMPL      ACC,XAR4              ; [CPU_ALU] |1343| 
    3136 0000001e 6114          B         ||$C$L28||,EQ         ; [CPU_ALU] |1343| 
    3137                      ; branchcc occurs ; [] |1343| 
    3138                      .dwpsn  file "../sources/dual_axis_servo_drive_hal.c",line 1352,column 10,is_stmt,isa 0
    3139 0000001f 0912          ADDB      ACC,#18               ; [CPU_ALU] |1352| 
    3140 00000020 0FA4          CMPL      ACC,XAR4              ; [CPU_ALU] |1352| 
    3141 00000021 6023          B         ||$C$L30||,NEQ        ; [CPU_ALU] |1352| 
    3142                      ; branchcc occurs ; [] |1352| 
    3143                      .dwpsn  file "C:/ti/C2000Ware_MotorControl_SDK_5_04_00_00/c2000ware/driverlib/f28002x/driverlib/eqep.
    3144 00000022 D015          MOVB      XAR0,#21              ; [CPU_ALU] |513| 
    3145 00000023 CC95          AND       AL,*+XAR5[AR0],#0xdfff ; [CPU_ALU] |513| 
         00000024 DFFF 
    3146 00000025 D115          MOVB      XAR1,#21              ; [CPU_ALU] |513| 
    3147                      .dwpsn  file "C:/ti/C2000Ware_MotorControl_SDK_5_04_00_00/c2000ware/driverlib/f28002x/driverlib/eqep.
    3148 00000026 8D80          MOVL      XAR2,#3999            ; [CPU_ARAU] |519| 
         00000027 0F9F 
    3149                      .dwpsn  file "C:/ti/C2000Ware_MotorControl_SDK_5_04_00_00/c2000ware/driverlib/f28002x/driverlib/eqep.
    3150 00000028 C4A5          MOVL      XAR6,XAR5             ; [CPU_ALU] |1192| 
    3151                      .dwpsn  file "C:/ti/C2000Ware_MotorControl_SDK_5_04_00_00/c2000ware/driverlib/f28002x/driverlib/eqep.
    3152 00000029 76C0          MOVL      XAR7,#3999            ; [CPU_ARAU] |1201| 
         0000002a 0F9F 
    3153                      .dwpsn  file "C:/ti/C2000Ware_MotorControl_SDK_5_04_00_00/c2000ware/driverlib/f28002x/driverlib/eqep.
    3154 0000002b 1AA9          OR        AL,#0x1000            ; [CPU_ALU] |513| 
         0000002c 1000 
    3155                      .dwpsn  file "C:/ti/C2000Ware_MotorControl_SDK_5_04_00_00/c2000ware/driverlib/f28002x/driverlib/eqep.
    3156 0000002d D010          MOVB      XAR0,#16              ; [CPU_ALU] |1201| 
    3157                      .dwpsn  file "C:/ti/C2000Ware_MotorControl_SDK_5_04_00_00/c2000ware/driverlib/f28002x/driverlib/eqep.
    3158 0000002e 969D          MOV       *+XAR5[AR1],AL        ; [CPU_ALU] |513| 
    3159                      .dwpsn  file "C:/ti/C2000Ware_MotorControl_SDK_5_04_00_00/c2000ware/driverlib/f28002x/driverlib/eqep.
    3160 0000002f AAE5          MOVL      *+XAR5[4],XAR2        ; [CPU_ALU] |519| 
    3161                      .dwpsn  file "C:/ti/C2000Ware_MotorControl_SDK_5_04_00_00/c2000ware/driverlib/f28002x/driverlib/eqep.
    3162 00000030 C396          MOVL      *+XAR6[AR0],XAR7      ; [CPU_ALU] |1201| 
    3163                      .dwpsn  file "../sources/dual_axis_servo_drive_hal.c",line 1359,column 9,is_stmt,isa 0
    3164 00000031 6F0F          B         ||$C$L29||,UNC        ; [CPU_ALU] |1359| 
    3165                      ; branch occurs ; [] |1359| 
    3166 00000032       ||$C$L28||:    
    3167                      .dwpsn  file "C:/ti/C2000Ware_MotorControl_SDK_5_04_00_00/c2000ware/driverlib/f28002x/driverlib/eqep.
TMS320C2000 Assembler PC v22.6.2 Wed Dec 10 14:45:02 2025

Copyright (c) 1996-2018 Texas Instruments Incorporated
dual_axis_servo_drive_hal.asm                                        PAGE   62

    3168 00000032 D015          MOVB      XAR0,#21              ; [CPU_ALU] |513| 
    3169 00000033 CC95          AND       AL,*+XAR5[AR0],#0xdfff ; [CPU_ALU] |513| 
         00000034 DFFF 
    3170 00000035 D115          MOVB      XAR1,#21              ; [CPU_ALU] |513| 
    3171                      .dwpsn  file "C:/ti/C2000Ware_MotorControl_SDK_5_04_00_00/c2000ware/driverlib/f28002x/driverlib/eqep.
    3172 00000036 76C0          MOVL      XAR7,#3999            ; [CPU_ARAU] |519| 
         00000037 0F9F 
    3173                      .dwpsn  file "C:/ti/C2000Ware_MotorControl_SDK_5_04_00_00/c2000ware/driverlib/f28002x/driverlib/eqep.
    3174 00000038 7680          MOVL      XAR6,#3999            ; [CPU_ARAU] |1201| 
         00000039 0F9F 
    3175                      .dwpsn  file "C:/ti/C2000Ware_MotorControl_SDK_5_04_00_00/c2000ware/driverlib/f28002x/driverlib/eqep.
    3176 0000003a 1AA9          OR        AL,#0x1000            ; [CPU_ALU] |513| 
         0000003b 1000 
    3177                      .dwpsn  file "C:/ti/C2000Ware_MotorControl_SDK_5_04_00_00/c2000ware/driverlib/f28002x/driverlib/eqep.
    3178 0000003c D010          MOVB      XAR0,#16              ; [CPU_ALU] |1201| 
    3179                      .dwpsn  file "C:/ti/C2000Ware_MotorControl_SDK_5_04_00_00/c2000ware/driverlib/f28002x/driverlib/eqep.
    3180 0000003d 969D          MOV       *+XAR5[AR1],AL        ; [CPU_ALU] |513| 
    3181                      .dwpsn  file "C:/ti/C2000Ware_MotorControl_SDK_5_04_00_00/c2000ware/driverlib/f28002x/driverlib/eqep.
    3182 0000003e C3E5          MOVL      *+XAR5[4],XAR7        ; [CPU_ALU] |519| 
    3183                      .dwpsn  file "C:/ti/C2000Ware_MotorControl_SDK_5_04_00_00/c2000ware/driverlib/f28002x/driverlib/eqep.
    3184 0000003f C295          MOVL      *+XAR5[AR0],XAR6      ; [CPU_ALU] |1201| 
    3185 00000040       ||$C$L29||:    
    3186                      .dwpsn  file "C:/ti/C2000Ware_MotorControl_SDK_5_04_00_00/c2000ware/driverlib/f28002x/driverlib/eqep.
    3187 00000040 8AA5          MOVL      XAR4,XAR5             ; [CPU_ALU] |1206| 
    3188 00000041 DC15          ADDB      XAR4,#21              ; [CPU_ALU] |1206| 
    3189 00000042 1AC4          OR        *+XAR4[0],#0x0002     ; [CPU_ALU] |1206| 
         00000043 0002 
    3190 00000044       ||$C$L30||:    
    3191                      .dwpsn  file "C:/ti/C2000Ware_MotorControl_SDK_5_04_00_00/c2000ware/driverlib/f28002x/driverlib/eqep.
    3192 00000044 8AA5          MOVL      XAR4,XAR5             ; [CPU_ALU] |1113| 
    3193                      .dwpsn  file "C:/ti/C2000Ware_MotorControl_SDK_5_04_00_00/c2000ware/driverlib/f28002x/driverlib/eqep.
    3194 00000045 C5A5          MOVL      XAR7,XAR5             ; [CPU_ALU] |986| 
    3195                      .dwpsn  file "C:/ti/C2000Ware_MotorControl_SDK_5_04_00_00/c2000ware/driverlib/f28002x/driverlib/eqep.
    3196 00000046 C4A5          MOVL      XAR6,XAR5             ; [CPU_ALU] |654| 
    3197                      .dwpsn  file "C:/ti/C2000Ware_MotorControl_SDK_5_04_00_00/c2000ware/driverlib/f28002x/driverlib/eqep.
    3198 00000047 D016          MOVB      XAR0,#22              ; [CPU_ALU] |958| 
    3199                      .dwpsn  file "C:/ti/C2000Ware_MotorControl_SDK_5_04_00_00/c2000ware/driverlib/f28002x/driverlib/eqep.
    3200 00000048 DC17          ADDB      XAR4,#23              ; [CPU_ALU] |1113| 
    3201 00000049 18C4          AND       *+XAR4[0],#0xefff     ; [CPU_ALU] |1113| 
         0000004a EFFF 
    3202                      .dwpsn  file "C:/ti/C2000Ware_MotorControl_SDK_5_04_00_00/c2000ware/driverlib/f28002x/driverlib/eqep.
    3203 0000004b DF16          ADDB      XAR7,#22              ; [CPU_ALU] |986| 
    3204                      .dwpsn  file "C:/ti/C2000Ware_MotorControl_SDK_5_04_00_00/c2000ware/driverlib/f28002x/driverlib/eqep.
    3205 0000004c DE18          ADDB      XAR6,#24              ; [CPU_ALU] |654| 
    3206                      .dwpsn  file "C:/ti/C2000Ware_MotorControl_SDK_5_04_00_00/c2000ware/driverlib/f28002x/driverlib/eqep.
    3207 0000004d CC95          AND       AL,*+XAR5[AR0],#0xfff0 ; [CPU_FPU] |958| 
         0000004e FFF0 
    3208                      .dwpsn  file "C:/ti/C2000Ware_MotorControl_SDK_5_04_00_00/c2000ware/driverlib/f28002x/driverlib/eqep.
    3209 0000004f 8AA5          MOVL      XAR4,XAR5             ; [CPU_FPU] |406| 
    3210                      .dwpsn  file "C:/ti/C2000Ware_MotorControl_SDK_5_04_00_00/c2000ware/driverlib/f28002x/driverlib/eqep.
    3211 00000050 D016          MOVB      XAR0,#22              ; [CPU_FPU] |958| 
    3212 00000051 5075          ORB       AL,#0x75              ; [CPU_ALU] |958| 
    3213 00000052 9695          MOV       *+XAR5[AR0],AL        ; [CPU_FPU] |958| 
    3214                      .dwpsn  file "C:/ti/C2000Ware_MotorControl_SDK_5_04_00_00/c2000ware/driverlib/f28002x/driverlib/eqep.
    3215 00000053 DC15          ADDB      XAR4,#21              ; [CPU_ALU] |406| 
TMS320C2000 Assembler PC v22.6.2 Wed Dec 10 14:45:02 2025

Copyright (c) 1996-2018 Texas Instruments Incorporated
dual_axis_servo_drive_hal.asm                                        PAGE   63

    3216                      .dwpsn  file "C:/ti/C2000Ware_MotorControl_SDK_5_04_00_00/c2000ware/driverlib/f28002x/driverlib/eqep.
    3217 00000054 1AC7          OR        *+XAR7[0],#0x8000     ; [CPU_FPU] |986| 
         00000055 8000 
    3218                      .dwpsn  file "C:/ti/C2000Ware_MotorControl_SDK_5_04_00_00/c2000ware/driverlib/f28002x/driverlib/eqep.
    3219 00000056 1AC6          OR        *+XAR6[0],#0x0800     ; [CPU_FPU] |654| 
         00000057 0800 
    3220                      .dwpsn  file "C:/ti/C2000Ware_MotorControl_SDK_5_04_00_00/c2000ware/driverlib/f28002x/driverlib/eqep.
    3221 00000058 1AC4          OR        *+XAR4[0],#0x0008     ; [CPU_ALU] |406| 
         00000059 0008 
    3222 0000005a 86BE          MOVL      XAR2,*--SP            ; [CPU_ALU] 
    3223                      .dwcfi  cfa_offset, -4
    3224                      .dwcfi  restore_reg, 9
    3225 0000005b 8BBE          MOVL      XAR1,*--SP            ; [CPU_ALU] 
    3226                      .dwcfi  cfa_offset, -2
    3227                      .dwcfi  restore_reg, 7
    3228              $C$DW$213       .dwtag  DW_TAG_TI_branch
    3229                      .dwattr $C$DW$213, DW_AT_low_pc(0x00)
    3230                      .dwattr $C$DW$213, DW_AT_TI_return
    3231              
    3232 0000005c 0006          LRETR     ; [CPU_ALU] 
    3233                      ; return occurs ; [] 
    3234                      .dwattr $C$DW$208, DW_AT_TI_end_file("../sources/dual_axis_servo_drive_hal.c")
    3235                      .dwattr $C$DW$208, DW_AT_TI_end_line(0x564)
    3236                      .dwattr $C$DW$208, DW_AT_TI_end_column(0x01)
    3237                      .dwendentry
    3238                      .dwendtag $C$DW$208
    3239              
    3240 00000000               .sect   ".text:HAL_setupMotorPWMs"
    3241                      .clink
    3242                      .global ||HAL_setupMotorPWMs||
    3243              
    3244              $C$DW$214       .dwtag  DW_TAG_subprogram
    3245                      .dwattr $C$DW$214, DW_AT_name("HAL_setupMotorPWMs")
    3246                      .dwattr $C$DW$214, DW_AT_low_pc(||HAL_setupMotorPWMs||)
    3247                      .dwattr $C$DW$214, DW_AT_high_pc(0x00)
    3248                      .dwattr $C$DW$214, DW_AT_linkage_name("HAL_setupMotorPWMs")
    3249                      .dwattr $C$DW$214, DW_AT_external
    3250                      .dwattr $C$DW$214, DW_AT_decl_file("../sources/dual_axis_servo_drive_hal.c")
    3251                      .dwattr $C$DW$214, DW_AT_decl_line(0x415)
    3252                      .dwattr $C$DW$214, DW_AT_decl_column(0x06)
    3253                      .dwattr $C$DW$214, DW_AT_TI_max_frame_size(-6)
    3254                      .dwpsn  file "../sources/dual_axis_servo_drive_hal.c",line 1046,column 1,is_stmt,address ||HAL_setupM
    3255              
    3256                      .dwfde $C$DW$CIE, ||HAL_setupMotorPWMs||
    3257              $C$DW$215       .dwtag  DW_TAG_formal_parameter
    3258                      .dwattr $C$DW$215, DW_AT_name("handle")
    3259                      .dwattr $C$DW$215, DW_AT_type(*$C$DW$T$142)
    3260                      .dwattr $C$DW$215, DW_AT_location[DW_OP_reg12]
    3261              
    3262              
    3263              ;***************************************************************
    3264              ;* FNAME: HAL_setupMotorPWMs            FR SIZE:   4           *
    3265              ;*                                                             *
    3266              ;* FUNCTION ENVIRONMENT                                        *
    3267              ;*                                                             *
TMS320C2000 Assembler PC v22.6.2 Wed Dec 10 14:45:02 2025

Copyright (c) 1996-2018 Texas Instruments Incorporated
dual_axis_servo_drive_hal.asm                                        PAGE   64

    3268              ;* FUNCTION PROPERTIES                                         *
    3269              ;*                            0 Parameter,  0 Auto,  4 SOE     *
    3270              ;***************************************************************
    3271              
    3272              ||HAL_setupMotorPWMs||:
    3273              ;* AL    assigned to $O$A1
    3274              ;* AR7   assigned to $O$U10
    3275              ;* AL    assigned to $O$K68
    3276              ;* AR4   assigned to handle
    3277              $C$DW$216       .dwtag  DW_TAG_variable
    3278                      .dwattr $C$DW$216, DW_AT_name("handle")
    3279                      .dwattr $C$DW$216, DW_AT_type(*$C$DW$T$143)
    3280                      .dwattr $C$DW$216, DW_AT_location[DW_OP_reg12]
    3281              
    3282              ;* AR6   assigned to halfPeriod
    3283              $C$DW$217       .dwtag  DW_TAG_variable
    3284                      .dwattr $C$DW$217, DW_AT_name("halfPeriod")
    3285                      .dwattr $C$DW$217, DW_AT_type(*$C$DW$T$172)
    3286                      .dwattr $C$DW$217, DW_AT_location[DW_OP_reg16]
    3287              
    3288              ;* AR2   assigned to base
    3289              $C$DW$218       .dwtag  DW_TAG_variable
    3290                      .dwattr $C$DW$218, DW_AT_name("base")
    3291                      .dwattr $C$DW$218, DW_AT_type(*$C$DW$T$28)
    3292                      .dwattr $C$DW$218, DW_AT_location[DW_OP_reg8]
    3293              
    3294              ;* AR5   assigned to base
    3295              $C$DW$219       .dwtag  DW_TAG_variable
    3296                      .dwattr $C$DW$219, DW_AT_name("base")
    3297                      .dwattr $C$DW$219, DW_AT_type(*$C$DW$T$28)
    3298                      .dwattr $C$DW$219, DW_AT_location[DW_OP_reg14]
    3299              
    3300                      .dwcfi  cfa_offset, -2
    3301                      .dwcfi  save_reg_to_mem, 26, 0
    3302 00000000 B2BD          MOVL      *SP++,XAR1            ; [CPU_ALU] 
    3303                      .dwcfi  save_reg_to_mem, 7, 2
    3304                      .dwcfi  cfa_offset, -4
    3305 00000001 AABD          MOVL      *SP++,XAR2            ; [CPU_ALU] 
    3306                      .dwcfi  save_reg_to_mem, 9, 4
    3307                      .dwcfi  cfa_offset, -6
    3308                      .dwpsn  file "C:\ti\C2000Ware_MotorControl_SDK_5_04_00_00\c2000ware\driverlib\f28002x\driverlib\sysct
    3309 00000002 7622          EALLOW    ; [CPU_ALU] |951| 
    3310                      .dwpsn  file "C:\ti\C2000Ware_MotorControl_SDK_5_04_00_00\c2000ware\driverlib\f28002x\driverlib\sysct
    3311 00000003 8F45          MOVL      XAR5,#381730          ; [CPU_ARAU] |956| 
         00000004 D322 
    3312 00000005 06C5          MOVL      ACC,*+XAR5[0]         ; [CPU_ALU] |956| 
    3313 00000006 18A8          AND       AH,#65531             ; [CPU_ALU] |956| 
         00000007 FFFB 
    3314 00000008 1EC5          MOVL      *+XAR5[0],ACC         ; [CPU_ALU] |956| 
    3315                      .dwpsn  file "C:\ti\C2000Ware_MotorControl_SDK_5_04_00_00\c2000ware\driverlib\f28002x\driverlib\sysct
    3316 00000009 761A          EDIS      ; [CPU_ALU] |957| 
    3317 0000000a C5A4          MOVL      XAR7,XAR4             ; [CPU_ALU] 
    3318 0000000b BE02          MOVB      XAR6,#2               ; [CPU_ALU] 
    3319 0000000c       ||$C$L31||:    
    3320                      .dwpsn  file "C:/ti/C2000Ware_MotorControl_SDK_5_04_00_00/c2000ware/driverlib/f28002x/driverlib/epwm.
TMS320C2000 Assembler PC v22.6.2 Wed Dec 10 14:45:02 2025

Copyright (c) 1996-2018 Texas Instruments Incorporated
dual_axis_servo_drive_hal.asm                                        PAGE   65

    3321 0000000c 83C7          MOVL      XAR5,*+XAR7[0]        ; [CPU_ALU] |1967| 
    3322                      .dwpsn  file "C:/ti/C2000Ware_MotorControl_SDK_5_04_00_00/c2000ware/driverlib/f28002x/driverlib/epwm.
    3323 0000000d 0263          MOVB      ACC,#99               ; [CPU_ALU] |2383| 
    3324                      .dwpsn  file "C:/ti/C2000Ware_MotorControl_SDK_5_04_00_00/c2000ware/driverlib/f28002x/driverlib/epwm.
    3325 0000000e 1AC5          OR        *+XAR5[0],#0x0008     ; [CPU_ALU] |1967| 
         0000000f 0008 
    3326                      .dwpsn  file "C:/ti/C2000Ware_MotorControl_SDK_5_04_00_00/c2000ware/driverlib/f28002x/driverlib/epwm.
    3327 00000010 07C7          ADDL      ACC,*+XAR7[0]         ; [CPU_ALU] |2383| 
    3328 00000011 83A9          MOVL      XAR5,ACC              ; [CPU_ALU] |2383| 
    3329                      .dwpsn  file "C:/ti/C2000Ware_MotorControl_SDK_5_04_00_00/c2000ware/driverlib/f28002x/driverlib/epwm.
    3330 00000012 0260          MOVB      ACC,#96               ; [CPU_ALU] |2349| 
    3331                      .dwpsn  file "C:/ti/C2000Ware_MotorControl_SDK_5_04_00_00/c2000ware/driverlib/f28002x/driverlib/epwm.
    3332 00000013 2BC5          MOV       *+XAR5[0],#0          ; [CPU_ALU] |2383| 
    3333                      .dwpsn  file "C:/ti/C2000Ware_MotorControl_SDK_5_04_00_00/c2000ware/driverlib/f28002x/driverlib/epwm.
    3334 00000014 07C7          ADDL      ACC,*+XAR7[0]         ; [CPU_ALU] |2349| 
    3335 00000015 83A9          MOVL      XAR5,ACC              ; [CPU_ALU] |2349| 
    3336 00000016 0260          MOVB      ACC,#96               ; [CPU_ALU] |2349| 
    3337 00000017 A3C5          MOVL      P,*+XAR5[0]           ; [CPU_ALU] |2349| 
    3338 00000018 07C7          ADDL      ACC,*+XAR7[0]         ; [CPU_ALU] |2349| 
    3339 00000019 83A9          MOVL      XAR5,ACC              ; [CPU_ALU] |2349| 
    3340 0000001a 18AA          AND       PH,#0                 ; [CPU_ALU] |2349| 
         0000001b 0000 
    3341 0000001c A9C5          MOVL      *+XAR5[0],P           ; [CPU_ALU] |2349| 
    3342                      .dwpsn  file "C:/ti/C2000Ware_MotorControl_SDK_5_04_00_00/c2000ware/driverlib/f28002x/driverlib/epwm.
    3343 0000001d 83C7          MOVL      XAR5,*+XAR7[0]        ; [CPU_ALU] |1647| 
    3344 0000001e 2BE5          MOV       *+XAR5[4],#0          ; [CPU_ALU] |1647| 
