TMS320C2000 Assembler PC v22.6.2 Wed Dec 10 14:45:02 2025

Copyright (c) 1996-2018 Texas Instruments Incorporated
fcl_foc_cpu_dm.asm                                                   PAGE    1

       1              ;***************************************************************
       2              ;* TMS320C2000 G3 C/C++ Codegen                               PC v22.6.2.LTS *
       3              ;* Date/Time created: Wed Dec 10 14:45:01 2025                 *
       4              ;***************************************************************
       5                      .compiler_opts --abi=eabi --diag_wrap=off --float_support=fpu32 --hll_source=on --idiv_support=idiv0 
       6                      .asg    XAR2, FP
       7              
       8              $C$DW$CU        .dwtag  DW_TAG_compile_unit
       9                      .dwattr $C$DW$CU, DW_AT_name("../sources/fcl_foc_cpu_dm.c")
      10                      .dwattr $C$DW$CU, DW_AT_producer("TI TMS320C2000 G3 C/C++ Codegen PC v22.6.2.LTS Copyright (c) 1996-2
      11                      .dwattr $C$DW$CU, DW_AT_TI_version(0x01)
      12                      .dwattr $C$DW$CU, DW_AT_comp_dir("C:\Users\Teddy\Documents\GitHub\2512_TI_DSP_BLDC_MotorControlSDK\1.
      13              ;       C:\ti\ccs2031\ccs\tools\compiler\ti-cgt-c2000_22.6.2.LTS\bin\opt2000.exe C:\\Users\\Teddy\\AppData\\L
      14              ;       C:\ti\ccs2031\ccs\tools\compiler\ti-cgt-c2000_22.6.2.LTS\bin\acia2000.exe -@C:\\Users\\Teddy\\AppData
      15 00000000               .sect   ".text:__signbitl"
      16                      .clink
      17                      .global ||__signbitl||
      18              
      19              $C$DW$1 .dwtag  DW_TAG_subprogram
      20                      .dwattr $C$DW$1, DW_AT_name("__signbitl")
      21                      .dwattr $C$DW$1, DW_AT_low_pc(||__signbitl||)
      22                      .dwattr $C$DW$1, DW_AT_high_pc(0x00)
      23                      .dwattr $C$DW$1, DW_AT_linkage_name("__signbitl")
      24                      .dwattr $C$DW$1, DW_AT_external
      25                      .dwattr $C$DW$1, DW_AT_type(*$C$DW$T$10)
      26                      .dwattr $C$DW$1, DW_AT_decl_file("C:/ti/ccs2031/ccs/tools/compiler/ti-cgt-c2000_22.6.2.LTS/include/_d
      27                      .dwattr $C$DW$1, DW_AT_decl_line(0x16f)
      28                      .dwattr $C$DW$1, DW_AT_decl_column(0x18)
      29                      .dwattr $C$DW$1, DW_AT_TI_max_frame_size(-6)
      30                      .dwpsn  file "C:/ti/ccs2031/ccs/tools/compiler/ti-cgt-c2000_22.6.2.LTS/include/_defs.h",line 368,colu
      31              
      32                      .dwfde $C$DW$CIE, ||__signbitl||
      33              $C$DW$2 .dwtag  DW_TAG_formal_parameter
      34                      .dwattr $C$DW$2, DW_AT_name("e")
      35                      .dwattr $C$DW$2, DW_AT_type(*$C$DW$T$171)
      36                      .dwattr $C$DW$2, DW_AT_location[DW_OP_reg12]
      37              
      38              
      39              ;***************************************************************
      40              ;* FNAME: __signbitl                    FR SIZE:   4           *
      41              ;*                                                             *
      42              ;* FUNCTION ENVIRONMENT                                        *
      43              ;*                                                             *
      44              ;* FUNCTION PROPERTIES                                         *
      45              ;*                            4 Parameter,  0 Auto,  0 SOE     *
      46              ;***************************************************************
      47              
      48              ||__signbitl||:
      49              ;* AR4   assigned to e
      50              $C$DW$3 .dwtag  DW_TAG_variable
      51                      .dwattr $C$DW$3, DW_AT_name("e")
      52                      .dwattr $C$DW$3, DW_AT_type(*$C$DW$T$172)
      53                      .dwattr $C$DW$3, DW_AT_location[DW_OP_reg12]
      54              
      55                      .dwcfi  cfa_offset, -2
TMS320C2000 Assembler PC v22.6.2 Wed Dec 10 14:45:02 2025

Copyright (c) 1996-2018 Texas Instruments Incorporated
fcl_foc_cpu_dm.asm                                                   PAGE    2

      56                      .dwcfi  save_reg_to_mem, 26, 0
      57 00000000 FE04          ADDB      SP,#4                 ; [CPU_ARAU] 
      58                      .dwcfi  cfa_offset, -6
      59                      .dwpsn  file "C:/ti/ccs2031/ccs/tools/compiler/ti-cgt-c2000_22.6.2.LTS/include/_defs.h",line 368,colu
      60 00000001 0200          MOVB      ACC,#0                ; [CPU_ALU] |368| 
      61 00000002 1E44          MOVL      *-SP[4],ACC           ; [CPU_ALU] |368| 
      62 00000003 2B42          MOV       *-SP[2],#0            ; [CPU_ALU] |368| 
      63 00000004 2B41          MOV       *-SP[1],#0            ; [CPU_ALU] |368| 
      64 00000005 A3C4          MOVL      P,*+XAR4[0]           ; [CPU_ALU] |368| 
      65 00000006 06D4          MOVL      ACC,*+XAR4[2]         ; [CPU_ALU] |368| 
      66 00000007 18AB          AND       PL,#0                 ; [CPU_ALU] |368| 
         00000008 0000 
      67 00000009 18AA          AND       PH,#0                 ; [CPU_ALU] |368| 
         0000000a 0000 
      68 0000000b 9000          ANDB      AL,#0                 ; [CPU_ALU] |368| 
      69 0000000c 18A8          AND       AH,#32768             ; [CPU_ALU] |368| 
         0000000d 8000 
      70              $C$DW$4 .dwtag  DW_TAG_TI_branch
      71                      .dwattr $C$DW$4, DW_AT_low_pc(0x00)
      72                      .dwattr $C$DW$4, DW_AT_name("__c28xabi_cmpull")
      73                      .dwattr $C$DW$4, DW_AT_TI_call
      74              
      75 0000000e 7640!         LCR       #||__c28xabi_cmpull|| ; [CPU_ALU] |368| 
         0000000f 0000 
      76                      ; call occurs [#||__c28xabi_cmpull||] ; [] |368| 
      77 00000010 9B00          MOVB      AH,#0                 ; [CPU_ALU] |368| 
      78 00000011 5200          CMPB      AL,#0                 ; [CPU_ALU] |368| 
      79 00000012 56B0          MOVB      AH,#1,NEQ             ; [CPU_ALU] |368| 
         00000013 01A8 
      80 00000014 92A8          MOV       AL,AH                 ; [CPU_ALU] |368| 
      81 00000015 FE84          SUBB      SP,#4                 ; [CPU_ARAU] 
      82                      .dwcfi  cfa_offset, -2
      83              $C$DW$5 .dwtag  DW_TAG_TI_branch
      84                      .dwattr $C$DW$5, DW_AT_low_pc(0x00)
      85                      .dwattr $C$DW$5, DW_AT_TI_return
      86              
      87 00000016 0006          LRETR     ; [CPU_ALU] 
      88                      ; return occurs ; [] 
      89                      .dwattr $C$DW$1, DW_AT_TI_end_file("C:/ti/ccs2031/ccs/tools/compiler/ti-cgt-c2000_22.6.2.LTS/include/
      90                      .dwattr $C$DW$1, DW_AT_TI_end_line(0x170)
      91                      .dwattr $C$DW$1, DW_AT_TI_end_column(0x2b)
      92                      .dwendentry
      93                      .dwendtag $C$DW$1
      94              
      95 00000000               .sect   ".text:__signbitf"
      96                      .clink
      97                      .global ||__signbitf||
      98              
      99              $C$DW$6 .dwtag  DW_TAG_subprogram
     100                      .dwattr $C$DW$6, DW_AT_name("__signbitf")
     101                      .dwattr $C$DW$6, DW_AT_low_pc(||__signbitf||)
     102                      .dwattr $C$DW$6, DW_AT_high_pc(0x00)
     103                      .dwattr $C$DW$6, DW_AT_linkage_name("__signbitf")
     104                      .dwattr $C$DW$6, DW_AT_external
     105                      .dwattr $C$DW$6, DW_AT_type(*$C$DW$T$10)
TMS320C2000 Assembler PC v22.6.2 Wed Dec 10 14:45:02 2025

Copyright (c) 1996-2018 Texas Instruments Incorporated
fcl_foc_cpu_dm.asm                                                   PAGE    3

     106                      .dwattr $C$DW$6, DW_AT_decl_file("C:/ti/ccs2031/ccs/tools/compiler/ti-cgt-c2000_22.6.2.LTS/include/_d
     107                      .dwattr $C$DW$6, DW_AT_decl_line(0x16d)
     108                      .dwattr $C$DW$6, DW_AT_decl_column(0x18)
     109                      .dwattr $C$DW$6, DW_AT_TI_max_frame_size(-2)
     110                      .dwpsn  file "C:/ti/ccs2031/ccs/tools/compiler/ti-cgt-c2000_22.6.2.LTS/include/_defs.h",line 366,colu
     111              
     112                      .dwfde $C$DW$CIE, ||__signbitf||
     113              $C$DW$7 .dwtag  DW_TAG_formal_parameter
     114                      .dwattr $C$DW$7, DW_AT_name("f")
     115                      .dwattr $C$DW$7, DW_AT_type(*$C$DW$T$16)
     116                      .dwattr $C$DW$7, DW_AT_location[DW_OP_regx 0x2b]
     117              
     118              
     119              ;***************************************************************
     120              ;* FNAME: __signbitf                    FR SIZE:   0           *
     121              ;*                                                             *
     122              ;* FUNCTION ENVIRONMENT                                        *
     123              ;*                                                             *
     124              ;* FUNCTION PROPERTIES                                         *
     125              ;*                            0 Parameter,  0 Auto,  0 SOE     *
     126              ;***************************************************************
     127              
     128              ||__signbitf||:
     129              ;* R0    assigned to f
     130              $C$DW$8 .dwtag  DW_TAG_variable
     131                      .dwattr $C$DW$8, DW_AT_name("f")
     132                      .dwattr $C$DW$8, DW_AT_type(*$C$DW$T$167)
     133                      .dwattr $C$DW$8, DW_AT_location[DW_OP_regx 0x2b]
     134              
     135                      .dwcfi  cfa_offset, -2
     136                      .dwcfi  save_reg_to_mem, 26, 0
     137                      .dwpsn  file "C:/ti/ccs2031/ccs/tools/compiler/ti-cgt-c2000_22.6.2.LTS/include/_defs.h",line 366,colu
     138 00000000 BFA9          MOV32     ACC,R0H               ; [CPU_FPU] |366| 
         00000001 0F12 
     139 00000002 BE00          MOVB      XAR6,#0               ; [CPU_ALU] |366| 
     140 00000003 9000          ANDB      AL,#0                 ; [CPU_ALU] |366| 
     141 00000004 18A8          AND       AH,#32768             ; [CPU_ALU] |366| 
         00000005 8000 
     142 00000006 FF58          TEST      ACC                   ; [CPU_ALU] |366| 
     143 00000007 56B0          MOVB      XAR6,#1,NEQ           ; [CPU_ALU] |366| 
         00000008 01A6 
     144 00000009 92A6          MOV       AL,AR6                ; [CPU_ALU] |366| 
     145              $C$DW$9 .dwtag  DW_TAG_TI_branch
     146                      .dwattr $C$DW$9, DW_AT_low_pc(0x00)
     147                      .dwattr $C$DW$9, DW_AT_TI_return
     148              
     149 0000000a 0006          LRETR     ; [CPU_ALU] 
     150                      ; return occurs ; [] 
     151                      .dwattr $C$DW$6, DW_AT_TI_end_file("C:/ti/ccs2031/ccs/tools/compiler/ti-cgt-c2000_22.6.2.LTS/include/
     152                      .dwattr $C$DW$6, DW_AT_TI_end_line(0x16e)
     153                      .dwattr $C$DW$6, DW_AT_TI_end_column(0x29)
     154                      .dwendentry
     155                      .dwendtag $C$DW$6
     156              
     157 00000000               .sect   ".text:__signbit"
TMS320C2000 Assembler PC v22.6.2 Wed Dec 10 14:45:02 2025

Copyright (c) 1996-2018 Texas Instruments Incorporated
fcl_foc_cpu_dm.asm                                                   PAGE    4

     158                      .clink
     159                      .global ||__signbit||
     160              
     161              $C$DW$10        .dwtag  DW_TAG_subprogram
     162                      .dwattr $C$DW$10, DW_AT_name("__signbit")
     163                      .dwattr $C$DW$10, DW_AT_low_pc(||__signbit||)
     164                      .dwattr $C$DW$10, DW_AT_high_pc(0x00)
     165                      .dwattr $C$DW$10, DW_AT_linkage_name("__signbit")
     166                      .dwattr $C$DW$10, DW_AT_external
     167                      .dwattr $C$DW$10, DW_AT_type(*$C$DW$T$10)
     168                      .dwattr $C$DW$10, DW_AT_decl_file("C:/ti/ccs2031/ccs/tools/compiler/ti-cgt-c2000_22.6.2.LTS/include/_
     169                      .dwattr $C$DW$10, DW_AT_decl_line(0x16b)
     170                      .dwattr $C$DW$10, DW_AT_decl_column(0x18)
     171                      .dwattr $C$DW$10, DW_AT_TI_max_frame_size(-6)
     172                      .dwpsn  file "C:/ti/ccs2031/ccs/tools/compiler/ti-cgt-c2000_22.6.2.LTS/include/_defs.h",line 364,colu
     173              
     174                      .dwfde $C$DW$CIE, ||__signbit||
     175              $C$DW$11        .dwtag  DW_TAG_formal_parameter
     176                      .dwattr $C$DW$11, DW_AT_name("d")
     177                      .dwattr $C$DW$11, DW_AT_type(*$C$DW$T$168)
     178                      .dwattr $C$DW$11, DW_AT_location[DW_OP_reg12]
     179              
     180              
     181              ;***************************************************************
     182              ;* FNAME: __signbit                     FR SIZE:   4           *
     183              ;*                                                             *
     184              ;* FUNCTION ENVIRONMENT                                        *
     185              ;*                                                             *
     186              ;* FUNCTION PROPERTIES                                         *
     187              ;*                            4 Parameter,  0 Auto,  0 SOE     *
     188              ;***************************************************************
     189              
     190              ||__signbit||:
     191              ;* AR4   assigned to d
     192              $C$DW$12        .dwtag  DW_TAG_variable
     193                      .dwattr $C$DW$12, DW_AT_name("d")
     194                      .dwattr $C$DW$12, DW_AT_type(*$C$DW$T$169)
     195                      .dwattr $C$DW$12, DW_AT_location[DW_OP_reg12]
     196              
     197                      .dwcfi  cfa_offset, -2
     198                      .dwcfi  save_reg_to_mem, 26, 0
     199 00000000 FE04          ADDB      SP,#4                 ; [CPU_ARAU] 
     200                      .dwcfi  cfa_offset, -6
     201                      .dwpsn  file "C:/ti/ccs2031/ccs/tools/compiler/ti-cgt-c2000_22.6.2.LTS/include/_defs.h",line 364,colu
     202 00000001 0200          MOVB      ACC,#0                ; [CPU_ALU] |364| 
     203 00000002 1E44          MOVL      *-SP[4],ACC           ; [CPU_ALU] |364| 
     204 00000003 2B42          MOV       *-SP[2],#0            ; [CPU_ALU] |364| 
     205 00000004 2B41          MOV       *-SP[1],#0            ; [CPU_ALU] |364| 
     206 00000005 A3C4          MOVL      P,*+XAR4[0]           ; [CPU_ALU] |364| 
     207 00000006 06D4          MOVL      ACC,*+XAR4[2]         ; [CPU_ALU] |364| 
     208 00000007 18AB          AND       PL,#0                 ; [CPU_ALU] |364| 
         00000008 0000 
     209 00000009 18AA          AND       PH,#0                 ; [CPU_ALU] |364| 
         0000000a 0000 
     210 0000000b 9000          ANDB      AL,#0                 ; [CPU_ALU] |364| 
TMS320C2000 Assembler PC v22.6.2 Wed Dec 10 14:45:02 2025

Copyright (c) 1996-2018 Texas Instruments Incorporated
fcl_foc_cpu_dm.asm                                                   PAGE    5

     211 0000000c 18A8          AND       AH,#32768             ; [CPU_ALU] |364| 
         0000000d 8000 
     212              $C$DW$13        .dwtag  DW_TAG_TI_branch
     213                      .dwattr $C$DW$13, DW_AT_low_pc(0x00)
     214                      .dwattr $C$DW$13, DW_AT_name("__c28xabi_cmpull")
     215                      .dwattr $C$DW$13, DW_AT_TI_call
     216              
     217 0000000e 7640!         LCR       #||__c28xabi_cmpull|| ; [CPU_ALU] |364| 
         0000000f 0000 
     218                      ; call occurs [#||__c28xabi_cmpull||] ; [] |364| 
     219 00000010 9B00          MOVB      AH,#0                 ; [CPU_ALU] |364| 
     220 00000011 5200          CMPB      AL,#0                 ; [CPU_ALU] |364| 
     221 00000012 56B0          MOVB      AH,#1,NEQ             ; [CPU_ALU] |364| 
         00000013 01A8 
     222 00000014 92A8          MOV       AL,AH                 ; [CPU_ALU] |364| 
     223 00000015 FE84          SUBB      SP,#4                 ; [CPU_ARAU] 
     224                      .dwcfi  cfa_offset, -2
     225              $C$DW$14        .dwtag  DW_TAG_TI_branch
     226                      .dwattr $C$DW$14, DW_AT_low_pc(0x00)
     227                      .dwattr $C$DW$14, DW_AT_TI_return
     228              
     229 00000016 0006          LRETR     ; [CPU_ALU] 
     230                      ; return occurs ; [] 
     231                      .dwattr $C$DW$10, DW_AT_TI_end_file("C:/ti/ccs2031/ccs/tools/compiler/ti-cgt-c2000_22.6.2.LTS/include
     232                      .dwattr $C$DW$10, DW_AT_TI_end_line(0x16c)
     233                      .dwattr $C$DW$10, DW_AT_TI_end_column(0x2a)
     234                      .dwendentry
     235                      .dwendtag $C$DW$10
     236              
     237 00000000               .sect   ".text:__relaxed_sqrtf"
     238                      .clink
     239                      .global ||__relaxed_sqrtf||
     240              
     241              $C$DW$15        .dwtag  DW_TAG_subprogram
     242                      .dwattr $C$DW$15, DW_AT_name("__relaxed_sqrtf")
     243                      .dwattr $C$DW$15, DW_AT_low_pc(||__relaxed_sqrtf||)
     244                      .dwattr $C$DW$15, DW_AT_high_pc(0x00)
     245                      .dwattr $C$DW$15, DW_AT_linkage_name("__relaxed_sqrtf")
     246                      .dwattr $C$DW$15, DW_AT_external
     247                      .dwattr $C$DW$15, DW_AT_type(*$C$DW$T$16)
     248                      .dwattr $C$DW$15, DW_AT_decl_file("C:/ti/ccs2031/ccs/tools/compiler/ti-cgt-c2000_22.6.2.LTS/include/m
     249                      .dwattr $C$DW$15, DW_AT_decl_line(0x103)
     250                      .dwattr $C$DW$15, DW_AT_decl_column(0x10)
     251                      .dwattr $C$DW$15, DW_AT_TI_max_frame_size(-2)
     252                      .dwpsn  file "C:/ti/ccs2031/ccs/tools/compiler/ti-cgt-c2000_22.6.2.LTS/include/math.h",line 260,colum
     253              
     254                      .dwfde $C$DW$CIE, ||__relaxed_sqrtf||
     255              $C$DW$16        .dwtag  DW_TAG_formal_parameter
     256                      .dwattr $C$DW$16, DW_AT_name("x")
     257                      .dwattr $C$DW$16, DW_AT_type(*$C$DW$T$16)
     258                      .dwattr $C$DW$16, DW_AT_location[DW_OP_regx 0x2b]
     259              
     260              
     261              ;***************************************************************
     262              ;* FNAME: __relaxed_sqrtf               FR SIZE:   0           *
TMS320C2000 Assembler PC v22.6.2 Wed Dec 10 14:45:02 2025

Copyright (c) 1996-2018 Texas Instruments Incorporated
fcl_foc_cpu_dm.asm                                                   PAGE    6

     263              ;*                                                             *
     264              ;* FUNCTION ENVIRONMENT                                        *
     265              ;*                                                             *
     266              ;* FUNCTION PROPERTIES                                         *
     267              ;*                            0 Parameter,  0 Auto,  0 SOE     *
     268              ;***************************************************************
     269              
     270              ||__relaxed_sqrtf||:
     271              ;* R0    assigned to x
     272              $C$DW$17        .dwtag  DW_TAG_variable
     273                      .dwattr $C$DW$17, DW_AT_name("x")
     274                      .dwattr $C$DW$17, DW_AT_type(*$C$DW$T$167)
     275                      .dwattr $C$DW$17, DW_AT_location[DW_OP_regx 0x2b]
     276              
     277                      .dwcfi  cfa_offset, -2
     278                      .dwcfi  save_reg_to_mem, 26, 0
     279                      .dwpsn  file "C:/ti/ccs2031/ccs/tools/compiler/ti-cgt-c2000_22.6.2.LTS/include/math.h",line 261,colum
     280 00000000 E277          SQRTF32   R0H,R0H               ; [CPU_FPU] |261| 
         00000001 0000 
     281 00000002 7700          NOP       ; [CPU_ALU] 
     282 00000003 7700          NOP       ; [CPU_ALU] 
     283 00000004 7700          NOP       ; [CPU_ALU] 
     284              $C$DW$18        .dwtag  DW_TAG_TI_branch
     285                      .dwattr $C$DW$18, DW_AT_low_pc(0x00)
     286                      .dwattr $C$DW$18, DW_AT_TI_return
     287              
     288 00000005 0006          LRETR     ; [CPU_ALU] 
     289                      ; return occurs ; [] 
     290                      .dwattr $C$DW$15, DW_AT_TI_end_file("C:/ti/ccs2031/ccs/tools/compiler/ti-cgt-c2000_22.6.2.LTS/include
     291                      .dwattr $C$DW$15, DW_AT_TI_end_line(0x106)
     292                      .dwattr $C$DW$15, DW_AT_TI_end_column(0x01)
     293                      .dwendentry
     294                      .dwendtag $C$DW$15
     295              
     296 00000000               .sect   ".text:__relaxed_sinf"
     297                      .clink
     298                      .global ||__relaxed_sinf||
     299              
     300              $C$DW$19        .dwtag  DW_TAG_subprogram
     301                      .dwattr $C$DW$19, DW_AT_name("__relaxed_sinf")
     302                      .dwattr $C$DW$19, DW_AT_low_pc(||__relaxed_sinf||)
     303                      .dwattr $C$DW$19, DW_AT_high_pc(0x00)
     304                      .dwattr $C$DW$19, DW_AT_linkage_name("__relaxed_sinf")
     305                      .dwattr $C$DW$19, DW_AT_external
     306                      .dwattr $C$DW$19, DW_AT_type(*$C$DW$T$16)
     307                      .dwattr $C$DW$19, DW_AT_decl_file("C:/ti/ccs2031/ccs/tools/compiler/ti-cgt-c2000_22.6.2.LTS/include/m
     308                      .dwattr $C$DW$19, DW_AT_decl_line(0x108)
     309                      .dwattr $C$DW$19, DW_AT_decl_column(0x10)
     310                      .dwattr $C$DW$19, DW_AT_TI_max_frame_size(-2)
     311                      .dwpsn  file "C:/ti/ccs2031/ccs/tools/compiler/ti-cgt-c2000_22.6.2.LTS/include/math.h",line 265,colum
     312              
     313                      .dwfde $C$DW$CIE, ||__relaxed_sinf||
     314              $C$DW$20        .dwtag  DW_TAG_formal_parameter
     315                      .dwattr $C$DW$20, DW_AT_name("x")
     316                      .dwattr $C$DW$20, DW_AT_type(*$C$DW$T$16)
TMS320C2000 Assembler PC v22.6.2 Wed Dec 10 14:45:02 2025

Copyright (c) 1996-2018 Texas Instruments Incorporated
fcl_foc_cpu_dm.asm                                                   PAGE    7

     317                      .dwattr $C$DW$20, DW_AT_location[DW_OP_regx 0x2b]
     318              
     319              
     320              ;***************************************************************
     321              ;* FNAME: __relaxed_sinf                FR SIZE:   0           *
     322              ;*                                                             *
     323              ;* FUNCTION ENVIRONMENT                                        *
     324              ;*                                                             *
     325              ;* FUNCTION PROPERTIES                                         *
     326              ;*                            0 Parameter,  0 Auto,  0 SOE     *
     327              ;***************************************************************
     328              
     329              ||__relaxed_sinf||:
     330              ;* R0    assigned to x
     331              $C$DW$21        .dwtag  DW_TAG_variable
     332                      .dwattr $C$DW$21, DW_AT_name("x")
     333                      .dwattr $C$DW$21, DW_AT_type(*$C$DW$T$167)
     334                      .dwattr $C$DW$21, DW_AT_location[DW_OP_regx 0x2b]
     335              
     336                      .dwcfi  cfa_offset, -2
     337                      .dwcfi  save_reg_to_mem, 26, 0
     338                      .dwpsn  file "C:/ti/ccs2031/ccs/tools/compiler/ti-cgt-c2000_22.6.2.LTS/include/math.h",line 266,colum
     339 00000000 E271          DIV2PIF32 R0H,R0H               ; [CPU_FPU] |266| 
         00000001 0000 
     340 00000002 7700          NOP       ; [CPU_ALU] 
     341 00000003 E278          SINPUF32  R0H,R0H               ; [CPU_FPU] |266| 
         00000004 0000 
     342 00000005 7700          NOP       ; [CPU_ALU] 
     343 00000006 7700          NOP       ; [CPU_ALU] 
     344              $C$DW$22        .dwtag  DW_TAG_TI_branch
     345                      .dwattr $C$DW$22, DW_AT_low_pc(0x00)
     346                      .dwattr $C$DW$22, DW_AT_TI_return
     347              
     348 00000007 0006          LRETR     ; [CPU_ALU] 
     349                      ; return occurs ; [] 
     350                      .dwattr $C$DW$19, DW_AT_TI_end_file("C:/ti/ccs2031/ccs/tools/compiler/ti-cgt-c2000_22.6.2.LTS/include
     351                      .dwattr $C$DW$19, DW_AT_TI_end_line(0x10b)
     352                      .dwattr $C$DW$19, DW_AT_TI_end_column(0x01)
     353                      .dwendentry
     354                      .dwendtag $C$DW$19
     355              
     356 00000000               .sect   ".text:__relaxed_powf"
     357                      .clink
     358                      .global ||__relaxed_powf||
     359              
     360              $C$DW$23        .dwtag  DW_TAG_subprogram
     361                      .dwattr $C$DW$23, DW_AT_name("__relaxed_powf")
     362                      .dwattr $C$DW$23, DW_AT_low_pc(||__relaxed_powf||)
     363                      .dwattr $C$DW$23, DW_AT_high_pc(0x00)
     364                      .dwattr $C$DW$23, DW_AT_linkage_name("__relaxed_powf")
     365                      .dwattr $C$DW$23, DW_AT_external
     366                      .dwattr $C$DW$23, DW_AT_type(*$C$DW$T$16)
     367                      .dwattr $C$DW$23, DW_AT_decl_file("C:/ti/ccs2031/ccs/tools/compiler/ti-cgt-c2000_22.6.2.LTS/include/m
     368                      .dwattr $C$DW$23, DW_AT_decl_line(0x13b)
     369                      .dwattr $C$DW$23, DW_AT_decl_column(0x10)
TMS320C2000 Assembler PC v22.6.2 Wed Dec 10 14:45:02 2025

Copyright (c) 1996-2018 Texas Instruments Incorporated
fcl_foc_cpu_dm.asm                                                   PAGE    8

     370                      .dwattr $C$DW$23, DW_AT_TI_max_frame_size(-4)
     371                      .dwpsn  file "C:/ti/ccs2031/ccs/tools/compiler/ti-cgt-c2000_22.6.2.LTS/include/math.h",line 316,colum
     372              
     373                      .dwfde $C$DW$CIE, ||__relaxed_powf||
     374              $C$DW$24        .dwtag  DW_TAG_formal_parameter
     375                      .dwattr $C$DW$24, DW_AT_name("x")
     376                      .dwattr $C$DW$24, DW_AT_type(*$C$DW$T$16)
     377                      .dwattr $C$DW$24, DW_AT_location[DW_OP_regx 0x2b]
     378              
     379              $C$DW$25        .dwtag  DW_TAG_formal_parameter
     380                      .dwattr $C$DW$25, DW_AT_name("y")
     381                      .dwattr $C$DW$25, DW_AT_type(*$C$DW$T$16)
     382                      .dwattr $C$DW$25, DW_AT_location[DW_OP_regx 0x2f]
     383              
     384              
     385              ;***************************************************************
     386              ;* FNAME: __relaxed_powf                FR SIZE:   2           *
     387              ;*                                                             *
     388              ;* FUNCTION ENVIRONMENT                                        *
     389              ;*                                                             *
     390              ;* FUNCTION PROPERTIES                                         *
     391              ;*                            2 Parameter,  0 Auto,  0 SOE     *
     392              ;***************************************************************
     393              
     394              ||__relaxed_powf||:
     395              ;* R1    assigned to $O$C2
     396              ;* R0    assigned to $O$K4
     397              ;* R0    assigned to $O$R1
     398              ;* R0    assigned to x
     399              $C$DW$26        .dwtag  DW_TAG_variable
     400                      .dwattr $C$DW$26, DW_AT_name("x")
     401                      .dwattr $C$DW$26, DW_AT_type(*$C$DW$T$167)
     402                      .dwattr $C$DW$26, DW_AT_location[DW_OP_regx 0x2b]
     403              
     404              ;* R1    assigned to y
     405              $C$DW$27        .dwtag  DW_TAG_variable
     406                      .dwattr $C$DW$27, DW_AT_name("y")
     407                      .dwattr $C$DW$27, DW_AT_type(*$C$DW$T$167)
     408                      .dwattr $C$DW$27, DW_AT_location[DW_OP_regx 0x2f]
     409              
     410              ;* R0    assigned to iexp2f
     411              $C$DW$28        .dwtag  DW_TAG_variable
     412                      .dwattr $C$DW$28, DW_AT_name("iexp2f")
     413                      .dwattr $C$DW$28, DW_AT_type(*$C$DW$T$16)
     414                      .dwattr $C$DW$28, DW_AT_location[DW_OP_regx 0x2b]
     415              
     416                      .dwcfi  cfa_offset, -2
     417                      .dwcfi  save_reg_to_mem, 26, 0
     418 00000000 FE02          ADDB      SP,#2                 ; [CPU_ARAU] 
     419                      .dwcfi  cfa_offset, -4
     420                      .dwpsn  file "C:/ti/ccs2031/ccs/tools/compiler/ti-cgt-c2000_22.6.2.LTS/include/math.h",line 298,colum
     421 00000001 E272          LOG2F32   R0H,R0H               ; [CPU_FPU] |298| 
         00000002 0000 
     422 00000003 7700          NOP       ; [CPU_ALU] 
     423 00000004 7700          NOP       ; [CPU_ALU] 
TMS320C2000 Assembler PC v22.6.2 Wed Dec 10 14:45:02 2025

Copyright (c) 1996-2018 Texas Instruments Incorporated
fcl_foc_cpu_dm.asm                                                   PAGE    9

     424 00000005 7700          NOP       ; [CPU_ALU] 
     425 00000006 E700          MPYF32    R1H,R1H,R0H           ; [CPU_FPU] |298| 
         00000007 0009 
     426 00000008 7700          NOP       ; [CPU_ALU] 
     427                      .dwpsn  file "C:/ti/ccs2031/ccs/tools/compiler/ti-cgt-c2000_22.6.2.LTS/include/math.h",line 299,colum
     428 00000009 E5A1          CMPF32    R1H,#0                ; [CPU_FPU] |299| 
     429 0000000a AD14          MOVST0    ZF, NF                ; [CPU_FPU] |299| 
     430                      .dwpsn  file "C:/ti/ccs2031/ccs/tools/compiler/ti-cgt-c2000_22.6.2.LTS/include/math.h",line 298,colum
     431 0000000b E273          IEXP2F32  R0H,R1H               ; [CPU_FPU] |298| 
         0000000c 0008 
     432                      .dwpsn  file "C:/ti/ccs2031/ccs/tools/compiler/ti-cgt-c2000_22.6.2.LTS/include/math.h",line 299,colum
     433 0000000d 6507          B         ||$C$L1||,LEQ         ; [CPU_ALU] |299| 
     434                      ; branchcc occurs ; [] |299| 
     435 0000000e E801          MOVIZ     R1H,#16256            ; [CPU_FPU] |299| 
         0000000f FC01 
     436 00000010 E274          DIVF32    R0H,R1H,R0H           ; [CPU_FPU] |299| 
         00000011 0008 
     437 00000012 7700          NOP       ; [CPU_ALU] 
     438 00000013 7700          NOP       ; [CPU_ALU] 
     439 00000014       ||$C$L1||:    
     440 00000014 FE82          SUBB      SP,#2                 ; [CPU_ARAU] 
     441                      .dwcfi  cfa_offset, -2
     442              $C$DW$29        .dwtag  DW_TAG_TI_branch
     443                      .dwattr $C$DW$29, DW_AT_low_pc(0x00)
     444                      .dwattr $C$DW$29, DW_AT_TI_return
     445              
     446 00000015 0006          LRETR     ; [CPU_ALU] 
     447                      ; return occurs ; [] 
     448                      .dwattr $C$DW$23, DW_AT_TI_end_file("C:/ti/ccs2031/ccs/tools/compiler/ti-cgt-c2000_22.6.2.LTS/include
     449                      .dwattr $C$DW$23, DW_AT_TI_end_line(0x141)
     450                      .dwattr $C$DW$23, DW_AT_TI_end_column(0x01)
     451                      .dwendentry
     452                      .dwendtag $C$DW$23
     453              
     454 00000000               .sect   ".text:__relaxed_logf"
     455                      .clink
     456                      .global ||__relaxed_logf||
     457              
     458              $C$DW$30        .dwtag  DW_TAG_subprogram
     459                      .dwattr $C$DW$30, DW_AT_name("__relaxed_logf")
     460                      .dwattr $C$DW$30, DW_AT_low_pc(||__relaxed_logf||)
     461                      .dwattr $C$DW$30, DW_AT_high_pc(0x00)
     462                      .dwattr $C$DW$30, DW_AT_linkage_name("__relaxed_logf")
     463                      .dwattr $C$DW$30, DW_AT_external
     464                      .dwattr $C$DW$30, DW_AT_type(*$C$DW$T$16)
     465                      .dwattr $C$DW$30, DW_AT_decl_file("C:/ti/ccs2031/ccs/tools/compiler/ti-cgt-c2000_22.6.2.LTS/include/m
     466                      .dwattr $C$DW$30, DW_AT_decl_line(0x135)
     467                      .dwattr $C$DW$30, DW_AT_decl_column(0x10)
     468                      .dwattr $C$DW$30, DW_AT_TI_max_frame_size(-2)
     469                      .dwpsn  file "C:/ti/ccs2031/ccs/tools/compiler/ti-cgt-c2000_22.6.2.LTS/include/math.h",line 310,colum
     470              
     471                      .dwfde $C$DW$CIE, ||__relaxed_logf||
     472              $C$DW$31        .dwtag  DW_TAG_formal_parameter
     473                      .dwattr $C$DW$31, DW_AT_name("x")
     474                      .dwattr $C$DW$31, DW_AT_type(*$C$DW$T$16)
TMS320C2000 Assembler PC v22.6.2 Wed Dec 10 14:45:02 2025

Copyright (c) 1996-2018 Texas Instruments Incorporated
fcl_foc_cpu_dm.asm                                                   PAGE   10

     475                      .dwattr $C$DW$31, DW_AT_location[DW_OP_regx 0x2b]
     476              
     477              
     478              ;***************************************************************
     479              ;* FNAME: __relaxed_logf                FR SIZE:   0           *
     480              ;*                                                             *
     481              ;* FUNCTION ENVIRONMENT                                        *
     482              ;*                                                             *
     483              ;* FUNCTION PROPERTIES                                         *
     484              ;*                            0 Parameter,  0 Auto,  0 SOE     *
     485              ;***************************************************************
     486              
     487              ||__relaxed_logf||:
     488              ;* R0    assigned to x
     489              $C$DW$32        .dwtag  DW_TAG_variable
     490                      .dwattr $C$DW$32, DW_AT_name("x")
     491                      .dwattr $C$DW$32, DW_AT_type(*$C$DW$T$167)
     492                      .dwattr $C$DW$32, DW_AT_location[DW_OP_regx 0x2b]
     493              
     494                      .dwcfi  cfa_offset, -2
     495                      .dwcfi  save_reg_to_mem, 26, 0
     496                      .dwpsn  file "C:/ti/ccs2031/ccs/tools/compiler/ti-cgt-c2000_22.6.2.LTS/include/math.h",line 312,colum
     497 00000000 E272          LOG2F32   R1H,R0H               ; [CPU_FPU] |312| 
         00000001 0001 
     498 00000002 7700          NOP       ; [CPU_ALU] 
     499 00000003 E801          MOVIZ     R0H,#16177            ; [CPU_FPU] |312| 
         00000004 F988 
     500 00000005 E80B          MOVXI     R0H,#29205            ; [CPU_FPU] |312| 
         00000006 90A8 
     501 00000007 E700          MPYF32    R0H,R0H,R1H           ; [CPU_FPU] |312| 
         00000008 0040 
     502              $C$DW$33        .dwtag  DW_TAG_TI_branch
     503                      .dwattr $C$DW$33, DW_AT_low_pc(0x00)
     504                      .dwattr $C$DW$33, DW_AT_TI_return
     505              
     506 00000009 0006          LRETR     ; [CPU_ALU] 
     507                      ; return occurs ; [] 
     508                      .dwattr $C$DW$30, DW_AT_TI_end_file("C:/ti/ccs2031/ccs/tools/compiler/ti-cgt-c2000_22.6.2.LTS/include
     509                      .dwattr $C$DW$30, DW_AT_TI_end_line(0x139)
     510                      .dwattr $C$DW$30, DW_AT_TI_end_column(0x01)
     511                      .dwendentry
     512                      .dwendtag $C$DW$30
     513              
     514 00000000               .sect   ".text:__relaxed_log2f"
     515                      .clink
     516                      .global ||__relaxed_log2f||
     517              
     518              $C$DW$34        .dwtag  DW_TAG_subprogram
     519                      .dwattr $C$DW$34, DW_AT_name("__relaxed_log2f")
     520                      .dwattr $C$DW$34, DW_AT_low_pc(||__relaxed_log2f||)
     521                      .dwattr $C$DW$34, DW_AT_high_pc(0x00)
     522                      .dwattr $C$DW$34, DW_AT_linkage_name("__relaxed_log2f")
     523                      .dwattr $C$DW$34, DW_AT_external
     524                      .dwattr $C$DW$34, DW_AT_type(*$C$DW$T$16)
     525                      .dwattr $C$DW$34, DW_AT_decl_file("C:/ti/ccs2031/ccs/tools/compiler/ti-cgt-c2000_22.6.2.LTS/include/m
TMS320C2000 Assembler PC v22.6.2 Wed Dec 10 14:45:02 2025

Copyright (c) 1996-2018 Texas Instruments Incorporated
fcl_foc_cpu_dm.asm                                                   PAGE   11

     526                      .dwattr $C$DW$34, DW_AT_decl_line(0x123)
     527                      .dwattr $C$DW$34, DW_AT_decl_column(0x10)
     528                      .dwattr $C$DW$34, DW_AT_TI_max_frame_size(-2)
     529                      .dwpsn  file "C:/ti/ccs2031/ccs/tools/compiler/ti-cgt-c2000_22.6.2.LTS/include/math.h",line 292,colum
     530              
     531                      .dwfde $C$DW$CIE, ||__relaxed_log2f||
     532              $C$DW$35        .dwtag  DW_TAG_formal_parameter
     533                      .dwattr $C$DW$35, DW_AT_name("x")
     534                      .dwattr $C$DW$35, DW_AT_type(*$C$DW$T$16)
     535                      .dwattr $C$DW$35, DW_AT_location[DW_OP_regx 0x2b]
     536              
     537              
     538              ;***************************************************************
     539              ;* FNAME: __relaxed_log2f               FR SIZE:   0           *
     540              ;*                                                             *
     541              ;* FUNCTION ENVIRONMENT                                        *
     542              ;*                                                             *
     543              ;* FUNCTION PROPERTIES                                         *
     544              ;*                            0 Parameter,  0 Auto,  0 SOE     *
     545              ;***************************************************************
     546              
     547              ||__relaxed_log2f||:
     548              ;* R0    assigned to x
     549              $C$DW$36        .dwtag  DW_TAG_variable
     550                      .dwattr $C$DW$36, DW_AT_name("x")
     551                      .dwattr $C$DW$36, DW_AT_type(*$C$DW$T$167)
     552                      .dwattr $C$DW$36, DW_AT_location[DW_OP_regx 0x2b]
     553              
     554                      .dwcfi  cfa_offset, -2
     555                      .dwcfi  save_reg_to_mem, 26, 0
     556                      .dwpsn  file "C:/ti/ccs2031/ccs/tools/compiler/ti-cgt-c2000_22.6.2.LTS/include/math.h",line 293,colum
     557 00000000 E272          LOG2F32   R0H,R0H               ; [CPU_FPU] |293| 
         00000001 0000 
     558 00000002 7700          NOP       ; [CPU_ALU] 
     559 00000003 7700          NOP       ; [CPU_ALU] 
     560              $C$DW$37        .dwtag  DW_TAG_TI_branch
     561                      .dwattr $C$DW$37, DW_AT_low_pc(0x00)
     562                      .dwattr $C$DW$37, DW_AT_TI_return
     563              
     564 00000004 0006          LRETR     ; [CPU_ALU] 
     565                      ; return occurs ; [] 
     566                      .dwattr $C$DW$34, DW_AT_TI_end_file("C:/ti/ccs2031/ccs/tools/compiler/ti-cgt-c2000_22.6.2.LTS/include
     567                      .dwattr $C$DW$34, DW_AT_TI_end_line(0x126)
     568                      .dwattr $C$DW$34, DW_AT_TI_end_column(0x01)
     569                      .dwendentry
     570                      .dwendtag $C$DW$34
     571              
     572 00000000               .sect   ".text:__relaxed_fmodf"
     573                      .clink
     574                      .global ||__relaxed_fmodf||
     575              
     576              $C$DW$38        .dwtag  DW_TAG_subprogram
     577                      .dwattr $C$DW$38, DW_AT_name("__relaxed_fmodf")
     578                      .dwattr $C$DW$38, DW_AT_low_pc(||__relaxed_fmodf||)
     579                      .dwattr $C$DW$38, DW_AT_high_pc(0x00)
TMS320C2000 Assembler PC v22.6.2 Wed Dec 10 14:45:02 2025

Copyright (c) 1996-2018 Texas Instruments Incorporated
fcl_foc_cpu_dm.asm                                                   PAGE   12

     580                      .dwattr $C$DW$38, DW_AT_linkage_name("__relaxed_fmodf")
     581                      .dwattr $C$DW$38, DW_AT_external
     582                      .dwattr $C$DW$38, DW_AT_type(*$C$DW$T$16)
     583                      .dwattr $C$DW$38, DW_AT_decl_file("C:/ti/ccs2031/ccs/tools/compiler/ti-cgt-c2000_22.6.2.LTS/include/m
     584                      .dwattr $C$DW$38, DW_AT_decl_line(0x11c)
     585                      .dwattr $C$DW$38, DW_AT_decl_column(0x10)
     586                      .dwattr $C$DW$38, DW_AT_TI_max_frame_size(-2)
     587                      .dwpsn  file "C:/ti/ccs2031/ccs/tools/compiler/ti-cgt-c2000_22.6.2.LTS/include/math.h",line 285,colum
     588              
     589                      .dwfde $C$DW$CIE, ||__relaxed_fmodf||
     590              $C$DW$39        .dwtag  DW_TAG_formal_parameter
     591                      .dwattr $C$DW$39, DW_AT_name("y")
     592                      .dwattr $C$DW$39, DW_AT_type(*$C$DW$T$16)
     593                      .dwattr $C$DW$39, DW_AT_location[DW_OP_regx 0x2b]
     594              
     595              $C$DW$40        .dwtag  DW_TAG_formal_parameter
     596                      .dwattr $C$DW$40, DW_AT_name("x")
     597                      .dwattr $C$DW$40, DW_AT_type(*$C$DW$T$16)
     598                      .dwattr $C$DW$40, DW_AT_location[DW_OP_regx 0x2f]
     599              
     600              
     601              ;***************************************************************
     602              ;* FNAME: __relaxed_fmodf               FR SIZE:   0           *
     603              ;*                                                             *
     604              ;* FUNCTION ENVIRONMENT                                        *
     605              ;*                                                             *
     606              ;* FUNCTION PROPERTIES                                         *
     607              ;*                            0 Parameter,  0 Auto,  0 SOE     *
     608              ;***************************************************************
     609              
     610              ||__relaxed_fmodf||:
     611              ;* R0    assigned to y
     612              $C$DW$41        .dwtag  DW_TAG_variable
     613                      .dwattr $C$DW$41, DW_AT_name("y")
     614                      .dwattr $C$DW$41, DW_AT_type(*$C$DW$T$167)
     615                      .dwattr $C$DW$41, DW_AT_location[DW_OP_regx 0x2b]
     616              
     617              ;* R1    assigned to x
     618              $C$DW$42        .dwtag  DW_TAG_variable
     619                      .dwattr $C$DW$42, DW_AT_name("x")
     620                      .dwattr $C$DW$42, DW_AT_type(*$C$DW$T$167)
     621                      .dwattr $C$DW$42, DW_AT_location[DW_OP_regx 0x2f]
     622              
     623                      .dwcfi  cfa_offset, -2
     624                      .dwcfi  save_reg_to_mem, 26, 0
     625                      .dwpsn  file "C:/ti/ccs2031/ccs/tools/compiler/ti-cgt-c2000_22.6.2.LTS/include/math.h",line 286,colum
     626 00000000 E274          DIVF32    R2H,R0H,R1H           ; [CPU_FPU] |286| 
         00000001 0042 
     627 00000002 7700          NOP       ; [CPU_ALU] 
     628 00000003 7700          NOP       ; [CPU_ALU] 
     629 00000004 7700          NOP       ; [CPU_ALU] 
     630 00000005 7700          NOP       ; [CPU_ALU] 
     631 00000006 E688          F32TOI32  R2H,R2H               ; [CPU_FPU] |286| 
         00000007 0012 
     632 00000008 7700          NOP       ; [CPU_ALU] 
TMS320C2000 Assembler PC v22.6.2 Wed Dec 10 14:45:02 2025

Copyright (c) 1996-2018 Texas Instruments Incorporated
fcl_foc_cpu_dm.asm                                                   PAGE   13

     633 00000009 E689          I32TOF32  R2H,R2H               ; [CPU_FPU] |286| 
         0000000a 0012 
     634 0000000b 7700          NOP       ; [CPU_ALU] 
     635 0000000c E700          MPYF32    R1H,R1H,R2H           ; [CPU_FPU] |286| 
         0000000d 0089 
     636 0000000e 7700          NOP       ; [CPU_ALU] 
     637 0000000f E720          SUBF32    R0H,R0H,R1H           ; [CPU_FPU] |286| 
         00000010 0040 
     638              $C$DW$43        .dwtag  DW_TAG_TI_branch
     639                      .dwattr $C$DW$43, DW_AT_low_pc(0x00)
     640                      .dwattr $C$DW$43, DW_AT_TI_return
     641              
     642 00000011 0006          LRETR     ; [CPU_ALU] 
     643                      ; return occurs ; [] 
     644                      .dwattr $C$DW$38, DW_AT_TI_end_file("C:/ti/ccs2031/ccs/tools/compiler/ti-cgt-c2000_22.6.2.LTS/include
     645                      .dwattr $C$DW$38, DW_AT_TI_end_line(0x11f)
     646                      .dwattr $C$DW$38, DW_AT_TI_end_column(0x01)
     647                      .dwendentry
     648                      .dwendtag $C$DW$38
     649              
     650 00000000               .sect   ".text:__relaxed_fminf"
     651                      .clink
     652                      .global ||__relaxed_fminf||
     653              
     654              $C$DW$44        .dwtag  DW_TAG_subprogram
     655                      .dwattr $C$DW$44, DW_AT_name("__relaxed_fminf")
     656                      .dwattr $C$DW$44, DW_AT_low_pc(||__relaxed_fminf||)
     657                      .dwattr $C$DW$44, DW_AT_high_pc(0x00)
     658                      .dwattr $C$DW$44, DW_AT_linkage_name("__relaxed_fminf")
     659                      .dwattr $C$DW$44, DW_AT_external
     660                      .dwattr $C$DW$44, DW_AT_type(*$C$DW$T$16)
     661                      .dwattr $C$DW$44, DW_AT_decl_file("C:/ti/ccs2031/ccs/tools/compiler/ti-cgt-c2000_22.6.2.LTS/include/m
     662                      .dwattr $C$DW$44, DW_AT_decl_line(0xee)
     663                      .dwattr $C$DW$44, DW_AT_decl_column(0x10)
     664                      .dwattr $C$DW$44, DW_AT_TI_max_frame_size(-2)
     665                      .dwpsn  file "C:/ti/ccs2031/ccs/tools/compiler/ti-cgt-c2000_22.6.2.LTS/include/math.h",line 239,colum
     666              
     667                      .dwfde $C$DW$CIE, ||__relaxed_fminf||
     668              $C$DW$45        .dwtag  DW_TAG_formal_parameter
     669                      .dwattr $C$DW$45, DW_AT_name("x")
     670                      .dwattr $C$DW$45, DW_AT_type(*$C$DW$T$16)
     671                      .dwattr $C$DW$45, DW_AT_location[DW_OP_regx 0x2b]
     672              
     673              $C$DW$46        .dwtag  DW_TAG_formal_parameter
     674                      .dwattr $C$DW$46, DW_AT_name("y")
     675                      .dwattr $C$DW$46, DW_AT_type(*$C$DW$T$16)
     676                      .dwattr $C$DW$46, DW_AT_location[DW_OP_regx 0x2f]
     677              
     678              
     679              ;***************************************************************
     680              ;* FNAME: __relaxed_fminf               FR SIZE:   0           *
     681              ;*                                                             *
     682              ;* FUNCTION ENVIRONMENT                                        *
     683              ;*                                                             *
     684              ;* FUNCTION PROPERTIES                                         *
TMS320C2000 Assembler PC v22.6.2 Wed Dec 10 14:45:02 2025

Copyright (c) 1996-2018 Texas Instruments Incorporated
fcl_foc_cpu_dm.asm                                                   PAGE   14

     685              ;*                            0 Parameter,  0 Auto,  0 SOE     *
     686              ;***************************************************************
     687              
     688              ||__relaxed_fminf||:
     689              ;* R1    assigned to y
     690              $C$DW$47        .dwtag  DW_TAG_variable
     691                      .dwattr $C$DW$47, DW_AT_name("y")
     692                      .dwattr $C$DW$47, DW_AT_type(*$C$DW$T$167)
     693                      .dwattr $C$DW$47, DW_AT_location[DW_OP_regx 0x2f]
     694              
     695                      .dwcfi  cfa_offset, -2
     696                      .dwcfi  save_reg_to_mem, 26, 0
     697                      .dwpsn  file "C:/ti/ccs2031/ccs/tools/compiler/ti-cgt-c2000_22.6.2.LTS/include/math.h",line 240,colum
     698 00000000 E697          MINF32    R0H,R1H               ; [CPU_FPU] |240| 
         00000001 0008 
     699              $C$DW$48        .dwtag  DW_TAG_TI_branch
     700                      .dwattr $C$DW$48, DW_AT_low_pc(0x00)
     701                      .dwattr $C$DW$48, DW_AT_TI_return
     702              
     703 00000002 0006          LRETR     ; [CPU_ALU] 
     704                      ; return occurs ; [] 
     705                      .dwattr $C$DW$44, DW_AT_TI_end_file("C:/ti/ccs2031/ccs/tools/compiler/ti-cgt-c2000_22.6.2.LTS/include
     706                      .dwattr $C$DW$44, DW_AT_TI_end_line(0xf1)
     707                      .dwattr $C$DW$44, DW_AT_TI_end_column(0x01)
     708                      .dwendentry
     709                      .dwendtag $C$DW$44
     710              
     711 00000000               .sect   ".text:__relaxed_fmaxf"
     712                      .clink
     713                      .global ||__relaxed_fmaxf||
     714              
     715              $C$DW$49        .dwtag  DW_TAG_subprogram
     716                      .dwattr $C$DW$49, DW_AT_name("__relaxed_fmaxf")
     717                      .dwattr $C$DW$49, DW_AT_low_pc(||__relaxed_fmaxf||)
     718                      .dwattr $C$DW$49, DW_AT_high_pc(0x00)
     719                      .dwattr $C$DW$49, DW_AT_linkage_name("__relaxed_fmaxf")
     720                      .dwattr $C$DW$49, DW_AT_external
     721                      .dwattr $C$DW$49, DW_AT_type(*$C$DW$T$16)
     722                      .dwattr $C$DW$49, DW_AT_decl_file("C:/ti/ccs2031/ccs/tools/compiler/ti-cgt-c2000_22.6.2.LTS/include/m
     723                      .dwattr $C$DW$49, DW_AT_decl_line(0xe8)
     724                      .dwattr $C$DW$49, DW_AT_decl_column(0x10)
     725                      .dwattr $C$DW$49, DW_AT_TI_max_frame_size(-2)
     726                      .dwpsn  file "C:/ti/ccs2031/ccs/tools/compiler/ti-cgt-c2000_22.6.2.LTS/include/math.h",line 233,colum
     727              
     728                      .dwfde $C$DW$CIE, ||__relaxed_fmaxf||
     729              $C$DW$50        .dwtag  DW_TAG_formal_parameter
     730                      .dwattr $C$DW$50, DW_AT_name("x")
     731                      .dwattr $C$DW$50, DW_AT_type(*$C$DW$T$16)
     732                      .dwattr $C$DW$50, DW_AT_location[DW_OP_regx 0x2b]
     733              
     734              $C$DW$51        .dwtag  DW_TAG_formal_parameter
     735                      .dwattr $C$DW$51, DW_AT_name("y")
     736                      .dwattr $C$DW$51, DW_AT_type(*$C$DW$T$16)
     737                      .dwattr $C$DW$51, DW_AT_location[DW_OP_regx 0x2f]
     738              
TMS320C2000 Assembler PC v22.6.2 Wed Dec 10 14:45:02 2025

Copyright (c) 1996-2018 Texas Instruments Incorporated
fcl_foc_cpu_dm.asm                                                   PAGE   15

     739              
     740              ;***************************************************************
     741              ;* FNAME: __relaxed_fmaxf               FR SIZE:   0           *
     742              ;*                                                             *
     743              ;* FUNCTION ENVIRONMENT                                        *
     744              ;*                                                             *
     745              ;* FUNCTION PROPERTIES                                         *
     746              ;*                            0 Parameter,  0 Auto,  0 SOE     *
     747              ;***************************************************************
     748              
     749              ||__relaxed_fmaxf||:
     750              ;* R1    assigned to y
     751              $C$DW$52        .dwtag  DW_TAG_variable
     752                      .dwattr $C$DW$52, DW_AT_name("y")
     753                      .dwattr $C$DW$52, DW_AT_type(*$C$DW$T$167)
     754                      .dwattr $C$DW$52, DW_AT_location[DW_OP_regx 0x2f]
     755              
     756                      .dwcfi  cfa_offset, -2
     757                      .dwcfi  save_reg_to_mem, 26, 0
     758                      .dwpsn  file "C:/ti/ccs2031/ccs/tools/compiler/ti-cgt-c2000_22.6.2.LTS/include/math.h",line 234,colum
     759 00000000 E696          MAXF32    R0H,R1H               ; [CPU_FPU] |234| 
         00000001 0008 
     760              $C$DW$53        .dwtag  DW_TAG_TI_branch
     761                      .dwattr $C$DW$53, DW_AT_low_pc(0x00)
     762                      .dwattr $C$DW$53, DW_AT_TI_return
     763              
     764 00000002 0006          LRETR     ; [CPU_ALU] 
     765                      ; return occurs ; [] 
     766                      .dwattr $C$DW$49, DW_AT_TI_end_file("C:/ti/ccs2031/ccs/tools/compiler/ti-cgt-c2000_22.6.2.LTS/include
     767                      .dwattr $C$DW$49, DW_AT_TI_end_line(0xeb)
     768                      .dwattr $C$DW$49, DW_AT_TI_end_column(0x01)
     769                      .dwendentry
     770                      .dwendtag $C$DW$49
     771              
     772 00000000               .sect   ".text:__relaxed_expf"
     773                      .clink
     774                      .global ||__relaxed_expf||
     775              
     776              $C$DW$54        .dwtag  DW_TAG_subprogram
     777                      .dwattr $C$DW$54, DW_AT_name("__relaxed_expf")
     778                      .dwattr $C$DW$54, DW_AT_low_pc(||__relaxed_expf||)
     779                      .dwattr $C$DW$54, DW_AT_high_pc(0x00)
     780                      .dwattr $C$DW$54, DW_AT_linkage_name("__relaxed_expf")
     781                      .dwattr $C$DW$54, DW_AT_external
     782                      .dwattr $C$DW$54, DW_AT_type(*$C$DW$T$16)
     783                      .dwattr $C$DW$54, DW_AT_decl_file("C:/ti/ccs2031/ccs/tools/compiler/ti-cgt-c2000_22.6.2.LTS/include/m
     784                      .dwattr $C$DW$54, DW_AT_decl_line(0x12f)
     785                      .dwattr $C$DW$54, DW_AT_decl_column(0x10)
     786                      .dwattr $C$DW$54, DW_AT_TI_max_frame_size(-4)
     787                      .dwpsn  file "C:/ti/ccs2031/ccs/tools/compiler/ti-cgt-c2000_22.6.2.LTS/include/math.h",line 304,colum
     788              
     789                      .dwfde $C$DW$CIE, ||__relaxed_expf||
     790              $C$DW$55        .dwtag  DW_TAG_formal_parameter
     791                      .dwattr $C$DW$55, DW_AT_name("x")
     792                      .dwattr $C$DW$55, DW_AT_type(*$C$DW$T$16)
TMS320C2000 Assembler PC v22.6.2 Wed Dec 10 14:45:02 2025

Copyright (c) 1996-2018 Texas Instruments Incorporated
fcl_foc_cpu_dm.asm                                                   PAGE   16

     793                      .dwattr $C$DW$55, DW_AT_location[DW_OP_regx 0x2b]
     794              
     795              
     796              ;***************************************************************
     797              ;* FNAME: __relaxed_expf                FR SIZE:   2           *
     798              ;*                                                             *
     799              ;* FUNCTION ENVIRONMENT                                        *
     800              ;*                                                             *
     801              ;* FUNCTION PROPERTIES                                         *
     802              ;*                            2 Parameter,  0 Auto,  0 SOE     *
     803              ;***************************************************************
     804              
     805              ||__relaxed_expf||:
     806              ;* R1    assigned to $O$C2
     807              ;* R0    assigned to $O$K3
     808              ;* R0    assigned to $O$R1
     809              ;* R0    assigned to x
     810              $C$DW$56        .dwtag  DW_TAG_variable
     811                      .dwattr $C$DW$56, DW_AT_name("x")
     812                      .dwattr $C$DW$56, DW_AT_type(*$C$DW$T$167)
     813                      .dwattr $C$DW$56, DW_AT_location[DW_OP_regx 0x2b]
     814              
     815              ;* R0    assigned to iexp2f
     816              $C$DW$57        .dwtag  DW_TAG_variable
     817                      .dwattr $C$DW$57, DW_AT_name("iexp2f")
     818                      .dwattr $C$DW$57, DW_AT_type(*$C$DW$T$16)
     819                      .dwattr $C$DW$57, DW_AT_location[DW_OP_regx 0x2b]
     820              
     821                      .dwcfi  cfa_offset, -2
     822                      .dwcfi  save_reg_to_mem, 26, 0
     823 00000000 FE02          ADDB      SP,#2                 ; [CPU_ARAU] 
     824                      .dwcfi  cfa_offset, -4
     825                      .dwpsn  file "C:/ti/ccs2031/ccs/tools/compiler/ti-cgt-c2000_22.6.2.LTS/include/math.h",line 298,colum
     826 00000001 E801          MOVIZ     R1H,#16312            ; [CPU_FPU] |298| 
         00000002 FDC1 
     827 00000003 E80D          MOVXI     R1H,#43537            ; [CPU_FPU] |298| 
         00000004 5089 
     828 00000005 E700          MPYF32    R1H,R1H,R0H           ; [CPU_FPU] |298| 
         00000006 0009 
     829 00000007 7700          NOP       ; [CPU_ALU] 
     830                      .dwpsn  file "C:/ti/ccs2031/ccs/tools/compiler/ti-cgt-c2000_22.6.2.LTS/include/math.h",line 299,colum
     831 00000008 E5A1          CMPF32    R1H,#0                ; [CPU_FPU] |299| 
     832 00000009 AD14          MOVST0    ZF, NF                ; [CPU_FPU] |299| 
     833                      .dwpsn  file "C:/ti/ccs2031/ccs/tools/compiler/ti-cgt-c2000_22.6.2.LTS/include/math.h",line 298,colum
     834 0000000a E273          IEXP2F32  R0H,R1H               ; [CPU_FPU] |298| 
         0000000b 0008 
     835                      .dwpsn  file "C:/ti/ccs2031/ccs/tools/compiler/ti-cgt-c2000_22.6.2.LTS/include/math.h",line 299,colum
     836 0000000c 6507          B         ||$C$L2||,LEQ         ; [CPU_ALU] |299| 
     837                      ; branchcc occurs ; [] |299| 
     838 0000000d E801          MOVIZ     R1H,#16256            ; [CPU_FPU] |299| 
         0000000e FC01 
     839 0000000f E274          DIVF32    R0H,R1H,R0H           ; [CPU_FPU] |299| 
         00000010 0008 
     840 00000011 7700          NOP       ; [CPU_ALU] 
     841 00000012 7700          NOP       ; [CPU_ALU] 
TMS320C2000 Assembler PC v22.6.2 Wed Dec 10 14:45:02 2025

Copyright (c) 1996-2018 Texas Instruments Incorporated
fcl_foc_cpu_dm.asm                                                   PAGE   17

     842 00000013       ||$C$L2||:    
     843 00000013 FE82          SUBB      SP,#2                 ; [CPU_ARAU] 
     844                      .dwcfi  cfa_offset, -2
     845              $C$DW$58        .dwtag  DW_TAG_TI_branch
     846                      .dwattr $C$DW$58, DW_AT_low_pc(0x00)
     847                      .dwattr $C$DW$58, DW_AT_TI_return
     848              
     849 00000014 0006          LRETR     ; [CPU_ALU] 
     850                      ; return occurs ; [] 
     851                      .dwattr $C$DW$54, DW_AT_TI_end_file("C:/ti/ccs2031/ccs/tools/compiler/ti-cgt-c2000_22.6.2.LTS/include
     852                      .dwattr $C$DW$54, DW_AT_TI_end_line(0x133)
     853                      .dwattr $C$DW$54, DW_AT_TI_end_column(0x01)
     854                      .dwendentry
     855                      .dwendtag $C$DW$54
     856              
     857 00000000               .sect   ".text:__relaxed_cosf"
     858                      .clink
     859                      .global ||__relaxed_cosf||
     860              
     861              $C$DW$59        .dwtag  DW_TAG_subprogram
     862                      .dwattr $C$DW$59, DW_AT_name("__relaxed_cosf")
     863                      .dwattr $C$DW$59, DW_AT_low_pc(||__relaxed_cosf||)
     864                      .dwattr $C$DW$59, DW_AT_high_pc(0x00)
     865                      .dwattr $C$DW$59, DW_AT_linkage_name("__relaxed_cosf")
     866                      .dwattr $C$DW$59, DW_AT_external
     867                      .dwattr $C$DW$59, DW_AT_type(*$C$DW$T$16)
     868                      .dwattr $C$DW$59, DW_AT_decl_file("C:/ti/ccs2031/ccs/tools/compiler/ti-cgt-c2000_22.6.2.LTS/include/m
     869                      .dwattr $C$DW$59, DW_AT_decl_line(0x10d)
     870                      .dwattr $C$DW$59, DW_AT_decl_column(0x10)
     871                      .dwattr $C$DW$59, DW_AT_TI_max_frame_size(-2)
     872                      .dwpsn  file "C:/ti/ccs2031/ccs/tools/compiler/ti-cgt-c2000_22.6.2.LTS/include/math.h",line 270,colum
     873              
     874                      .dwfde $C$DW$CIE, ||__relaxed_cosf||
     875              $C$DW$60        .dwtag  DW_TAG_formal_parameter
     876                      .dwattr $C$DW$60, DW_AT_name("x")
     877                      .dwattr $C$DW$60, DW_AT_type(*$C$DW$T$16)
     878                      .dwattr $C$DW$60, DW_AT_location[DW_OP_regx 0x2b]
     879              
     880              
     881              ;***************************************************************
     882              ;* FNAME: __relaxed_cosf                FR SIZE:   0           *
     883              ;*                                                             *
     884              ;* FUNCTION ENVIRONMENT                                        *
     885              ;*                                                             *
     886              ;* FUNCTION PROPERTIES                                         *
     887              ;*                            0 Parameter,  0 Auto,  0 SOE     *
     888              ;***************************************************************
     889              
     890              ||__relaxed_cosf||:
     891              ;* R0    assigned to x
     892              $C$DW$61        .dwtag  DW_TAG_variable
     893                      .dwattr $C$DW$61, DW_AT_name("x")
     894                      .dwattr $C$DW$61, DW_AT_type(*$C$DW$T$167)
     895                      .dwattr $C$DW$61, DW_AT_location[DW_OP_regx 0x2b]
     896              
TMS320C2000 Assembler PC v22.6.2 Wed Dec 10 14:45:02 2025

Copyright (c) 1996-2018 Texas Instruments Incorporated
fcl_foc_cpu_dm.asm                                                   PAGE   18

     897                      .dwcfi  cfa_offset, -2
     898                      .dwcfi  save_reg_to_mem, 26, 0
     899                      .dwpsn  file "C:/ti/ccs2031/ccs/tools/compiler/ti-cgt-c2000_22.6.2.LTS/include/math.h",line 271,colum
     900 00000000 E271          DIV2PIF32 R0H,R0H               ; [CPU_FPU] |271| 
         00000001 0000 
     901 00000002 7700          NOP       ; [CPU_ALU] 
     902 00000003 E279          COSPUF32  R0H,R0H               ; [CPU_FPU] |271| 
         00000004 0000 
     903 00000005 7700          NOP       ; [CPU_ALU] 
     904 00000006 7700          NOP       ; [CPU_ALU] 
     905              $C$DW$62        .dwtag  DW_TAG_TI_branch
     906                      .dwattr $C$DW$62, DW_AT_low_pc(0x00)
     907                      .dwattr $C$DW$62, DW_AT_TI_return
     908              
     909 00000007 0006          LRETR     ; [CPU_ALU] 
     910                      ; return occurs ; [] 
     911                      .dwattr $C$DW$59, DW_AT_TI_end_file("C:/ti/ccs2031/ccs/tools/compiler/ti-cgt-c2000_22.6.2.LTS/include
     912                      .dwattr $C$DW$59, DW_AT_TI_end_line(0x110)
     913                      .dwattr $C$DW$59, DW_AT_TI_end_column(0x01)
     914                      .dwendentry
     915                      .dwendtag $C$DW$59
     916              
     917 00000000               .sect   ".text:__relaxed_atanf"
     918                      .clink
     919                      .global ||__relaxed_atanf||
     920              
     921              $C$DW$63        .dwtag  DW_TAG_subprogram
     922                      .dwattr $C$DW$63, DW_AT_name("__relaxed_atanf")
     923                      .dwattr $C$DW$63, DW_AT_low_pc(||__relaxed_atanf||)
     924                      .dwattr $C$DW$63, DW_AT_high_pc(0x00)
     925                      .dwattr $C$DW$63, DW_AT_linkage_name("__relaxed_atanf")
     926                      .dwattr $C$DW$63, DW_AT_external
     927                      .dwattr $C$DW$63, DW_AT_type(*$C$DW$T$16)
     928                      .dwattr $C$DW$63, DW_AT_decl_file("C:/ti/ccs2031/ccs/tools/compiler/ti-cgt-c2000_22.6.2.LTS/include/m
     929                      .dwattr $C$DW$63, DW_AT_decl_line(0x112)
     930                      .dwattr $C$DW$63, DW_AT_decl_column(0x10)
     931                      .dwattr $C$DW$63, DW_AT_TI_max_frame_size(-2)
     932                      .dwpsn  file "C:/ti/ccs2031/ccs/tools/compiler/ti-cgt-c2000_22.6.2.LTS/include/math.h",line 275,colum
     933              
     934                      .dwfde $C$DW$CIE, ||__relaxed_atanf||
     935              $C$DW$64        .dwtag  DW_TAG_formal_parameter
     936                      .dwattr $C$DW$64, DW_AT_name("x")
     937                      .dwattr $C$DW$64, DW_AT_type(*$C$DW$T$16)
     938                      .dwattr $C$DW$64, DW_AT_location[DW_OP_regx 0x2b]
     939              
     940              
     941              ;***************************************************************
     942              ;* FNAME: __relaxed_atanf               FR SIZE:   0           *
     943              ;*                                                             *
     944              ;* FUNCTION ENVIRONMENT                                        *
     945              ;*                                                             *
     946              ;* FUNCTION PROPERTIES                                         *
     947              ;*                            0 Parameter,  0 Auto,  0 SOE     *
     948              ;***************************************************************
     949              
TMS320C2000 Assembler PC v22.6.2 Wed Dec 10 14:45:02 2025

Copyright (c) 1996-2018 Texas Instruments Incorporated
fcl_foc_cpu_dm.asm                                                   PAGE   19

     950              ||__relaxed_atanf||:
     951              ;* R0    assigned to x
     952              $C$DW$65        .dwtag  DW_TAG_variable
     953                      .dwattr $C$DW$65, DW_AT_name("x")
     954                      .dwattr $C$DW$65, DW_AT_type(*$C$DW$T$167)
     955                      .dwattr $C$DW$65, DW_AT_location[DW_OP_regx 0x2b]
     956              
     957                      .dwcfi  cfa_offset, -2
     958                      .dwcfi  save_reg_to_mem, 26, 0
     959                      .dwpsn  file "C:/ti/ccs2031/ccs/tools/compiler/ti-cgt-c2000_22.6.2.LTS/include/math.h",line 276,colum
     960 00000000 E801          MOVIZ     R1H,#16256            ; [CPU_FPU] |276| 
         00000001 FC01 
     961 00000002 E27C          QUADF32   R1H,R0H,R0H,R1H       ; [CPU_FPU] |276| 
         00000003 0201 
     962 00000004 7700          NOP       ; [CPU_ALU] 
     963 00000005 7700          NOP       ; [CPU_ALU] 
     964 00000006 7700          NOP       ; [CPU_ALU] 
     965 00000007 7700          NOP       ; [CPU_ALU] 
     966 00000008 E27A          ATANPUF32 R0H,R0H               ; [CPU_FPU] |276| 
         00000009 0000 
     967 0000000a 7700          NOP       ; [CPU_ALU] 
     968 0000000b 7700          NOP       ; [CPU_ALU] 
     969 0000000c 7700          NOP       ; [CPU_ALU] 
     970 0000000d E710          ADDF32    R0H,R0H,R1H           ; [CPU_FPU] |276| 
         0000000e 0040 
     971 0000000f 7700          NOP       ; [CPU_ALU] 
     972 00000010 7700          NOP       ; [CPU_ALU] 
     973 00000011 E270          MPY2PIF32 R0H,R0H               ; [CPU_FPU] |276| 
         00000012 0000 
     974 00000013 7700          NOP       ; [CPU_ALU] 
     975              $C$DW$66        .dwtag  DW_TAG_TI_branch
     976                      .dwattr $C$DW$66, DW_AT_low_pc(0x00)
     977                      .dwattr $C$DW$66, DW_AT_TI_return
     978              
     979 00000014 0006          LRETR     ; [CPU_ALU] 
     980                      ; return occurs ; [] 
     981                      .dwattr $C$DW$63, DW_AT_TI_end_file("C:/ti/ccs2031/ccs/tools/compiler/ti-cgt-c2000_22.6.2.LTS/include
     982                      .dwattr $C$DW$63, DW_AT_TI_end_line(0x115)
     983                      .dwattr $C$DW$63, DW_AT_TI_end_column(0x01)
     984                      .dwendentry
     985                      .dwendtag $C$DW$63
     986              
     987 00000000               .sect   ".text:__relaxed_atan2f"
     988                      .clink
     989                      .global ||__relaxed_atan2f||
     990              
     991              $C$DW$67        .dwtag  DW_TAG_subprogram
     992                      .dwattr $C$DW$67, DW_AT_name("__relaxed_atan2f")
     993                      .dwattr $C$DW$67, DW_AT_low_pc(||__relaxed_atan2f||)
     994                      .dwattr $C$DW$67, DW_AT_high_pc(0x00)
     995                      .dwattr $C$DW$67, DW_AT_linkage_name("__relaxed_atan2f")
     996                      .dwattr $C$DW$67, DW_AT_external
     997                      .dwattr $C$DW$67, DW_AT_type(*$C$DW$T$16)
     998                      .dwattr $C$DW$67, DW_AT_decl_file("C:/ti/ccs2031/ccs/tools/compiler/ti-cgt-c2000_22.6.2.LTS/include/m
     999                      .dwattr $C$DW$67, DW_AT_decl_line(0x117)
TMS320C2000 Assembler PC v22.6.2 Wed Dec 10 14:45:02 2025

Copyright (c) 1996-2018 Texas Instruments Incorporated
fcl_foc_cpu_dm.asm                                                   PAGE   20

    1000                      .dwattr $C$DW$67, DW_AT_decl_column(0x10)
    1001                      .dwattr $C$DW$67, DW_AT_TI_max_frame_size(-2)
    1002                      .dwpsn  file "C:/ti/ccs2031/ccs/tools/compiler/ti-cgt-c2000_22.6.2.LTS/include/math.h",line 280,colum
    1003              
    1004                      .dwfde $C$DW$CIE, ||__relaxed_atan2f||
    1005              $C$DW$68        .dwtag  DW_TAG_formal_parameter
    1006                      .dwattr $C$DW$68, DW_AT_name("y")
    1007                      .dwattr $C$DW$68, DW_AT_type(*$C$DW$T$16)
    1008                      .dwattr $C$DW$68, DW_AT_location[DW_OP_regx 0x2b]
    1009              
    1010              $C$DW$69        .dwtag  DW_TAG_formal_parameter
    1011                      .dwattr $C$DW$69, DW_AT_name("x")
    1012                      .dwattr $C$DW$69, DW_AT_type(*$C$DW$T$16)
    1013                      .dwattr $C$DW$69, DW_AT_location[DW_OP_regx 0x2f]
    1014              
    1015              
    1016              ;***************************************************************
    1017              ;* FNAME: __relaxed_atan2f              FR SIZE:   0           *
    1018              ;*                                                             *
    1019              ;* FUNCTION ENVIRONMENT                                        *
    1020              ;*                                                             *
    1021              ;* FUNCTION PROPERTIES                                         *
    1022              ;*                            0 Parameter,  0 Auto,  0 SOE     *
    1023              ;***************************************************************
    1024              
    1025              ||__relaxed_atan2f||:
    1026              ;* R0    assigned to y
    1027              $C$DW$70        .dwtag  DW_TAG_variable
    1028                      .dwattr $C$DW$70, DW_AT_name("y")
    1029                      .dwattr $C$DW$70, DW_AT_type(*$C$DW$T$167)
    1030                      .dwattr $C$DW$70, DW_AT_location[DW_OP_regx 0x2b]
    1031              
    1032              ;* R1    assigned to x
    1033              $C$DW$71        .dwtag  DW_TAG_variable
    1034                      .dwattr $C$DW$71, DW_AT_name("x")
    1035                      .dwattr $C$DW$71, DW_AT_type(*$C$DW$T$167)
    1036                      .dwattr $C$DW$71, DW_AT_location[DW_OP_regx 0x2f]
    1037              
    1038                      .dwcfi  cfa_offset, -2
    1039                      .dwcfi  save_reg_to_mem, 26, 0
    1040                      .dwpsn  file "C:/ti/ccs2031/ccs/tools/compiler/ti-cgt-c2000_22.6.2.LTS/include/math.h",line 281,colum
    1041 00000000 E27C          QUADF32   R1H,R0H,R0H,R1H       ; [CPU_FPU] |281| 
         00000001 0201 
    1042 00000002 7700          NOP       ; [CPU_ALU] 
    1043 00000003 7700          NOP       ; [CPU_ALU] 
    1044 00000004 7700          NOP       ; [CPU_ALU] 
    1045 00000005 7700          NOP       ; [CPU_ALU] 
    1046 00000006 E27A          ATANPUF32 R0H,R0H               ; [CPU_FPU] |281| 
         00000007 0000 
    1047 00000008 7700          NOP       ; [CPU_ALU] 
    1048 00000009 7700          NOP       ; [CPU_ALU] 
    1049 0000000a 7700          NOP       ; [CPU_ALU] 
    1050 0000000b E710          ADDF32    R0H,R0H,R1H           ; [CPU_FPU] |281| 
         0000000c 0040 
    1051 0000000d 7700          NOP       ; [CPU_ALU] 
TMS320C2000 Assembler PC v22.6.2 Wed Dec 10 14:45:02 2025

Copyright (c) 1996-2018 Texas Instruments Incorporated
fcl_foc_cpu_dm.asm                                                   PAGE   21

    1052 0000000e 7700          NOP       ; [CPU_ALU] 
    1053 0000000f E270          MPY2PIF32 R0H,R0H               ; [CPU_FPU] |281| 
         00000010 0000 
    1054 00000011 7700          NOP       ; [CPU_ALU] 
    1055              $C$DW$72        .dwtag  DW_TAG_TI_branch
    1056                      .dwattr $C$DW$72, DW_AT_low_pc(0x00)
    1057                      .dwattr $C$DW$72, DW_AT_TI_return
    1058              
    1059 00000012 0006          LRETR     ; [CPU_ALU] 
    1060                      ; return occurs ; [] 
    1061                      .dwattr $C$DW$67, DW_AT_TI_end_file("C:/ti/ccs2031/ccs/tools/compiler/ti-cgt-c2000_22.6.2.LTS/include
    1062                      .dwattr $C$DW$67, DW_AT_TI_end_line(0x11a)
    1063                      .dwattr $C$DW$67, DW_AT_TI_end_column(0x01)
    1064                      .dwendentry
    1065                      .dwendtag $C$DW$67
    1066              
    1067 00000000               .sect   ".text:__isnormall"
    1068                      .clink
    1069                      .global ||__isnormall||
    1070              
    1071              $C$DW$73        .dwtag  DW_TAG_subprogram
    1072                      .dwattr $C$DW$73, DW_AT_name("__isnormall")
    1073                      .dwattr $C$DW$73, DW_AT_low_pc(||__isnormall||)
    1074                      .dwattr $C$DW$73, DW_AT_high_pc(0x00)
    1075                      .dwattr $C$DW$73, DW_AT_linkage_name("__isnormall")
    1076                      .dwattr $C$DW$73, DW_AT_external
    1077                      .dwattr $C$DW$73, DW_AT_type(*$C$DW$T$10)
    1078                      .dwattr $C$DW$73, DW_AT_decl_file("C:/ti/ccs2031/ccs/tools/compiler/ti-cgt-c2000_22.6.2.LTS/include/_
    1079                      .dwattr $C$DW$73, DW_AT_decl_line(0x167)
    1080                      .dwattr $C$DW$73, DW_AT_decl_column(0x18)
    1081                      .dwattr $C$DW$73, DW_AT_TI_max_frame_size(-6)
    1082                      .dwpsn  file "C:/ti/ccs2031/ccs/tools/compiler/ti-cgt-c2000_22.6.2.LTS/include/_defs.h",line 360,colu
    1083              
    1084                      .dwfde $C$DW$CIE, ||__isnormall||
    1085              $C$DW$74        .dwtag  DW_TAG_formal_parameter
    1086                      .dwattr $C$DW$74, DW_AT_name("e")
    1087                      .dwattr $C$DW$74, DW_AT_type(*$C$DW$T$171)
    1088                      .dwattr $C$DW$74, DW_AT_location[DW_OP_reg12]
    1089              
    1090              
    1091              ;***************************************************************
    1092              ;* FNAME: __isnormall                   FR SIZE:   4           *
    1093              ;*                                                             *
    1094              ;* FUNCTION ENVIRONMENT                                        *
    1095              ;*                                                             *
    1096              ;* FUNCTION PROPERTIES                                         *
    1097              ;*                            4 Parameter,  0 Auto,  0 SOE     *
    1098              ;***************************************************************
    1099              
    1100              ||__isnormall||:
    1101              ;* AR5   assigned to $O$C2
    1102              ;* AR6   assigned to $O$S1
    1103              ;* AR4   assigned to e
    1104              $C$DW$75        .dwtag  DW_TAG_variable
    1105                      .dwattr $C$DW$75, DW_AT_name("e")
TMS320C2000 Assembler PC v22.6.2 Wed Dec 10 14:45:02 2025

Copyright (c) 1996-2018 Texas Instruments Incorporated
fcl_foc_cpu_dm.asm                                                   PAGE   22

    1106                      .dwattr $C$DW$75, DW_AT_type(*$C$DW$T$172)
    1107                      .dwattr $C$DW$75, DW_AT_location[DW_OP_reg12]
    1108              
    1109                      .dwcfi  cfa_offset, -2
    1110                      .dwcfi  save_reg_to_mem, 26, 0
    1111 00000000 FE04          ADDB      SP,#4                 ; [CPU_ARAU] 
    1112                      .dwcfi  cfa_offset, -6
    1113                      .dwpsn  file "C:/ti/ccs2031/ccs/tools/compiler/ti-cgt-c2000_22.6.2.LTS/include/_defs.h",line 360,colu
    1114 00000001 83C4          MOVL      XAR5,*+XAR4[0]        ; [CPU_ALU] |360| 
    1115 00000002 8AD4          MOVL      XAR4,*+XAR4[2]        ; [CPU_ALU] |360| 
    1116 00000003 BE00          MOVB      XAR6,#0               ; [CPU_ALU] |360| 
    1117 00000004 28AC          MOV       T,#52                 ; [CPU_ALU] |360| 
         00000005 0034 
    1118 00000006 A0AB          MOVL      P,XAR5                ; [CPU_ALU] |360| 
    1119 00000007 A8A9          MOVL      ACC,XAR4              ; [CPU_ALU] |360| 
    1120 00000008 C244          MOVL      *-SP[4],XAR6          ; [CPU_ALU] |360| 
    1121 00000009 2B42          MOV       *-SP[2],#0            ; [CPU_ALU] |360| 
    1122 0000000a 565B          LSR64     ACC:P,T               ; [CPU_ALU] |360| 
    1123 0000000b 2B41          MOV       *-SP[1],#0            ; [CPU_FPU] |360| 
    1124 0000000c 9000          ANDB      AL,#0                 ; [CPU_ALU] |360| 
    1125 0000000d 9100          ANDB      AH,#0                 ; [CPU_ALU] |360| 
    1126 0000000e 18AB          AND       PL,#2047              ; [CPU_ALU] |360| 
         0000000f 07FF 
    1127 00000010 18AA          AND       PH,#0                 ; [CPU_ALU] |360| 
         00000011 0000 
    1128              $C$DW$76        .dwtag  DW_TAG_TI_branch
    1129                      .dwattr $C$DW$76, DW_AT_low_pc(0x00)
    1130                      .dwattr $C$DW$76, DW_AT_name("__c28xabi_cmpull")
    1131                      .dwattr $C$DW$76, DW_AT_TI_call
    1132              
    1133 00000012 7640!         LCR       #||__c28xabi_cmpull|| ; [CPU_ALU] |360| 
         00000013 0000 
    1134                      ; call occurs [#||__c28xabi_cmpull||] ; [] |360| 
    1135 00000014 BE00          MOVB      XAR6,#0               ; [CPU_ALU] |360| 
    1136 00000015 5200          CMPB      AL,#0                 ; [CPU_ALU] |360| 
    1137 00000016 610E          B         ||$C$L3||,EQ          ; [CPU_ALU] |360| 
    1138                      ; branchcc occurs ; [] |360| 
    1139 00000017 A0AB          MOVL      P,XAR5                ; [CPU_ALU] |360| 
    1140 00000018 A8A9          MOVL      ACC,XAR4              ; [CPU_ALU] |360| 
    1141 00000019 28AC          MOV       T,#48                 ; [CPU_ALU] |360| 
         0000001a 0030 
    1142 0000001b 565B          LSR64     ACC:P,T               ; [CPU_ALU] |360| 
    1143 0000001c 18AB          AND       PL,#0x7ff0            ; [CPU_ALU] |360| 
         0000001d 7FF0 
    1144 0000001e 80AB          MOVZ      AR7,PL                ; [CPU_ALU] |360| 
    1145 0000001f FF20          MOV       ACC,#32752            ; [CPU_ALU] |360| 
         00000020 7FF0 
    1146 00000021 0FA7          CMPL      ACC,XAR7              ; [CPU_ALU] |360| 
    1147 00000022 56B0          MOVB      XAR6,#1,NEQ           ; [CPU_ALU] |360| 
         00000023 01A6 
    1148 00000024       ||$C$L3||:    
    1149 00000024 FE84          SUBB      SP,#4                 ; [CPU_ARAU] 
    1150                      .dwcfi  cfa_offset, -2
    1151 00000025 92A6          MOV       AL,AR6                ; [CPU_ALU] |360| 
    1152              $C$DW$77        .dwtag  DW_TAG_TI_branch
TMS320C2000 Assembler PC v22.6.2 Wed Dec 10 14:45:02 2025

Copyright (c) 1996-2018 Texas Instruments Incorporated
fcl_foc_cpu_dm.asm                                                   PAGE   23

    1153                      .dwattr $C$DW$77, DW_AT_low_pc(0x00)
    1154                      .dwattr $C$DW$77, DW_AT_TI_return
    1155              
    1156 00000026 0006          LRETR     ; [CPU_ALU] 
    1157                      ; return occurs ; [] 
    1158                      .dwattr $C$DW$73, DW_AT_TI_end_file("C:/ti/ccs2031/ccs/tools/compiler/ti-cgt-c2000_22.6.2.LTS/include
    1159                      .dwattr $C$DW$73, DW_AT_TI_end_line(0x169)
    1160                      .dwattr $C$DW$73, DW_AT_TI_end_column(0x31)
    1161                      .dwendentry
    1162                      .dwendtag $C$DW$73
    1163              
    1164 00000000               .sect   ".text:__isnormalf"
    1165                      .clink
    1166                      .global ||__isnormalf||
    1167              
    1168              $C$DW$78        .dwtag  DW_TAG_subprogram
    1169                      .dwattr $C$DW$78, DW_AT_name("__isnormalf")
    1170                      .dwattr $C$DW$78, DW_AT_low_pc(||__isnormalf||)
    1171                      .dwattr $C$DW$78, DW_AT_high_pc(0x00)
    1172                      .dwattr $C$DW$78, DW_AT_linkage_name("__isnormalf")
    1173                      .dwattr $C$DW$78, DW_AT_external
    1174                      .dwattr $C$DW$78, DW_AT_type(*$C$DW$T$10)
    1175                      .dwattr $C$DW$78, DW_AT_decl_file("C:/ti/ccs2031/ccs/tools/compiler/ti-cgt-c2000_22.6.2.LTS/include/_
    1176                      .dwattr $C$DW$78, DW_AT_decl_line(0x163)
    1177                      .dwattr $C$DW$78, DW_AT_decl_column(0x18)
    1178                      .dwattr $C$DW$78, DW_AT_TI_max_frame_size(-2)
    1179                      .dwpsn  file "C:/ti/ccs2031/ccs/tools/compiler/ti-cgt-c2000_22.6.2.LTS/include/_defs.h",line 356,colu
    1180              
    1181                      .dwfde $C$DW$CIE, ||__isnormalf||
    1182              $C$DW$79        .dwtag  DW_TAG_formal_parameter
    1183                      .dwattr $C$DW$79, DW_AT_name("f")
    1184                      .dwattr $C$DW$79, DW_AT_type(*$C$DW$T$16)
    1185                      .dwattr $C$DW$79, DW_AT_location[DW_OP_regx 0x2b]
    1186              
    1187              
    1188              ;***************************************************************
    1189              ;* FNAME: __isnormalf                   FR SIZE:   0           *
    1190              ;*                                                             *
    1191              ;* FUNCTION ENVIRONMENT                                        *
    1192              ;*                                                             *
    1193              ;* FUNCTION PROPERTIES                                         *
    1194              ;*                            0 Parameter,  0 Auto,  0 SOE     *
    1195              ;***************************************************************
    1196              
    1197              ||__isnormalf||:
    1198              ;* PL    assigned to $O$K3
    1199              ;* AR6   assigned to $O$S1
    1200              ;* R0    assigned to f
    1201              $C$DW$80        .dwtag  DW_TAG_variable
    1202                      .dwattr $C$DW$80, DW_AT_name("f")
    1203                      .dwattr $C$DW$80, DW_AT_type(*$C$DW$T$167)
    1204                      .dwattr $C$DW$80, DW_AT_location[DW_OP_regx 0x2b]
    1205              
    1206                      .dwcfi  cfa_offset, -2
    1207                      .dwcfi  save_reg_to_mem, 26, 0
TMS320C2000 Assembler PC v22.6.2 Wed Dec 10 14:45:02 2025

Copyright (c) 1996-2018 Texas Instruments Incorporated
fcl_foc_cpu_dm.asm                                                   PAGE   24

    1208                      .dwpsn  file "C:/ti/ccs2031/ccs/tools/compiler/ti-cgt-c2000_22.6.2.LTS/include/_defs.h",line 356,colu
    1209 00000000 BFAB          MOV32     P,R0H                 ; [CPU_FPU] |356| 
         00000001 0F12 
    1210 00000002 28AC          MOV       T,#23                 ; [CPU_ALU] |356| 
         00000003 0017 
    1211 00000004 A9A9          MOVL      ACC,P                 ; [CPU_ALU] |356| 
    1212 00000005 BE00          MOVB      XAR6,#0               ; [CPU_ALU] |356| 
    1213 00000006 5622          LSRL      ACC,T                 ; [CPU_ALU] |356| 
    1214 00000007 90FF          ANDB      AL,#0xff              ; [CPU_ALU] |356| 
    1215 00000008 6109          B         ||$C$L4||,EQ          ; [CPU_ALU] |356| 
    1216                      ; branchcc occurs ; [] |356| 
    1217 00000009 CCAA          AND       AL,PH,#0x7f80         ; [CPU_ALU] |356| 
         0000000a 7F80 
    1218 0000000b 80A9          MOVZ      AR7,AL                ; [CPU_ALU] |356| 
    1219 0000000c FF20          MOV       ACC,#32640            ; [CPU_ALU] |356| 
         0000000d 7F80 
    1220 0000000e 0FA7          CMPL      ACC,XAR7              ; [CPU_ALU] |356| 
    1221 0000000f 56B0          MOVB      XAR6,#1,NEQ           ; [CPU_ALU] |356| 
         00000010 01A6 
    1222 00000011       ||$C$L4||:    
    1223 00000011 92A6          MOV       AL,AR6                ; [CPU_ALU] |356| 
    1224              $C$DW$81        .dwtag  DW_TAG_TI_branch
    1225                      .dwattr $C$DW$81, DW_AT_low_pc(0x00)
    1226                      .dwattr $C$DW$81, DW_AT_TI_return
    1227              
    1228 00000012 0006          LRETR     ; [CPU_ALU] 
    1229                      ; return occurs ; [] 
    1230                      .dwattr $C$DW$78, DW_AT_TI_end_file("C:/ti/ccs2031/ccs/tools/compiler/ti-cgt-c2000_22.6.2.LTS/include
    1231                      .dwattr $C$DW$78, DW_AT_TI_end_line(0x165)
    1232                      .dwattr $C$DW$78, DW_AT_TI_end_column(0x2f)
    1233                      .dwendentry
    1234                      .dwendtag $C$DW$78
    1235              
    1236 00000000               .sect   ".text:__isnormal"
    1237                      .clink
    1238                      .global ||__isnormal||
    1239              
    1240              $C$DW$82        .dwtag  DW_TAG_subprogram
    1241                      .dwattr $C$DW$82, DW_AT_name("__isnormal")
    1242                      .dwattr $C$DW$82, DW_AT_low_pc(||__isnormal||)
    1243                      .dwattr $C$DW$82, DW_AT_high_pc(0x00)
    1244                      .dwattr $C$DW$82, DW_AT_linkage_name("__isnormal")
    1245                      .dwattr $C$DW$82, DW_AT_external
    1246                      .dwattr $C$DW$82, DW_AT_type(*$C$DW$T$10)
    1247                      .dwattr $C$DW$82, DW_AT_decl_file("C:/ti/ccs2031/ccs/tools/compiler/ti-cgt-c2000_22.6.2.LTS/include/_
    1248                      .dwattr $C$DW$82, DW_AT_decl_line(0x15f)
    1249                      .dwattr $C$DW$82, DW_AT_decl_column(0x18)
    1250                      .dwattr $C$DW$82, DW_AT_TI_max_frame_size(-6)
    1251                      .dwpsn  file "C:/ti/ccs2031/ccs/tools/compiler/ti-cgt-c2000_22.6.2.LTS/include/_defs.h",line 352,colu
    1252              
    1253                      .dwfde $C$DW$CIE, ||__isnormal||
    1254              $C$DW$83        .dwtag  DW_TAG_formal_parameter
    1255                      .dwattr $C$DW$83, DW_AT_name("d")
    1256                      .dwattr $C$DW$83, DW_AT_type(*$C$DW$T$168)
    1257                      .dwattr $C$DW$83, DW_AT_location[DW_OP_reg12]
TMS320C2000 Assembler PC v22.6.2 Wed Dec 10 14:45:02 2025

Copyright (c) 1996-2018 Texas Instruments Incorporated
fcl_foc_cpu_dm.asm                                                   PAGE   25

    1258              
    1259              
    1260              ;***************************************************************
    1261              ;* FNAME: __isnormal                    FR SIZE:   4           *
    1262              ;*                                                             *
    1263              ;* FUNCTION ENVIRONMENT                                        *
    1264              ;*                                                             *
    1265              ;* FUNCTION PROPERTIES                                         *
    1266              ;*                            4 Parameter,  0 Auto,  0 SOE     *
    1267              ;***************************************************************
    1268              
    1269              ||__isnormal||:
    1270              ;* AR5   assigned to $O$C2
    1271              ;* AR6   assigned to $O$S1
    1272              ;* AR4   assigned to d
    1273              $C$DW$84        .dwtag  DW_TAG_variable
    1274                      .dwattr $C$DW$84, DW_AT_name("d")
    1275                      .dwattr $C$DW$84, DW_AT_type(*$C$DW$T$169)
    1276                      .dwattr $C$DW$84, DW_AT_location[DW_OP_reg12]
    1277              
    1278                      .dwcfi  cfa_offset, -2
    1279                      .dwcfi  save_reg_to_mem, 26, 0
    1280 00000000 FE04          ADDB      SP,#4                 ; [CPU_ARAU] 
    1281                      .dwcfi  cfa_offset, -6
    1282                      .dwpsn  file "C:/ti/ccs2031/ccs/tools/compiler/ti-cgt-c2000_22.6.2.LTS/include/_defs.h",line 352,colu
    1283 00000001 83C4          MOVL      XAR5,*+XAR4[0]        ; [CPU_ALU] |352| 
    1284 00000002 8AD4          MOVL      XAR4,*+XAR4[2]        ; [CPU_ALU] |352| 
    1285 00000003 BE00          MOVB      XAR6,#0               ; [CPU_ALU] |352| 
    1286 00000004 28AC          MOV       T,#52                 ; [CPU_ALU] |352| 
         00000005 0034 
    1287 00000006 A0AB          MOVL      P,XAR5                ; [CPU_ALU] |352| 
    1288 00000007 A8A9          MOVL      ACC,XAR4              ; [CPU_ALU] |352| 
    1289 00000008 C244          MOVL      *-SP[4],XAR6          ; [CPU_ALU] |352| 
    1290 00000009 2B42          MOV       *-SP[2],#0            ; [CPU_ALU] |352| 
    1291 0000000a 565B          LSR64     ACC:P,T               ; [CPU_ALU] |352| 
    1292 0000000b 2B41          MOV       *-SP[1],#0            ; [CPU_FPU] |352| 
    1293 0000000c 9000          ANDB      AL,#0                 ; [CPU_ALU] |352| 
    1294 0000000d 9100          ANDB      AH,#0                 ; [CPU_ALU] |352| 
    1295 0000000e 18AB          AND       PL,#2047              ; [CPU_ALU] |352| 
         0000000f 07FF 
    1296 00000010 18AA          AND       PH,#0                 ; [CPU_ALU] |352| 
         00000011 0000 
    1297              $C$DW$85        .dwtag  DW_TAG_TI_branch
    1298                      .dwattr $C$DW$85, DW_AT_low_pc(0x00)
    1299                      .dwattr $C$DW$85, DW_AT_name("__c28xabi_cmpull")
    1300                      .dwattr $C$DW$85, DW_AT_TI_call
    1301              
    1302 00000012 7640!         LCR       #||__c28xabi_cmpull|| ; [CPU_ALU] |352| 
         00000013 0000 
    1303                      ; call occurs [#||__c28xabi_cmpull||] ; [] |352| 
    1304 00000014 BE00          MOVB      XAR6,#0               ; [CPU_ALU] |352| 
    1305 00000015 5200          CMPB      AL,#0                 ; [CPU_ALU] |352| 
    1306 00000016 610E          B         ||$C$L5||,EQ          ; [CPU_ALU] |352| 
    1307                      ; branchcc occurs ; [] |352| 
    1308 00000017 A0AB          MOVL      P,XAR5                ; [CPU_ALU] |352| 
TMS320C2000 Assembler PC v22.6.2 Wed Dec 10 14:45:02 2025

Copyright (c) 1996-2018 Texas Instruments Incorporated
fcl_foc_cpu_dm.asm                                                   PAGE   26

    1309 00000018 A8A9          MOVL      ACC,XAR4              ; [CPU_ALU] |352| 
    1310 00000019 28AC          MOV       T,#48                 ; [CPU_ALU] |352| 
         0000001a 0030 
    1311 0000001b 565B          LSR64     ACC:P,T               ; [CPU_ALU] |352| 
    1312 0000001c 18AB          AND       PL,#0x7ff0            ; [CPU_ALU] |352| 
         0000001d 7FF0 
    1313 0000001e 80AB          MOVZ      AR7,PL                ; [CPU_ALU] |352| 
    1314 0000001f FF20          MOV       ACC,#32752            ; [CPU_ALU] |352| 
         00000020 7FF0 
    1315 00000021 0FA7          CMPL      ACC,XAR7              ; [CPU_ALU] |352| 
    1316 00000022 56B0          MOVB      XAR6,#1,NEQ           ; [CPU_ALU] |352| 
         00000023 01A6 
    1317 00000024       ||$C$L5||:    
    1318 00000024 FE84          SUBB      SP,#4                 ; [CPU_ARAU] 
    1319                      .dwcfi  cfa_offset, -2
    1320 00000025 92A6          MOV       AL,AR6                ; [CPU_ALU] |352| 
    1321              $C$DW$86        .dwtag  DW_TAG_TI_branch
    1322                      .dwattr $C$DW$86, DW_AT_low_pc(0x00)
    1323                      .dwattr $C$DW$86, DW_AT_TI_return
    1324              
    1325 00000026 0006          LRETR     ; [CPU_ALU] 
    1326                      ; return occurs ; [] 
    1327                      .dwattr $C$DW$82, DW_AT_TI_end_file("C:/ti/ccs2031/ccs/tools/compiler/ti-cgt-c2000_22.6.2.LTS/include
    1328                      .dwattr $C$DW$82, DW_AT_TI_end_line(0x161)
    1329                      .dwattr $C$DW$82, DW_AT_TI_end_column(0x30)
    1330                      .dwendentry
    1331                      .dwendtag $C$DW$82
    1332              
    1333 00000000               .sect   ".text:__isnanl"
    1334                      .clink
    1335                      .global ||__isnanl||
    1336              
    1337              $C$DW$87        .dwtag  DW_TAG_subprogram
    1338                      .dwattr $C$DW$87, DW_AT_name("__isnanl")
    1339                      .dwattr $C$DW$87, DW_AT_low_pc(||__isnanl||)
    1340                      .dwattr $C$DW$87, DW_AT_high_pc(0x00)
    1341                      .dwattr $C$DW$87, DW_AT_linkage_name("__isnanl")
    1342                      .dwattr $C$DW$87, DW_AT_external
    1343                      .dwattr $C$DW$87, DW_AT_type(*$C$DW$T$10)
    1344                      .dwattr $C$DW$87, DW_AT_decl_file("C:/ti/ccs2031/ccs/tools/compiler/ti-cgt-c2000_22.6.2.LTS/include/_
    1345                      .dwattr $C$DW$87, DW_AT_decl_line(0x15b)
    1346                      .dwattr $C$DW$87, DW_AT_decl_column(0x18)
    1347                      .dwattr $C$DW$87, DW_AT_TI_max_frame_size(-6)
    1348                      .dwpsn  file "C:/ti/ccs2031/ccs/tools/compiler/ti-cgt-c2000_22.6.2.LTS/include/_defs.h",line 348,colu
    1349              
    1350                      .dwfde $C$DW$CIE, ||__isnanl||
    1351              $C$DW$88        .dwtag  DW_TAG_formal_parameter
    1352                      .dwattr $C$DW$88, DW_AT_name("e")
    1353                      .dwattr $C$DW$88, DW_AT_type(*$C$DW$T$171)
    1354                      .dwattr $C$DW$88, DW_AT_location[DW_OP_reg12]
    1355              
    1356              
    1357              ;***************************************************************
    1358              ;* FNAME: __isnanl                      FR SIZE:   4           *
    1359              ;*                                                             *
TMS320C2000 Assembler PC v22.6.2 Wed Dec 10 14:45:02 2025

Copyright (c) 1996-2018 Texas Instruments Incorporated
fcl_foc_cpu_dm.asm                                                   PAGE   27

    1360              ;* FUNCTION ENVIRONMENT                                        *
    1361              ;*                                                             *
    1362              ;* FUNCTION PROPERTIES                                         *
    1363              ;*                            4 Parameter,  0 Auto,  0 SOE     *
    1364              ;***************************************************************
    1365              
    1366              ||__isnanl||:
    1367              ;* AR7   assigned to $O$C2
    1368              ;* AR4   assigned to $O$S1
    1369              ;* AR4   assigned to e
    1370              $C$DW$89        .dwtag  DW_TAG_variable
    1371                      .dwattr $C$DW$89, DW_AT_name("e")
    1372                      .dwattr $C$DW$89, DW_AT_type(*$C$DW$T$172)
    1373                      .dwattr $C$DW$89, DW_AT_location[DW_OP_reg12]
    1374              
    1375                      .dwcfi  cfa_offset, -2
    1376                      .dwcfi  save_reg_to_mem, 26, 0
    1377 00000000 FE04          ADDB      SP,#4                 ; [CPU_ARAU] 
    1378                      .dwcfi  cfa_offset, -6
    1379                      .dwpsn  file "C:/ti/ccs2031/ccs/tools/compiler/ti-cgt-c2000_22.6.2.LTS/include/_defs.h",line 348,colu
    1380 00000001 C5C4          MOVL      XAR7,*+XAR4[0]        ; [CPU_ALU] |348| 
    1381 00000002 06D4          MOVL      ACC,*+XAR4[2]         ; [CPU_ALU] |348| 
    1382 00000003 28AC          MOV       T,#48                 ; [CPU_ALU] |348| 
         00000004 0030 
    1383 00000005 1EA6          MOVL      XAR6,ACC              ; [CPU_ALU] |348| 
    1384 00000006 A3A7          MOVL      P,XAR7                ; [CPU_ALU] |348| 
    1385 00000007 D400          MOVB      XAR4,#0               ; [CPU_ALU] |348| 
    1386 00000008 565B          LSR64     ACC:P,T               ; [CPU_ALU] |348| 
    1387 00000009 2BAA          MOV       PH,#0                 ; [CPU_ALU] |348| 
    1388 0000000a 18AB          AND       PL,#0x7ff0            ; [CPU_ALU] |348| 
         0000000b 7FF0 
    1389 0000000c FF20          MOV       ACC,#32752            ; [CPU_ALU] |348| 
         0000000d 7FF0 
    1390 0000000e 0FAB          CMPL      ACC,P                 ; [CPU_ALU] |348| 
    1391 0000000f 6013          B         ||$C$L6||,NEQ         ; [CPU_ALU] |348| 
    1392                      ; branchcc occurs ; [] |348| 
    1393 00000010 06A6          MOVL      ACC,XAR6              ; [CPU_ALU] |348| 
    1394 00000011 A3A7          MOVL      P,XAR7                ; [CPU_ALU] |348| 
    1395 00000012 BE00          MOVB      XAR6,#0               ; [CPU_ALU] |348| 
    1396 00000013 18A9          AND       AL,#65535             ; [CPU_ALU] |348| 
         00000014 FFFF 
    1397 00000015 910F          ANDB      AH,#15                ; [CPU_ALU] |348| 
    1398 00000016 18AB          AND       PL,#65535             ; [CPU_ALU] |348| 
         00000017 FFFF 
    1399 00000018 18AA          AND       PH,#65535             ; [CPU_ALU] |348| 
         00000019 FFFF 
    1400 0000001a C244          MOVL      *-SP[4],XAR6          ; [CPU_FPU] |348| 
    1401 0000001b 2B42          MOV       *-SP[2],#0            ; [CPU_FPU] |348| 
    1402 0000001c 2B41          MOV       *-SP[1],#0            ; [CPU_FPU] |348| 
    1403              $C$DW$90        .dwtag  DW_TAG_TI_branch
    1404                      .dwattr $C$DW$90, DW_AT_low_pc(0x00)
    1405                      .dwattr $C$DW$90, DW_AT_name("__c28xabi_cmpull")
    1406                      .dwattr $C$DW$90, DW_AT_TI_call
    1407              
    1408 0000001d 7640!         LCR       #||__c28xabi_cmpull|| ; [CPU_ALU] |348| 
TMS320C2000 Assembler PC v22.6.2 Wed Dec 10 14:45:02 2025

Copyright (c) 1996-2018 Texas Instruments Incorporated
fcl_foc_cpu_dm.asm                                                   PAGE   28

         0000001e 0000 
    1409                      ; call occurs [#||__c28xabi_cmpull||] ; [] |348| 
    1410 0000001f 5200          CMPB      AL,#0                 ; [CPU_ALU] |348| 
    1411 00000020 56B0          MOVB      XAR4,#1,NEQ           ; [CPU_ALU] |348| 
         00000021 01A4 
    1412 00000022       ||$C$L6||:    
    1413 00000022 FE84          SUBB      SP,#4                 ; [CPU_ARAU] 
    1414                      .dwcfi  cfa_offset, -2
    1415 00000023 92A4          MOV       AL,AR4                ; [CPU_ALU] |348| 
    1416              $C$DW$91        .dwtag  DW_TAG_TI_branch
    1417                      .dwattr $C$DW$91, DW_AT_low_pc(0x00)
    1418                      .dwattr $C$DW$91, DW_AT_TI_return
    1419              
    1420 00000024 0006          LRETR     ; [CPU_ALU] 
    1421                      ; return occurs ; [] 
    1422                      .dwattr $C$DW$87, DW_AT_TI_end_file("C:/ti/ccs2031/ccs/tools/compiler/ti-cgt-c2000_22.6.2.LTS/include
    1423                      .dwattr $C$DW$87, DW_AT_TI_end_line(0x15d)
    1424                      .dwattr $C$DW$87, DW_AT_TI_end_column(0x30)
    1425                      .dwendentry
    1426                      .dwendtag $C$DW$87
    1427              
    1428 00000000               .sect   ".text:__isnanf"
    1429                      .clink
    1430                      .global ||__isnanf||
    1431              
    1432              $C$DW$92        .dwtag  DW_TAG_subprogram
    1433                      .dwattr $C$DW$92, DW_AT_name("__isnanf")
    1434                      .dwattr $C$DW$92, DW_AT_low_pc(||__isnanf||)
    1435                      .dwattr $C$DW$92, DW_AT_high_pc(0x00)
    1436                      .dwattr $C$DW$92, DW_AT_linkage_name("__isnanf")
    1437                      .dwattr $C$DW$92, DW_AT_external
    1438                      .dwattr $C$DW$92, DW_AT_type(*$C$DW$T$10)
    1439                      .dwattr $C$DW$92, DW_AT_decl_file("C:/ti/ccs2031/ccs/tools/compiler/ti-cgt-c2000_22.6.2.LTS/include/_
    1440                      .dwattr $C$DW$92, DW_AT_decl_line(0x158)
    1441                      .dwattr $C$DW$92, DW_AT_decl_column(0x18)
    1442                      .dwattr $C$DW$92, DW_AT_TI_max_frame_size(-2)
    1443                      .dwpsn  file "C:/ti/ccs2031/ccs/tools/compiler/ti-cgt-c2000_22.6.2.LTS/include/_defs.h",line 345,colu
    1444              
    1445                      .dwfde $C$DW$CIE, ||__isnanf||
    1446              $C$DW$93        .dwtag  DW_TAG_formal_parameter
    1447                      .dwattr $C$DW$93, DW_AT_name("f")
    1448                      .dwattr $C$DW$93, DW_AT_type(*$C$DW$T$16)
    1449                      .dwattr $C$DW$93, DW_AT_location[DW_OP_regx 0x2b]
    1450              
    1451              
    1452              ;***************************************************************
    1453              ;* FNAME: __isnanf                      FR SIZE:   0           *
    1454              ;*                                                             *
    1455              ;* FUNCTION ENVIRONMENT                                        *
    1456              ;*                                                             *
    1457              ;* FUNCTION PROPERTIES                                         *
    1458              ;*                            0 Parameter,  0 Auto,  0 SOE     *
    1459              ;***************************************************************
    1460              
    1461              ||__isnanf||:
TMS320C2000 Assembler PC v22.6.2 Wed Dec 10 14:45:02 2025

Copyright (c) 1996-2018 Texas Instruments Incorporated
fcl_foc_cpu_dm.asm                                                   PAGE   29

    1462              ;* PL    assigned to $O$K3
    1463              ;* AR6   assigned to $O$S1
    1464              ;* R0    assigned to f
    1465              $C$DW$94        .dwtag  DW_TAG_variable
    1466                      .dwattr $C$DW$94, DW_AT_name("f")
    1467                      .dwattr $C$DW$94, DW_AT_type(*$C$DW$T$167)
    1468                      .dwattr $C$DW$94, DW_AT_location[DW_OP_regx 0x2b]
    1469              
    1470                      .dwcfi  cfa_offset, -2
    1471                      .dwcfi  save_reg_to_mem, 26, 0
    1472                      .dwpsn  file "C:/ti/ccs2031/ccs/tools/compiler/ti-cgt-c2000_22.6.2.LTS/include/_defs.h",line 345,colu
    1473 00000000 BFAB          MOV32     P,R0H                 ; [CPU_FPU] |345| 
         00000001 0F12 
    1474 00000002 CCAA          AND       AL,PH,#0x7f80         ; [CPU_ALU] |345| 
         00000003 7F80 
    1475 00000004 80A9          MOVZ      AR7,AL                ; [CPU_ALU] |345| 
    1476 00000005 BE00          MOVB      XAR6,#0               ; [CPU_ALU] |345| 
    1477 00000006 FF20          MOV       ACC,#32640            ; [CPU_ALU] |345| 
         00000007 7F80 
    1478 00000008 0FA7          CMPL      ACC,XAR7              ; [CPU_ALU] |345| 
    1479 00000009 6006          B         ||$C$L7||,NEQ         ; [CPU_ALU] |345| 
    1480                      ; branchcc occurs ; [] |345| 
    1481 0000000a A9A9          MOVL      ACC,P                 ; [CPU_ALU] |345| 
    1482 0000000b 917F          ANDB      AH,#127               ; [CPU_ALU] |345| 
    1483 0000000c FF58          TEST      ACC                   ; [CPU_ALU] |345| 
    1484 0000000d 56B0          MOVB      XAR6,#1,NEQ           ; [CPU_ALU] |345| 
         0000000e 01A6 
    1485 0000000f       ||$C$L7||:    
    1486 0000000f 92A6          MOV       AL,AR6                ; [CPU_ALU] |345| 
    1487              $C$DW$95        .dwtag  DW_TAG_TI_branch
    1488                      .dwattr $C$DW$95, DW_AT_low_pc(0x00)
    1489                      .dwattr $C$DW$95, DW_AT_TI_return
    1490              
    1491 00000010 0006          LRETR     ; [CPU_ALU] 
    1492                      ; return occurs ; [] 
    1493                      .dwattr $C$DW$92, DW_AT_TI_end_file("C:/ti/ccs2031/ccs/tools/compiler/ti-cgt-c2000_22.6.2.LTS/include
    1494                      .dwattr $C$DW$92, DW_AT_TI_end_line(0x15a)
    1495                      .dwattr $C$DW$92, DW_AT_TI_end_column(0x2e)
    1496                      .dwendentry
    1497                      .dwendtag $C$DW$92
    1498              
    1499 00000000               .sect   ".text:__isnan"
    1500                      .clink
    1501                      .global ||__isnan||
    1502              
    1503              $C$DW$96        .dwtag  DW_TAG_subprogram
    1504                      .dwattr $C$DW$96, DW_AT_name("__isnan")
    1505                      .dwattr $C$DW$96, DW_AT_low_pc(||__isnan||)
    1506                      .dwattr $C$DW$96, DW_AT_high_pc(0x00)
    1507                      .dwattr $C$DW$96, DW_AT_linkage_name("__isnan")
    1508                      .dwattr $C$DW$96, DW_AT_external
    1509                      .dwattr $C$DW$96, DW_AT_type(*$C$DW$T$10)
    1510                      .dwattr $C$DW$96, DW_AT_decl_file("C:/ti/ccs2031/ccs/tools/compiler/ti-cgt-c2000_22.6.2.LTS/include/_
    1511                      .dwattr $C$DW$96, DW_AT_decl_line(0x155)
    1512                      .dwattr $C$DW$96, DW_AT_decl_column(0x18)
TMS320C2000 Assembler PC v22.6.2 Wed Dec 10 14:45:02 2025

Copyright (c) 1996-2018 Texas Instruments Incorporated
fcl_foc_cpu_dm.asm                                                   PAGE   30

    1513                      .dwattr $C$DW$96, DW_AT_TI_max_frame_size(-6)
    1514                      .dwpsn  file "C:/ti/ccs2031/ccs/tools/compiler/ti-cgt-c2000_22.6.2.LTS/include/_defs.h",line 342,colu
    1515              
    1516                      .dwfde $C$DW$CIE, ||__isnan||
    1517              $C$DW$97        .dwtag  DW_TAG_formal_parameter
    1518                      .dwattr $C$DW$97, DW_AT_name("d")
    1519                      .dwattr $C$DW$97, DW_AT_type(*$C$DW$T$168)
    1520                      .dwattr $C$DW$97, DW_AT_location[DW_OP_reg12]
    1521              
    1522              
    1523              ;***************************************************************
    1524              ;* FNAME: __isnan                       FR SIZE:   4           *
    1525              ;*                                                             *
    1526              ;* FUNCTION ENVIRONMENT                                        *
    1527              ;*                                                             *
    1528              ;* FUNCTION PROPERTIES                                         *
    1529              ;*                            4 Parameter,  0 Auto,  0 SOE     *
    1530              ;***************************************************************
    1531              
    1532              ||__isnan||:
    1533              ;* AR7   assigned to $O$C2
    1534              ;* AR4   assigned to $O$S1
    1535              ;* AR4   assigned to d
    1536              $C$DW$98        .dwtag  DW_TAG_variable
    1537                      .dwattr $C$DW$98, DW_AT_name("d")
    1538                      .dwattr $C$DW$98, DW_AT_type(*$C$DW$T$169)
    1539                      .dwattr $C$DW$98, DW_AT_location[DW_OP_reg12]
    1540              
    1541                      .dwcfi  cfa_offset, -2
    1542                      .dwcfi  save_reg_to_mem, 26, 0
    1543 00000000 FE04          ADDB      SP,#4                 ; [CPU_ARAU] 
    1544                      .dwcfi  cfa_offset, -6
    1545                      .dwpsn  file "C:/ti/ccs2031/ccs/tools/compiler/ti-cgt-c2000_22.6.2.LTS/include/_defs.h",line 342,colu
    1546 00000001 C5C4          MOVL      XAR7,*+XAR4[0]        ; [CPU_ALU] |342| 
    1547 00000002 06D4          MOVL      ACC,*+XAR4[2]         ; [CPU_ALU] |342| 
    1548 00000003 28AC          MOV       T,#48                 ; [CPU_ALU] |342| 
         00000004 0030 
    1549 00000005 1EA6          MOVL      XAR6,ACC              ; [CPU_ALU] |342| 
    1550 00000006 A3A7          MOVL      P,XAR7                ; [CPU_ALU] |342| 
    1551 00000007 D400          MOVB      XAR4,#0               ; [CPU_ALU] |342| 
    1552 00000008 565B          LSR64     ACC:P,T               ; [CPU_ALU] |342| 
    1553 00000009 2BAA          MOV       PH,#0                 ; [CPU_ALU] |342| 
    1554 0000000a 18AB          AND       PL,#0x7ff0            ; [CPU_ALU] |342| 
         0000000b 7FF0 
    1555 0000000c FF20          MOV       ACC,#32752            ; [CPU_ALU] |342| 
         0000000d 7FF0 
    1556 0000000e 0FAB          CMPL      ACC,P                 ; [CPU_ALU] |342| 
    1557 0000000f 6013          B         ||$C$L8||,NEQ         ; [CPU_ALU] |342| 
    1558                      ; branchcc occurs ; [] |342| 
    1559 00000010 06A6          MOVL      ACC,XAR6              ; [CPU_ALU] |342| 
    1560 00000011 A3A7          MOVL      P,XAR7                ; [CPU_ALU] |342| 
    1561 00000012 BE00          MOVB      XAR6,#0               ; [CPU_ALU] |342| 
    1562 00000013 18A9          AND       AL,#65535             ; [CPU_ALU] |342| 
         00000014 FFFF 
    1563 00000015 910F          ANDB      AH,#15                ; [CPU_ALU] |342| 
TMS320C2000 Assembler PC v22.6.2 Wed Dec 10 14:45:02 2025

Copyright (c) 1996-2018 Texas Instruments Incorporated
fcl_foc_cpu_dm.asm                                                   PAGE   31

    1564 00000016 18AB          AND       PL,#65535             ; [CPU_ALU] |342| 
         00000017 FFFF 
    1565 00000018 18AA          AND       PH,#65535             ; [CPU_ALU] |342| 
         00000019 FFFF 
    1566 0000001a C244          MOVL      *-SP[4],XAR6          ; [CPU_FPU] |342| 
    1567 0000001b 2B42          MOV       *-SP[2],#0            ; [CPU_FPU] |342| 
    1568 0000001c 2B41          MOV       *-SP[1],#0            ; [CPU_FPU] |342| 
    1569              $C$DW$99        .dwtag  DW_TAG_TI_branch
    1570                      .dwattr $C$DW$99, DW_AT_low_pc(0x00)
    1571                      .dwattr $C$DW$99, DW_AT_name("__c28xabi_cmpull")
    1572                      .dwattr $C$DW$99, DW_AT_TI_call
    1573              
    1574 0000001d 7640!         LCR       #||__c28xabi_cmpull|| ; [CPU_ALU] |342| 
         0000001e 0000 
    1575                      ; call occurs [#||__c28xabi_cmpull||] ; [] |342| 
    1576 0000001f 5200          CMPB      AL,#0                 ; [CPU_ALU] |342| 
    1577 00000020 56B0          MOVB      XAR4,#1,NEQ           ; [CPU_ALU] |342| 
         00000021 01A4 
    1578 00000022       ||$C$L8||:    
    1579 00000022 FE84          SUBB      SP,#4                 ; [CPU_ARAU] 
    1580                      .dwcfi  cfa_offset, -2
    1581 00000023 92A4          MOV       AL,AR4                ; [CPU_ALU] |342| 
    1582              $C$DW$100       .dwtag  DW_TAG_TI_branch
    1583                      .dwattr $C$DW$100, DW_AT_low_pc(0x00)
    1584                      .dwattr $C$DW$100, DW_AT_TI_return
    1585              
    1586 00000024 0006          LRETR     ; [CPU_ALU] 
    1587                      ; return occurs ; [] 
    1588                      .dwattr $C$DW$96, DW_AT_TI_end_file("C:/ti/ccs2031/ccs/tools/compiler/ti-cgt-c2000_22.6.2.LTS/include
    1589                      .dwattr $C$DW$96, DW_AT_TI_end_line(0x157)
    1590                      .dwattr $C$DW$96, DW_AT_TI_end_column(0x2f)
    1591                      .dwendentry
    1592                      .dwendtag $C$DW$96
    1593              
    1594 00000000               .sect   ".text:__isinfl"
    1595                      .clink
    1596                      .global ||__isinfl||
    1597              
    1598              $C$DW$101       .dwtag  DW_TAG_subprogram
    1599                      .dwattr $C$DW$101, DW_AT_name("__isinfl")
    1600                      .dwattr $C$DW$101, DW_AT_low_pc(||__isinfl||)
    1601                      .dwattr $C$DW$101, DW_AT_high_pc(0x00)
    1602                      .dwattr $C$DW$101, DW_AT_linkage_name("__isinfl")
    1603                      .dwattr $C$DW$101, DW_AT_external
    1604                      .dwattr $C$DW$101, DW_AT_type(*$C$DW$T$10)
    1605                      .dwattr $C$DW$101, DW_AT_decl_file("C:/ti/ccs2031/ccs/tools/compiler/ti-cgt-c2000_22.6.2.LTS/include/
    1606                      .dwattr $C$DW$101, DW_AT_decl_line(0x17a)
    1607                      .dwattr $C$DW$101, DW_AT_decl_column(0x18)
    1608                      .dwattr $C$DW$101, DW_AT_TI_max_frame_size(-6)
    1609                      .dwpsn  file "C:/ti/ccs2031/ccs/tools/compiler/ti-cgt-c2000_22.6.2.LTS/include/_defs.h",line 379,colu
    1610              
    1611                      .dwfde $C$DW$CIE, ||__isinfl||
    1612              $C$DW$102       .dwtag  DW_TAG_formal_parameter
    1613                      .dwattr $C$DW$102, DW_AT_name("e")
    1614                      .dwattr $C$DW$102, DW_AT_type(*$C$DW$T$171)
TMS320C2000 Assembler PC v22.6.2 Wed Dec 10 14:45:02 2025

Copyright (c) 1996-2018 Texas Instruments Incorporated
fcl_foc_cpu_dm.asm                                                   PAGE   32

    1615                      .dwattr $C$DW$102, DW_AT_location[DW_OP_reg12]
    1616              
    1617              
    1618              ;***************************************************************
    1619              ;* FNAME: __isinfl                      FR SIZE:   4           *
    1620              ;*                                                             *
    1621              ;* FUNCTION ENVIRONMENT                                        *
    1622              ;*                                                             *
    1623              ;* FUNCTION PROPERTIES                                         *
    1624              ;*                            4 Parameter,  0 Auto,  0 SOE     *
    1625              ;***************************************************************
    1626              
    1627              ||__isinfl||:
    1628              ;* AR7   assigned to $O$C2
    1629              ;* AR4   assigned to $O$S1
    1630              ;* AR4   assigned to e
    1631              $C$DW$103       .dwtag  DW_TAG_variable
    1632                      .dwattr $C$DW$103, DW_AT_name("e")
    1633                      .dwattr $C$DW$103, DW_AT_type(*$C$DW$T$172)
    1634                      .dwattr $C$DW$103, DW_AT_location[DW_OP_reg12]
    1635              
    1636                      .dwcfi  cfa_offset, -2
    1637                      .dwcfi  save_reg_to_mem, 26, 0
    1638 00000000 FE04          ADDB      SP,#4                 ; [CPU_ARAU] 
    1639                      .dwcfi  cfa_offset, -6
    1640                      .dwpsn  file "C:/ti/ccs2031/ccs/tools/compiler/ti-cgt-c2000_22.6.2.LTS/include/_defs.h",line 379,colu
    1641 00000001 C5C4          MOVL      XAR7,*+XAR4[0]        ; [CPU_ALU] |379| 
    1642 00000002 06D4          MOVL      ACC,*+XAR4[2]         ; [CPU_ALU] |379| 
    1643 00000003 28AC          MOV       T,#48                 ; [CPU_ALU] |379| 
         00000004 0030 
    1644 00000005 1EA6          MOVL      XAR6,ACC              ; [CPU_ALU] |379| 
    1645 00000006 A3A7          MOVL      P,XAR7                ; [CPU_ALU] |379| 
    1646 00000007 D400          MOVB      XAR4,#0               ; [CPU_ALU] |379| 
    1647 00000008 565B          LSR64     ACC:P,T               ; [CPU_ALU] |379| 
    1648 00000009 2BAA          MOV       PH,#0                 ; [CPU_ALU] |379| 
    1649 0000000a 18AB          AND       PL,#0x7ff0            ; [CPU_ALU] |379| 
         0000000b 7FF0 
    1650 0000000c FF20          MOV       ACC,#32752            ; [CPU_ALU] |379| 
         0000000d 7FF0 
    1651 0000000e 0FAB          CMPL      ACC,P                 ; [CPU_ALU] |379| 
    1652 0000000f 6013          B         ||$C$L9||,NEQ         ; [CPU_ALU] |379| 
    1653                      ; branchcc occurs ; [] |379| 
    1654 00000010 06A6          MOVL      ACC,XAR6              ; [CPU_ALU] |379| 
    1655 00000011 A3A7          MOVL      P,XAR7                ; [CPU_ALU] |379| 
    1656 00000012 BE00          MOVB      XAR6,#0               ; [CPU_ALU] |379| 
    1657 00000013 18A9          AND       AL,#65535             ; [CPU_ALU] |379| 
         00000014 FFFF 
    1658 00000015 910F          ANDB      AH,#15                ; [CPU_ALU] |379| 
    1659 00000016 18AB          AND       PL,#65535             ; [CPU_ALU] |379| 
         00000017 FFFF 
    1660 00000018 18AA          AND       PH,#65535             ; [CPU_ALU] |379| 
         00000019 FFFF 
    1661 0000001a C244          MOVL      *-SP[4],XAR6          ; [CPU_FPU] |379| 
    1662 0000001b 2B42          MOV       *-SP[2],#0            ; [CPU_FPU] |379| 
    1663 0000001c 2B41          MOV       *-SP[1],#0            ; [CPU_FPU] |379| 
TMS320C2000 Assembler PC v22.6.2 Wed Dec 10 14:45:02 2025

Copyright (c) 1996-2018 Texas Instruments Incorporated
fcl_foc_cpu_dm.asm                                                   PAGE   33

    1664              $C$DW$104       .dwtag  DW_TAG_TI_branch
    1665                      .dwattr $C$DW$104, DW_AT_low_pc(0x00)
    1666                      .dwattr $C$DW$104, DW_AT_name("__c28xabi_cmpull")
    1667                      .dwattr $C$DW$104, DW_AT_TI_call
    1668              
    1669 0000001d 7640!         LCR       #||__c28xabi_cmpull|| ; [CPU_ALU] |379| 
         0000001e 0000 
    1670                      ; call occurs [#||__c28xabi_cmpull||] ; [] |379| 
    1671 0000001f 5200          CMPB      AL,#0                 ; [CPU_ALU] |379| 
    1672 00000020 56B1          MOVB      XAR4,#1,EQ            ; [CPU_ALU] |379| 
         00000021 01A4 
    1673 00000022       ||$C$L9||:    
    1674 00000022 FE84          SUBB      SP,#4                 ; [CPU_ARAU] 
    1675                      .dwcfi  cfa_offset, -2
    1676 00000023 92A4          MOV       AL,AR4                ; [CPU_ALU] |379| 
    1677              $C$DW$105       .dwtag  DW_TAG_TI_branch
    1678                      .dwattr $C$DW$105, DW_AT_low_pc(0x00)
    1679                      .dwattr $C$DW$105, DW_AT_TI_return
    1680              
    1681 00000024 0006          LRETR     ; [CPU_ALU] 
    1682                      ; return occurs ; [] 
    1683                      .dwattr $C$DW$101, DW_AT_TI_end_file("C:/ti/ccs2031/ccs/tools/compiler/ti-cgt-c2000_22.6.2.LTS/includ
    1684                      .dwattr $C$DW$101, DW_AT_TI_end_line(0x17b)
    1685                      .dwattr $C$DW$101, DW_AT_TI_end_column(0x4c)
    1686                      .dwendentry
    1687                      .dwendtag $C$DW$101
    1688              
    1689 00000000               .sect   ".text:__isinff"
    1690                      .clink
    1691                      .global ||__isinff||
    1692              
    1693              $C$DW$106       .dwtag  DW_TAG_subprogram
    1694                      .dwattr $C$DW$106, DW_AT_name("__isinff")
    1695                      .dwattr $C$DW$106, DW_AT_low_pc(||__isinff||)
    1696                      .dwattr $C$DW$106, DW_AT_high_pc(0x00)
    1697                      .dwattr $C$DW$106, DW_AT_linkage_name("__isinff")
    1698                      .dwattr $C$DW$106, DW_AT_external
    1699                      .dwattr $C$DW$106, DW_AT_type(*$C$DW$T$10)
    1700                      .dwattr $C$DW$106, DW_AT_decl_file("C:/ti/ccs2031/ccs/tools/compiler/ti-cgt-c2000_22.6.2.LTS/include/
    1701                      .dwattr $C$DW$106, DW_AT_decl_line(0x176)
    1702                      .dwattr $C$DW$106, DW_AT_decl_column(0x18)
    1703                      .dwattr $C$DW$106, DW_AT_TI_max_frame_size(-2)
    1704                      .dwpsn  file "C:/ti/ccs2031/ccs/tools/compiler/ti-cgt-c2000_22.6.2.LTS/include/_defs.h",line 375,colu
    1705              
    1706                      .dwfde $C$DW$CIE, ||__isinff||
    1707              $C$DW$107       .dwtag  DW_TAG_formal_parameter
    1708                      .dwattr $C$DW$107, DW_AT_name("f")
    1709                      .dwattr $C$DW$107, DW_AT_type(*$C$DW$T$16)
    1710                      .dwattr $C$DW$107, DW_AT_location[DW_OP_regx 0x2b]
    1711              
    1712              
    1713              ;***************************************************************
    1714              ;* FNAME: __isinff                      FR SIZE:   0           *
    1715              ;*                                                             *
    1716              ;* FUNCTION ENVIRONMENT                                        *
TMS320C2000 Assembler PC v22.6.2 Wed Dec 10 14:45:02 2025

Copyright (c) 1996-2018 Texas Instruments Incorporated
fcl_foc_cpu_dm.asm                                                   PAGE   34

    1717              ;*                                                             *
    1718              ;* FUNCTION PROPERTIES                                         *
    1719              ;*                            0 Parameter,  0 Auto,  0 SOE     *
    1720              ;***************************************************************
    1721              
    1722              ||__isinff||:
    1723              ;* PL    assigned to $O$K3
    1724              ;* AR6   assigned to $O$S1
    1725              ;* R0    assigned to f
    1726              $C$DW$108       .dwtag  DW_TAG_variable
    1727                      .dwattr $C$DW$108, DW_AT_name("f")
    1728                      .dwattr $C$DW$108, DW_AT_type(*$C$DW$T$167)
    1729                      .dwattr $C$DW$108, DW_AT_location[DW_OP_regx 0x2b]
    1730              
    1731                      .dwcfi  cfa_offset, -2
    1732                      .dwcfi  save_reg_to_mem, 26, 0
    1733                      .dwpsn  file "C:/ti/ccs2031/ccs/tools/compiler/ti-cgt-c2000_22.6.2.LTS/include/_defs.h",line 375,colu
    1734 00000000 BFAB          MOV32     P,R0H                 ; [CPU_FPU] |375| 
         00000001 0F12 
    1735 00000002 CCAA          AND       AL,PH,#0x7f80         ; [CPU_ALU] |375| 
         00000003 7F80 
    1736 00000004 80A9          MOVZ      AR7,AL                ; [CPU_ALU] |375| 
    1737 00000005 BE00          MOVB      XAR6,#0               ; [CPU_ALU] |375| 
    1738 00000006 FF20          MOV       ACC,#32640            ; [CPU_ALU] |375| 
         00000007 7F80 
    1739 00000008 0FA7          CMPL      ACC,XAR7              ; [CPU_ALU] |375| 
    1740 00000009 6006          B         ||$C$L10||,NEQ        ; [CPU_ALU] |375| 
    1741                      ; branchcc occurs ; [] |375| 
    1742 0000000a A9A9          MOVL      ACC,P                 ; [CPU_ALU] |375| 
    1743 0000000b 917F          ANDB      AH,#127               ; [CPU_ALU] |375| 
    1744 0000000c FF58          TEST      ACC                   ; [CPU_ALU] |375| 
    1745 0000000d 56B1          MOVB      XAR6,#1,EQ            ; [CPU_ALU] |375| 
         0000000e 01A6 
    1746 0000000f       ||$C$L10||:    
    1747 0000000f 92A6          MOV       AL,AR6                ; [CPU_ALU] |375| 
    1748              $C$DW$109       .dwtag  DW_TAG_TI_branch
    1749                      .dwattr $C$DW$109, DW_AT_low_pc(0x00)
    1750                      .dwattr $C$DW$109, DW_AT_TI_return
    1751              
    1752 00000010 0006          LRETR     ; [CPU_ALU] 
    1753                      ; return occurs ; [] 
    1754                      .dwattr $C$DW$106, DW_AT_TI_end_file("C:/ti/ccs2031/ccs/tools/compiler/ti-cgt-c2000_22.6.2.LTS/includ
    1755                      .dwattr $C$DW$106, DW_AT_TI_end_line(0x177)
    1756                      .dwattr $C$DW$106, DW_AT_TI_end_column(0x48)
    1757                      .dwendentry
    1758                      .dwendtag $C$DW$106
    1759              
    1760 00000000               .sect   ".text:__isinf"
    1761                      .clink
    1762                      .global ||__isinf||
    1763              
    1764              $C$DW$110       .dwtag  DW_TAG_subprogram
    1765                      .dwattr $C$DW$110, DW_AT_name("__isinf")
    1766                      .dwattr $C$DW$110, DW_AT_low_pc(||__isinf||)
    1767                      .dwattr $C$DW$110, DW_AT_high_pc(0x00)
TMS320C2000 Assembler PC v22.6.2 Wed Dec 10 14:45:02 2025

Copyright (c) 1996-2018 Texas Instruments Incorporated
fcl_foc_cpu_dm.asm                                                   PAGE   35

    1768                      .dwattr $C$DW$110, DW_AT_linkage_name("__isinf")
    1769                      .dwattr $C$DW$110, DW_AT_external
    1770                      .dwattr $C$DW$110, DW_AT_type(*$C$DW$T$10)
    1771                      .dwattr $C$DW$110, DW_AT_decl_file("C:/ti/ccs2031/ccs/tools/compiler/ti-cgt-c2000_22.6.2.LTS/include/
    1772                      .dwattr $C$DW$110, DW_AT_decl_line(0x178)
    1773                      .dwattr $C$DW$110, DW_AT_decl_column(0x18)
    1774                      .dwattr $C$DW$110, DW_AT_TI_max_frame_size(-6)
    1775                      .dwpsn  file "C:/ti/ccs2031/ccs/tools/compiler/ti-cgt-c2000_22.6.2.LTS/include/_defs.h",line 377,colu
    1776              
    1777                      .dwfde $C$DW$CIE, ||__isinf||
    1778              $C$DW$111       .dwtag  DW_TAG_formal_parameter
    1779                      .dwattr $C$DW$111, DW_AT_name("d")
    1780                      .dwattr $C$DW$111, DW_AT_type(*$C$DW$T$168)
    1781                      .dwattr $C$DW$111, DW_AT_location[DW_OP_reg12]
    1782              
    1783              
    1784              ;***************************************************************
    1785              ;* FNAME: __isinf                       FR SIZE:   4           *
    1786              ;*                                                             *
    1787              ;* FUNCTION ENVIRONMENT                                        *
    1788              ;*                                                             *
    1789              ;* FUNCTION PROPERTIES                                         *
    1790              ;*                            4 Parameter,  0 Auto,  0 SOE     *
    1791              ;***************************************************************
    1792              
    1793              ||__isinf||:
    1794              ;* AR7   assigned to $O$C2
    1795              ;* AR4   assigned to $O$S1
    1796              ;* AR4   assigned to d
    1797              $C$DW$112       .dwtag  DW_TAG_variable
    1798                      .dwattr $C$DW$112, DW_AT_name("d")
    1799                      .dwattr $C$DW$112, DW_AT_type(*$C$DW$T$169)
    1800                      .dwattr $C$DW$112, DW_AT_location[DW_OP_reg12]
    1801              
    1802                      .dwcfi  cfa_offset, -2
    1803                      .dwcfi  save_reg_to_mem, 26, 0
    1804 00000000 FE04          ADDB      SP,#4                 ; [CPU_ARAU] 
    1805                      .dwcfi  cfa_offset, -6
    1806                      .dwpsn  file "C:/ti/ccs2031/ccs/tools/compiler/ti-cgt-c2000_22.6.2.LTS/include/_defs.h",line 377,colu
    1807 00000001 C5C4          MOVL      XAR7,*+XAR4[0]        ; [CPU_ALU] |377| 
    1808 00000002 06D4          MOVL      ACC,*+XAR4[2]         ; [CPU_ALU] |377| 
    1809 00000003 28AC          MOV       T,#48                 ; [CPU_ALU] |377| 
         00000004 0030 
    1810 00000005 1EA6          MOVL      XAR6,ACC              ; [CPU_ALU] |377| 
    1811 00000006 A3A7          MOVL      P,XAR7                ; [CPU_ALU] |377| 
    1812 00000007 D400          MOVB      XAR4,#0               ; [CPU_ALU] |377| 
    1813 00000008 565B          LSR64     ACC:P,T               ; [CPU_ALU] |377| 
    1814 00000009 2BAA          MOV       PH,#0                 ; [CPU_ALU] |377| 
    1815 0000000a 18AB          AND       PL,#0x7ff0            ; [CPU_ALU] |377| 
         0000000b 7FF0 
    1816 0000000c FF20          MOV       ACC,#32752            ; [CPU_ALU] |377| 
         0000000d 7FF0 
    1817 0000000e 0FAB          CMPL      ACC,P                 ; [CPU_ALU] |377| 
    1818 0000000f 6013          B         ||$C$L11||,NEQ        ; [CPU_ALU] |377| 
    1819                      ; branchcc occurs ; [] |377| 
TMS320C2000 Assembler PC v22.6.2 Wed Dec 10 14:45:02 2025

Copyright (c) 1996-2018 Texas Instruments Incorporated
fcl_foc_cpu_dm.asm                                                   PAGE   36

    1820 00000010 06A6          MOVL      ACC,XAR6              ; [CPU_ALU] |377| 
    1821 00000011 A3A7          MOVL      P,XAR7                ; [CPU_ALU] |377| 
    1822 00000012 BE00          MOVB      XAR6,#0               ; [CPU_ALU] |377| 
    1823 00000013 18A9          AND       AL,#65535             ; [CPU_ALU] |377| 
         00000014 FFFF 
    1824 00000015 910F          ANDB      AH,#15                ; [CPU_ALU] |377| 
    1825 00000016 18AB          AND       PL,#65535             ; [CPU_ALU] |377| 
         00000017 FFFF 
    1826 00000018 18AA          AND       PH,#65535             ; [CPU_ALU] |377| 
         00000019 FFFF 
    1827 0000001a C244          MOVL      *-SP[4],XAR6          ; [CPU_FPU] |377| 
    1828 0000001b 2B42          MOV       *-SP[2],#0            ; [CPU_FPU] |377| 
    1829 0000001c 2B41          MOV       *-SP[1],#0            ; [CPU_FPU] |377| 
    1830              $C$DW$113       .dwtag  DW_TAG_TI_branch
    1831                      .dwattr $C$DW$113, DW_AT_low_pc(0x00)
    1832                      .dwattr $C$DW$113, DW_AT_name("__c28xabi_cmpull")
    1833                      .dwattr $C$DW$113, DW_AT_TI_call
    1834              
    1835 0000001d 7640!         LCR       #||__c28xabi_cmpull|| ; [CPU_ALU] |377| 
         0000001e 0000 
    1836                      ; call occurs [#||__c28xabi_cmpull||] ; [] |377| 
    1837 0000001f 5200          CMPB      AL,#0                 ; [CPU_ALU] |377| 
    1838 00000020 56B1          MOVB      XAR4,#1,EQ            ; [CPU_ALU] |377| 
         00000021 01A4 
    1839 00000022       ||$C$L11||:    
    1840 00000022 FE84          SUBB      SP,#4                 ; [CPU_ARAU] 
    1841                      .dwcfi  cfa_offset, -2
    1842 00000023 92A4          MOV       AL,AR4                ; [CPU_ALU] |377| 
    1843              $C$DW$114       .dwtag  DW_TAG_TI_branch
    1844                      .dwattr $C$DW$114, DW_AT_low_pc(0x00)
    1845                      .dwattr $C$DW$114, DW_AT_TI_return
    1846              
    1847 00000024 0006          LRETR     ; [CPU_ALU] 
    1848                      ; return occurs ; [] 
    1849                      .dwattr $C$DW$110, DW_AT_TI_end_file("C:/ti/ccs2031/ccs/tools/compiler/ti-cgt-c2000_22.6.2.LTS/includ
    1850                      .dwattr $C$DW$110, DW_AT_TI_end_line(0x179)
    1851                      .dwattr $C$DW$110, DW_AT_TI_end_column(0x4a)
    1852                      .dwendentry
    1853                      .dwendtag $C$DW$110
    1854              
    1855 00000000               .sect   ".text:__isfinitel"
    1856                      .clink
    1857                      .global ||__isfinitel||
    1858              
    1859              $C$DW$115       .dwtag  DW_TAG_subprogram
    1860                      .dwattr $C$DW$115, DW_AT_name("__isfinitel")
    1861                      .dwattr $C$DW$115, DW_AT_low_pc(||__isfinitel||)
    1862                      .dwattr $C$DW$115, DW_AT_high_pc(0x00)
    1863                      .dwattr $C$DW$115, DW_AT_linkage_name("__isfinitel")
    1864                      .dwattr $C$DW$115, DW_AT_external
    1865                      .dwattr $C$DW$115, DW_AT_type(*$C$DW$T$10)
    1866                      .dwattr $C$DW$115, DW_AT_decl_file("C:/ti/ccs2031/ccs/tools/compiler/ti-cgt-c2000_22.6.2.LTS/include/
    1867                      .dwattr $C$DW$115, DW_AT_decl_line(0x152)
    1868                      .dwattr $C$DW$115, DW_AT_decl_column(0x18)
    1869                      .dwattr $C$DW$115, DW_AT_TI_max_frame_size(-2)
TMS320C2000 Assembler PC v22.6.2 Wed Dec 10 14:45:02 2025

Copyright (c) 1996-2018 Texas Instruments Incorporated
fcl_foc_cpu_dm.asm                                                   PAGE   37

    1870                      .dwpsn  file "C:/ti/ccs2031/ccs/tools/compiler/ti-cgt-c2000_22.6.2.LTS/include/_defs.h",line 339,colu
    1871              
    1872                      .dwfde $C$DW$CIE, ||__isfinitel||
    1873              $C$DW$116       .dwtag  DW_TAG_formal_parameter
    1874                      .dwattr $C$DW$116, DW_AT_name("e")
    1875                      .dwattr $C$DW$116, DW_AT_type(*$C$DW$T$171)
    1876                      .dwattr $C$DW$116, DW_AT_location[DW_OP_reg12]
    1877              
    1878              
    1879              ;***************************************************************
    1880              ;* FNAME: __isfinitel                   FR SIZE:   0           *
    1881              ;*                                                             *
    1882              ;* FUNCTION ENVIRONMENT                                        *
    1883              ;*                                                             *
    1884              ;* FUNCTION PROPERTIES                                         *
    1885              ;*                            0 Parameter,  0 Auto,  0 SOE     *
    1886              ;***************************************************************
    1887              
    1888              ||__isfinitel||:
    1889              ;* AR4   assigned to e
    1890              $C$DW$117       .dwtag  DW_TAG_variable
    1891                      .dwattr $C$DW$117, DW_AT_name("e")
    1892                      .dwattr $C$DW$117, DW_AT_type(*$C$DW$T$172)
    1893                      .dwattr $C$DW$117, DW_AT_location[DW_OP_reg12]
    1894              
    1895                      .dwcfi  cfa_offset, -2
    1896                      .dwcfi  save_reg_to_mem, 26, 0
    1897                      .dwpsn  file "C:/ti/ccs2031/ccs/tools/compiler/ti-cgt-c2000_22.6.2.LTS/include/_defs.h",line 339,colu
    1898 00000000 A3C4          MOVL      P,*+XAR4[0]           ; [CPU_ALU] |339| 
    1899 00000001 06D4          MOVL      ACC,*+XAR4[2]         ; [CPU_ALU] |339| 
    1900 00000002 28AC          MOV       T,#48                 ; [CPU_ALU] |339| 
         00000003 0030 
    1901 00000004 565B          LSR64     ACC:P,T               ; [CPU_ALU] |339| 
    1902 00000005 18AB          AND       PL,#0x7ff0            ; [CPU_ALU] |339| 
         00000006 7FF0 
    1903 00000007 80AB          MOVZ      AR7,PL                ; [CPU_ALU] |339| 
    1904 00000008 FF20          MOV       ACC,#32752            ; [CPU_ALU] |339| 
         00000009 7FF0 
    1905 0000000a BE00          MOVB      XAR6,#0               ; [CPU_ALU] |339| 
    1906 0000000b 0FA7          CMPL      ACC,XAR7              ; [CPU_ALU] |339| 
    1907 0000000c 56B0          MOVB      XAR6,#1,NEQ           ; [CPU_ALU] |339| 
         0000000d 01A6 
    1908 0000000e 92A6          MOV       AL,AR6                ; [CPU_ALU] |339| 
    1909              $C$DW$118       .dwtag  DW_TAG_TI_branch
    1910                      .dwattr $C$DW$118, DW_AT_low_pc(0x00)
    1911                      .dwattr $C$DW$118, DW_AT_TI_return
    1912              
    1913 0000000f 0006          LRETR     ; [CPU_ALU] 
    1914                      ; return occurs ; [] 
    1915                      .dwattr $C$DW$115, DW_AT_TI_end_file("C:/ti/ccs2031/ccs/tools/compiler/ti-cgt-c2000_22.6.2.LTS/includ
    1916                      .dwattr $C$DW$115, DW_AT_TI_end_line(0x153)
    1917                      .dwattr $C$DW$115, DW_AT_TI_end_column(0x2f)
    1918                      .dwendentry
    1919                      .dwendtag $C$DW$115
    1920              
TMS320C2000 Assembler PC v22.6.2 Wed Dec 10 14:45:02 2025

Copyright (c) 1996-2018 Texas Instruments Incorporated
fcl_foc_cpu_dm.asm                                                   PAGE   38

    1921 00000000               .sect   ".text:__isfinitef"
    1922                      .clink
    1923                      .global ||__isfinitef||
    1924              
    1925              $C$DW$119       .dwtag  DW_TAG_subprogram
    1926                      .dwattr $C$DW$119, DW_AT_name("__isfinitef")
    1927                      .dwattr $C$DW$119, DW_AT_low_pc(||__isfinitef||)
    1928                      .dwattr $C$DW$119, DW_AT_high_pc(0x00)
    1929                      .dwattr $C$DW$119, DW_AT_linkage_name("__isfinitef")
    1930                      .dwattr $C$DW$119, DW_AT_external
    1931                      .dwattr $C$DW$119, DW_AT_type(*$C$DW$T$10)
    1932                      .dwattr $C$DW$119, DW_AT_decl_file("C:/ti/ccs2031/ccs/tools/compiler/ti-cgt-c2000_22.6.2.LTS/include/
    1933                      .dwattr $C$DW$119, DW_AT_decl_line(0x150)
    1934                      .dwattr $C$DW$119, DW_AT_decl_column(0x18)
    1935                      .dwattr $C$DW$119, DW_AT_TI_max_frame_size(-2)
    1936                      .dwpsn  file "C:/ti/ccs2031/ccs/tools/compiler/ti-cgt-c2000_22.6.2.LTS/include/_defs.h",line 337,colu
    1937              
    1938                      .dwfde $C$DW$CIE, ||__isfinitef||
    1939              $C$DW$120       .dwtag  DW_TAG_formal_parameter
    1940                      .dwattr $C$DW$120, DW_AT_name("f")
    1941                      .dwattr $C$DW$120, DW_AT_type(*$C$DW$T$16)
    1942                      .dwattr $C$DW$120, DW_AT_location[DW_OP_regx 0x2b]
    1943              
    1944              
    1945              ;***************************************************************
    1946              ;* FNAME: __isfinitef                   FR SIZE:   0           *
    1947              ;*                                                             *
    1948              ;* FUNCTION ENVIRONMENT                                        *
    1949              ;*                                                             *
    1950              ;* FUNCTION PROPERTIES                                         *
    1951              ;*                            0 Parameter,  0 Auto,  0 SOE     *
    1952              ;***************************************************************
    1953              
    1954              ||__isfinitef||:
    1955              ;* R0    assigned to f
    1956              $C$DW$121       .dwtag  DW_TAG_variable
    1957                      .dwattr $C$DW$121, DW_AT_name("f")
    1958                      .dwattr $C$DW$121, DW_AT_type(*$C$DW$T$167)
    1959                      .dwattr $C$DW$121, DW_AT_location[DW_OP_regx 0x2b]
    1960              
    1961                      .dwcfi  cfa_offset, -2
    1962                      .dwcfi  save_reg_to_mem, 26, 0
    1963                      .dwpsn  file "C:/ti/ccs2031/ccs/tools/compiler/ti-cgt-c2000_22.6.2.LTS/include/_defs.h",line 337,colu
    1964 00000000 BFAB          MOV32     P,R0H                 ; [CPU_FPU] |337| 
         00000001 0F12 
    1965 00000002 18AA          AND       PH,#0x7f80            ; [CPU_ALU] |337| 
         00000003 7F80 
    1966 00000004 80AA          MOVZ      AR7,PH                ; [CPU_ALU] |337| 
    1967 00000005 FF20          MOV       ACC,#32640            ; [CPU_ALU] |337| 
         00000006 7F80 
    1968 00000007 BE00          MOVB      XAR6,#0               ; [CPU_ALU] |337| 
    1969 00000008 0FA7          CMPL      ACC,XAR7              ; [CPU_ALU] |337| 
    1970 00000009 56B0          MOVB      XAR6,#1,NEQ           ; [CPU_ALU] |337| 
         0000000a 01A6 
    1971 0000000b 92A6          MOV       AL,AR6                ; [CPU_ALU] |337| 
TMS320C2000 Assembler PC v22.6.2 Wed Dec 10 14:45:02 2025

Copyright (c) 1996-2018 Texas Instruments Incorporated
fcl_foc_cpu_dm.asm                                                   PAGE   39

    1972              $C$DW$122       .dwtag  DW_TAG_TI_branch
    1973                      .dwattr $C$DW$122, DW_AT_low_pc(0x00)
    1974                      .dwattr $C$DW$122, DW_AT_TI_return
    1975              
    1976 0000000c 0006          LRETR     ; [CPU_ALU] 
    1977                      ; return occurs ; [] 
    1978                      .dwattr $C$DW$119, DW_AT_TI_end_file("C:/ti/ccs2031/ccs/tools/compiler/ti-cgt-c2000_22.6.2.LTS/includ
    1979                      .dwattr $C$DW$119, DW_AT_TI_end_line(0x151)
    1980                      .dwattr $C$DW$119, DW_AT_TI_end_column(0x2d)
    1981                      .dwendentry
    1982                      .dwendtag $C$DW$119
    1983              
    1984 00000000               .sect   ".text:__isfinite"
    1985                      .clink
    1986                      .global ||__isfinite||
    1987              
    1988              $C$DW$123       .dwtag  DW_TAG_subprogram
    1989                      .dwattr $C$DW$123, DW_AT_name("__isfinite")
    1990                      .dwattr $C$DW$123, DW_AT_low_pc(||__isfinite||)
    1991                      .dwattr $C$DW$123, DW_AT_high_pc(0x00)
    1992                      .dwattr $C$DW$123, DW_AT_linkage_name("__isfinite")
    1993                      .dwattr $C$DW$123, DW_AT_external
    1994                      .dwattr $C$DW$123, DW_AT_type(*$C$DW$T$10)
    1995                      .dwattr $C$DW$123, DW_AT_decl_file("C:/ti/ccs2031/ccs/tools/compiler/ti-cgt-c2000_22.6.2.LTS/include/
    1996                      .dwattr $C$DW$123, DW_AT_decl_line(0x14e)
    1997                      .dwattr $C$DW$123, DW_AT_decl_column(0x18)
    1998                      .dwattr $C$DW$123, DW_AT_TI_max_frame_size(-2)
    1999                      .dwpsn  file "C:/ti/ccs2031/ccs/tools/compiler/ti-cgt-c2000_22.6.2.LTS/include/_defs.h",line 335,colu
    2000              
    2001                      .dwfde $C$DW$CIE, ||__isfinite||
    2002              $C$DW$124       .dwtag  DW_TAG_formal_parameter
    2003                      .dwattr $C$DW$124, DW_AT_name("d")
    2004                      .dwattr $C$DW$124, DW_AT_type(*$C$DW$T$168)
    2005                      .dwattr $C$DW$124, DW_AT_location[DW_OP_reg12]
    2006              
    2007              
    2008              ;***************************************************************
    2009              ;* FNAME: __isfinite                    FR SIZE:   0           *
    2010              ;*                                                             *
    2011              ;* FUNCTION ENVIRONMENT                                        *
    2012              ;*                                                             *
    2013              ;* FUNCTION PROPERTIES                                         *
    2014              ;*                            0 Parameter,  0 Auto,  0 SOE     *
    2015              ;***************************************************************
    2016              
    2017              ||__isfinite||:
    2018              ;* AR4   assigned to d
    2019              $C$DW$125       .dwtag  DW_TAG_variable
    2020                      .dwattr $C$DW$125, DW_AT_name("d")
    2021                      .dwattr $C$DW$125, DW_AT_type(*$C$DW$T$169)
    2022                      .dwattr $C$DW$125, DW_AT_location[DW_OP_reg12]
    2023              
    2024                      .dwcfi  cfa_offset, -2
    2025                      .dwcfi  save_reg_to_mem, 26, 0
    2026                      .dwpsn  file "C:/ti/ccs2031/ccs/tools/compiler/ti-cgt-c2000_22.6.2.LTS/include/_defs.h",line 335,colu
TMS320C2000 Assembler PC v22.6.2 Wed Dec 10 14:45:02 2025

Copyright (c) 1996-2018 Texas Instruments Incorporated
fcl_foc_cpu_dm.asm                                                   PAGE   40

    2027 00000000 A3C4          MOVL      P,*+XAR4[0]           ; [CPU_ALU] |335| 
    2028 00000001 06D4          MOVL      ACC,*+XAR4[2]         ; [CPU_ALU] |335| 
    2029 00000002 28AC          MOV       T,#48                 ; [CPU_ALU] |335| 
         00000003 0030 
    2030 00000004 565B          LSR64     ACC:P,T               ; [CPU_ALU] |335| 
    2031 00000005 18AB          AND       PL,#0x7ff0            ; [CPU_ALU] |335| 
         00000006 7FF0 
    2032 00000007 80AB          MOVZ      AR7,PL                ; [CPU_ALU] |335| 
    2033 00000008 FF20          MOV       ACC,#32752            ; [CPU_ALU] |335| 
         00000009 7FF0 
    2034 0000000a BE00          MOVB      XAR6,#0               ; [CPU_ALU] |335| 
    2035 0000000b 0FA7          CMPL      ACC,XAR7              ; [CPU_ALU] |335| 
    2036 0000000c 56B0          MOVB      XAR6,#1,NEQ           ; [CPU_ALU] |335| 
         0000000d 01A6 
    2037 0000000e 92A6          MOV       AL,AR6                ; [CPU_ALU] |335| 
    2038              $C$DW$126       .dwtag  DW_TAG_TI_branch
    2039                      .dwattr $C$DW$126, DW_AT_low_pc(0x00)
    2040                      .dwattr $C$DW$126, DW_AT_TI_return
    2041              
    2042 0000000f 0006          LRETR     ; [CPU_ALU] 
    2043                      ; return occurs ; [] 
    2044                      .dwattr $C$DW$123, DW_AT_TI_end_file("C:/ti/ccs2031/ccs/tools/compiler/ti-cgt-c2000_22.6.2.LTS/includ
    2045                      .dwattr $C$DW$123, DW_AT_TI_end_line(0x14f)
    2046                      .dwattr $C$DW$123, DW_AT_TI_end_column(0x2e)
    2047                      .dwendentry
    2048                      .dwendtag $C$DW$123
    2049              
    2050 00000000               .sect   ".text:__fpclassifyl"
    2051                      .clink
    2052                      .global ||__fpclassifyl||
    2053              
    2054              $C$DW$127       .dwtag  DW_TAG_subprogram
    2055                      .dwattr $C$DW$127, DW_AT_name("__fpclassifyl")
    2056                      .dwattr $C$DW$127, DW_AT_low_pc(||__fpclassifyl||)
    2057                      .dwattr $C$DW$127, DW_AT_high_pc(0x00)
    2058                      .dwattr $C$DW$127, DW_AT_linkage_name("__fpclassifyl")
    2059                      .dwattr $C$DW$127, DW_AT_external
    2060                      .dwattr $C$DW$127, DW_AT_type(*$C$DW$T$10)
    2061                      .dwattr $C$DW$127, DW_AT_decl_file("C:/ti/ccs2031/ccs/tools/compiler/ti-cgt-c2000_22.6.2.LTS/include/
    2062                      .dwattr $C$DW$127, DW_AT_decl_line(0x1ae)
    2063                      .dwattr $C$DW$127, DW_AT_decl_column(0x18)
    2064                      .dwattr $C$DW$127, DW_AT_TI_max_frame_size(-10)
    2065                      .dwpsn  file "C:/ti/ccs2031/ccs/tools/compiler/ti-cgt-c2000_22.6.2.LTS/include/_defs.h",line 431,colu
    2066              
    2067                      .dwfde $C$DW$CIE, ||__fpclassifyl||
    2068              $C$DW$128       .dwtag  DW_TAG_formal_parameter
    2069                      .dwattr $C$DW$128, DW_AT_name("e")
    2070                      .dwattr $C$DW$128, DW_AT_type(*$C$DW$T$171)
    2071                      .dwattr $C$DW$128, DW_AT_location[DW_OP_reg12]
    2072              
    2073              
    2074              ;***************************************************************
    2075              ;* FNAME: __fpclassifyl                 FR SIZE:   8           *
    2076              ;*                                                             *
    2077              ;* FUNCTION ENVIRONMENT                                        *
TMS320C2000 Assembler PC v22.6.2 Wed Dec 10 14:45:02 2025

Copyright (c) 1996-2018 Texas Instruments Incorporated
fcl_foc_cpu_dm.asm                                                   PAGE   41

    2078              ;*                                                             *
    2079              ;* FUNCTION PROPERTIES                                         *
    2080              ;*                            4 Parameter,  4 Auto,  0 SOE     *
    2081              ;***************************************************************
    2082              
    2083              ||__fpclassifyl||:
    2084              $C$DW$129       .dwtag  DW_TAG_variable
    2085                      .dwattr $C$DW$129, DW_AT_name("e")
    2086                      .dwattr $C$DW$129, DW_AT_type(*$C$DW$T$18)
    2087                      .dwattr $C$DW$129, DW_AT_location[DW_OP_breg20 -8]
    2088              
    2089              ;* AR5   assigned to $O$C1
    2090              ;* AR4   assigned to e
    2091              $C$DW$130       .dwtag  DW_TAG_variable
    2092                      .dwattr $C$DW$130, DW_AT_name("e")
    2093                      .dwattr $C$DW$130, DW_AT_type(*$C$DW$T$172)
    2094                      .dwattr $C$DW$130, DW_AT_location[DW_OP_reg12]
    2095              
    2096                      .dwcfi  cfa_offset, -2
    2097                      .dwcfi  save_reg_to_mem, 26, 0
    2098 00000000 FE08          ADDB      SP,#8                 ; [CPU_ARAU] 
    2099                      .dwcfi  cfa_offset, -10
    2100 00000001 C4D4          MOVL      XAR6,*+XAR4[2]        ; [CPU_ALU] |431| 
    2101 00000002 06C4          MOVL      ACC,*+XAR4[0]         ; [CPU_ALU] |431| 
    2102 00000003 1E48          MOVL      *-SP[8],ACC           ; [CPU_ALU] |431| 
    2103 00000004 C246          MOVL      *-SP[6],XAR6          ; [CPU_ALU] |431| 
    2104                      .dwpsn  file "C:/ti/ccs2031/ccs/tools/compiler/ti-cgt-c2000_22.6.2.LTS/include/_defs.h",line 432,colu
    2105 00000005 8348          MOVL      XAR5,*-SP[8]          ; [CPU_ALU] |432| 
    2106 00000006 8A46          MOVL      XAR4,*-SP[6]          ; [CPU_ALU] |432| 
    2107                      .dwpsn  file "C:/ti/ccs2031/ccs/tools/compiler/ti-cgt-c2000_22.6.2.LTS/include/_defs.h",line 436,colu
    2108 00000007 28AC          MOV       T,#48                 ; [CPU_ALU] |436| 
         00000008 0030 
    2109 00000009 A0AB          MOVL      P,XAR5                ; [CPU_ALU] |436| 
    2110 0000000a A8A9          MOVL      ACC,XAR4              ; [CPU_ALU] |436| 
    2111 0000000b 565B          LSR64     ACC:P,T               ; [CPU_ALU] |436| 
    2112 0000000c 18AB          AND       PL,#0x7ff0            ; [CPU_ALU] |436| 
         0000000d 7FF0 
    2113 0000000e 88AB          MOVZ      AR6,PL                ; [CPU_ALU] |436| 
    2114 0000000f FF20          MOV       ACC,#32752            ; [CPU_ALU] |436| 
         00000010 7FF0 
    2115 00000011 0FA6          CMPL      ACC,XAR6              ; [CPU_ALU] |436| 
    2116 00000012 6016          B         ||$C$L13||,NEQ        ; [CPU_ALU] |436| 
    2117                      ; branchcc occurs ; [] |436| 
    2118 00000013 0200          MOVB      ACC,#0                ; [CPU_ALU] |436| 
    2119 00000014 1E44          MOVL      *-SP[4],ACC           ; [CPU_ALU] |436| 
    2120 00000015 2B42          MOV       *-SP[2],#0            ; [CPU_ALU] |436| 
    2121 00000016 2B41          MOV       *-SP[1],#0            ; [CPU_ALU] |436| 
    2122 00000017 A348          MOVL      P,*-SP[8]             ; [CPU_ALU] |436| 
    2123 00000018 0646          MOVL      ACC,*-SP[6]           ; [CPU_ALU] |436| 
    2124 00000019 18AB          AND       PL,#65535             ; [CPU_ALU] |436| 
         0000001a FFFF 
    2125 0000001b 18AA          AND       PH,#65535             ; [CPU_ALU] |436| 
         0000001c FFFF 
    2126 0000001d 18A9          AND       AL,#65535             ; [CPU_ALU] |436| 
         0000001e FFFF 
TMS320C2000 Assembler PC v22.6.2 Wed Dec 10 14:45:02 2025

Copyright (c) 1996-2018 Texas Instruments Incorporated
fcl_foc_cpu_dm.asm                                                   PAGE   42

    2127 0000001f 910F          ANDB      AH,#15                ; [CPU_ALU] |436| 
    2128              $C$DW$131       .dwtag  DW_TAG_TI_branch
    2129                      .dwattr $C$DW$131, DW_AT_low_pc(0x00)
    2130                      .dwattr $C$DW$131, DW_AT_name("__c28xabi_cmpull")
    2131                      .dwattr $C$DW$131, DW_AT_TI_call
    2132              
    2133 00000020 7640!         LCR       #||__c28xabi_cmpull|| ; [CPU_ALU] |436| 
         00000021 0000 
    2134                      ; call occurs [#||__c28xabi_cmpull||] ; [] |436| 
    2135 00000022 5200          CMPB      AL,#0                 ; [CPU_ALU] |436| 
    2136 00000023 6103          B         ||$C$L12||,EQ         ; [CPU_ALU] |436| 
    2137                      ; branchcc occurs ; [] |436| 
    2138 00000024 9A02          MOVB      AL,#2                 ; [CPU_ALU] |436| 
    2139 00000025 6F2D          B         ||$C$L16||,UNC        ; [CPU_ALU] |436| 
    2140                      ; branch occurs ; [] |436| 
    2141 00000026       ||$C$L12||:    
    2142 00000026 9A01          MOVB      AL,#1                 ; [CPU_ALU] |436| 
    2143 00000027 6F2B          B         ||$C$L16||,UNC        ; [CPU_ALU] |436| 
    2144                      ; branch occurs ; [] |436| 
    2145 00000028       ||$C$L13||:    
    2146 00000028 BE00          MOVB      XAR6,#0               ; [CPU_ALU] |436| 
    2147 00000029 A0AB          MOVL      P,XAR5                ; [CPU_ALU] |436| 
    2148 0000002a A8A9          MOVL      ACC,XAR4              ; [CPU_ALU] |436| 
    2149 0000002b 28AC          MOV       T,#52                 ; [CPU_ALU] |436| 
         0000002c 0034 
    2150 0000002d C244          MOVL      *-SP[4],XAR6          ; [CPU_ALU] |436| 
    2151 0000002e 2B42          MOV       *-SP[2],#0            ; [CPU_ALU] |436| 
    2152 0000002f 565B          LSR64     ACC:P,T               ; [CPU_ALU] |436| 
    2153 00000030 2B41          MOV       *-SP[1],#0            ; [CPU_FPU] |436| 
    2154 00000031 9000          ANDB      AL,#0                 ; [CPU_ALU] |436| 
    2155 00000032 9100          ANDB      AH,#0                 ; [CPU_ALU] |436| 
    2156 00000033 18AB          AND       PL,#2047              ; [CPU_ALU] |436| 
         00000034 07FF 
    2157 00000035 18AA          AND       PH,#0                 ; [CPU_ALU] |436| 
         00000036 0000 
    2158              $C$DW$132       .dwtag  DW_TAG_TI_branch
    2159                      .dwattr $C$DW$132, DW_AT_low_pc(0x00)
    2160                      .dwattr $C$DW$132, DW_AT_name("__c28xabi_cmpull")
    2161                      .dwattr $C$DW$132, DW_AT_TI_call
    2162              
    2163 00000037 7640!         LCR       #||__c28xabi_cmpull|| ; [CPU_ALU] |436| 
         00000038 0000 
    2164                      ; call occurs [#||__c28xabi_cmpull||] ; [] |436| 
    2165 00000039 5200          CMPB      AL,#0                 ; [CPU_ALU] |436| 
    2166 0000003a 6104          B         ||$C$L14||,EQ         ; [CPU_ALU] |436| 
    2167                      ; branchcc occurs ; [] |436| 
    2168 0000003b 28A9          MOV       AL,#-1                ; [CPU_ALU] |436| 
         0000003c FFFF 
    2169 0000003d 6F15          B         ||$C$L16||,UNC        ; [CPU_ALU] |436| 
    2170                      ; branch occurs ; [] |436| 
    2171 0000003e       ||$C$L14||:    
    2172 0000003e C244          MOVL      *-SP[4],XAR6          ; [CPU_ALU] |436| 
    2173 0000003f A8A9          MOVL      ACC,XAR4              ; [CPU_ALU] |436| 
    2174 00000040 A0AB          MOVL      P,XAR5                ; [CPU_ALU] |436| 
    2175 00000041 2B42          MOV       *-SP[2],#0            ; [CPU_ALU] |436| 
TMS320C2000 Assembler PC v22.6.2 Wed Dec 10 14:45:02 2025

Copyright (c) 1996-2018 Texas Instruments Incorporated
fcl_foc_cpu_dm.asm                                                   PAGE   43

    2176 00000042 18A9          AND       AL,#65535             ; [CPU_ALU] |436| 
         00000043 FFFF 
    2177 00000044 910F          ANDB      AH,#15                ; [CPU_ALU] |436| 
    2178 00000045 18AB          AND       PL,#65535             ; [CPU_ALU] |436| 
         00000046 FFFF 
    2179 00000047 18AA          AND       PH,#65535             ; [CPU_ALU] |436| 
         00000048 FFFF 
    2180 00000049 2B41          MOV       *-SP[1],#0            ; [CPU_FPU] |436| 
    2181              $C$DW$133       .dwtag  DW_TAG_TI_branch
    2182                      .dwattr $C$DW$133, DW_AT_low_pc(0x00)
    2183                      .dwattr $C$DW$133, DW_AT_name("__c28xabi_cmpull")
    2184                      .dwattr $C$DW$133, DW_AT_TI_call
    2185              
    2186 0000004a 7640!         LCR       #||__c28xabi_cmpull|| ; [CPU_ALU] |436| 
         0000004b 0000 
    2187                      ; call occurs [#||__c28xabi_cmpull||] ; [] |436| 
    2188 0000004c 5200          CMPB      AL,#0                 ; [CPU_ALU] |436| 
    2189 0000004d 6104          B         ||$C$L15||,EQ         ; [CPU_ALU] |436| 
    2190                      ; branchcc occurs ; [] |436| 
    2191 0000004e 28A9          MOV       AL,#-2                ; [CPU_ALU] |436| 
         0000004f FFFE 
    2192 00000050 6F02          B         ||$C$L16||,UNC        ; [CPU_ALU] |436| 
    2193                      ; branch occurs ; [] |436| 
    2194 00000051       ||$C$L15||:    
    2195 00000051 9A00          MOVB      AL,#0                 ; [CPU_ALU] |436| 
    2196 00000052       ||$C$L16||:    
    2197 00000052 FE88          SUBB      SP,#8                 ; [CPU_ARAU] 
    2198                      .dwcfi  cfa_offset, -2
    2199              $C$DW$134       .dwtag  DW_TAG_TI_branch
    2200                      .dwattr $C$DW$134, DW_AT_low_pc(0x00)
    2201                      .dwattr $C$DW$134, DW_AT_TI_return
    2202              
    2203 00000053 0006          LRETR     ; [CPU_ALU] 
    2204                      ; return occurs ; [] 
    2205                      .dwattr $C$DW$127, DW_AT_TI_end_file("C:/ti/ccs2031/ccs/tools/compiler/ti-cgt-c2000_22.6.2.LTS/includ
    2206                      .dwattr $C$DW$127, DW_AT_TI_end_line(0x1bd)
    2207                      .dwattr $C$DW$127, DW_AT_TI_end_column(0x01)
    2208                      .dwendentry
    2209                      .dwendtag $C$DW$127
    2210              
    2211 00000000               .sect   ".text:__fpclassifyf"
    2212                      .clink
    2213                      .global ||__fpclassifyf||
    2214              
    2215              $C$DW$135       .dwtag  DW_TAG_subprogram
    2216                      .dwattr $C$DW$135, DW_AT_name("__fpclassifyf")
    2217                      .dwattr $C$DW$135, DW_AT_low_pc(||__fpclassifyf||)
    2218                      .dwattr $C$DW$135, DW_AT_high_pc(0x00)
    2219                      .dwattr $C$DW$135, DW_AT_linkage_name("__fpclassifyf")
    2220                      .dwattr $C$DW$135, DW_AT_external
    2221                      .dwattr $C$DW$135, DW_AT_type(*$C$DW$T$10)
    2222                      .dwattr $C$DW$135, DW_AT_decl_file("C:/ti/ccs2031/ccs/tools/compiler/ti-cgt-c2000_22.6.2.LTS/include/
    2223                      .dwattr $C$DW$135, DW_AT_decl_line(0x18c)
    2224                      .dwattr $C$DW$135, DW_AT_decl_column(0x18)
    2225                      .dwattr $C$DW$135, DW_AT_TI_max_frame_size(-2)
TMS320C2000 Assembler PC v22.6.2 Wed Dec 10 14:45:02 2025

Copyright (c) 1996-2018 Texas Instruments Incorporated
fcl_foc_cpu_dm.asm                                                   PAGE   44

    2226                      .dwpsn  file "C:/ti/ccs2031/ccs/tools/compiler/ti-cgt-c2000_22.6.2.LTS/include/_defs.h",line 397,colu
    2227              
    2228                      .dwfde $C$DW$CIE, ||__fpclassifyf||
    2229              $C$DW$136       .dwtag  DW_TAG_formal_parameter
    2230                      .dwattr $C$DW$136, DW_AT_name("f")
    2231                      .dwattr $C$DW$136, DW_AT_type(*$C$DW$T$16)
    2232                      .dwattr $C$DW$136, DW_AT_location[DW_OP_regx 0x2b]
    2233              
    2234              
    2235              ;***************************************************************
    2236              ;* FNAME: __fpclassifyf                 FR SIZE:   0           *
    2237              ;*                                                             *
    2238              ;* FUNCTION ENVIRONMENT                                        *
    2239              ;*                                                             *
    2240              ;* FUNCTION PROPERTIES                                         *
    2241              ;*                            0 Parameter,  0 Auto,  0 SOE     *
    2242              ;***************************************************************
    2243              
    2244              ||__fpclassifyf||:
    2245              ;* PL    assigned to $O$K1
    2246              ;* R0    assigned to f
    2247              $C$DW$137       .dwtag  DW_TAG_variable
    2248                      .dwattr $C$DW$137, DW_AT_name("f")
    2249                      .dwattr $C$DW$137, DW_AT_type(*$C$DW$T$167)
    2250                      .dwattr $C$DW$137, DW_AT_location[DW_OP_regx 0x2b]
    2251              
    2252                      .dwcfi  cfa_offset, -2
    2253                      .dwcfi  save_reg_to_mem, 26, 0
    2254                      .dwpsn  file "C:/ti/ccs2031/ccs/tools/compiler/ti-cgt-c2000_22.6.2.LTS/include/_defs.h",line 398,colu
    2255 00000000 BFAB          MOV32     P,R0H                 ; [CPU_FPU] |398| 
         00000001 0F12 
    2256                      .dwpsn  file "C:/ti/ccs2031/ccs/tools/compiler/ti-cgt-c2000_22.6.2.LTS/include/_defs.h",line 402,colu
    2257 00000002 CCAA          AND       AL,PH,#0x7f80         ; [CPU_ALU] |402| 
         00000003 7F80 
    2258 00000004 88A9          MOVZ      AR6,AL                ; [CPU_ALU] |402| 
    2259 00000005 FF20          MOV       ACC,#32640            ; [CPU_ALU] |402| 
         00000006 7F80 
    2260 00000007 0FA6          CMPL      ACC,XAR6              ; [CPU_ALU] |402| 
    2261 00000008 6009          B         ||$C$L18||,NEQ        ; [CPU_ALU] |402| 
    2262                      ; branchcc occurs ; [] |402| 
    2263 00000009 A9A9          MOVL      ACC,P                 ; [CPU_ALU] |402| 
    2264 0000000a 917F          ANDB      AH,#127               ; [CPU_ALU] |402| 
    2265 0000000b FF58          TEST      ACC                   ; [CPU_ALU] |402| 
    2266 0000000c 6103          B         ||$C$L17||,EQ         ; [CPU_ALU] |402| 
    2267                      ; branchcc occurs ; [] |402| 
    2268                      .dwcfi  remember_state
    2269 0000000d 9A02          MOVB      AL,#2                 ; [CPU_ALU] |402| 
    2270              $C$DW$138       .dwtag  DW_TAG_TI_branch
    2271                      .dwattr $C$DW$138, DW_AT_low_pc(0x00)
    2272                      .dwattr $C$DW$138, DW_AT_TI_return
    2273              
    2274 0000000e 0006          LRETR     ; [CPU_ALU] 
    2275                      ; return occurs ; [] 
    2276                      .dwcfi  restore_state
    2277 0000000f       ||$C$L17||:    
TMS320C2000 Assembler PC v22.6.2 Wed Dec 10 14:45:02 2025

Copyright (c) 1996-2018 Texas Instruments Incorporated
fcl_foc_cpu_dm.asm                                                   PAGE   45

    2278                      .dwcfi  remember_state
    2279 0000000f 9A01          MOVB      AL,#1                 ; [CPU_ALU] |402| 
    2280              $C$DW$139       .dwtag  DW_TAG_TI_branch
    2281                      .dwattr $C$DW$139, DW_AT_low_pc(0x00)
    2282                      .dwattr $C$DW$139, DW_AT_TI_return
    2283              
    2284 00000010 0006          LRETR     ; [CPU_ALU] 
    2285                      ; return occurs ; [] 
    2286                      .dwcfi  restore_state
    2287 00000011       ||$C$L18||:    
    2288 00000011 A9A9          MOVL      ACC,P                 ; [CPU_ALU] |402| 
    2289 00000012 28AC          MOV       T,#23                 ; [CPU_ALU] |402| 
         00000013 0017 
    2290 00000014 5622          LSRL      ACC,T                 ; [CPU_ALU] |402| 
    2291 00000015 90FF          ANDB      AL,#0xff              ; [CPU_ALU] |402| 
    2292 00000016 6104          B         ||$C$L19||,EQ         ; [CPU_ALU] |402| 
    2293                      ; branchcc occurs ; [] |402| 
    2294                      .dwcfi  remember_state
    2295 00000017 28A9          MOV       AL,#-1                ; [CPU_ALU] |402| 
         00000018 FFFF 
    2296              $C$DW$140       .dwtag  DW_TAG_TI_branch
    2297                      .dwattr $C$DW$140, DW_AT_low_pc(0x00)
    2298                      .dwattr $C$DW$140, DW_AT_TI_return
    2299              
    2300 00000019 0006          LRETR     ; [CPU_ALU] 
    2301                      ; return occurs ; [] 
    2302                      .dwcfi  restore_state
    2303 0000001a       ||$C$L19||:    
    2304 0000001a A9A9          MOVL      ACC,P                 ; [CPU_ALU] |402| 
    2305 0000001b 917F          ANDB      AH,#127               ; [CPU_ALU] |402| 
    2306 0000001c FF58          TEST      ACC                   ; [CPU_ALU] |402| 
    2307 0000001d 6104          B         ||$C$L20||,EQ         ; [CPU_ALU] |402| 
    2308                      ; branchcc occurs ; [] |402| 
    2309                      .dwcfi  remember_state
    2310 0000001e 28A9          MOV       AL,#-2                ; [CPU_ALU] |402| 
         0000001f FFFE 
    2311              $C$DW$141       .dwtag  DW_TAG_TI_branch
    2312                      .dwattr $C$DW$141, DW_AT_low_pc(0x00)
    2313                      .dwattr $C$DW$141, DW_AT_TI_return
    2314              
    2315 00000020 0006          LRETR     ; [CPU_ALU] 
    2316                      ; return occurs ; [] 
    2317                      .dwcfi  restore_state
    2318 00000021       ||$C$L20||:    
    2319 00000021 9A00          MOVB      AL,#0                 ; [CPU_ALU] |402| 
    2320              $C$DW$142       .dwtag  DW_TAG_TI_branch
    2321                      .dwattr $C$DW$142, DW_AT_low_pc(0x00)
    2322                      .dwattr $C$DW$142, DW_AT_TI_return
    2323              
    2324 00000022 0006          LRETR     ; [CPU_ALU] 
    2325                      ; return occurs ; [] 
    2326                      .dwattr $C$DW$135, DW_AT_TI_end_file("C:/ti/ccs2031/ccs/tools/compiler/ti-cgt-c2000_22.6.2.LTS/includ
    2327                      .dwattr $C$DW$135, DW_AT_TI_end_line(0x19b)
    2328                      .dwattr $C$DW$135, DW_AT_TI_end_column(0x01)
    2329                      .dwendentry
TMS320C2000 Assembler PC v22.6.2 Wed Dec 10 14:45:02 2025

Copyright (c) 1996-2018 Texas Instruments Incorporated
fcl_foc_cpu_dm.asm                                                   PAGE   46

    2330                      .dwendtag $C$DW$135
    2331              
    2332 00000000               .sect   ".text:__fpclassify"
    2333                      .clink
    2334                      .global ||__fpclassify||
    2335              
    2336              $C$DW$143       .dwtag  DW_TAG_subprogram
    2337                      .dwattr $C$DW$143, DW_AT_name("__fpclassify")
    2338                      .dwattr $C$DW$143, DW_AT_low_pc(||__fpclassify||)
    2339                      .dwattr $C$DW$143, DW_AT_high_pc(0x00)
    2340                      .dwattr $C$DW$143, DW_AT_linkage_name("__fpclassify")
    2341                      .dwattr $C$DW$143, DW_AT_external
    2342                      .dwattr $C$DW$143, DW_AT_type(*$C$DW$T$10)
    2343                      .dwattr $C$DW$143, DW_AT_decl_file("C:/ti/ccs2031/ccs/tools/compiler/ti-cgt-c2000_22.6.2.LTS/include/
    2344                      .dwattr $C$DW$143, DW_AT_decl_line(0x19d)
    2345                      .dwattr $C$DW$143, DW_AT_decl_column(0x18)
    2346                      .dwattr $C$DW$143, DW_AT_TI_max_frame_size(-10)
    2347                      .dwpsn  file "C:/ti/ccs2031/ccs/tools/compiler/ti-cgt-c2000_22.6.2.LTS/include/_defs.h",line 414,colu
    2348              
    2349                      .dwfde $C$DW$CIE, ||__fpclassify||
    2350              $C$DW$144       .dwtag  DW_TAG_formal_parameter
    2351                      .dwattr $C$DW$144, DW_AT_name("d")
    2352                      .dwattr $C$DW$144, DW_AT_type(*$C$DW$T$168)
    2353                      .dwattr $C$DW$144, DW_AT_location[DW_OP_reg12]
    2354              
    2355              
    2356              ;***************************************************************
    2357              ;* FNAME: __fpclassify                  FR SIZE:   8           *
    2358              ;*                                                             *
    2359              ;* FUNCTION ENVIRONMENT                                        *
    2360              ;*                                                             *
    2361              ;* FUNCTION PROPERTIES                                         *
    2362              ;*                            4 Parameter,  4 Auto,  0 SOE     *
    2363              ;***************************************************************
    2364              
    2365              ||__fpclassify||:
    2366              $C$DW$145       .dwtag  DW_TAG_variable
    2367                      .dwattr $C$DW$145, DW_AT_name("d")
    2368                      .dwattr $C$DW$145, DW_AT_type(*$C$DW$T$17)
    2369                      .dwattr $C$DW$145, DW_AT_location[DW_OP_breg20 -8]
    2370              
    2371              ;* AR5   assigned to $O$C1
    2372              ;* AR4   assigned to d
    2373              $C$DW$146       .dwtag  DW_TAG_variable
    2374                      .dwattr $C$DW$146, DW_AT_name("d")
    2375                      .dwattr $C$DW$146, DW_AT_type(*$C$DW$T$169)
    2376                      .dwattr $C$DW$146, DW_AT_location[DW_OP_reg12]
    2377              
    2378                      .dwcfi  cfa_offset, -2
    2379                      .dwcfi  save_reg_to_mem, 26, 0
    2380 00000000 FE08          ADDB      SP,#8                 ; [CPU_ARAU] 
    2381                      .dwcfi  cfa_offset, -10
    2382 00000001 C4D4          MOVL      XAR6,*+XAR4[2]        ; [CPU_ALU] |414| 
    2383 00000002 06C4          MOVL      ACC,*+XAR4[0]         ; [CPU_ALU] |414| 
    2384 00000003 1E48          MOVL      *-SP[8],ACC           ; [CPU_ALU] |414| 
TMS320C2000 Assembler PC v22.6.2 Wed Dec 10 14:45:02 2025

Copyright (c) 1996-2018 Texas Instruments Incorporated
fcl_foc_cpu_dm.asm                                                   PAGE   47

    2385 00000004 C246          MOVL      *-SP[6],XAR6          ; [CPU_ALU] |414| 
    2386                      .dwpsn  file "C:/ti/ccs2031/ccs/tools/compiler/ti-cgt-c2000_22.6.2.LTS/include/_defs.h",line 415,colu
    2387 00000005 8348          MOVL      XAR5,*-SP[8]          ; [CPU_ALU] |415| 
    2388 00000006 8A46          MOVL      XAR4,*-SP[6]          ; [CPU_ALU] |415| 
    2389                      .dwpsn  file "C:/ti/ccs2031/ccs/tools/compiler/ti-cgt-c2000_22.6.2.LTS/include/_defs.h",line 419,colu
    2390 00000007 28AC          MOV       T,#48                 ; [CPU_ALU] |419| 
         00000008 0030 
    2391 00000009 A0AB          MOVL      P,XAR5                ; [CPU_ALU] |419| 
    2392 0000000a A8A9          MOVL      ACC,XAR4              ; [CPU_ALU] |419| 
    2393 0000000b 565B          LSR64     ACC:P,T               ; [CPU_ALU] |419| 
    2394 0000000c 18AB          AND       PL,#0x7ff0            ; [CPU_ALU] |419| 
         0000000d 7FF0 
    2395 0000000e 88AB          MOVZ      AR6,PL                ; [CPU_ALU] |419| 
    2396 0000000f FF20          MOV       ACC,#32752            ; [CPU_ALU] |419| 
         00000010 7FF0 
    2397 00000011 0FA6          CMPL      ACC,XAR6              ; [CPU_ALU] |419| 
    2398 00000012 6016          B         ||$C$L22||,NEQ        ; [CPU_ALU] |419| 
    2399                      ; branchcc occurs ; [] |419| 
    2400 00000013 0200          MOVB      ACC,#0                ; [CPU_ALU] |419| 
    2401 00000014 1E44          MOVL      *-SP[4],ACC           ; [CPU_ALU] |419| 
    2402 00000015 2B42          MOV       *-SP[2],#0            ; [CPU_ALU] |419| 
    2403 00000016 2B41          MOV       *-SP[1],#0            ; [CPU_ALU] |419| 
    2404 00000017 A348          MOVL      P,*-SP[8]             ; [CPU_ALU] |419| 
    2405 00000018 0646          MOVL      ACC,*-SP[6]           ; [CPU_ALU] |419| 
    2406 00000019 18AB          AND       PL,#65535             ; [CPU_ALU] |419| 
         0000001a FFFF 
    2407 0000001b 18AA          AND       PH,#65535             ; [CPU_ALU] |419| 
         0000001c FFFF 
    2408 0000001d 18A9          AND       AL,#65535             ; [CPU_ALU] |419| 
         0000001e FFFF 
    2409 0000001f 910F          ANDB      AH,#15                ; [CPU_ALU] |419| 
    2410              $C$DW$147       .dwtag  DW_TAG_TI_branch
    2411                      .dwattr $C$DW$147, DW_AT_low_pc(0x00)
    2412                      .dwattr $C$DW$147, DW_AT_name("__c28xabi_cmpull")
    2413                      .dwattr $C$DW$147, DW_AT_TI_call
    2414              
    2415 00000020 7640!         LCR       #||__c28xabi_cmpull|| ; [CPU_ALU] |419| 
         00000021 0000 
    2416                      ; call occurs [#||__c28xabi_cmpull||] ; [] |419| 
    2417 00000022 5200          CMPB      AL,#0                 ; [CPU_ALU] |419| 
    2418 00000023 6103          B         ||$C$L21||,EQ         ; [CPU_ALU] |419| 
    2419                      ; branchcc occurs ; [] |419| 
    2420 00000024 9A02          MOVB      AL,#2                 ; [CPU_ALU] |419| 
    2421 00000025 6F2D          B         ||$C$L25||,UNC        ; [CPU_ALU] |419| 
    2422                      ; branch occurs ; [] |419| 
    2423 00000026       ||$C$L21||:    
    2424 00000026 9A01          MOVB      AL,#1                 ; [CPU_ALU] |419| 
    2425 00000027 6F2B          B         ||$C$L25||,UNC        ; [CPU_ALU] |419| 
    2426                      ; branch occurs ; [] |419| 
    2427 00000028       ||$C$L22||:    
    2428 00000028 BE00          MOVB      XAR6,#0               ; [CPU_ALU] |419| 
    2429 00000029 A0AB          MOVL      P,XAR5                ; [CPU_ALU] |419| 
    2430 0000002a A8A9          MOVL      ACC,XAR4              ; [CPU_ALU] |419| 
    2431 0000002b 28AC          MOV       T,#52                 ; [CPU_ALU] |419| 
         0000002c 0034 
TMS320C2000 Assembler PC v22.6.2 Wed Dec 10 14:45:02 2025

Copyright (c) 1996-2018 Texas Instruments Incorporated
fcl_foc_cpu_dm.asm                                                   PAGE   48

    2432 0000002d C244          MOVL      *-SP[4],XAR6          ; [CPU_ALU] |419| 
    2433 0000002e 2B42          MOV       *-SP[2],#0            ; [CPU_ALU] |419| 
    2434 0000002f 565B          LSR64     ACC:P,T               ; [CPU_ALU] |419| 
    2435 00000030 2B41          MOV       *-SP[1],#0            ; [CPU_FPU] |419| 
    2436 00000031 9000          ANDB      AL,#0                 ; [CPU_ALU] |419| 
    2437 00000032 9100          ANDB      AH,#0                 ; [CPU_ALU] |419| 
    2438 00000033 18AB          AND       PL,#2047              ; [CPU_ALU] |419| 
         00000034 07FF 
    2439 00000035 18AA          AND       PH,#0                 ; [CPU_ALU] |419| 
         00000036 0000 
    2440              $C$DW$148       .dwtag  DW_TAG_TI_branch
    2441                      .dwattr $C$DW$148, DW_AT_low_pc(0x00)
    2442                      .dwattr $C$DW$148, DW_AT_name("__c28xabi_cmpull")
    2443                      .dwattr $C$DW$148, DW_AT_TI_call
    2444              
    2445 00000037 7640!         LCR       #||__c28xabi_cmpull|| ; [CPU_ALU] |419| 
         00000038 0000 
    2446                      ; call occurs [#||__c28xabi_cmpull||] ; [] |419| 
    2447 00000039 5200          CMPB      AL,#0                 ; [CPU_ALU] |419| 
    2448 0000003a 6104          B         ||$C$L23||,EQ         ; [CPU_ALU] |419| 
    2449                      ; branchcc occurs ; [] |419| 
    2450 0000003b 28A9          MOV       AL,#-1                ; [CPU_ALU] |419| 
         0000003c FFFF 
    2451 0000003d 6F15          B         ||$C$L25||,UNC        ; [CPU_ALU] |419| 
    2452                      ; branch occurs ; [] |419| 
    2453 0000003e       ||$C$L23||:    
    2454 0000003e C244          MOVL      *-SP[4],XAR6          ; [CPU_ALU] |419| 
    2455 0000003f A8A9          MOVL      ACC,XAR4              ; [CPU_ALU] |419| 
    2456 00000040 A0AB          MOVL      P,XAR5                ; [CPU_ALU] |419| 
    2457 00000041 2B42          MOV       *-SP[2],#0            ; [CPU_ALU] |419| 
    2458 00000042 18A9          AND       AL,#65535             ; [CPU_ALU] |419| 
         00000043 FFFF 
    2459 00000044 910F          ANDB      AH,#15                ; [CPU_ALU] |419| 
    2460 00000045 18AB          AND       PL,#65535             ; [CPU_ALU] |419| 
         00000046 FFFF 
    2461 00000047 18AA          AND       PH,#65535             ; [CPU_ALU] |419| 
         00000048 FFFF 
    2462 00000049 2B41          MOV       *-SP[1],#0            ; [CPU_FPU] |419| 
    2463              $C$DW$149       .dwtag  DW_TAG_TI_branch
    2464                      .dwattr $C$DW$149, DW_AT_low_pc(0x00)
    2465                      .dwattr $C$DW$149, DW_AT_name("__c28xabi_cmpull")
    2466                      .dwattr $C$DW$149, DW_AT_TI_call
    2467              
    2468 0000004a 7640!         LCR       #||__c28xabi_cmpull|| ; [CPU_ALU] |419| 
         0000004b 0000 
    2469                      ; call occurs [#||__c28xabi_cmpull||] ; [] |419| 
    2470 0000004c 5200          CMPB      AL,#0                 ; [CPU_ALU] |419| 
    2471 0000004d 6104          B         ||$C$L24||,EQ         ; [CPU_ALU] |419| 
    2472                      ; branchcc occurs ; [] |419| 
    2473 0000004e 28A9          MOV       AL,#-2                ; [CPU_ALU] |419| 
         0000004f FFFE 
    2474 00000050 6F02          B         ||$C$L25||,UNC        ; [CPU_ALU] |419| 
    2475                      ; branch occurs ; [] |419| 
    2476 00000051       ||$C$L24||:    
    2477 00000051 9A00          MOVB      AL,#0                 ; [CPU_ALU] |419| 
TMS320C2000 Assembler PC v22.6.2 Wed Dec 10 14:45:02 2025

Copyright (c) 1996-2018 Texas Instruments Incorporated
fcl_foc_cpu_dm.asm                                                   PAGE   49

    2478 00000052       ||$C$L25||:    
    2479 00000052 FE88          SUBB      SP,#8                 ; [CPU_ARAU] 
    2480                      .dwcfi  cfa_offset, -2
    2481              $C$DW$150       .dwtag  DW_TAG_TI_branch
    2482                      .dwattr $C$DW$150, DW_AT_low_pc(0x00)
    2483                      .dwattr $C$DW$150, DW_AT_TI_return
    2484              
    2485 00000053 0006          LRETR     ; [CPU_ALU] 
    2486                      ; return occurs ; [] 
    2487                      .dwattr $C$DW$143, DW_AT_TI_end_file("C:/ti/ccs2031/ccs/tools/compiler/ti-cgt-c2000_22.6.2.LTS/includ
    2488                      .dwattr $C$DW$143, DW_AT_TI_end_line(0x1ac)
    2489                      .dwattr $C$DW$143, DW_AT_TI_end_column(0x01)
    2490                      .dwendentry
    2491                      .dwendtag $C$DW$143
    2492              
    2493 00000000               .sect   ".text:__fast_lldiv"
    2494                      .clink
    2495                      .global ||__fast_lldiv||
    2496              
    2497              $C$DW$151       .dwtag  DW_TAG_subprogram
    2498                      .dwattr $C$DW$151, DW_AT_name("__fast_lldiv")
    2499                      .dwattr $C$DW$151, DW_AT_low_pc(||__fast_lldiv||)
    2500                      .dwattr $C$DW$151, DW_AT_high_pc(0x00)
    2501                      .dwattr $C$DW$151, DW_AT_linkage_name("__fast_lldiv")
    2502                      .dwattr $C$DW$151, DW_AT_external
    2503                      .dwattr $C$DW$151, DW_AT_type(*$C$DW$T$131)
    2504                      .dwattr $C$DW$151, DW_AT_decl_file("C:/ti/ccs2031/ccs/tools/compiler/ti-cgt-c2000_22.6.2.LTS/include/
    2505                      .dwattr $C$DW$151, DW_AT_decl_line(0x1ab)
    2506                      .dwattr $C$DW$151, DW_AT_decl_column(0x12)
    2507                      .dwattr $C$DW$151, DW_AT_TI_max_frame_size(-14)
    2508                      .dwpsn  file "C:/ti/ccs2031/ccs/tools/compiler/ti-cgt-c2000_22.6.2.LTS/include/stdlib.h",line 428,col
    2509              
    2510                      .dwfde $C$DW$CIE, ||__fast_lldiv||
    2511              $C$DW$152       .dwtag  DW_TAG_formal_parameter
    2512                      .dwattr $C$DW$152, DW_AT_name("_numer")
    2513                      .dwattr $C$DW$152, DW_AT_type(*$C$DW$T$14)
    2514                      .dwattr $C$DW$152, DW_AT_location[DW_OP_reg2]
    2515              
    2516              $C$DW$153       .dwtag  DW_TAG_formal_parameter
    2517                      .dwattr $C$DW$153, DW_AT_name("_denom")
    2518                      .dwattr $C$DW$153, DW_AT_type(*$C$DW$T$14)
    2519                      .dwattr $C$DW$153, DW_AT_location[DW_OP_breg20 -18]
    2520              
    2521              
    2522              ;***************************************************************
    2523              ;* FNAME: __fast_lldiv                  FR SIZE:  12           *
    2524              ;*                                                             *
    2525              ;* FUNCTION ENVIRONMENT                                        *
    2526              ;*                                                             *
    2527              ;* FUNCTION PROPERTIES                                         *
    2528              ;*                            0 Parameter,  8 Auto,  4 SOE     *
    2529              ;***************************************************************
    2530              
    2531 00000000       ||__fast_lldiv||:
    2532                      .dwcfi  cfa_offset, -2
TMS320C2000 Assembler PC v22.6.2 Wed Dec 10 14:45:02 2025

Copyright (c) 1996-2018 Texas Instruments Incorporated
fcl_foc_cpu_dm.asm                                                   PAGE   50

    2533                      .dwcfi  save_reg_to_mem, 26, 0
    2534 00000000 E203          MOV32     *SP++,R4H             ; [CPU_FPU] 
         00000001 04BD 
    2535                      .dwcfi  save_reg_to_mem, 59, 2
    2536                      .dwcfi  cfa_offset, -4
    2537 00000002 E203          MOV32     *SP++,R5H             ; [CPU_FPU] 
         00000003 05BD 
    2538                      .dwcfi  save_reg_to_mem, 63, 4
    2539                      .dwcfi  cfa_offset, -6
    2540 00000004 FE08          ADDB      SP,#8                 ; [CPU_ARAU] 
    2541                      .dwcfi  cfa_offset, -14
    2542 00000005 1EA7          MOVL      XAR7,ACC              ; [CPU_ALU] |428| 
    2543 00000006 5CAD          MOVZ      AR4,SP                ; [CPU_ALU] |428| 
    2544 00000007 06A6          MOVL      ACC,XAR6              ; [CPU_ALU] |428| 
    2545                      .dwpsn  file "C:/ti/ccs2031/ccs/tools/compiler/ti-cgt-c2000_22.6.2.LTS/include/stdlib.h",line 429,col
    2546 00000008 C4A7          MOVL      XAR6,XAR7             ; [CPU_ALU] |429| 
    2547                      .dwpsn  file "C:/ti/ccs2031/ccs/tools/compiler/ti-cgt-c2000_22.6.2.LTS/include/stdlib.h",line 428,col
    2548 00000009 DC92          SUBB      XAR4,#18              ; [CPU_ARAU] |428| 
    2549                      .dwpsn  file "C:/ti/ccs2031/ccs/tools/compiler/ti-cgt-c2000_22.6.2.LTS/include/stdlib.h",line 429,col
    2550 0000000a E2AF          MOV32     R3H,*+XAR4[2]         ; [CPU_FPU] |429| 
         0000000b 03D4 
    2551 0000000c BDA6          MOV32     R1H,XAR6              ; [CPU_FPU] |429| 
         0000000d 0F16 
    2552 0000000e BDAB          MOV32     R0H,P                 ; [CPU_FPU] |429| 
         0000000f 0F12 
    2553 00000010 E2AF          MOV32     R5H,*+XAR4[0]         ; [CPU_FPU] |429| 
         00000011 05C4 
    2554 00000012 5CAD          MOVZ      AR4,SP                ; [CPU_ALU] |429| 
    2555 00000013 DC88          SUBB      XAR4,#8               ; [CPU_ARAU] |429| 
    2556 00000014 80A4          MOVZ      AR7,AR4               ; [CPU_ALU] |429| 
    2557 00000015 E5B8          ABSI64DIV64 R2H:R4H,R1H:R0H,R3H:R5H ; [CPU_FPU] |429| 
    2558 00000016 E565          SUBC2UI64 R2H:R4H,R1H:R0H,R3H:R5H ; [CPU_FPU] |429| 
    2559 00000017 E565          SUBC2UI64 R2H:R4H,R1H:R0H,R3H:R5H ; [CPU_FPU] |429| 
    2560 00000018 E565          SUBC2UI64 R2H:R4H,R1H:R0H,R3H:R5H ; [CPU_FPU] |429| 
    2561 00000019 E565          SUBC2UI64 R2H:R4H,R1H:R0H,R3H:R5H ; [CPU_FPU] |429| 
    2562 0000001a E565          SUBC2UI64 R2H:R4H,R1H:R0H,R3H:R5H ; [CPU_FPU] |429| 
    2563 0000001b E565          SUBC2UI64 R2H:R4H,R1H:R0H,R3H:R5H ; [CPU_FPU] |429| 
    2564 0000001c E565          SUBC2UI64 R2H:R4H,R1H:R0H,R3H:R5H ; [CPU_FPU] |429| 
    2565 0000001d E565          SUBC2UI64 R2H:R4H,R1H:R0H,R3H:R5H ; [CPU_FPU] |429| 
    2566 0000001e E565          SUBC2UI64 R2H:R4H,R1H:R0H,R3H:R5H ; [CPU_FPU] |429| 
    2567 0000001f E565          SUBC2UI64 R2H:R4H,R1H:R0H,R3H:R5H ; [CPU_FPU] |429| 
    2568 00000020 E565          SUBC2UI64 R2H:R4H,R1H:R0H,R3H:R5H ; [CPU_FPU] |429| 
    2569 00000021 E565          SUBC2UI64 R2H:R4H,R1H:R0H,R3H:R5H ; [CPU_FPU] |429| 
    2570 00000022 E565          SUBC2UI64 R2H:R4H,R1H:R0H,R3H:R5H ; [CPU_FPU] |429| 
    2571 00000023 E565          SUBC2UI64 R2H:R4H,R1H:R0H,R3H:R5H ; [CPU_FPU] |429| 
    2572 00000024 E565          SUBC2UI64 R2H:R4H,R1H:R0H,R3H:R5H ; [CPU_FPU] |429| 
    2573 00000025 E565          SUBC2UI64 R2H:R4H,R1H:R0H,R3H:R5H ; [CPU_FPU] |429| 
    2574 00000026 E565          SUBC2UI64 R2H:R4H,R1H:R0H,R3H:R5H ; [CPU_FPU] |429| 
    2575 00000027 E565          SUBC2UI64 R2H:R4H,R1H:R0H,R3H:R5H ; [CPU_FPU] |429| 
    2576 00000028 E565          SUBC2UI64 R2H:R4H,R1H:R0H,R3H:R5H ; [CPU_FPU] |429| 
    2577 00000029 E565          SUBC2UI64 R2H:R4H,R1H:R0H,R3H:R5H ; [CPU_FPU] |429| 
    2578 0000002a E565          SUBC2UI64 R2H:R4H,R1H:R0H,R3H:R5H ; [CPU_FPU] |429| 
    2579 0000002b E565          SUBC2UI64 R2H:R4H,R1H:R0H,R3H:R5H ; [CPU_FPU] |429| 
    2580 0000002c E565          SUBC2UI64 R2H:R4H,R1H:R0H,R3H:R5H ; [CPU_FPU] |429| 
    2581 0000002d E565          SUBC2UI64 R2H:R4H,R1H:R0H,R3H:R5H ; [CPU_FPU] |429| 
TMS320C2000 Assembler PC v22.6.2 Wed Dec 10 14:45:02 2025

Copyright (c) 1996-2018 Texas Instruments Incorporated
fcl_foc_cpu_dm.asm                                                   PAGE   51

    2582 0000002e E565          SUBC2UI64 R2H:R4H,R1H:R0H,R3H:R5H ; [CPU_FPU] |429| 
    2583 0000002f E565          SUBC2UI64 R2H:R4H,R1H:R0H,R3H:R5H ; [CPU_FPU] |429| 
    2584 00000030 E565          SUBC2UI64 R2H:R4H,R1H:R0H,R3H:R5H ; [CPU_FPU] |429| 
    2585 00000031 E565          SUBC2UI64 R2H:R4H,R1H:R0H,R3H:R5H ; [CPU_FPU] |429| 
    2586 00000032 E565          SUBC2UI64 R2H:R4H,R1H:R0H,R3H:R5H ; [CPU_FPU] |429| 
    2587 00000033 E565          SUBC2UI64 R2H:R4H,R1H:R0H,R3H:R5H ; [CPU_FPU] |429| 
    2588 00000034 E565          SUBC2UI64 R2H:R4H,R1H:R0H,R3H:R5H ; [CPU_FPU] |429| 
    2589 00000035 E565          SUBC2UI64 R2H:R4H,R1H:R0H,R3H:R5H ; [CPU_FPU] |429| 
    2590 00000036 E5BA          NEGI64DIV64 R1H:R0H,R2H:R4H     ; [CPU_FPU] |429| 
    2591 00000037 E203          MOV32     *-SP[6],R1H           ; [CPU_FPU] |429| 
         00000038 0146 
    2592 00000039 E203          MOV32     *-SP[8],R0H           ; [CPU_FPU] |429| 
         0000003a 0048 
    2593 0000003b E203          MOV32     *-SP[2],R2H           ; [CPU_FPU] |429| 
         0000003c 0242 
    2594 0000003d E203          MOV32     *-SP[4],R4H           ; [CPU_FPU] |429| 
         0000003e 0444 
    2595 0000003f 6104          B         ||$C$L26||,EQ         ; [CPU_ALU] |429| 
    2596                      ; branchcc occurs ; [] |429| 
    2597 00000040 8AA9          MOVL      XAR4,ACC              ; [CPU_ALU] |429| 
    2598 00000041 F607          RPT       #7
    2599 00000042 2484  ||     PREAD     *XAR4++,*XAR7         ; [CPU_ALU] |429| 
    2600 00000043       ||$C$L26||:    
    2601 00000043 FE88          SUBB      SP,#8                 ; [CPU_ARAU] 
    2602                      .dwcfi  cfa_offset, -6
    2603 00000044 E2AF          MOV32     R5H,*--SP             ; [CPU_FPU] 
         00000045 05BE 
    2604                      .dwcfi  cfa_offset, -4
    2605                      .dwcfi  restore_reg, 63
    2606 00000046 E2AF          MOV32     R4H,*--SP             ; [CPU_FPU] 
         00000047 04BE 
    2607                      .dwcfi  cfa_offset, -2
    2608                      .dwcfi  restore_reg, 59
    2609              $C$DW$154       .dwtag  DW_TAG_TI_branch
    2610                      .dwattr $C$DW$154, DW_AT_low_pc(0x00)
    2611                      .dwattr $C$DW$154, DW_AT_TI_return
    2612              
    2613 00000048 0006          LRETR     ; [CPU_ALU] 
    2614                      ; return occurs ; [] 
    2615                      .dwattr $C$DW$151, DW_AT_TI_end_file("C:/ti/ccs2031/ccs/tools/compiler/ti-cgt-c2000_22.6.2.LTS/includ
    2616                      .dwattr $C$DW$151, DW_AT_TI_end_line(0x1ae)
    2617                      .dwattr $C$DW$151, DW_AT_TI_end_column(0x01)
    2618                      .dwendentry
    2619                      .dwendtag $C$DW$151
    2620              
    2621 00000000               .sect   ".text:__fast_ldiv"
    2622                      .clink
    2623                      .global ||__fast_ldiv||
    2624              
    2625              $C$DW$155       .dwtag  DW_TAG_subprogram
    2626                      .dwattr $C$DW$155, DW_AT_name("__fast_ldiv")
    2627                      .dwattr $C$DW$155, DW_AT_low_pc(||__fast_ldiv||)
    2628                      .dwattr $C$DW$155, DW_AT_high_pc(0x00)
    2629                      .dwattr $C$DW$155, DW_AT_linkage_name("__fast_ldiv")
    2630                      .dwattr $C$DW$155, DW_AT_external
TMS320C2000 Assembler PC v22.6.2 Wed Dec 10 14:45:02 2025

Copyright (c) 1996-2018 Texas Instruments Incorporated
fcl_foc_cpu_dm.asm                                                   PAGE   52

    2631                      .dwattr $C$DW$155, DW_AT_type(*$C$DW$T$128)
    2632                      .dwattr $C$DW$155, DW_AT_decl_file("C:/ti/ccs2031/ccs/tools/compiler/ti-cgt-c2000_22.6.2.LTS/include/
    2633                      .dwattr $C$DW$155, DW_AT_decl_line(0x1a4)
    2634                      .dwattr $C$DW$155, DW_AT_decl_column(0x11)
    2635                      .dwattr $C$DW$155, DW_AT_TI_max_frame_size(-6)
    2636                      .dwpsn  file "C:/ti/ccs2031/ccs/tools/compiler/ti-cgt-c2000_22.6.2.LTS/include/stdlib.h",line 421,col
    2637              
    2638                      .dwfde $C$DW$CIE, ||__fast_ldiv||
    2639              $C$DW$156       .dwtag  DW_TAG_formal_parameter
    2640                      .dwattr $C$DW$156, DW_AT_name("_numer")
    2641                      .dwattr $C$DW$156, DW_AT_type(*$C$DW$T$12)
    2642                      .dwattr $C$DW$156, DW_AT_location[DW_OP_reg0]
    2643              
    2644              $C$DW$157       .dwtag  DW_TAG_formal_parameter
    2645                      .dwattr $C$DW$157, DW_AT_name("_denom")
    2646                      .dwattr $C$DW$157, DW_AT_type(*$C$DW$T$12)
    2647                      .dwattr $C$DW$157, DW_AT_location[DW_OP_breg20 -8]
    2648              
    2649              
    2650              ;***************************************************************
    2651              ;* FNAME: __fast_ldiv                   FR SIZE:   4           *
    2652              ;*                                                             *
    2653              ;* FUNCTION ENVIRONMENT                                        *
    2654              ;*                                                             *
    2655              ;* FUNCTION PROPERTIES                                         *
    2656              ;*                            0 Parameter,  4 Auto,  0 SOE     *
    2657              ;***************************************************************
    2658              
    2659              ||__fast_ldiv||:
    2660              ;* AR7   assigned to _numer
    2661              $C$DW$158       .dwtag  DW_TAG_variable
    2662                      .dwattr $C$DW$158, DW_AT_name("_numer")
    2663                      .dwattr $C$DW$158, DW_AT_type(*$C$DW$T$156)
    2664                      .dwattr $C$DW$158, DW_AT_location[DW_OP_reg18]
    2665              
    2666                      .dwcfi  cfa_offset, -2
    2667                      .dwcfi  save_reg_to_mem, 26, 0
    2668 00000000 FE04          ADDB      SP,#4                 ; [CPU_ARAU] 
    2669                      .dwcfi  cfa_offset, -6
    2670 00000001 1EA7          MOVL      XAR7,ACC              ; [CPU_ALU] |421| 
    2671                      .dwpsn  file "C:/ti/ccs2031/ccs/tools/compiler/ti-cgt-c2000_22.6.2.LTS/include/stdlib.h",line 422,col
    2672 00000002 5CAD          MOVZ      AR4,SP                ; [CPU_ALU] |422| 
    2673 00000003 BDA7          MOV32     R1H,XAR7              ; [CPU_FPU] |422| 
         00000004 0F16 
    2674 00000005 E2AF          MOV32     R3H,*-SP[8]           ; [CPU_FPU] |422| 
         00000006 0348 
    2675 00000007 DC84          SUBB      XAR4,#4               ; [CPU_ARAU] |422| 
    2676                      .dwpsn  file "C:/ti/ccs2031/ccs/tools/compiler/ti-cgt-c2000_22.6.2.LTS/include/stdlib.h",line 421,col
    2677 00000008 06A6          MOVL      ACC,XAR6              ; [CPU_ALU] |421| 
    2678                      .dwpsn  file "C:/ti/ccs2031/ccs/tools/compiler/ti-cgt-c2000_22.6.2.LTS/include/stdlib.h",line 422,col
    2679 00000009 80A4          MOVZ      AR7,AR4               ; [CPU_ALU] |422| 
    2680 0000000a E568          ABSI32DIV32 R2H,R1H,R3H         ; [CPU_FPU] |422| 
    2681 0000000b E564          SUBC4UI32 R2H,R1H,R3H           ; [CPU_FPU] |422| 
    2682 0000000c E564          SUBC4UI32 R2H,R1H,R3H           ; [CPU_FPU] |422| 
    2683 0000000d E564          SUBC4UI32 R2H,R1H,R3H           ; [CPU_FPU] |422| 
TMS320C2000 Assembler PC v22.6.2 Wed Dec 10 14:45:02 2025

Copyright (c) 1996-2018 Texas Instruments Incorporated
fcl_foc_cpu_dm.asm                                                   PAGE   53

    2684 0000000e E564          SUBC4UI32 R2H,R1H,R3H           ; [CPU_FPU] |422| 
    2685 0000000f E564          SUBC4UI32 R2H,R1H,R3H           ; [CPU_FPU] |422| 
    2686 00000010 E564          SUBC4UI32 R2H,R1H,R3H           ; [CPU_FPU] |422| 
    2687 00000011 E564          SUBC4UI32 R2H,R1H,R3H           ; [CPU_FPU] |422| 
    2688 00000012 E564          SUBC4UI32 R2H,R1H,R3H           ; [CPU_FPU] |422| 
    2689 00000013 E56A          NEGI32DIV32 R1H,R2H             ; [CPU_FPU] |422| 
    2690 00000014 E203          MOV32     *-SP[4],R1H           ; [CPU_FPU] |422| 
         00000015 0144 
    2691 00000016 E203          MOV32     *-SP[2],R2H           ; [CPU_FPU] |422| 
         00000017 0242 
    2692 00000018 6104          B         ||$C$L27||,EQ         ; [CPU_ALU] |422| 
    2693                      ; branchcc occurs ; [] |422| 
    2694 00000019 8AA9          MOVL      XAR4,ACC              ; [CPU_ALU] |422| 
    2695 0000001a F603          RPT       #3
    2696 0000001b 2484  ||     PREAD     *XAR4++,*XAR7         ; [CPU_ALU] |422| 
    2697 0000001c       ||$C$L27||:    
    2698 0000001c FE84          SUBB      SP,#4                 ; [CPU_ARAU] 
    2699                      .dwcfi  cfa_offset, -2
    2700              $C$DW$159       .dwtag  DW_TAG_TI_branch
    2701                      .dwattr $C$DW$159, DW_AT_low_pc(0x00)
    2702                      .dwattr $C$DW$159, DW_AT_TI_return
    2703              
    2704 0000001d 0006          LRETR     ; [CPU_ALU] 
    2705                      ; return occurs ; [] 
    2706                      .dwattr $C$DW$155, DW_AT_TI_end_file("C:/ti/ccs2031/ccs/tools/compiler/ti-cgt-c2000_22.6.2.LTS/includ
    2707                      .dwattr $C$DW$155, DW_AT_TI_end_line(0x1a7)
    2708                      .dwattr $C$DW$155, DW_AT_TI_end_column(0x01)
    2709                      .dwendentry
    2710                      .dwendtag $C$DW$155
    2711              
    2712 00000000               .sect   ".text:FCL_initQEP"
    2713                      .clink
    2714                      .global ||FCL_initQEP||
    2715              
    2716              $C$DW$160       .dwtag  DW_TAG_subprogram
    2717                      .dwattr $C$DW$160, DW_AT_name("FCL_initQEP")
    2718                      .dwattr $C$DW$160, DW_AT_low_pc(||FCL_initQEP||)
    2719                      .dwattr $C$DW$160, DW_AT_high_pc(0x00)
    2720                      .dwattr $C$DW$160, DW_AT_linkage_name("FCL_initQEP")
    2721                      .dwattr $C$DW$160, DW_AT_external
    2722                      .dwattr $C$DW$160, DW_AT_decl_file("../sources/fcl_foc_cpu_dm.c")
    2723                      .dwattr $C$DW$160, DW_AT_decl_line(0xa2)
    2724                      .dwattr $C$DW$160, DW_AT_decl_column(0x06)
    2725                      .dwattr $C$DW$160, DW_AT_TI_max_frame_size(-2)
    2726                      .dwpsn  file "../sources/fcl_foc_cpu_dm.c",line 163,column 1,is_stmt,address ||FCL_initQEP||,isa 0
    2727              
    2728                      .dwfde $C$DW$CIE, ||FCL_initQEP||
    2729              $C$DW$161       .dwtag  DW_TAG_formal_parameter
    2730                      .dwattr $C$DW$161, DW_AT_name("pMotor")
    2731                      .dwattr $C$DW$161, DW_AT_type(*$C$DW$T$139)
    2732                      .dwattr $C$DW$161, DW_AT_location[DW_OP_reg12]
    2733              
    2734              $C$DW$162       .dwtag  DW_TAG_formal_parameter
    2735                      .dwattr $C$DW$162, DW_AT_name("qepBaseA")
    2736                      .dwattr $C$DW$162, DW_AT_type(*$C$DW$T$24)
TMS320C2000 Assembler PC v22.6.2 Wed Dec 10 14:45:02 2025

Copyright (c) 1996-2018 Texas Instruments Incorporated
fcl_foc_cpu_dm.asm                                                   PAGE   54

    2737                      .dwattr $C$DW$162, DW_AT_location[DW_OP_reg0]
    2738              
    2739              
    2740              ;***************************************************************
    2741              ;* FNAME: FCL_initQEP                   FR SIZE:   0           *
    2742              ;*                                                             *
    2743              ;* FUNCTION ENVIRONMENT                                        *
    2744              ;*                                                             *
    2745              ;* FUNCTION PROPERTIES                                         *
    2746              ;*                            0 Parameter,  0 Auto,  0 SOE     *
    2747              ;***************************************************************
    2748              
    2749              ||FCL_initQEP||:
    2750              ;* AR4   assigned to pMotor
    2751              $C$DW$163       .dwtag  DW_TAG_variable
    2752                      .dwattr $C$DW$163, DW_AT_name("pMotor")
    2753                      .dwattr $C$DW$163, DW_AT_type(*$C$DW$T$140)
    2754                      .dwattr $C$DW$163, DW_AT_location[DW_OP_reg12]
    2755              
    2756              ;* AL    assigned to qepBaseA
    2757              $C$DW$164       .dwtag  DW_TAG_variable
    2758                      .dwattr $C$DW$164, DW_AT_name("qepBaseA")
    2759                      .dwattr $C$DW$164, DW_AT_type(*$C$DW$T$145)
    2760                      .dwattr $C$DW$164, DW_AT_location[DW_OP_reg0]
    2761              
    2762                      .dwcfi  cfa_offset, -2
    2763                      .dwcfi  save_reg_to_mem, 26, 0
    2764                      .dwpsn  file "../sources/fcl_foc_cpu_dm.c",line 164,column 5,is_stmt,isa 0
    2765 00000000 8D00          MOVL      XAR0,#408             ; [CPU_ALU] |164| 
         00000001 0198 
    2766 00000002 1E94          MOVL      *+XAR4[AR0],ACC       ; [CPU_ALU] |164| 
    2767              $C$DW$165       .dwtag  DW_TAG_TI_branch
    2768                      .dwattr $C$DW$165, DW_AT_low_pc(0x00)
    2769                      .dwattr $C$DW$165, DW_AT_TI_return
    2770              
    2771 00000003 0006          LRETR     ; [CPU_ALU] 
    2772                      ; return occurs ; [] 
    2773                      .dwattr $C$DW$160, DW_AT_TI_end_file("../sources/fcl_foc_cpu_dm.c")
    2774                      .dwattr $C$DW$160, DW_AT_TI_end_line(0xa7)
    2775                      .dwattr $C$DW$160, DW_AT_TI_end_column(0x01)
    2776                      .dwendentry
    2777                      .dwendtag $C$DW$160
    2778              
    2779 00000000               .sect   ".text:FCL_initPWM"
    2780                      .clink
    2781                      .global ||FCL_initPWM||
    2782              
    2783              $C$DW$166       .dwtag  DW_TAG_subprogram
    2784                      .dwattr $C$DW$166, DW_AT_name("FCL_initPWM")
    2785                      .dwattr $C$DW$166, DW_AT_low_pc(||FCL_initPWM||)
    2786                      .dwattr $C$DW$166, DW_AT_high_pc(0x00)
    2787                      .dwattr $C$DW$166, DW_AT_linkage_name("FCL_initPWM")
    2788                      .dwattr $C$DW$166, DW_AT_external
    2789                      .dwattr $C$DW$166, DW_AT_decl_file("../sources/fcl_foc_cpu_dm.c")
    2790                      .dwattr $C$DW$166, DW_AT_decl_line(0x62)
TMS320C2000 Assembler PC v22.6.2 Wed Dec 10 14:45:02 2025

Copyright (c) 1996-2018 Texas Instruments Incorporated
fcl_foc_cpu_dm.asm                                                   PAGE   55

    2791                      .dwattr $C$DW$166, DW_AT_decl_column(0x06)
    2792                      .dwattr $C$DW$166, DW_AT_TI_max_frame_size(-4)
    2793                      .dwpsn  file "../sources/fcl_foc_cpu_dm.c",line 102,column 1,is_stmt,address ||FCL_initPWM||,isa 0
    2794              
    2795                      .dwfde $C$DW$CIE, ||FCL_initPWM||
    2796              $C$DW$167       .dwtag  DW_TAG_formal_parameter
    2797                      .dwattr $C$DW$167, DW_AT_name("ptrMotor")
    2798                      .dwattr $C$DW$167, DW_AT_type(*$C$DW$T$139)
    2799                      .dwattr $C$DW$167, DW_AT_location[DW_OP_reg12]
    2800              
    2801              $C$DW$168       .dwtag  DW_TAG_formal_parameter
    2802                      .dwattr $C$DW$168, DW_AT_name("pwmBaseU")
    2803                      .dwattr $C$DW$168, DW_AT_type(*$C$DW$T$24)
    2804                      .dwattr $C$DW$168, DW_AT_location[DW_OP_reg0]
    2805              
    2806              $C$DW$169       .dwtag  DW_TAG_formal_parameter
    2807                      .dwattr $C$DW$169, DW_AT_name("pwmBaseV")
    2808                      .dwattr $C$DW$169, DW_AT_type(*$C$DW$T$24)
    2809                      .dwattr $C$DW$169, DW_AT_location[DW_OP_breg20 -6]
    2810              
    2811              $C$DW$170       .dwtag  DW_TAG_formal_parameter
    2812                      .dwattr $C$DW$170, DW_AT_name("pwmBaseW")
    2813                      .dwattr $C$DW$170, DW_AT_type(*$C$DW$T$24)
    2814                      .dwattr $C$DW$170, DW_AT_location[DW_OP_breg20 -8]
    2815              
    2816              
    2817              ;***************************************************************
    2818              ;* FNAME: FCL_initPWM                   FR SIZE:   2           *
    2819              ;*                                                             *
    2820              ;* FUNCTION ENVIRONMENT                                        *
    2821              ;*                                                             *
    2822              ;* FUNCTION PROPERTIES                                         *
    2823              ;*                            0 Parameter,  0 Auto,  2 SOE     *
    2824              ;***************************************************************
    2825              
    2826              ||FCL_initPWM||:
    2827              ;* AR5   assigned to $O$C1
    2828              ;* AR5   assigned to $O$C2
    2829              ;* AR5   assigned to $O$C3
    2830              ;* AR5   assigned to $O$C4
    2831              ;* AR5   assigned to $O$C5
    2832              ;* AR5   assigned to $O$C6
    2833              ;* AR5   assigned to $O$C7
    2834              ;* AR5   assigned to $O$C8
    2835              ;* AR5   assigned to $O$C9
    2836              ;* AR5   assigned to $O$C10
    2837              ;* AR5   assigned to $O$C11
    2838              ;* AR5   assigned to $O$C12
    2839              ;* AR4   assigned to ptrMotor
    2840              $C$DW$171       .dwtag  DW_TAG_variable
    2841                      .dwattr $C$DW$171, DW_AT_name("ptrMotor")
    2842                      .dwattr $C$DW$171, DW_AT_type(*$C$DW$T$140)
    2843                      .dwattr $C$DW$171, DW_AT_location[DW_OP_reg12]
    2844              
    2845              ;* AL    assigned to pwmBaseU
TMS320C2000 Assembler PC v22.6.2 Wed Dec 10 14:45:02 2025

Copyright (c) 1996-2018 Texas Instruments Incorporated
fcl_foc_cpu_dm.asm                                                   PAGE   56

    2846              $C$DW$172       .dwtag  DW_TAG_variable
    2847                      .dwattr $C$DW$172, DW_AT_name("pwmBaseU")
    2848                      .dwattr $C$DW$172, DW_AT_type(*$C$DW$T$145)
    2849                      .dwattr $C$DW$172, DW_AT_location[DW_OP_reg0]
    2850              
    2851              ;* AR7   assigned to pwmBaseV
    2852              $C$DW$173       .dwtag  DW_TAG_variable
    2853                      .dwattr $C$DW$173, DW_AT_name("pwmBaseV")
    2854                      .dwattr $C$DW$173, DW_AT_type(*$C$DW$T$145)
    2855                      .dwattr $C$DW$173, DW_AT_location[DW_OP_reg18]
    2856              
    2857              ;* AR6   assigned to pwmBaseW
    2858              $C$DW$174       .dwtag  DW_TAG_variable
    2859                      .dwattr $C$DW$174, DW_AT_name("pwmBaseW")
    2860                      .dwattr $C$DW$174, DW_AT_type(*$C$DW$T$145)
    2861                      .dwattr $C$DW$174, DW_AT_location[DW_OP_reg16]
    2862              
    2863                      .dwcfi  cfa_offset, -2
    2864                      .dwcfi  save_reg_to_mem, 26, 0
    2865 00000000 B2BD          MOVL      *SP++,XAR1            ; [CPU_ALU] 
    2866                      .dwcfi  save_reg_to_mem, 7, 2
    2867                      .dwcfi  cfa_offset, -4
    2868                      .dwpsn  file "../sources/fcl_foc_cpu_dm.c",line 103,column 5,is_stmt,isa 0
    2869 00000001 8D40          MOVL      XAR1,#416             ; [CPU_ALU] |103| 
         00000002 01A0 
    2870                      .dwpsn  file "../sources/fcl_foc_cpu_dm.c",line 102,column 1,is_stmt,isa 0
    2871 00000003 C546          MOVL      XAR7,*-SP[6]          ; [CPU_ALU] |102| 
    2872                      .dwpsn  file "../sources/fcl_foc_cpu_dm.c",line 104,column 5,is_stmt,isa 0
    2873 00000004 8D00          MOVL      XAR0,#418             ; [CPU_ALU] |104| 
         00000005 01A2 
    2874                      .dwpsn  file "../sources/fcl_foc_cpu_dm.c",line 102,column 1,is_stmt,isa 0
    2875 00000006 C448          MOVL      XAR6,*-SP[8]          ; [CPU_ALU] |102| 
    2876                      .dwpsn  file "../sources/fcl_foc_cpu_dm.c",line 103,column 5,is_stmt,isa 0
    2877 00000007 1E9C          MOVL      *+XAR4[AR1],ACC       ; [CPU_ALU] |103| 
    2878                      .dwpsn  file "../sources/fcl_foc_cpu_dm.c",line 104,column 5,is_stmt,isa 0
    2879 00000008 C394          MOVL      *+XAR4[AR0],XAR7      ; [CPU_ALU] |104| 
    2880                      .dwpsn  file "../sources/fcl_foc_cpu_dm.c",line 107,column 5,is_stmt,isa 0
    2881 00000009 8D00          MOVL      XAR0,#449             ; [CPU_ALU] |107| 
         0000000a 01C1 
    2882 0000000b 9294          MOV       AL,*+XAR4[AR0]        ; [CPU_ALU] |107| 
    2883                      .dwpsn  file "../sources/fcl_foc_cpu_dm.c",line 105,column 5,is_stmt,isa 0
    2884 0000000c 8D00          MOVL      XAR0,#420             ; [CPU_ALU] |105| 
         0000000d 01A4 
    2885 0000000e C294          MOVL      *+XAR4[AR0],XAR6      ; [CPU_ALU] |105| 
    2886                      .dwpsn  file "../sources/fcl_foc_cpu_dm.c",line 107,column 5,is_stmt,isa 0
    2887 0000000f 614E          B         ||$C$L31||,EQ         ; [CPU_ALU] |107| 
    2888                      ; branchcc occurs ; [] |107| 
    2889 00000010 5201          CMPB      AL,#1                 ; [CPU_ALU] |107| 
    2890 00000011 6134          B         ||$C$L30||,EQ         ; [CPU_ALU] |107| 
    2891                      ; branchcc occurs ; [] |107| 
    2892 00000012 5202          CMPB      AL,#2                 ; [CPU_ALU] |107| 
    2893 00000013 611A          B         ||$C$L29||,EQ         ; [CPU_ALU] |107| 
    2894                      ; branchcc occurs ; [] |107| 
    2895 00000014 5203          CMPB      AL,#3                 ; [CPU_ALU] |107| 
    2896 00000015 605E          B         ||$C$L32||,NEQ        ; [CPU_ALU] |107| 
TMS320C2000 Assembler PC v22.6.2 Wed Dec 10 14:45:02 2025

Copyright (c) 1996-2018 Texas Instruments Incorporated
fcl_foc_cpu_dm.asm                                                   PAGE   57

    2897                      ; branchcc occurs ; [] |107| 
    2898                      .dwpsn  file "C:/ti/C2000Ware_MotorControl_SDK_5_04_00_00/c2000ware/driverlib/f28002x/driverlib/epwm.
    2899 00000016 839C          MOVL      XAR5,*+XAR4[AR1]      ; [CPU_ALU] |2594| 
    2900 00000017 D008          MOVB      XAR0,#8               ; [CPU_ALU] |2594| 
    2901 00000018 8D40          MOVL      XAR1,#418             ; [CPU_ALU] |2594| 
         00000019 01A2 
    2902 0000001a 9295          MOV       AL,*+XAR5[AR0]        ; [CPU_ALU] |2594| 
    2903 0000001b D008          MOVB      XAR0,#8               ; [CPU_ALU] |2594| 
    2904 0000001c 5010          ORB       AL,#0x10              ; [CPU_ALU] |2594| 
    2905 0000001d 9695          MOV       *+XAR5[AR0],AL        ; [CPU_ALU] |2594| 
    2906 0000001e 839C          MOVL      XAR5,*+XAR4[AR1]      ; [CPU_ALU] |2594| 
    2907 0000001f D008          MOVB      XAR0,#8               ; [CPU_ALU] |2594| 
    2908 00000020 8D40          MOVL      XAR1,#420             ; [CPU_ALU] |2594| 
         00000021 01A4 
    2909 00000022 9295          MOV       AL,*+XAR5[AR0]        ; [CPU_ALU] |2594| 
    2910 00000023 D008          MOVB      XAR0,#8               ; [CPU_ALU] |2594| 
    2911 00000024 5010          ORB       AL,#0x10              ; [CPU_ALU] |2594| 
    2912 00000025 9695          MOV       *+XAR5[AR0],AL        ; [CPU_ALU] |2594| 
    2913 00000026 839C          MOVL      XAR5,*+XAR4[AR1]      ; [CPU_ALU] |2594| 
    2914 00000027 D008          MOVB      XAR0,#8               ; [CPU_ALU] |2594| 
    2915 00000028 9295          MOV       AL,*+XAR5[AR0]        ; [CPU_ALU] |2594| 
    2916 00000029 5010          ORB       AL,#0x10              ; [CPU_ALU] |2594| 
    2917 0000002a       ||$C$L28||:    
    2918 0000002a D008          MOVB      XAR0,#8               ; [CPU_ALU] |2594| 
    2919 0000002b 9695          MOV       *+XAR5[AR0],AL        ; [CPU_ALU] |2594| 
    2920                      .dwpsn  file "../sources/fcl_foc_cpu_dm.c",line 149,column 13,is_stmt,isa 0
    2921 0000002c 6F47          B         ||$C$L32||,UNC        ; [CPU_ALU] |149| 
    2922                      ; branch occurs ; [] |149| 
    2923 0000002d       ||$C$L29||:    
    2924                      .dwpsn  file "C:/ti/C2000Ware_MotorControl_SDK_5_04_00_00/c2000ware/driverlib/f28002x/driverlib/epwm.
    2925 0000002d 839C          MOVL      XAR5,*+XAR4[AR1]      ; [CPU_ALU] |2537| 
    2926 0000002e D008          MOVB      XAR0,#8               ; [CPU_ALU] |2537| 
    2927 0000002f 8D40          MOVL      XAR1,#418             ; [CPU_ALU] |2537| 
         00000030 01A2 
    2928 00000031 CC95          AND       AL,*+XAR5[AR0],#0xf3ee ; [CPU_ALU] |2537| 
         00000032 F3EE 
    2929 00000033 D008          MOVB      XAR0,#8               ; [CPU_ALU] |2537| 
    2930 00000034 5002          ORB       AL,#0x02              ; [CPU_ALU] |2537| 
    2931 00000035 9695          MOV       *+XAR5[AR0],AL        ; [CPU_ALU] |2537| 
    2932 00000036 839C          MOVL      XAR5,*+XAR4[AR1]      ; [CPU_ALU] |2537| 
    2933 00000037 D008          MOVB      XAR0,#8               ; [CPU_ALU] |2537| 
    2934 00000038 8D40          MOVL      XAR1,#420             ; [CPU_ALU] |2537| 
         00000039 01A4 
    2935 0000003a CC95          AND       AL,*+XAR5[AR0],#0xf3ee ; [CPU_ALU] |2537| 
         0000003b F3EE 
    2936 0000003c D008          MOVB      XAR0,#8               ; [CPU_ALU] |2537| 
    2937 0000003d 5002          ORB       AL,#0x02              ; [CPU_ALU] |2537| 
    2938 0000003e 9695          MOV       *+XAR5[AR0],AL        ; [CPU_ALU] |2537| 
    2939 0000003f 839C          MOVL      XAR5,*+XAR4[AR1]      ; [CPU_ALU] |2537| 
    2940 00000040 D008          MOVB      XAR0,#8               ; [CPU_ALU] |2537| 
    2941 00000041 CC95          AND       AL,*+XAR5[AR0],#0xf3ee ; [CPU_ALU] |2537| 
         00000042 F3EE 
    2942 00000043 5002          ORB       AL,#0x02              ; [CPU_ALU] |2537| 
    2943                      .dwpsn  file "../sources/fcl_foc_cpu_dm.c",line 141,column 13,is_stmt,isa 0
    2944 00000044 6FE6          B         ||$C$L28||,UNC        ; [CPU_ALU] |141| 
TMS320C2000 Assembler PC v22.6.2 Wed Dec 10 14:45:02 2025

Copyright (c) 1996-2018 Texas Instruments Incorporated
fcl_foc_cpu_dm.asm                                                   PAGE   58

    2945                      ; branch occurs ; [] |141| 
    2946 00000045       ||$C$L30||:    
    2947                      .dwpsn  file "C:/ti/C2000Ware_MotorControl_SDK_5_04_00_00/c2000ware/driverlib/f28002x/driverlib/epwm.
    2948 00000045 839C          MOVL      XAR5,*+XAR4[AR1]      ; [CPU_ALU] |2537| 
    2949 00000046 D008          MOVB      XAR0,#8               ; [CPU_ALU] |2537| 
    2950 00000047 8D40          MOVL      XAR1,#418             ; [CPU_ALU] |2537| 
         00000048 01A2 
    2951 00000049 CC95          AND       AL,*+XAR5[AR0],#0xf3ec ; [CPU_ALU] |2537| 
         0000004a F3EC 
    2952 0000004b D008          MOVB      XAR0,#8               ; [CPU_ALU] |2537| 
    2953 0000004c 5001          ORB       AL,#0x01              ; [CPU_ALU] |2537| 
    2954 0000004d 9695          MOV       *+XAR5[AR0],AL        ; [CPU_ALU] |2537| 
    2955 0000004e 839C          MOVL      XAR5,*+XAR4[AR1]      ; [CPU_ALU] |2537| 
    2956 0000004f D008          MOVB      XAR0,#8               ; [CPU_ALU] |2537| 
    2957 00000050 8D40          MOVL      XAR1,#420             ; [CPU_ALU] |2537| 
         00000051 01A4 
    2958 00000052 CC95          AND       AL,*+XAR5[AR0],#0xf3ec ; [CPU_ALU] |2537| 
         00000053 F3EC 
    2959 00000054 D008          MOVB      XAR0,#8               ; [CPU_ALU] |2537| 
    2960 00000055 5001          ORB       AL,#0x01              ; [CPU_ALU] |2537| 
    2961 00000056 9695          MOV       *+XAR5[AR0],AL        ; [CPU_ALU] |2537| 
    2962 00000057 839C          MOVL      XAR5,*+XAR4[AR1]      ; [CPU_ALU] |2537| 
    2963 00000058 D008          MOVB      XAR0,#8               ; [CPU_ALU] |2537| 
    2964 00000059 CC95          AND       AL,*+XAR5[AR0],#0xf3ec ; [CPU_ALU] |2537| 
         0000005a F3EC 
    2965 0000005b 5001          ORB       AL,#0x01              ; [CPU_ALU] |2537| 
    2966                      .dwpsn  file "../sources/fcl_foc_cpu_dm.c",line 130,column 13,is_stmt,isa 0
    2967 0000005c 6FCE          B         ||$C$L28||,UNC        ; [CPU_ALU] |130| 
    2968                      ; branch occurs ; [] |130| 
    2969 0000005d       ||$C$L31||:    
    2970                      .dwpsn  file "C:/ti/C2000Ware_MotorControl_SDK_5_04_00_00/c2000ware/driverlib/f28002x/driverlib/epwm.
    2971 0000005d 839C          MOVL      XAR5,*+XAR4[AR1]      ; [CPU_ALU] |2537| 
    2972 0000005e D008          MOVB      XAR0,#8               ; [CPU_ALU] |2537| 
    2973 0000005f 8D40          MOVL      XAR1,#418             ; [CPU_ALU] |2537| 
         00000060 01A2 
    2974 00000061 CC95          AND       AL,*+XAR5[AR0],#0xf3ec ; [CPU_ALU] |2537| 
         00000062 F3EC 
    2975 00000063 D008          MOVB      XAR0,#8               ; [CPU_ALU] |2537| 
    2976 00000064 9695          MOV       *+XAR5[AR0],AL        ; [CPU_ALU] |2537| 
    2977 00000065 839C          MOVL      XAR5,*+XAR4[AR1]      ; [CPU_ALU] |2537| 
    2978 00000066 D008          MOVB      XAR0,#8               ; [CPU_ALU] |2537| 
    2979 00000067 8D40          MOVL      XAR1,#420             ; [CPU_ALU] |2537| 
         00000068 01A4 
    2980 00000069 CC95          AND       AL,*+XAR5[AR0],#0xf3ec ; [CPU_ALU] |2537| 
         0000006a F3EC 
    2981 0000006b D008          MOVB      XAR0,#8               ; [CPU_ALU] |2537| 
    2982 0000006c 9695          MOV       *+XAR5[AR0],AL        ; [CPU_ALU] |2537| 
    2983 0000006d 839C          MOVL      XAR5,*+XAR4[AR1]      ; [CPU_ALU] |2537| 
    2984 0000006e D008          MOVB      XAR0,#8               ; [CPU_ALU] |2537| 
    2985 0000006f D108          MOVB      XAR1,#8               ; [CPU_ALU] |2537| 
    2986 00000070 CC95          AND       AL,*+XAR5[AR0],#0xf3ec ; [CPU_ALU] |2537| 
         00000071 F3EC 
    2987 00000072 969D          MOV       *+XAR5[AR1],AL        ; [CPU_ALU] |2537| 
    2988 00000073       ||$C$L32||:    
    2989                      .dwpsn  file "../sources/fcl_foc_cpu_dm.c",line 152,column 5,is_stmt,isa 0
TMS320C2000 Assembler PC v22.6.2 Wed Dec 10 14:45:02 2025

Copyright (c) 1996-2018 Texas Instruments Incorporated
fcl_foc_cpu_dm.asm                                                   PAGE   59

    2990 00000073 026A          MOVB      ACC,#106              ; [CPU_ALU] |152| 
    2991 00000074 8D00          MOVL      XAR0,#416             ; [CPU_ALU] |152| 
         00000075 01A0 
    2992 00000076 0794          ADDL      ACC,*+XAR4[AR0]       ; [CPU_ALU] |152| 
    2993 00000077 8D00          MOVL      XAR0,#392             ; [CPU_FPU] |152| 
         00000078 0188 
    2994 00000079 1E94          MOVL      *+XAR4[AR0],ACC       ; [CPU_ALU] |152| 
    2995                      .dwpsn  file "../sources/fcl_foc_cpu_dm.c",line 153,column 5,is_stmt,isa 0
    2996 0000007a 8D00          MOVL      XAR0,#418             ; [CPU_ALU] |153| 
         0000007b 01A2 
    2997 0000007c 026A          MOVB      ACC,#106              ; [CPU_ALU] |153| 
    2998 0000007d 0794          ADDL      ACC,*+XAR4[AR0]       ; [CPU_ALU] |153| 
    2999 0000007e 8D00          MOVL      XAR0,#394             ; [CPU_FPU] |153| 
         0000007f 018A 
    3000 00000080 1E94          MOVL      *+XAR4[AR0],ACC       ; [CPU_ALU] |153| 
    3001                      .dwpsn  file "../sources/fcl_foc_cpu_dm.c",line 154,column 5,is_stmt,isa 0
    3002 00000081 8D00          MOVL      XAR0,#420             ; [CPU_ALU] |154| 
         00000082 01A4 
    3003 00000083 026A          MOVB      ACC,#106              ; [CPU_ALU] |154| 
    3004 00000084 0794          ADDL      ACC,*+XAR4[AR0]       ; [CPU_ALU] |154| 
    3005 00000085 8D00          MOVL      XAR0,#396             ; [CPU_FPU] |154| 
         00000086 018C 
    3006 00000087 1E94          MOVL      *+XAR4[AR0],ACC       ; [CPU_ALU] |154| 
    3007 00000088 8BBE          MOVL      XAR1,*--SP            ; [CPU_ALU] 
    3008                      .dwcfi  cfa_offset, -2
    3009                      .dwcfi  restore_reg, 7
    3010              $C$DW$175       .dwtag  DW_TAG_TI_branch
    3011                      .dwattr $C$DW$175, DW_AT_low_pc(0x00)
    3012                      .dwattr $C$DW$175, DW_AT_TI_return
    3013              
    3014 00000089 0006          LRETR     ; [CPU_ALU] 
    3015                      ; return occurs ; [] 
    3016                      .dwattr $C$DW$166, DW_AT_TI_end_file("../sources/fcl_foc_cpu_dm.c")
    3017                      .dwattr $C$DW$166, DW_AT_TI_end_line(0x9d)
    3018                      .dwattr $C$DW$166, DW_AT_TI_end_column(0x01)
    3019                      .dwendentry
    3020                      .dwendtag $C$DW$166
    3021              
    3022 00000000               .sect   ".text:FCL_initADC_3In"
    3023                      .clink
    3024                      .global ||FCL_initADC_3In||
    3025              
    3026              $C$DW$176       .dwtag  DW_TAG_subprogram
    3027                      .dwattr $C$DW$176, DW_AT_name("FCL_initADC_3In")
    3028                      .dwattr $C$DW$176, DW_AT_low_pc(||FCL_initADC_3In||)
    3029                      .dwattr $C$DW$176, DW_AT_high_pc(0x00)
    3030                      .dwattr $C$DW$176, DW_AT_linkage_name("FCL_initADC_3In")
    3031                      .dwattr $C$DW$176, DW_AT_external
    3032                      .dwattr $C$DW$176, DW_AT_decl_file("../sources/fcl_foc_cpu_dm.c")
    3033                      .dwattr $C$DW$176, DW_AT_decl_line(0x3f)
    3034                      .dwattr $C$DW$176, DW_AT_decl_column(0x06)
    3035                      .dwattr $C$DW$176, DW_AT_TI_max_frame_size(-8)
    3036                      .dwpsn  file "../sources/fcl_foc_cpu_dm.c",line 67,column 1,is_stmt,address ||FCL_initADC_3In||,isa 0
    3037              
    3038                      .dwfde $C$DW$CIE, ||FCL_initADC_3In||
TMS320C2000 Assembler PC v22.6.2 Wed Dec 10 14:45:02 2025

Copyright (c) 1996-2018 Texas Instruments Incorporated
fcl_foc_cpu_dm.asm                                                   PAGE   60

    3039              $C$DW$177       .dwtag  DW_TAG_formal_parameter
    3040                      .dwattr $C$DW$177, DW_AT_name("pMotor")
    3041                      .dwattr $C$DW$177, DW_AT_type(*$C$DW$T$139)
    3042                      .dwattr $C$DW$177, DW_AT_location[DW_OP_reg12]
    3043              
    3044              $C$DW$178       .dwtag  DW_TAG_formal_parameter
    3045                      .dwattr $C$DW$178, DW_AT_name("adcBaseW")
    3046                      .dwattr $C$DW$178, DW_AT_type(*$C$DW$T$24)
    3047                      .dwattr $C$DW$178, DW_AT_location[DW_OP_reg0]
    3048              
    3049              $C$DW$179       .dwtag  DW_TAG_formal_parameter
    3050                      .dwattr $C$DW$179, DW_AT_name("adcResultBaseU")
    3051                      .dwattr $C$DW$179, DW_AT_type(*$C$DW$T$24)
    3052                      .dwattr $C$DW$179, DW_AT_location[DW_OP_breg20 -10]
    3053              
    3054              $C$DW$180       .dwtag  DW_TAG_formal_parameter
    3055                      .dwattr $C$DW$180, DW_AT_name("adcU_PPBNum")
    3056                      .dwattr $C$DW$180, DW_AT_type(*$C$DW$T$102)
    3057                      .dwattr $C$DW$180, DW_AT_location[DW_OP_reg14]
    3058              
    3059              $C$DW$181       .dwtag  DW_TAG_formal_parameter
    3060                      .dwattr $C$DW$181, DW_AT_name("adcResultBaseV")
    3061                      .dwattr $C$DW$181, DW_AT_type(*$C$DW$T$24)
    3062                      .dwattr $C$DW$181, DW_AT_location[DW_OP_breg20 -12]
    3063              
    3064              $C$DW$182       .dwtag  DW_TAG_formal_parameter
    3065                      .dwattr $C$DW$182, DW_AT_name("adcV_PPBNum")
    3066                      .dwattr $C$DW$182, DW_AT_type(*$C$DW$T$102)
    3067                      .dwattr $C$DW$182, DW_AT_location[DW_OP_breg20 -13]
    3068              
    3069              $C$DW$183       .dwtag  DW_TAG_formal_parameter
    3070                      .dwattr $C$DW$183, DW_AT_name("adcResultBaseW")
    3071                      .dwattr $C$DW$183, DW_AT_type(*$C$DW$T$24)
    3072                      .dwattr $C$DW$183, DW_AT_location[DW_OP_breg20 -16]
    3073              
    3074              $C$DW$184       .dwtag  DW_TAG_formal_parameter
    3075                      .dwattr $C$DW$184, DW_AT_name("adcW_PPBNum")
    3076                      .dwattr $C$DW$184, DW_AT_type(*$C$DW$T$102)
    3077                      .dwattr $C$DW$184, DW_AT_location[DW_OP_breg20 -17]
    3078              
    3079              
    3080              ;***************************************************************
    3081              ;* FNAME: FCL_initADC_3In               FR SIZE:   6           *
    3082              ;*                                                             *
    3083              ;* FUNCTION ENVIRONMENT                                        *
    3084              ;*                                                             *
    3085              ;* FUNCTION PROPERTIES                                         *
    3086              ;*                            0 Parameter,  2 Auto,  4 SOE     *
    3087              ;***************************************************************
    3088              
    3089              ||FCL_initADC_3In||:
    3090              ;* AR4   assigned to pMotor
    3091              $C$DW$185       .dwtag  DW_TAG_variable
    3092                      .dwattr $C$DW$185, DW_AT_name("pMotor")
    3093                      .dwattr $C$DW$185, DW_AT_type(*$C$DW$T$140)
TMS320C2000 Assembler PC v22.6.2 Wed Dec 10 14:45:02 2025

Copyright (c) 1996-2018 Texas Instruments Incorporated
fcl_foc_cpu_dm.asm                                                   PAGE   61

    3094                      .dwattr $C$DW$185, DW_AT_location[DW_OP_reg12]
    3095              
    3096              ;* AR6   assigned to adcResultBaseU
    3097              $C$DW$186       .dwtag  DW_TAG_variable
    3098                      .dwattr $C$DW$186, DW_AT_name("adcResultBaseU")
    3099                      .dwattr $C$DW$186, DW_AT_type(*$C$DW$T$145)
    3100                      .dwattr $C$DW$186, DW_AT_location[DW_OP_reg16]
    3101              
    3102              ;* AR5   assigned to adcU_PPBNum
    3103              $C$DW$187       .dwtag  DW_TAG_variable
    3104                      .dwattr $C$DW$187, DW_AT_name("adcU_PPBNum")
    3105                      .dwattr $C$DW$187, DW_AT_type(*$C$DW$T$118)
    3106                      .dwattr $C$DW$187, DW_AT_location[DW_OP_reg14]
    3107              
    3108              ;* AR3   assigned to adcResultBaseV
    3109              $C$DW$188       .dwtag  DW_TAG_variable
    3110                      .dwattr $C$DW$188, DW_AT_name("adcResultBaseV")
    3111                      .dwattr $C$DW$188, DW_AT_type(*$C$DW$T$145)
    3112                      .dwattr $C$DW$188, DW_AT_location[DW_OP_reg10]
    3113              
    3114              ;* PL    assigned to adcV_PPBNum
    3115              $C$DW$189       .dwtag  DW_TAG_variable
    3116                      .dwattr $C$DW$189, DW_AT_name("adcV_PPBNum")
    3117                      .dwattr $C$DW$189, DW_AT_type(*$C$DW$T$119)
    3118                      .dwattr $C$DW$189, DW_AT_location[DW_OP_reg2]
    3119              
    3120              ;* XT    assigned to adcResultBaseW
    3121              $C$DW$190       .dwtag  DW_TAG_variable
    3122                      .dwattr $C$DW$190, DW_AT_name("adcResultBaseW")
    3123                      .dwattr $C$DW$190, DW_AT_type(*$C$DW$T$145)
    3124                      .dwattr $C$DW$190, DW_AT_location[DW_OP_reg21]
    3125              
    3126              ;* AR7   assigned to adcW_PPBNum
    3127              $C$DW$191       .dwtag  DW_TAG_variable
    3128                      .dwattr $C$DW$191, DW_AT_name("adcW_PPBNum")
    3129                      .dwattr $C$DW$191, DW_AT_type(*$C$DW$T$120)
    3130                      .dwattr $C$DW$191, DW_AT_location[DW_OP_reg18]
    3131              
    3132                      .dwcfi  cfa_offset, -2
    3133                      .dwcfi  save_reg_to_mem, 26, 0
    3134 00000000 B2BD          MOVL      *SP++,XAR1            ; [CPU_ALU] 
    3135                      .dwcfi  save_reg_to_mem, 7, 2
    3136                      .dwcfi  cfa_offset, -4
    3137 00000001 A2BD          MOVL      *SP++,XAR3            ; [CPU_ALU] 
    3138                      .dwcfi  save_reg_to_mem, 11, 4
    3139                      .dwcfi  cfa_offset, -6
    3140 00000002 FE02          ADDB      SP,#2                 ; [CPU_ARAU] 
    3141                      .dwcfi  cfa_offset, -8
    3142 00000003 1E42          MOVL      *-SP[2],ACC           ; [CPU_ALU] |67| 
    3143                      .dwpsn  file "../sources/fcl_foc_cpu_dm.c",line 77,column 5,is_stmt,isa 0
    3144 00000004 8D40          MOVL      XAR1,#398             ; [CPU_ALU] |77| 
         00000005 018E 
    3145                      .dwpsn  file "../sources/fcl_foc_cpu_dm.c",line 67,column 1,is_stmt,isa 0
    3146 00000006 C44A          MOVL      XAR6,*-SP[10]         ; [CPU_ALU] |67| 
    3147                      .dwpsn  file "../sources/fcl_foc_cpu_dm.c",line 77,column 5,is_stmt,isa 0
TMS320C2000 Assembler PC v22.6.2 Wed Dec 10 14:45:02 2025

Copyright (c) 1996-2018 Texas Instruments Incorporated
fcl_foc_cpu_dm.asm                                                   PAGE   62

    3148 00000007 9A08          MOVB      AL,#8                 ; [CPU_ALU] |77| 
    3149                      .dwpsn  file "../sources/fcl_foc_cpu_dm.c",line 67,column 1,is_stmt,isa 0
    3150 00000008 8051          MOVZ      AR7,*-SP[17]          ; [CPU_ALU] |67| 
    3151 00000009 8750          MOVL      XT,*-SP[16]           ; [CPU_ALU] |67| 
    3152 0000000a 824C          MOVL      XAR3,*-SP[12]         ; [CPU_ALU] |67| 
    3153                      .dwpsn  file "../sources/fcl_foc_cpu_dm.c",line 78,column 5,is_stmt,isa 0
    3154 0000000b 8D00          MOVL      XAR0,#400             ; [CPU_ALU] |78| 
         0000000c 0190 
    3155                      .dwpsn  file "../sources/fcl_foc_cpu_dm.c",line 77,column 5,is_stmt,isa 0
    3156 0000000d 94A5          ADD       AL,AR5                ; [CPU_ALU] |77| 
    3157 0000000e 5603          MOV       ACC,AL << #1          ; [CPU_ALU] |77| 
         0000000f 01A9 
    3158 00000010 27A9          MOV       PL,AL                 ; [CPU_ALU] |77| 
    3159 00000011 06A6          MOVL      ACC,XAR6              ; [CPU_ALU] |77| 
    3160 00000012 0DAB          ADDU      ACC,PL                ; [CPU_ALU] |77| 
    3161                      .dwpsn  file "../sources/fcl_foc_cpu_dm.c",line 67,column 1,is_stmt,isa 0
    3162 00000013 274D          MOV       PL,*-SP[13]           ; [CPU_ALU] |67| 
    3163                      .dwpsn  file "../sources/fcl_foc_cpu_dm.c",line 77,column 5,is_stmt,isa 0
    3164 00000014 1E9C          MOVL      *+XAR4[AR1],ACC       ; [CPU_ALU] |77| 
    3165                      .dwpsn  file "../sources/fcl_foc_cpu_dm.c",line 78,column 5,is_stmt,isa 0
    3166 00000015 9A08          MOVB      AL,#8                 ; [CPU_ALU] |78| 
    3167 00000016 94AB          ADD       AL,PL                 ; [CPU_ALU] |78| 
    3168                      .dwpsn  file "../sources/fcl_foc_cpu_dm.c",line 85,column 5,is_stmt,isa 0
    3169 00000017 8D40          MOVL      XAR1,#424             ; [CPU_ALU] |85| 
         00000018 01A8 
    3170                      .dwpsn  file "../sources/fcl_foc_cpu_dm.c",line 78,column 5,is_stmt,isa 0
    3171 00000019 5603          MOV       ACC,AL << #1          ; [CPU_ALU] |78| 
         0000001a 01A9 
    3172 0000001b 2FA9          MOV       PH,AL                 ; [CPU_ALU] |78| 
    3173 0000001c A2A9          MOVL      ACC,XAR3              ; [CPU_ALU] |78| 
    3174 0000001d 0DAA          ADDU      ACC,PH                ; [CPU_ALU] |78| 
    3175 0000001e 1E94          MOVL      *+XAR4[AR0],ACC       ; [CPU_ALU] |78| 
    3176                      .dwpsn  file "../sources/fcl_foc_cpu_dm.c",line 79,column 5,is_stmt,isa 0
    3177 0000001f 9A08          MOVB      AL,#8                 ; [CPU_ALU] |79| 
    3178                      .dwpsn  file "../sources/fcl_foc_cpu_dm.c",line 81,column 5,is_stmt,isa 0
    3179 00000020 8D00          MOVL      XAR0,#410             ; [CPU_ALU] |81| 
         00000021 019A 
    3180                      .dwpsn  file "../sources/fcl_foc_cpu_dm.c",line 79,column 5,is_stmt,isa 0
    3181 00000022 94A7          ADD       AL,AR7                ; [CPU_ALU] |79| 
    3182                      .dwpsn  file "../sources/fcl_foc_cpu_dm.c",line 81,column 5,is_stmt,isa 0
    3183 00000023 C294          MOVL      *+XAR4[AR0],XAR6      ; [CPU_ALU] |81| 
    3184                      .dwpsn  file "../sources/fcl_foc_cpu_dm.c",line 79,column 5,is_stmt,isa 0
    3185 00000024 5603          MOV       ACC,AL << #1          ; [CPU_ALU] |79| 
         00000025 01A9 
    3186                      .dwpsn  file "../sources/fcl_foc_cpu_dm.c",line 82,column 5,is_stmt,isa 0
    3187 00000026 8D00          MOVL      XAR0,#412             ; [CPU_ALU] |82| 
         00000027 019C 
    3188                      .dwpsn  file "../sources/fcl_foc_cpu_dm.c",line 79,column 5,is_stmt,isa 0
    3189 00000028 C442          MOVL      XAR6,*-SP[2]          ; [CPU_ALU] |79| 
    3190                      .dwpsn  file "../sources/fcl_foc_cpu_dm.c",line 85,column 5,is_stmt,isa 0
    3191 00000029 7D9C          MOV       *+XAR4[AR1],AR5       ; [CPU_ALU] |85| 
    3192                      .dwpsn  file "../sources/fcl_foc_cpu_dm.c",line 82,column 5,is_stmt,isa 0
    3193 0000002a A294          MOVL      *+XAR4[AR0],XAR3      ; [CPU_ALU] |82| 
    3194                      .dwpsn  file "../sources/fcl_foc_cpu_dm.c",line 83,column 5,is_stmt,isa 0
    3195 0000002b 8D00          MOVL      XAR0,#414             ; [CPU_ALU] |83| 
TMS320C2000 Assembler PC v22.6.2 Wed Dec 10 14:45:02 2025

Copyright (c) 1996-2018 Texas Instruments Incorporated
fcl_foc_cpu_dm.asm                                                   PAGE   63

         0000002c 019E 
    3196                      .dwpsn  file "../sources/fcl_foc_cpu_dm.c",line 89,column 5,is_stmt,isa 0
    3197 0000002d DE03          ADDB      XAR6,#3               ; [CPU_ALU] |89| 
    3198                      .dwpsn  file "../sources/fcl_foc_cpu_dm.c",line 83,column 5,is_stmt,isa 0
    3199 0000002e AB94          MOVL      *+XAR4[AR0],XT        ; [CPU_ALU] |83| 
    3200                      .dwpsn  file "../sources/fcl_foc_cpu_dm.c",line 86,column 5,is_stmt,isa 0
    3201 0000002f 8D00          MOVL      XAR0,#425             ; [CPU_ALU] |86| 
         00000030 01A9 
    3202 00000031 FE82          SUBB      SP,#2                 ; [CPU_ARAU] 
    3203                      .dwcfi  cfa_offset, -6
    3204 00000032 3F94          MOV       *+XAR4[AR0],P         ; [CPU_ALU] |86| 
    3205                      .dwpsn  file "../sources/fcl_foc_cpu_dm.c",line 87,column 5,is_stmt,isa 0
    3206 00000033 8D00          MOVL      XAR0,#426             ; [CPU_ALU] |87| 
         00000034 01AA 
    3207 00000035 7F94          MOV       *+XAR4[AR0],AR7       ; [CPU_ALU] |87| 
    3208                      .dwpsn  file "../sources/fcl_foc_cpu_dm.c",line 89,column 5,is_stmt,isa 0
    3209 00000036 8D00          MOVL      XAR0,#406             ; [CPU_ALU] |89| 
         00000037 0196 
    3210                      .dwpsn  file "../sources/fcl_foc_cpu_dm.c",line 79,column 5,is_stmt,isa 0
    3211 00000038 80A9          MOVZ      AR7,AL                ; [CPU_ALU] |79| 
    3212 00000039 ABA9          MOVL      ACC,XT                ; [CPU_ALU] |79| 
    3213                      .dwpsn  file "../sources/fcl_foc_cpu_dm.c",line 89,column 5,is_stmt,isa 0
    3214 0000003a C294          MOVL      *+XAR4[AR0],XAR6      ; [CPU_ALU] |89| 
    3215                      .dwpsn  file "../sources/fcl_foc_cpu_dm.c",line 79,column 5,is_stmt,isa 0
    3216 0000003b 8D00          MOVL      XAR0,#402             ; [CPU_ALU] |79| 
         0000003c 0192 
    3217 0000003d 0DA7          ADDU      ACC,AR7               ; [CPU_ALU] |79| 
    3218 0000003e 1E94          MOVL      *+XAR4[AR0],ACC       ; [CPU_ALU] |79| 
    3219 0000003f 82BE          MOVL      XAR3,*--SP            ; [CPU_ALU] 
    3220                      .dwcfi  cfa_offset, -4
    3221                      .dwcfi  restore_reg, 11
    3222 00000040 8BBE          MOVL      XAR1,*--SP            ; [CPU_ALU] 
    3223                      .dwcfi  cfa_offset, -2
    3224                      .dwcfi  restore_reg, 7
    3225              $C$DW$192       .dwtag  DW_TAG_TI_branch
    3226                      .dwattr $C$DW$192, DW_AT_low_pc(0x00)
    3227                      .dwattr $C$DW$192, DW_AT_TI_return
    3228              
    3229 00000041 0006          LRETR     ; [CPU_ALU] 
    3230                      ; return occurs ; [] 
    3231                      .dwattr $C$DW$176, DW_AT_TI_end_file("../sources/fcl_foc_cpu_dm.c")
    3232                      .dwattr $C$DW$176, DW_AT_TI_end_line(0x5c)
    3233                      .dwattr $C$DW$176, DW_AT_TI_end_column(0x01)
    3234                      .dwendentry
    3235                      .dwendtag $C$DW$176
    3236              
    3237 00000000               .sect   ".text:FCL_initADC_2In"
    3238                      .clink
    3239                      .global ||FCL_initADC_2In||
    3240              
    3241              $C$DW$193       .dwtag  DW_TAG_subprogram
    3242                      .dwattr $C$DW$193, DW_AT_name("FCL_initADC_2In")
    3243                      .dwattr $C$DW$193, DW_AT_low_pc(||FCL_initADC_2In||)
    3244                      .dwattr $C$DW$193, DW_AT_high_pc(0x00)
    3245                      .dwattr $C$DW$193, DW_AT_linkage_name("FCL_initADC_2In")
TMS320C2000 Assembler PC v22.6.2 Wed Dec 10 14:45:02 2025

Copyright (c) 1996-2018 Texas Instruments Incorporated
fcl_foc_cpu_dm.asm                                                   PAGE   64

    3246                      .dwattr $C$DW$193, DW_AT_external
    3247                      .dwattr $C$DW$193, DW_AT_decl_file("../sources/fcl_foc_cpu_dm.c")
    3248                      .dwattr $C$DW$193, DW_AT_decl_line(0x21)
    3249                      .dwattr $C$DW$193, DW_AT_decl_column(0x06)
    3250                      .dwattr $C$DW$193, DW_AT_TI_max_frame_size(-4)
    3251                      .dwpsn  file "../sources/fcl_foc_cpu_dm.c",line 36,column 1,is_stmt,address ||FCL_initADC_2In||,isa 0
    3252              
    3253                      .dwfde $C$DW$CIE, ||FCL_initADC_2In||
    3254              $C$DW$194       .dwtag  DW_TAG_formal_parameter
    3255                      .dwattr $C$DW$194, DW_AT_name("pMotor")
    3256                      .dwattr $C$DW$194, DW_AT_type(*$C$DW$T$139)
    3257                      .dwattr $C$DW$194, DW_AT_location[DW_OP_reg12]
    3258              
    3259              $C$DW$195       .dwtag  DW_TAG_formal_parameter
    3260                      .dwattr $C$DW$195, DW_AT_name("adcBaseW")
    3261                      .dwattr $C$DW$195, DW_AT_type(*$C$DW$T$24)
    3262                      .dwattr $C$DW$195, DW_AT_location[DW_OP_reg0]
    3263              
    3264              $C$DW$196       .dwtag  DW_TAG_formal_parameter
    3265                      .dwattr $C$DW$196, DW_AT_name("adcResultBaseV")
    3266                      .dwattr $C$DW$196, DW_AT_type(*$C$DW$T$24)
    3267                      .dwattr $C$DW$196, DW_AT_location[DW_OP_breg20 -6]
    3268              
    3269              $C$DW$197       .dwtag  DW_TAG_formal_parameter
    3270                      .dwattr $C$DW$197, DW_AT_name("adcV_PPBNum")
    3271                      .dwattr $C$DW$197, DW_AT_type(*$C$DW$T$102)
    3272                      .dwattr $C$DW$197, DW_AT_location[DW_OP_reg14]
    3273              
    3274              $C$DW$198       .dwtag  DW_TAG_formal_parameter
    3275                      .dwattr $C$DW$198, DW_AT_name("adcResultBaseW")
    3276                      .dwattr $C$DW$198, DW_AT_type(*$C$DW$T$24)
    3277                      .dwattr $C$DW$198, DW_AT_location[DW_OP_breg20 -8]
    3278              
    3279              $C$DW$199       .dwtag  DW_TAG_formal_parameter
    3280                      .dwattr $C$DW$199, DW_AT_name("adcW_PPBNum")
    3281                      .dwattr $C$DW$199, DW_AT_type(*$C$DW$T$102)
    3282                      .dwattr $C$DW$199, DW_AT_location[DW_OP_breg20 -9]
    3283              
    3284              
    3285              ;***************************************************************
    3286              ;* FNAME: FCL_initADC_2In               FR SIZE:   2           *
    3287              ;*                                                             *
    3288              ;* FUNCTION ENVIRONMENT                                        *
    3289              ;*                                                             *
    3290              ;* FUNCTION PROPERTIES                                         *
    3291              ;*                            0 Parameter,  0 Auto,  2 SOE     *
    3292              ;***************************************************************
    3293              
    3294              ||FCL_initADC_2In||:
    3295              ;* AR4   assigned to pMotor
    3296              $C$DW$200       .dwtag  DW_TAG_variable
    3297                      .dwattr $C$DW$200, DW_AT_name("pMotor")
    3298                      .dwattr $C$DW$200, DW_AT_type(*$C$DW$T$140)
    3299                      .dwattr $C$DW$200, DW_AT_location[DW_OP_reg12]
    3300              
TMS320C2000 Assembler PC v22.6.2 Wed Dec 10 14:45:02 2025

Copyright (c) 1996-2018 Texas Instruments Incorporated
fcl_foc_cpu_dm.asm                                                   PAGE   65

    3301              ;* AR6   assigned to adcBaseW
    3302              $C$DW$201       .dwtag  DW_TAG_variable
    3303                      .dwattr $C$DW$201, DW_AT_name("adcBaseW")
    3304                      .dwattr $C$DW$201, DW_AT_type(*$C$DW$T$145)
    3305                      .dwattr $C$DW$201, DW_AT_location[DW_OP_reg16]
    3306              
    3307              ;* PL    assigned to adcResultBaseV
    3308              $C$DW$202       .dwtag  DW_TAG_variable
    3309                      .dwattr $C$DW$202, DW_AT_name("adcResultBaseV")
    3310                      .dwattr $C$DW$202, DW_AT_type(*$C$DW$T$145)
    3311                      .dwattr $C$DW$202, DW_AT_location[DW_OP_reg2]
    3312              
    3313              ;* AR5   assigned to adcV_PPBNum
    3314              $C$DW$203       .dwtag  DW_TAG_variable
    3315                      .dwattr $C$DW$203, DW_AT_name("adcV_PPBNum")
    3316                      .dwattr $C$DW$203, DW_AT_type(*$C$DW$T$121)
    3317                      .dwattr $C$DW$203, DW_AT_location[DW_OP_reg14]
    3318              
    3319              ;* XT    assigned to adcResultBaseW
    3320              $C$DW$204       .dwtag  DW_TAG_variable
    3321                      .dwattr $C$DW$204, DW_AT_name("adcResultBaseW")
    3322                      .dwattr $C$DW$204, DW_AT_type(*$C$DW$T$145)
    3323                      .dwattr $C$DW$204, DW_AT_location[DW_OP_reg21]
    3324              
    3325              ;* AR7   assigned to adcW_PPBNum
    3326              $C$DW$205       .dwtag  DW_TAG_variable
    3327                      .dwattr $C$DW$205, DW_AT_name("adcW_PPBNum")
    3328                      .dwattr $C$DW$205, DW_AT_type(*$C$DW$T$122)
    3329                      .dwattr $C$DW$205, DW_AT_location[DW_OP_reg18]
    3330              
    3331                      .dwcfi  cfa_offset, -2
    3332                      .dwcfi  save_reg_to_mem, 26, 0
    3333 00000000 1EA6          MOVL      XAR6,ACC              ; [CPU_ALU] |36| 
    3334 00000001 B2BD          MOVL      *SP++,XAR1            ; [CPU_ALU] 
    3335                      .dwcfi  save_reg_to_mem, 7, 2
    3336                      .dwcfi  cfa_offset, -4
    3337                      .dwpsn  file "../sources/fcl_foc_cpu_dm.c",line 46,column 5,is_stmt,isa 0
    3338 00000002 9A08          MOVB      AL,#8                 ; [CPU_ALU] |46| 
    3339 00000003 94A5          ADD       AL,AR5                ; [CPU_ALU] |46| 
    3340                      .dwpsn  file "../sources/fcl_foc_cpu_dm.c",line 36,column 1,is_stmt,isa 0
    3341 00000004 A346          MOVL      P,*-SP[6]             ; [CPU_FPU] |36| 
