TMS320C2000 Assembler PC v22.6.2 Wed Dec 10 14:45:02 2025

Copyright (c) 1996-2018 Texas Instruments Incorporated
fcl_foc_cpu_dm.asm                                                   PAGE    1

       1              ;***************************************************************
       2              ;* TMS320C2000 G3 C/C++ Codegen                               PC v22.6.2.LTS *
       3              ;* Date/Time created: Wed Dec 10 14:45:01 2025                 *
       4              ;***************************************************************
       5                      .compiler_opts --abi=eabi --diag_wrap=off --float_support=fpu32 --hll_source=on --idiv_support=idiv0 
       6                      .asg    XAR2, FP
       7              
       8              $C$DW$CU        .dwtag  DW_TAG_compile_unit
       9                      .dwattr $C$DW$CU, DW_AT_name("../sources/fcl_foc_cpu_dm.c")
      10                      .dwattr $C$DW$CU, DW_AT_producer("TI TMS320C2000 G3 C/C++ Codegen PC v22.6.2.LTS Copyright (c) 1996-2
      11                      .dwattr $C$DW$CU, DW_AT_TI_version(0x01)
      12                      .dwattr $C$DW$CU, DW_AT_comp_dir("C:\Users\Teddy\Documents\GitHub\2512_TI_DSP_BLDC_MotorControlSDK\1.
      13              ;       C:\ti\ccs2031\ccs\tools\compiler\ti-cgt-c2000_22.6.2.LTS\bin\opt2000.exe C:\\Users\\Teddy\\AppData\\L
      14              ;       C:\ti\ccs2031\ccs\tools\compiler\ti-cgt-c2000_22.6.2.LTS\bin\acia2000.exe -@C:\\Users\\Teddy\\AppData
      15 00000000               .sect   ".text:__signbitl"
      16                      .clink
      17                      .global ||__signbitl||
      18              
      19              $C$DW$1 .dwtag  DW_TAG_subprogram
      20                      .dwattr $C$DW$1, DW_AT_name("__signbitl")
      21                      .dwattr $C$DW$1, DW_AT_low_pc(||__signbitl||)
      22                      .dwattr $C$DW$1, DW_AT_high_pc(0x00)
      23                      .dwattr $C$DW$1, DW_AT_linkage_name("__signbitl")
      24                      .dwattr $C$DW$1, DW_AT_external
      25                      .dwattr $C$DW$1, DW_AT_type(*$C$DW$T$10)
      26                      .dwattr $C$DW$1, DW_AT_decl_file("C:/ti/ccs2031/ccs/tools/compiler/ti-cgt-c2000_22.6.2.LTS/include/_d
      27                      .dwattr $C$DW$1, DW_AT_decl_line(0x16f)
      28                      .dwattr $C$DW$1, DW_AT_decl_column(0x18)
      29                      .dwattr $C$DW$1, DW_AT_TI_max_frame_size(-6)
      30                      .dwpsn  file "C:/ti/ccs2031/ccs/tools/compiler/ti-cgt-c2000_22.6.2.LTS/include/_defs.h",line 368,colu
      31              
      32                      .dwfde $C$DW$CIE, ||__signbitl||
      33              $C$DW$2 .dwtag  DW_TAG_formal_parameter
      34                      .dwattr $C$DW$2, DW_AT_name("e")
      35                      .dwattr $C$DW$2, DW_AT_type(*$C$DW$T$171)
      36                      .dwattr $C$DW$2, DW_AT_location[DW_OP_reg12]
      37              
      38              
      39              ;***************************************************************
      40              ;* FNAME: __signbitl                    FR SIZE:   4           *
      41              ;*                                                             *
      42              ;* FUNCTION ENVIRONMENT                                        *
      43              ;*                                                             *
      44              ;* FUNCTION PROPERTIES                                         *
      45              ;*                            4 Parameter,  0 Auto,  0 SOE     *
      46              ;***************************************************************
      47              
      48              ||__signbitl||:
      49              ;* AR4   assigned to e
      50              $C$DW$3 .dwtag  DW_TAG_variable
      51                      .dwattr $C$DW$3, DW_AT_name("e")
      52                      .dwattr $C$DW$3, DW_AT_type(*$C$DW$T$172)
      53                      .dwattr $C$DW$3, DW_AT_location[DW_OP_reg12]
      54              
      55                      .dwcfi  cfa_offset, -2
TMS320C2000 Assembler PC v22.6.2 Wed Dec 10 14:45:02 2025

Copyright (c) 1996-2018 Texas Instruments Incorporated
fcl_foc_cpu_dm.asm                                                   PAGE    2

      56                      .dwcfi  save_reg_to_mem, 26, 0
      57 00000000 FE04          ADDB      SP,#4                 ; [CPU_ARAU] 
      58                      .dwcfi  cfa_offset, -6
      59                      .dwpsn  file "C:/ti/ccs2031/ccs/tools/compiler/ti-cgt-c2000_22.6.2.LTS/include/_defs.h",line 368,colu
      60 00000001 0200          MOVB      ACC,#0                ; [CPU_ALU] |368| 
      61 00000002 1E44          MOVL      *-SP[4],ACC           ; [CPU_ALU] |368| 
      62 00000003 2B42          MOV       *-SP[2],#0            ; [CPU_ALU] |368| 
      63 00000004 2B41          MOV       *-SP[1],#0            ; [CPU_ALU] |368| 
      64 00000005 A3C4          MOVL      P,*+XAR4[0]           ; [CPU_ALU] |368| 
      65 00000006 06D4          MOVL      ACC,*+XAR4[2]         ; [CPU_ALU] |368| 
      66 00000007 18AB          AND       PL,#0                 ; [CPU_ALU] |368| 
         00000008 0000 
      67 00000009 18AA          AND       PH,#0                 ; [CPU_ALU] |368| 
         0000000a 0000 
      68 0000000b 9000          ANDB      AL,#0                 ; [CPU_ALU] |368| 
      69 0000000c 18A8          AND       AH,#32768             ; [CPU_ALU] |368| 
         0000000d 8000 
      70              $C$DW$4 .dwtag  DW_TAG_TI_branch
      71                      .dwattr $C$DW$4, DW_AT_low_pc(0x00)
      72                      .dwattr $C$DW$4, DW_AT_name("__c28xabi_cmpull")
      73                      .dwattr $C$DW$4, DW_AT_TI_call
      74              
      75 0000000e 7640!         LCR       #||__c28xabi_cmpull|| ; [CPU_ALU] |368| 
         0000000f 0000 
      76                      ; call occurs [#||__c28xabi_cmpull||] ; [] |368| 
      77 00000010 9B00          MOVB      AH,#0                 ; [CPU_ALU] |368| 
      78 00000011 5200          CMPB      AL,#0                 ; [CPU_ALU] |368| 
      79 00000012 56B0          MOVB      AH,#1,NEQ             ; [CPU_ALU] |368| 
         00000013 01A8 
      80 00000014 92A8          MOV       AL,AH                 ; [CPU_ALU] |368| 
      81 00000015 FE84          SUBB      SP,#4                 ; [CPU_ARAU] 
      82                      .dwcfi  cfa_offset, -2
      83              $C$DW$5 .dwtag  DW_TAG_TI_branch
      84                      .dwattr $C$DW$5, DW_AT_low_pc(0x00)
      85                      .dwattr $C$DW$5, DW_AT_TI_return
      86              
      87 00000016 0006          LRETR     ; [CPU_ALU] 
      88                      ; return occurs ; [] 
      89                      .dwattr $C$DW$1, DW_AT_TI_end_file("C:/ti/ccs2031/ccs/tools/compiler/ti-cgt-c2000_22.6.2.LTS/include/
      90                      .dwattr $C$DW$1, DW_AT_TI_end_line(0x170)
      91                      .dwattr $C$DW$1, DW_AT_TI_end_column(0x2b)
      92                      .dwendentry
      93                      .dwendtag $C$DW$1
      94              
      95 00000000               .sect   ".text:__signbitf"
      96                      .clink
      97                      .global ||__signbitf||
      98              
      99              $C$DW$6 .dwtag  DW_TAG_subprogram
     100                      .dwattr $C$DW$6, DW_AT_name("__signbitf")
     101                      .dwattr $C$DW$6, DW_AT_low_pc(||__signbitf||)
     102                      .dwattr $C$DW$6, DW_AT_high_pc(0x00)
     103                      .dwattr $C$DW$6, DW_AT_linkage_name("__signbitf")
     104                      .dwattr $C$DW$6, DW_AT_external
     105                      .dwattr $C$DW$6, DW_AT_type(*$C$DW$T$10)
TMS320C2000 Assembler PC v22.6.2 Wed Dec 10 14:45:02 2025

Copyright (c) 1996-2018 Texas Instruments Incorporated
fcl_foc_cpu_dm.asm                                                   PAGE    3

     106                      .dwattr $C$DW$6, DW_AT_decl_file("C:/ti/ccs2031/ccs/tools/compiler/ti-cgt-c2000_22.6.2.LTS/include/_d
     107                      .dwattr $C$DW$6, DW_AT_decl_line(0x16d)
     108                      .dwattr $C$DW$6, DW_AT_decl_column(0x18)
     109                      .dwattr $C$DW$6, DW_AT_TI_max_frame_size(-2)
     110                      .dwpsn  file "C:/ti/ccs2031/ccs/tools/compiler/ti-cgt-c2000_22.6.2.LTS/include/_defs.h",line 366,colu
     111              
     112                      .dwfde $C$DW$CIE, ||__signbitf||
     113              $C$DW$7 .dwtag  DW_TAG_formal_parameter
     114                      .dwattr $C$DW$7, DW_AT_name("f")
     115                      .dwattr $C$DW$7, DW_AT_type(*$C$DW$T$16)
     116                      .dwattr $C$DW$7, DW_AT_location[DW_OP_regx 0x2b]
     117              
     118              
     119              ;***************************************************************
     120              ;* FNAME: __signbitf                    FR SIZE:   0           *
     121              ;*                                                             *
     122              ;* FUNCTION ENVIRONMENT                                        *
     123              ;*                                                             *
     124              ;* FUNCTION PROPERTIES                                         *
     125              ;*                            0 Parameter,  0 Auto,  0 SOE     *
     126              ;***************************************************************
     127              
     128              ||__signbitf||:
     129              ;* R0    assigned to f
     130              $C$DW$8 .dwtag  DW_TAG_variable
     131                      .dwattr $C$DW$8, DW_AT_name("f")
     132                      .dwattr $C$DW$8, DW_AT_type(*$C$DW$T$167)
     133                      .dwattr $C$DW$8, DW_AT_location[DW_OP_regx 0x2b]
     134              
     135                      .dwcfi  cfa_offset, -2
     136                      .dwcfi  save_reg_to_mem, 26, 0
     137                      .dwpsn  file "C:/ti/ccs2031/ccs/tools/compiler/ti-cgt-c2000_22.6.2.LTS/include/_defs.h",line 366,colu
     138 00000000 BFA9          MOV32     ACC,R0H               ; [CPU_FPU] |366| 
         00000001 0F12 
     139 00000002 BE00          MOVB      XAR6,#0               ; [CPU_ALU] |366| 
     140 00000003 9000          ANDB      AL,#0                 ; [CPU_ALU] |366| 
     141 00000004 18A8          AND       AH,#32768             ; [CPU_ALU] |366| 
         00000005 8000 
     142 00000006 FF58          TEST      ACC                   ; [CPU_ALU] |366| 
     143 00000007 56B0          MOVB      XAR6,#1,NEQ           ; [CPU_ALU] |366| 
         00000008 01A6 
     144 00000009 92A6          MOV       AL,AR6                ; [CPU_ALU] |366| 
     145              $C$DW$9 .dwtag  DW_TAG_TI_branch
     146                      .dwattr $C$DW$9, DW_AT_low_pc(0x00)
     147                      .dwattr $C$DW$9, DW_AT_TI_return
     148              
     149 0000000a 0006          LRETR     ; [CPU_ALU] 
     150                      ; return occurs ; [] 
     151                      .dwattr $C$DW$6, DW_AT_TI_end_file("C:/ti/ccs2031/ccs/tools/compiler/ti-cgt-c2000_22.6.2.LTS/include/
     152                      .dwattr $C$DW$6, DW_AT_TI_end_line(0x16e)
     153                      .dwattr $C$DW$6, DW_AT_TI_end_column(0x29)
     154                      .dwendentry
     155                      .dwendtag $C$DW$6
     156              
     157 00000000               .sect   ".text:__signbit"
TMS320C2000 Assembler PC v22.6.2 Wed Dec 10 14:45:02 2025

Copyright (c) 1996-2018 Texas Instruments Incorporated
fcl_foc_cpu_dm.asm                                                   PAGE    4

     158                      .clink
     159                      .global ||__signbit||
     160              
     161              $C$DW$10        .dwtag  DW_TAG_subprogram
     162                      .dwattr $C$DW$10, DW_AT_name("__signbit")
     163                      .dwattr $C$DW$10, DW_AT_low_pc(||__signbit||)
     164                      .dwattr $C$DW$10, DW_AT_high_pc(0x00)
     165                      .dwattr $C$DW$10, DW_AT_linkage_name("__signbit")
     166                      .dwattr $C$DW$10, DW_AT_external
     167                      .dwattr $C$DW$10, DW_AT_type(*$C$DW$T$10)
     168                      .dwattr $C$DW$10, DW_AT_decl_file("C:/ti/ccs2031/ccs/tools/compiler/ti-cgt-c2000_22.6.2.LTS/include/_
     169                      .dwattr $C$DW$10, DW_AT_decl_line(0x16b)
     170                      .dwattr $C$DW$10, DW_AT_decl_column(0x18)
     171                      .dwattr $C$DW$10, DW_AT_TI_max_frame_size(-6)
     172                      .dwpsn  file "C:/ti/ccs2031/ccs/tools/compiler/ti-cgt-c2000_22.6.2.LTS/include/_defs.h",line 364,colu
     173              
     174                      .dwfde $C$DW$CIE, ||__signbit||
     175              $C$DW$11        .dwtag  DW_TAG_formal_parameter
     176                      .dwattr $C$DW$11, DW_AT_name("d")
     177                      .dwattr $C$DW$11, DW_AT_type(*$C$DW$T$168)
     178                      .dwattr $C$DW$11, DW_AT_location[DW_OP_reg12]
     179              
     180              
     181              ;***************************************************************
     182              ;* FNAME: __signbit                     FR SIZE:   4           *
     183              ;*                                                             *
     184              ;* FUNCTION ENVIRONMENT                                        *
     185              ;*                                                             *
     186              ;* FUNCTION PROPERTIES                                         *
     187              ;*                            4 Parameter,  0 Auto,  0 SOE     *
     188              ;***************************************************************
     189              
     190              ||__signbit||:
     191              ;* AR4   assigned to d
     192              $C$DW$12        .dwtag  DW_TAG_variable
     193                      .dwattr $C$DW$12, DW_AT_name("d")
     194                      .dwattr $C$DW$12, DW_AT_type(*$C$DW$T$169)
     195                      .dwattr $C$DW$12, DW_AT_location[DW_OP_reg12]
     196              
     197                      .dwcfi  cfa_offset, -2
     198                      .dwcfi  save_reg_to_mem, 26, 0
     199 00000000 FE04          ADDB      SP,#4                 ; [CPU_ARAU] 
     200                      .dwcfi  cfa_offset, -6
     201                      .dwpsn  file "C:/ti/ccs2031/ccs/tools/compiler/ti-cgt-c2000_22.6.2.LTS/include/_defs.h",line 364,colu
     202 00000001 0200          MOVB      ACC,#0                ; [CPU_ALU] |364| 
     203 00000002 1E44          MOVL      *-SP[4],ACC           ; [CPU_ALU] |364| 
     204 00000003 2B42          MOV       *-SP[2],#0            ; [CPU_ALU] |364| 
     205 00000004 2B41          MOV       *-SP[1],#0            ; [CPU_ALU] |364| 
     206 00000005 A3C4          MOVL      P,*+XAR4[0]           ; [CPU_ALU] |364| 
     207 00000006 06D4          MOVL      ACC,*+XAR4[2]         ; [CPU_ALU] |364| 
     208 00000007 18AB          AND       PL,#0                 ; [CPU_ALU] |364| 
         00000008 0000 
     209 00000009 18AA          AND       PH,#0                 ; [CPU_ALU] |364| 
         0000000a 0000 
     210 0000000b 9000          ANDB      AL,#0                 ; [CPU_ALU] |364| 
TMS320C2000 Assembler PC v22.6.2 Wed Dec 10 14:45:02 2025

Copyright (c) 1996-2018 Texas Instruments Incorporated
fcl_foc_cpu_dm.asm                                                   PAGE    5

     211 0000000c 18A8          AND       AH,#32768             ; [CPU_ALU] |364| 
         0000000d 8000 
     212              $C$DW$13        .dwtag  DW_TAG_TI_branch
     213                      .dwattr $C$DW$13, DW_AT_low_pc(0x00)
     214                      .dwattr $C$DW$13, DW_AT_name("__c28xabi_cmpull")
     215                      .dwattr $C$DW$13, DW_AT_TI_call
     216              
     217 0000000e 7640!         LCR       #||__c28xabi_cmpull|| ; [CPU_ALU] |364| 
         0000000f 0000 
     218                      ; call occurs [#||__c28xabi_cmpull||] ; [] |364| 
     219 00000010 9B00          MOVB      AH,#0                 ; [CPU_ALU] |364| 
     220 00000011 5200          CMPB      AL,#0                 ; [CPU_ALU] |364| 
     221 00000012 56B0          MOVB      AH,#1,NEQ             ; [CPU_ALU] |364| 
         00000013 01A8 
     222 00000014 92A8          MOV       AL,AH                 ; [CPU_ALU] |364| 
     223 00000015 FE84          SUBB      SP,#4                 ; [CPU_ARAU] 
     224                      .dwcfi  cfa_offset, -2
     225              $C$DW$14        .dwtag  DW_TAG_TI_branch
     226                      .dwattr $C$DW$14, DW_AT_low_pc(0x00)
     227                      .dwattr $C$DW$14, DW_AT_TI_return
     228              
     229 00000016 0006          LRETR     ; [CPU_ALU] 
     230                      ; return occurs ; [] 
     231                      .dwattr $C$DW$10, DW_AT_TI_end_file("C:/ti/ccs2031/ccs/tools/compiler/ti-cgt-c2000_22.6.2.LTS/include
     232                      .dwattr $C$DW$10, DW_AT_TI_end_line(0x16c)
     233                      .dwattr $C$DW$10, DW_AT_TI_end_column(0x2a)
     234                      .dwendentry
     235                      .dwendtag $C$DW$10
     236              
     237 00000000               .sect   ".text:__relaxed_sqrtf"
     238                      .clink
     239                      .global ||__relaxed_sqrtf||
     240              
     241              $C$DW$15        .dwtag  DW_TAG_subprogram
     242                      .dwattr $C$DW$15, DW_AT_name("__relaxed_sqrtf")
     243                      .dwattr $C$DW$15, DW_AT_low_pc(||__relaxed_sqrtf||)
     244                      .dwattr $C$DW$15, DW_AT_high_pc(0x00)
     245                      .dwattr $C$DW$15, DW_AT_linkage_name("__relaxed_sqrtf")
     246                      .dwattr $C$DW$15, DW_AT_external
     247                      .dwattr $C$DW$15, DW_AT_type(*$C$DW$T$16)
     248                      .dwattr $C$DW$15, DW_AT_decl_file("C:/ti/ccs2031/ccs/tools/compiler/ti-cgt-c2000_22.6.2.LTS/include/m
     249                      .dwattr $C$DW$15, DW_AT_decl_line(0x103)
     250                      .dwattr $C$DW$15, DW_AT_decl_column(0x10)
     251                      .dwattr $C$DW$15, DW_AT_TI_max_frame_size(-2)
     252                      .dwpsn  file "C:/ti/ccs2031/ccs/tools/compiler/ti-cgt-c2000_22.6.2.LTS/include/math.h",line 260,colum
     253              
     254                      .dwfde $C$DW$CIE, ||__relaxed_sqrtf||
     255              $C$DW$16        .dwtag  DW_TAG_formal_parameter
     256                      .dwattr $C$DW$16, DW_AT_name("x")
     257                      .dwattr $C$DW$16, DW_AT_type(*$C$DW$T$16)
     258                      .dwattr $C$DW$16, DW_AT_location[DW_OP_regx 0x2b]
     259              
     260              
     261              ;***************************************************************
     262              ;* FNAME: __relaxed_sqrtf               FR SIZE:   0           *
TMS320C2000 Assembler PC v22.6.2 Wed Dec 10 14:45:02 2025

Copyright (c) 1996-2018 Texas Instruments Incorporated
fcl_foc_cpu_dm.asm                                                   PAGE    6

     263              ;*                                                             *
     264              ;* FUNCTION ENVIRONMENT                                        *
     265              ;*                                                             *
     266              ;* FUNCTION PROPERTIES                                         *
     267              ;*                            0 Parameter,  0 Auto,  0 SOE     *
     268              ;***************************************************************
     269              
     270              ||__relaxed_sqrtf||:
     271              ;* R0    assigned to x
     272              $C$DW$17        .dwtag  DW_TAG_variable
     273                      .dwattr $C$DW$17, DW_AT_name("x")
     274                      .dwattr $C$DW$17, DW_AT_type(*$C$DW$T$167)
     275                      .dwattr $C$DW$17, DW_AT_location[DW_OP_regx 0x2b]
     276              
     277                      .dwcfi  cfa_offset, -2
     278                      .dwcfi  save_reg_to_mem, 26, 0
     279                      .dwpsn  file "C:/ti/ccs2031/ccs/tools/compiler/ti-cgt-c2000_22.6.2.LTS/include/math.h",line 261,colum
     280 00000000 E277          SQRTF32   R0H,R0H               ; [CPU_FPU] |261| 
         00000001 0000 
     281 00000002 7700          NOP       ; [CPU_ALU] 
     282 00000003 7700          NOP       ; [CPU_ALU] 
     283 00000004 7700          NOP       ; [CPU_ALU] 
     284              $C$DW$18        .dwtag  DW_TAG_TI_branch
     285                      .dwattr $C$DW$18, DW_AT_low_pc(0x00)
     286                      .dwattr $C$DW$18, DW_AT_TI_return
     287              
     288 00000005 0006          LRETR     ; [CPU_ALU] 
     289                      ; return occurs ; [] 
     290                      .dwattr $C$DW$15, DW_AT_TI_end_file("C:/ti/ccs2031/ccs/tools/compiler/ti-cgt-c2000_22.6.2.LTS/include
     291                      .dwattr $C$DW$15, DW_AT_TI_end_line(0x106)
     292                      .dwattr $C$DW$15, DW_AT_TI_end_column(0x01)
     293                      .dwendentry
     294                      .dwendtag $C$DW$15
     295              
     296 00000000               .sect   ".text:__relaxed_sinf"
     297                      .clink
     298                      .global ||__relaxed_sinf||
     299              
     300              $C$DW$19        .dwtag  DW_TAG_subprogram
     301                      .dwattr $C$DW$19, DW_AT_name("__relaxed_sinf")
     302                      .dwattr $C$DW$19, DW_AT_low_pc(||__relaxed_sinf||)
     303                      .dwattr $C$DW$19, DW_AT_high_pc(0x00)
     304                      .dwattr $C$DW$19, DW_AT_linkage_name("__relaxed_sinf")
     305                      .dwattr $C$DW$19, DW_AT_external
     306                      .dwattr $C$DW$19, DW_AT_type(*$C$DW$T$16)
     307                      .dwattr $C$DW$19, DW_AT_decl_file("C:/ti/ccs2031/ccs/tools/compiler/ti-cgt-c2000_22.6.2.LTS/include/m
     308                      .dwattr $C$DW$19, DW_AT_decl_line(0x108)
     309                      .dwattr $C$DW$19, DW_AT_decl_column(0x10)
     310                      .dwattr $C$DW$19, DW_AT_TI_max_frame_size(-2)
     311                      .dwpsn  file "C:/ti/ccs2031/ccs/tools/compiler/ti-cgt-c2000_22.6.2.LTS/include/math.h",line 265,colum
     312              
     313                      .dwfde $C$DW$CIE, ||__relaxed_sinf||
     314              $C$DW$20        .dwtag  DW_TAG_formal_parameter
     315                      .dwattr $C$DW$20, DW_AT_name("x")
     316                      .dwattr $C$DW$20, DW_AT_type(*$C$DW$T$16)
TMS320C2000 Assembler PC v22.6.2 Wed Dec 10 14:45:02 2025

Copyright (c) 1996-2018 Texas Instruments Incorporated
fcl_foc_cpu_dm.asm                                                   PAGE    7

     317                      .dwattr $C$DW$20, DW_AT_location[DW_OP_regx 0x2b]
     318              
     319              
     320              ;***************************************************************
     321              ;* FNAME: __relaxed_sinf                FR SIZE:   0           *
     322              ;*                                                             *
     323              ;* FUNCTION ENVIRONMENT                                        *
     324              ;*                                                             *
     325              ;* FUNCTION PROPERTIES                                         *
     326              ;*                            0 Parameter,  0 Auto,  0 SOE     *
     327              ;***************************************************************
     328              
     329              ||__relaxed_sinf||:
     330              ;* R0    assigned to x
     331              $C$DW$21        .dwtag  DW_TAG_variable
     332                      .dwattr $C$DW$21, DW_AT_name("x")
     333                      .dwattr $C$DW$21, DW_AT_type(*$C$DW$T$167)
     334                      .dwattr $C$DW$21, DW_AT_location[DW_OP_regx 0x2b]
     335              
     336                      .dwcfi  cfa_offset, -2
     337                      .dwcfi  save_reg_to_mem, 26, 0
     338                      .dwpsn  file "C:/ti/ccs2031/ccs/tools/compiler/ti-cgt-c2000_22.6.2.LTS/include/math.h",line 266,colum
     339 00000000 E271          DIV2PIF32 R0H,R0H               ; [CPU_FPU] |266| 
         00000001 0000 
     340 00000002 7700          NOP       ; [CPU_ALU] 
     341 00000003 E278          SINPUF32  R0H,R0H               ; [CPU_FPU] |266| 
         00000004 0000 
     342 00000005 7700          NOP       ; [CPU_ALU] 
     343 00000006 7700          NOP       ; [CPU_ALU] 
     344              $C$DW$22        .dwtag  DW_TAG_TI_branch
     345                      .dwattr $C$DW$22, DW_AT_low_pc(0x00)
     346                      .dwattr $C$DW$22, DW_AT_TI_return
     347              
     348 00000007 0006          LRETR     ; [CPU_ALU] 
     349                      ; return occurs ; [] 
     350                      .dwattr $C$DW$19, DW_AT_TI_end_file("C:/ti/ccs2031/ccs/tools/compiler/ti-cgt-c2000_22.6.2.LTS/include
     351                      .dwattr $C$DW$19, DW_AT_TI_end_line(0x10b)
     352                      .dwattr $C$DW$19, DW_AT_TI_end_column(0x01)
     353                      .dwendentry
     354                      .dwendtag $C$DW$19
     355              
     356 00000000               .sect   ".text:__relaxed_powf"
     357                      .clink
     358                      .global ||__relaxed_powf||
     359              
     360              $C$DW$23        .dwtag  DW_TAG_subprogram
     361                      .dwattr $C$DW$23, DW_AT_name("__relaxed_powf")
     362                      .dwattr $C$DW$23, DW_AT_low_pc(||__relaxed_powf||)
     363                      .dwattr $C$DW$23, DW_AT_high_pc(0x00)
     364                      .dwattr $C$DW$23, DW_AT_linkage_name("__relaxed_powf")
     365                      .dwattr $C$DW$23, DW_AT_external
     366                      .dwattr $C$DW$23, DW_AT_type(*$C$DW$T$16)
     367                      .dwattr $C$DW$23, DW_AT_decl_file("C:/ti/ccs2031/ccs/tools/compiler/ti-cgt-c2000_22.6.2.LTS/include/m
     368                      .dwattr $C$DW$23, DW_AT_decl_line(0x13b)
     369                      .dwattr $C$DW$23, DW_AT_decl_column(0x10)
TMS320C2000 Assembler PC v22.6.2 Wed Dec 10 14:45:02 2025

Copyright (c) 1996-2018 Texas Instruments Incorporated
fcl_foc_cpu_dm.asm                                                   PAGE    8

     370                      .dwattr $C$DW$23, DW_AT_TI_max_frame_size(-4)
     371                      .dwpsn  file "C:/ti/ccs2031/ccs/tools/compiler/ti-cgt-c2000_22.6.2.LTS/include/math.h",line 316,colum
     372              
     373                      .dwfde $C$DW$CIE, ||__relaxed_powf||
     374              $C$DW$24        .dwtag  DW_TAG_formal_parameter
     375                      .dwattr $C$DW$24, DW_AT_name("x")
     376                      .dwattr $C$DW$24, DW_AT_type(*$C$DW$T$16)
     377                      .dwattr $C$DW$24, DW_AT_location[DW_OP_regx 0x2b]
     378              
     379              $C$DW$25        .dwtag  DW_TAG_formal_parameter
     380                      .dwattr $C$DW$25, DW_AT_name("y")
     381                      .dwattr $C$DW$25, DW_AT_type(*$C$DW$T$16)
     382                      .dwattr $C$DW$25, DW_AT_location[DW_OP_regx 0x2f]
     383              
     384              
     385              ;***************************************************************
     386              ;* FNAME: __relaxed_powf                FR SIZE:   2           *
     387              ;*                                                             *
     388              ;* FUNCTION ENVIRONMENT                                        *
     389              ;*                                                             *
     390              ;* FUNCTION PROPERTIES                                         *
     391              ;*                            2 Parameter,  0 Auto,  0 SOE     *
     392              ;***************************************************************
     393              
     394              ||__relaxed_powf||:
     395              ;* R1    assigned to $O$C2
     396              ;* R0    assigned to $O$K4
     397              ;* R0    assigned to $O$R1
     398              ;* R0    assigned to x
     399              $C$DW$26        .dwtag  DW_TAG_variable
     400                      .dwattr $C$DW$26, DW_AT_name("x")
     401                      .dwattr $C$DW$26, DW_AT_type(*$C$DW$T$167)
     402                      .dwattr $C$DW$26, DW_AT_location[DW_OP_regx 0x2b]
     403              
     404              ;* R1    assigned to y
     405              $C$DW$27        .dwtag  DW_TAG_variable
     406                      .dwattr $C$DW$27, DW_AT_name("y")
     407                      .dwattr $C$DW$27, DW_AT_type(*$C$DW$T$167)
     408                      .dwattr $C$DW$27, DW_AT_location[DW_OP_regx 0x2f]
     409              
     410              ;* R0    assigned to iexp2f
     411              $C$DW$28        .dwtag  DW_TAG_variable
     412                      .dwattr $C$DW$28, DW_AT_name("iexp2f")
     413                      .dwattr $C$DW$28, DW_AT_type(*$C$DW$T$16)
     414                      .dwattr $C$DW$28, DW_AT_location[DW_OP_regx 0x2b]
     415              
     416                      .dwcfi  cfa_offset, -2
     417                      .dwcfi  save_reg_to_mem, 26, 0
     418 00000000 FE02          ADDB      SP,#2                 ; [CPU_ARAU] 
     419                      .dwcfi  cfa_offset, -4
     420                      .dwpsn  file "C:/ti/ccs2031/ccs/tools/compiler/ti-cgt-c2000_22.6.2.LTS/include/math.h",line 298,colum
     421 00000001 E272          LOG2F32   R0H,R0H               ; [CPU_FPU] |298| 
         00000002 0000 
     422 00000003 7700          NOP       ; [CPU_ALU] 
     423 00000004 7700          NOP       ; [CPU_ALU] 
TMS320C2000 Assembler PC v22.6.2 Wed Dec 10 14:45:02 2025

Copyright (c) 1996-2018 Texas Instruments Incorporated
fcl_foc_cpu_dm.asm                                                   PAGE    9

     424 00000005 7700          NOP       ; [CPU_ALU] 
     425 00000006 E700          MPYF32    R1H,R1H,R0H           ; [CPU_FPU] |298| 
         00000007 0009 
     426 00000008 7700          NOP       ; [CPU_ALU] 
     427                      .dwpsn  file "C:/ti/ccs2031/ccs/tools/compiler/ti-cgt-c2000_22.6.2.LTS/include/math.h",line 299,colum
     428 00000009 E5A1          CMPF32    R1H,#0                ; [CPU_FPU] |299| 
     429 0000000a AD14          MOVST0    ZF, NF                ; [CPU_FPU] |299| 
     430                      .dwpsn  file "C:/ti/ccs2031/ccs/tools/compiler/ti-cgt-c2000_22.6.2.LTS/include/math.h",line 298,colum
     431 0000000b E273          IEXP2F32  R0H,R1H               ; [CPU_FPU] |298| 
         0000000c 0008 
     432                      .dwpsn  file "C:/ti/ccs2031/ccs/tools/compiler/ti-cgt-c2000_22.6.2.LTS/include/math.h",line 299,colum
     433 0000000d 6507          B         ||$C$L1||,LEQ         ; [CPU_ALU] |299| 
     434                      ; branchcc occurs ; [] |299| 
     435 0000000e E801          MOVIZ     R1H,#16256            ; [CPU_FPU] |299| 
         0000000f FC01 
     436 00000010 E274          DIVF32    R0H,R1H,R0H           ; [CPU_FPU] |299| 
         00000011 0008 
     437 00000012 7700          NOP       ; [CPU_ALU] 
     438 00000013 7700          NOP       ; [CPU_ALU] 
     439 00000014       ||$C$L1||:    
     440 00000014 FE82          SUBB      SP,#2                 ; [CPU_ARAU] 
     441                      .dwcfi  cfa_offset, -2
     442              $C$DW$29        .dwtag  DW_TAG_TI_branch
     443                      .dwattr $C$DW$29, DW_AT_low_pc(0x00)
     444                      .dwattr $C$DW$29, DW_AT_TI_return
     445              
     446 00000015 0006          LRETR     ; [CPU_ALU] 
     447                      ; return occurs ; [] 
     448                      .dwattr $C$DW$23, DW_AT_TI_end_file("C:/ti/ccs2031/ccs/tools/compiler/ti-cgt-c2000_22.6.2.LTS/include
     449                      .dwattr $C$DW$23, DW_AT_TI_end_line(0x141)
     450                      .dwattr $C$DW$23, DW_AT_TI_end_column(0x01)
     451                      .dwendentry
     452                      .dwendtag $C$DW$23
     453              
     454 00000000               .sect   ".text:__relaxed_logf"
     455                      .clink
     456                      .global ||__relaxed_logf||
     457              
     458              $C$DW$30        .dwtag  DW_TAG_subprogram
     459                      .dwattr $C$DW$30, DW_AT_name("__relaxed_logf")
     460                      .dwattr $C$DW$30, DW_AT_low_pc(||__relaxed_logf||)
     461                      .dwattr $C$DW$30, DW_AT_high_pc(0x00)
     462                      .dwattr $C$DW$30, DW_AT_linkage_name("__relaxed_logf")
     463                      .dwattr $C$DW$30, DW_AT_external
     464                      .dwattr $C$DW$30, DW_AT_type(*$C$DW$T$16)
     465                      .dwattr $C$DW$30, DW_AT_decl_file("C:/ti/ccs2031/ccs/tools/compiler/ti-cgt-c2000_22.6.2.LTS/include/m
     466                      .dwattr $C$DW$30, DW_AT_decl_line(0x135)
     467                      .dwattr $C$DW$30, DW_AT_decl_column(0x10)
     468                      .dwattr $C$DW$30, DW_AT_TI_max_frame_size(-2)
     469                      .dwpsn  file "C:/ti/ccs2031/ccs/tools/compiler/ti-cgt-c2000_22.6.2.LTS/include/math.h",line 310,colum
     470              
     471                      .dwfde $C$DW$CIE, ||__relaxed_logf||
     472              $C$DW$31        .dwtag  DW_TAG_formal_parameter
     473                      .dwattr $C$DW$31, DW_AT_name("x")
     474                      .dwattr $C$DW$31, DW_AT_type(*$C$DW$T$16)
TMS320C2000 Assembler PC v22.6.2 Wed Dec 10 14:45:02 2025

Copyright (c) 1996-2018 Texas Instruments Incorporated
fcl_foc_cpu_dm.asm                                                   PAGE   10

     475                      .dwattr $C$DW$31, DW_AT_location[DW_OP_regx 0x2b]
     476              
     477              
     478              ;***************************************************************
     479              ;* FNAME: __relaxed_logf                FR SIZE:   0           *
     480              ;*                                                             *
     481              ;* FUNCTION ENVIRONMENT                                        *
     482              ;*                                                             *
     483              ;* FUNCTION PROPERTIES                                         *
     484              ;*                            0 Parameter,  0 Auto,  0 SOE     *
     485              ;***************************************************************
     486              
     487              ||__relaxed_logf||:
     488              ;* R0    assigned to x
     489              $C$DW$32        .dwtag  DW_TAG_variable
     490                      .dwattr $C$DW$32, DW_AT_name("x")
     491                      .dwattr $C$DW$32, DW_AT_type(*$C$DW$T$167)
     492                      .dwattr $C$DW$32, DW_AT_location[DW_OP_regx 0x2b]
     493              
     494                      .dwcfi  cfa_offset, -2
     495                      .dwcfi  save_reg_to_mem, 26, 0
     496                      .dwpsn  file "C:/ti/ccs2031/ccs/tools/compiler/ti-cgt-c2000_22.6.2.LTS/include/math.h",line 312,colum
     497 00000000 E272          LOG2F32   R1H,R0H               ; [CPU_FPU] |312| 
         00000001 0001 
     498 00000002 7700          NOP       ; [CPU_ALU] 
     499 00000003 E801          MOVIZ     R0H,#16177            ; [CPU_FPU] |312| 
         00000004 F988 
     500 00000005 E80B          MOVXI     R0H,#29205            ; [CPU_FPU] |312| 
         00000006 90A8 
     501 00000007 E700          MPYF32    R0H,R0H,R1H           ; [CPU_FPU] |312| 
         00000008 0040 
     502              $C$DW$33        .dwtag  DW_TAG_TI_branch
     503                      .dwattr $C$DW$33, DW_AT_low_pc(0x00)
     504                      .dwattr $C$DW$33, DW_AT_TI_return
     505              
     506 00000009 0006          LRETR     ; [CPU_ALU] 
     507                      ; return occurs ; [] 
     508                      .dwattr $C$DW$30, DW_AT_TI_end_file("C:/ti/ccs2031/ccs/tools/compiler/ti-cgt-c2000_22.6.2.LTS/include
     509                      .dwattr $C$DW$30, DW_AT_TI_end_line(0x139)
     510                      .dwattr $C$DW$30, DW_AT_TI_end_column(0x01)
     511                      .dwendentry
     512                      .dwendtag $C$DW$30
     513              
     514 00000000               .sect   ".text:__relaxed_log2f"
     515                      .clink
     516                      .global ||__relaxed_log2f||
     517              
     518              $C$DW$34        .dwtag  DW_TAG_subprogram
     519                      .dwattr $C$DW$34, DW_AT_name("__relaxed_log2f")
     520                      .dwattr $C$DW$34, DW_AT_low_pc(||__relaxed_log2f||)
     521                      .dwattr $C$DW$34, DW_AT_high_pc(0x00)
     522                      .dwattr $C$DW$34, DW_AT_linkage_name("__relaxed_log2f")
     523                      .dwattr $C$DW$34, DW_AT_external
     524                      .dwattr $C$DW$34, DW_AT_type(*$C$DW$T$16)
     525                      .dwattr $C$DW$34, DW_AT_decl_file("C:/ti/ccs2031/ccs/tools/compiler/ti-cgt-c2000_22.6.2.LTS/include/m
TMS320C2000 Assembler PC v22.6.2 Wed Dec 10 14:45:02 2025

Copyright (c) 1996-2018 Texas Instruments Incorporated
fcl_foc_cpu_dm.asm                                                   PAGE   11

     526                      .dwattr $C$DW$34, DW_AT_decl_line(0x123)
     527                      .dwattr $C$DW$34, DW_AT_decl_column(0x10)
     528                      .dwattr $C$DW$34, DW_AT_TI_max_frame_size(-2)
     529                      .dwpsn  file "C:/ti/ccs2031/ccs/tools/compiler/ti-cgt-c2000_22.6.2.LTS/include/math.h",line 292,colum
     530              
     531                      .dwfde $C$DW$CIE, ||__relaxed_log2f||
     532              $C$DW$35        .dwtag  DW_TAG_formal_parameter
     533                      .dwattr $C$DW$35, DW_AT_name("x")
     534                      .dwattr $C$DW$35, DW_AT_type(*$C$DW$T$16)
     535                      .dwattr $C$DW$35, DW_AT_location[DW_OP_regx 0x2b]
     536              
     537              
     538              ;***************************************************************
     539              ;* FNAME: __relaxed_log2f               FR SIZE:   0           *
     540              ;*                                                             *
     541              ;* FUNCTION ENVIRONMENT                                        *
     542              ;*                                                             *
     543              ;* FUNCTION PROPERTIES                                         *
     544              ;*                            0 Parameter,  0 Auto,  0 SOE     *
     545              ;***************************************************************
     546              
     547              ||__relaxed_log2f||:
     548              ;* R0    assigned to x
     549              $C$DW$36        .dwtag  DW_TAG_variable
     550                      .dwattr $C$DW$36, DW_AT_name("x")
     551                      .dwattr $C$DW$36, DW_AT_type(*$C$DW$T$167)
     552                      .dwattr $C$DW$36, DW_AT_location[DW_OP_regx 0x2b]
     553              
     554                      .dwcfi  cfa_offset, -2
     555                      .dwcfi  save_reg_to_mem, 26, 0
     556                      .dwpsn  file "C:/ti/ccs2031/ccs/tools/compiler/ti-cgt-c2000_22.6.2.LTS/include/math.h",line 293,colum
     557 00000000 E272          LOG2F32   R0H,R0H               ; [CPU_FPU] |293| 
         00000001 0000 
     558 00000002 7700          NOP       ; [CPU_ALU] 
     559 00000003 7700          NOP       ; [CPU_ALU] 
     560              $C$DW$37        .dwtag  DW_TAG_TI_branch
     561                      .dwattr $C$DW$37, DW_AT_low_pc(0x00)
     562                      .dwattr $C$DW$37, DW_AT_TI_return
     563              
     564 00000004 0006          LRETR     ; [CPU_ALU] 
     565                      ; return occurs ; [] 
     566                      .dwattr $C$DW$34, DW_AT_TI_end_file("C:/ti/ccs2031/ccs/tools/compiler/ti-cgt-c2000_22.6.2.LTS/include
     567                      .dwattr $C$DW$34, DW_AT_TI_end_line(0x126)
     568                      .dwattr $C$DW$34, DW_AT_TI_end_column(0x01)
     569                      .dwendentry
     570                      .dwendtag $C$DW$34
     571              
     572 00000000               .sect   ".text:__relaxed_fmodf"
     573                      .clink
     574                      .global ||__relaxed_fmodf||
     575              
     576              $C$DW$38        .dwtag  DW_TAG_subprogram
     577                      .dwattr $C$DW$38, DW_AT_name("__relaxed_fmodf")
     578                      .dwattr $C$DW$38, DW_AT_low_pc(||__relaxed_fmodf||)
     579                      .dwattr $C$DW$38, DW_AT_high_pc(0x00)
TMS320C2000 Assembler PC v22.6.2 Wed Dec 10 14:45:02 2025

Copyright (c) 1996-2018 Texas Instruments Incorporated
fcl_foc_cpu_dm.asm                                                   PAGE   12

     580                      .dwattr $C$DW$38, DW_AT_linkage_name("__relaxed_fmodf")
     581                      .dwattr $C$DW$38, DW_AT_external
     582                      .dwattr $C$DW$38, DW_AT_type(*$C$DW$T$16)
     583                      .dwattr $C$DW$38, DW_AT_decl_file("C:/ti/ccs2031/ccs/tools/compiler/ti-cgt-c2000_22.6.2.LTS/include/m
     584                      .dwattr $C$DW$38, DW_AT_decl_line(0x11c)
     585                      .dwattr $C$DW$38, DW_AT_decl_column(0x10)
     586                      .dwattr $C$DW$38, DW_AT_TI_max_frame_size(-2)
     587                      .dwpsn  file "C:/ti/ccs2031/ccs/tools/compiler/ti-cgt-c2000_22.6.2.LTS/include/math.h",line 285,colum
     588              
     589                      .dwfde $C$DW$CIE, ||__relaxed_fmodf||
     590              $C$DW$39        .dwtag  DW_TAG_formal_parameter
     591                      .dwattr $C$DW$39, DW_AT_name("y")
     592                      .dwattr $C$DW$39, DW_AT_type(*$C$DW$T$16)
     593                      .dwattr $C$DW$39, DW_AT_location[DW_OP_regx 0x2b]
     594              
     595              $C$DW$40        .dwtag  DW_TAG_formal_parameter
     596                      .dwattr $C$DW$40, DW_AT_name("x")
     597                      .dwattr $C$DW$40, DW_AT_type(*$C$DW$T$16)
     598                      .dwattr $C$DW$40, DW_AT_location[DW_OP_regx 0x2f]
     599              
     600              
     601              ;***************************************************************
     602              ;* FNAME: __relaxed_fmodf               FR SIZE:   0           *
     603              ;*                                                             *
     604              ;* FUNCTION ENVIRONMENT                                        *
     605              ;*                                                             *
     606              ;* FUNCTION PROPERTIES                                         *
     607              ;*                            0 Parameter,  0 Auto,  0 SOE     *
     608              ;***************************************************************
     609              
     610              ||__relaxed_fmodf||:
     611              ;* R0    assigned to y
     612              $C$DW$41        .dwtag  DW_TAG_variable
     613                      .dwattr $C$DW$41, DW_AT_name("y")
     614                      .dwattr $C$DW$41, DW_AT_type(*$C$DW$T$167)
     615                      .dwattr $C$DW$41, DW_AT_location[DW_OP_regx 0x2b]
     616              
     617              ;* R1    assigned to x
     618              $C$DW$42        .dwtag  DW_TAG_variable
     619                      .dwattr $C$DW$42, DW_AT_name("x")
     620                      .dwattr $C$DW$42, DW_AT_type(*$C$DW$T$167)
     621                      .dwattr $C$DW$42, DW_AT_location[DW_OP_regx 0x2f]
     622              
     623                      .dwcfi  cfa_offset, -2
     624                      .dwcfi  save_reg_to_mem, 26, 0
     625                      .dwpsn  file "C:/ti/ccs2031/ccs/tools/compiler/ti-cgt-c2000_22.6.2.LTS/include/math.h",line 286,colum
     626 00000000 E274          DIVF32    R2H,R0H,R1H           ; [CPU_FPU] |286| 
         00000001 0042 
     627 00000002 7700          NOP       ; [CPU_ALU] 
     628 00000003 7700          NOP       ; [CPU_ALU] 
     629 00000004 7700          NOP       ; [CPU_ALU] 
     630 00000005 7700          NOP       ; [CPU_ALU] 
     631 00000006 E688          F32TOI32  R2H,R2H               ; [CPU_FPU] |286| 
         00000007 0012 
     632 00000008 7700          NOP       ; [CPU_ALU] 
TMS320C2000 Assembler PC v22.6.2 Wed Dec 10 14:45:02 2025

Copyright (c) 1996-2018 Texas Instruments Incorporated
fcl_foc_cpu_dm.asm                                                   PAGE   13

     633 00000009 E689          I32TOF32  R2H,R2H               ; [CPU_FPU] |286| 
         0000000a 0012 
     634 0000000b 7700          NOP       ; [CPU_ALU] 
     635 0000000c E700          MPYF32    R1H,R1H,R2H           ; [CPU_FPU] |286| 
         0000000d 0089 
     636 0000000e 7700          NOP       ; [CPU_ALU] 
     637 0000000f E720          SUBF32    R0H,R0H,R1H           ; [CPU_FPU] |286| 
         00000010 0040 
     638              $C$DW$43        .dwtag  DW_TAG_TI_branch
     639                      .dwattr $C$DW$43, DW_AT_low_pc(0x00)
     640                      .dwattr $C$DW$43, DW_AT_TI_return
     641              
     642 00000011 0006          LRETR     ; [CPU_ALU] 
     643                      ; return occurs ; [] 
     644                      .dwattr $C$DW$38, DW_AT_TI_end_file("C:/ti/ccs2031/ccs/tools/compiler/ti-cgt-c2000_22.6.2.LTS/include
     645                      .dwattr $C$DW$38, DW_AT_TI_end_line(0x11f)
     646                      .dwattr $C$DW$38, DW_AT_TI_end_column(0x01)
     647                      .dwendentry
     648                      .dwendtag $C$DW$38
     649              
     650 00000000               .sect   ".text:__relaxed_fminf"
     651                      .clink
     652                      .global ||__relaxed_fminf||
     653              
     654              $C$DW$44        .dwtag  DW_TAG_subprogram
     655                      .dwattr $C$DW$44, DW_AT_name("__relaxed_fminf")
     656                      .dwattr $C$DW$44, DW_AT_low_pc(||__relaxed_fminf||)
     657                      .dwattr $C$DW$44, DW_AT_high_pc(0x00)
     658                      .dwattr $C$DW$44, DW_AT_linkage_name("__relaxed_fminf")
     659                      .dwattr $C$DW$44, DW_AT_external
     660                      .dwattr $C$DW$44, DW_AT_type(*$C$DW$T$16)
     661                      .dwattr $C$DW$44, DW_AT_decl_file("C:/ti/ccs2031/ccs/tools/compiler/ti-cgt-c2000_22.6.2.LTS/include/m
     662                      .dwattr $C$DW$44, DW_AT_decl_line(0xee)
     663                      .dwattr $C$DW$44, DW_AT_decl_column(0x10)
     664                      .dwattr $C$DW$44, DW_AT_TI_max_frame_size(-2)
     665                      .dwpsn  file "C:/ti/ccs2031/ccs/tools/compiler/ti-cgt-c2000_22.6.2.LTS/include/math.h",line 239,colum
     666              
     667                      .dwfde $C$DW$CIE, ||__relaxed_fminf||
     668              $C$DW$45        .dwtag  DW_TAG_formal_parameter
     669                      .dwattr $C$DW$45, DW_AT_name("x")
     670                      .dwattr $C$DW$45, DW_AT_type(*$C$DW$T$16)
     671                      .dwattr $C$DW$45, DW_AT_location[DW_OP_regx 0x2b]
     672              
     673              $C$DW$46        .dwtag  DW_TAG_formal_parameter
     674                      .dwattr $C$DW$46, DW_AT_name("y")
     675                      .dwattr $C$DW$46, DW_AT_type(*$C$DW$T$16)
     676                      .dwattr $C$DW$46, DW_AT_location[DW_OP_regx 0x2f]
     677              
     678              
     679              ;***************************************************************
     680              ;* FNAME: __relaxed_fminf               FR SIZE:   0           *
     681              ;*                                                             *
     682              ;* FUNCTION ENVIRONMENT                                        *
     683              ;*                                                             *
     684              ;* FUNCTION PROPERTIES                                         *
TMS320C2000 Assembler PC v22.6.2 Wed Dec 10 14:45:02 2025

Copyright (c) 1996-2018 Texas Instruments Incorporated
fcl_foc_cpu_dm.asm                                                   PAGE   14

     685              ;*                            0 Parameter,  0 Auto,  0 SOE     *
     686              ;***************************************************************
     687              
     688              ||__relaxed_fminf||:
     689              ;* R1    assigned to y
     690              $C$DW$47        .dwtag  DW_TAG_variable
     691                      .dwattr $C$DW$47, DW_AT_name("y")
     692                      .dwattr $C$DW$47, DW_AT_type(*$C$DW$T$167)
     693                      .dwattr $C$DW$47, DW_AT_location[DW_OP_regx 0x2f]
     694              
     695                      .dwcfi  cfa_offset, -2
     696                      .dwcfi  save_reg_to_mem, 26, 0
     697                      .dwpsn  file "C:/ti/ccs2031/ccs/tools/compiler/ti-cgt-c2000_22.6.2.LTS/include/math.h",line 240,colum
     698 00000000 E697          MINF32    R0H,R1H               ; [CPU_FPU] |240| 
         00000001 0008 
     699              $C$DW$48        .dwtag  DW_TAG_TI_branch
     700                      .dwattr $C$DW$48, DW_AT_low_pc(0x00)
     701                      .dwattr $C$DW$48, DW_AT_TI_return
     702              
     703 00000002 0006          LRETR     ; [CPU_ALU] 
     704                      ; return occurs ; [] 
     705                      .dwattr $C$DW$44, DW_AT_TI_end_file("C:/ti/ccs2031/ccs/tools/compiler/ti-cgt-c2000_22.6.2.LTS/include
     706                      .dwattr $C$DW$44, DW_AT_TI_end_line(0xf1)
     707                      .dwattr $C$DW$44, DW_AT_TI_end_column(0x01)
     708                      .dwendentry
     709                      .dwendtag $C$DW$44
     710              
     711 00000000               .sect   ".text:__relaxed_fmaxf"
     712                      .clink
     713                      .global ||__relaxed_fmaxf||
     714              
     715              $C$DW$49        .dwtag  DW_TAG_subprogram
     716                      .dwattr $C$DW$49, DW_AT_name("__relaxed_fmaxf")
     717                      .dwattr $C$DW$49, DW_AT_low_pc(||__relaxed_fmaxf||)
     718                      .dwattr $C$DW$49, DW_AT_high_pc(0x00)
     719                      .dwattr $C$DW$49, DW_AT_linkage_name("__relaxed_fmaxf")
     720                      .dwattr $C$DW$49, DW_AT_external
     721                      .dwattr $C$DW$49, DW_AT_type(*$C$DW$T$16)
     722                      .dwattr $C$DW$49, DW_AT_decl_file("C:/ti/ccs2031/ccs/tools/compiler/ti-cgt-c2000_22.6.2.LTS/include/m
     723                      .dwattr $C$DW$49, DW_AT_decl_line(0xe8)
     724                      .dwattr $C$DW$49, DW_AT_decl_column(0x10)
     725                      .dwattr $C$DW$49, DW_AT_TI_max_frame_size(-2)
     726                      .dwpsn  file "C:/ti/ccs2031/ccs/tools/compiler/ti-cgt-c2000_22.6.2.LTS/include/math.h",line 233,colum
     727              
     728                      .dwfde $C$DW$CIE, ||__relaxed_fmaxf||
     729              $C$DW$50        .dwtag  DW_TAG_formal_parameter
     730                      .dwattr $C$DW$50, DW_AT_name("x")
     731                      .dwattr $C$DW$50, DW_AT_type(*$C$DW$T$16)
     732                      .dwattr $C$DW$50, DW_AT_location[DW_OP_regx 0x2b]
     733              
     734              $C$DW$51        .dwtag  DW_TAG_formal_parameter
     735                      .dwattr $C$DW$51, DW_AT_name("y")
     736                      .dwattr $C$DW$51, DW_AT_type(*$C$DW$T$16)
     737                      .dwattr $C$DW$51, DW_AT_location[DW_OP_regx 0x2f]
     738              
TMS320C2000 Assembler PC v22.6.2 Wed Dec 10 14:45:02 2025

Copyright (c) 1996-2018 Texas Instruments Incorporated
fcl_foc_cpu_dm.asm                                                   PAGE   15

     739              
     740              ;***************************************************************
     741              ;* FNAME: __relaxed_fmaxf               FR SIZE:   0           *
     742              ;*                                                             *
     743              ;* FUNCTION ENVIRONMENT                                        *
     744              ;*                                                             *
     745              ;* FUNCTION PROPERTIES                                         *
     746              ;*                            0 Parameter,  0 Auto,  0 SOE     *
     747              ;***************************************************************
     748              
     749              ||__relaxed_fmaxf||:
     750              ;* R1    assigned to y
     751              $C$DW$52        .dwtag  DW_TAG_variable
     752                      .dwattr $C$DW$52, DW_AT_name("y")
     753                      .dwattr $C$DW$52, DW_AT_type(*$C$DW$T$167)
     754                      .dwattr $C$DW$52, DW_AT_location[DW_OP_regx 0x2f]
     755              
     756                      .dwcfi  cfa_offset, -2
     757                      .dwcfi  save_reg_to_mem, 26, 0
     758                      .dwpsn  file "C:/ti/ccs2031/ccs/tools/compiler/ti-cgt-c2000_22.6.2.LTS/include/math.h",line 234,colum
     759 00000000 E696          MAXF32    R0H,R1H               ; [CPU_FPU] |234| 
         00000001 0008 
     760              $C$DW$53        .dwtag  DW_TAG_TI_branch
     761                      .dwattr $C$DW$53, DW_AT_low_pc(0x00)
     762                      .dwattr $C$DW$53, DW_AT_TI_return
     763              
     764 00000002 0006          LRETR     ; [CPU_ALU] 
     765                      ; return occurs ; [] 
     766                      .dwattr $C$DW$49, DW_AT_TI_end_file("C:/ti/ccs2031/ccs/tools/compiler/ti-cgt-c2000_22.6.2.LTS/include
     767                      .dwattr $C$DW$49, DW_AT_TI_end_line(0xeb)
     768                      .dwattr $C$DW$49, DW_AT_TI_end_column(0x01)
     769                      .dwendentry
     770                      .dwendtag $C$DW$49
     771              
     772 00000000               .sect   ".text:__relaxed_expf"
     773                      .clink
     774                      .global ||__relaxed_expf||
     775              
     776              $C$DW$54        .dwtag  DW_TAG_subprogram
     777                      .dwattr $C$DW$54, DW_AT_name("__relaxed_expf")
     778                      .dwattr $C$DW$54, DW_AT_low_pc(||__relaxed_expf||)
     779                      .dwattr $C$DW$54, DW_AT_high_pc(0x00)
     780                      .dwattr $C$DW$54, DW_AT_linkage_name("__relaxed_expf")
     781                      .dwattr $C$DW$54, DW_AT_external
     782                      .dwattr $C$DW$54, DW_AT_type(*$C$DW$T$16)
     783                      .dwattr $C$DW$54, DW_AT_decl_file("C:/ti/ccs2031/ccs/tools/compiler/ti-cgt-c2000_22.6.2.LTS/include/m
     784                      .dwattr $C$DW$54, DW_AT_decl_line(0x12f)
     785                      .dwattr $C$DW$54, DW_AT_decl_column(0x10)
     786                      .dwattr $C$DW$54, DW_AT_TI_max_frame_size(-4)
     787                      .dwpsn  file "C:/ti/ccs2031/ccs/tools/compiler/ti-cgt-c2000_22.6.2.LTS/include/math.h",line 304,colum
     788              
     789                      .dwfde $C$DW$CIE, ||__relaxed_expf||
     790              $C$DW$55        .dwtag  DW_TAG_formal_parameter
     791                      .dwattr $C$DW$55, DW_AT_name("x")
     792                      .dwattr $C$DW$55, DW_AT_type(*$C$DW$T$16)
TMS320C2000 Assembler PC v22.6.2 Wed Dec 10 14:45:02 2025

Copyright (c) 1996-2018 Texas Instruments Incorporated
fcl_foc_cpu_dm.asm                                                   PAGE   16

     793                      .dwattr $C$DW$55, DW_AT_location[DW_OP_regx 0x2b]
     794              
     795              
     796              ;***************************************************************
     797              ;* FNAME: __relaxed_expf                FR SIZE:   2           *
     798              ;*                                                             *
     799              ;* FUNCTION ENVIRONMENT                                        *
     800              ;*                                                             *
     801              ;* FUNCTION PROPERTIES                                         *
     802              ;*                            2 Parameter,  0 Auto,  0 SOE     *
     803              ;***************************************************************
     804              
     805              ||__relaxed_expf||:
     806              ;* R1    assigned to $O$C2
     807              ;* R0    assigned to $O$K3
     808              ;* R0    assigned to $O$R1
     809              ;* R0    assigned to x
     810              $C$DW$56        .dwtag  DW_TAG_variable
     811                      .dwattr $C$DW$56, DW_AT_name("x")
     812                      .dwattr $C$DW$56, DW_AT_type(*$C$DW$T$167)
     813                      .dwattr $C$DW$56, DW_AT_location[DW_OP_regx 0x2b]
     814              
     815              ;* R0    assigned to iexp2f
     816              $C$DW$57        .dwtag  DW_TAG_variable
     817                      .dwattr $C$DW$57, DW_AT_name("iexp2f")
     818                      .dwattr $C$DW$57, DW_AT_type(*$C$DW$T$16)
     819                      .dwattr $C$DW$57, DW_AT_location[DW_OP_regx 0x2b]
     820              
     821                      .dwcfi  cfa_offset, -2
     822                      .dwcfi  save_reg_to_mem, 26, 0
     823 00000000 FE02          ADDB      SP,#2                 ; [CPU_ARAU] 
     824                      .dwcfi  cfa_offset, -4
     825                      .dwpsn  file "C:/ti/ccs2031/ccs/tools/compiler/ti-cgt-c2000_22.6.2.LTS/include/math.h",line 298,colum
     826 00000001 E801          MOVIZ     R1H,#16312            ; [CPU_FPU] |298| 
         00000002 FDC1 
     827 00000003 E80D          MOVXI     R1H,#43537            ; [CPU_FPU] |298| 
         00000004 5089 
     828 00000005 E700          MPYF32    R1H,R1H,R0H           ; [CPU_FPU] |298| 
         00000006 0009 
     829 00000007 7700          NOP       ; [CPU_ALU] 
     830                      .dwpsn  file "C:/ti/ccs2031/ccs/tools/compiler/ti-cgt-c2000_22.6.2.LTS/include/math.h",line 299,colum
     831 00000008 E5A1          CMPF32    R1H,#0                ; [CPU_FPU] |299| 
     832 00000009 AD14          MOVST0    ZF, NF                ; [CPU_FPU] |299| 
     833                      .dwpsn  file "C:/ti/ccs2031/ccs/tools/compiler/ti-cgt-c2000_22.6.2.LTS/include/math.h",line 298,colum
     834 0000000a E273          IEXP2F32  R0H,R1H               ; [CPU_FPU] |298| 
         0000000b 0008 
     835                      .dwpsn  file "C:/ti/ccs2031/ccs/tools/compiler/ti-cgt-c2000_22.6.2.LTS/include/math.h",line 299,colum
     836 0000000c 6507          B         ||$C$L2||,LEQ         ; [CPU_ALU] |299| 
     837                      ; branchcc occurs ; [] |299| 
     838 0000000d E801          MOVIZ     R1H,#16256            ; [CPU_FPU] |299| 
         0000000e FC01 
     839 0000000f E274          DIVF32    R0H,R1H,R0H           ; [CPU_FPU] |299| 
         00000010 0008 
     840 00000011 7700          NOP       ; [CPU_ALU] 
     841 00000012 7700          NOP       ; [CPU_ALU] 
TMS320C2000 Assembler PC v22.6.2 Wed Dec 10 14:45:02 2025

Copyright (c) 1996-2018 Texas Instruments Incorporated
fcl_foc_cpu_dm.asm                                                   PAGE   17

     842 00000013       ||$C$L2||:    
     843 00000013 FE82          SUBB      SP,#2                 ; [CPU_ARAU] 
     844                      .dwcfi  cfa_offset, -2
     845              $C$DW$58        .dwtag  DW_TAG_TI_branch
     846                      .dwattr $C$DW$58, DW_AT_low_pc(0x00)
     847                      .dwattr $C$DW$58, DW_AT_TI_return
     848              
     849 00000014 0006          LRETR     ; [CPU_ALU] 
     850                      ; return occurs ; [] 
     851                      .dwattr $C$DW$54, DW_AT_TI_end_file("C:/ti/ccs2031/ccs/tools/compiler/ti-cgt-c2000_22.6.2.LTS/include
     852                      .dwattr $C$DW$54, DW_AT_TI_end_line(0x133)
     853                      .dwattr $C$DW$54, DW_AT_TI_end_column(0x01)
     854                      .dwendentry
     855                      .dwendtag $C$DW$54
     856              
     857 00000000               .sect   ".text:__relaxed_cosf"
     858                      .clink
     859                      .global ||__relaxed_cosf||
     860              
     861              $C$DW$59        .dwtag  DW_TAG_subprogram
     862                      .dwattr $C$DW$59, DW_AT_name("__relaxed_cosf")
     863                      .dwattr $C$DW$59, DW_AT_low_pc(||__relaxed_cosf||)
     864                      .dwattr $C$DW$59, DW_AT_high_pc(0x00)
     865                      .dwattr $C$DW$59, DW_AT_linkage_name("__relaxed_cosf")
     866                      .dwattr $C$DW$59, DW_AT_external
     867                      .dwattr $C$DW$59, DW_AT_type(*$C$DW$T$16)
     868                      .dwattr $C$DW$59, DW_AT_decl_file("C:/ti/ccs2031/ccs/tools/compiler/ti-cgt-c2000_22.6.2.LTS/include/m
     869                      .dwattr $C$DW$59, DW_AT_decl_line(0x10d)
     870                      .dwattr $C$DW$59, DW_AT_decl_column(0x10)
     871                      .dwattr $C$DW$59, DW_AT_TI_max_frame_size(-2)
     872                      .dwpsn  file "C:/ti/ccs2031/ccs/tools/compiler/ti-cgt-c2000_22.6.2.LTS/include/math.h",line 270,colum
     873              
     874                      .dwfde $C$DW$CIE, ||__relaxed_cosf||
     875              $C$DW$60        .dwtag  DW_TAG_formal_parameter
     876                      .dwattr $C$DW$60, DW_AT_name("x")
     877                      .dwattr $C$DW$60, DW_AT_type(*$C$DW$T$16)
     878                      .dwattr $C$DW$60, DW_AT_location[DW_OP_regx 0x2b]
     879              
     880              
     881              ;***************************************************************
     882              ;* FNAME: __relaxed_cosf                FR SIZE:   0           *
     883              ;*                                                             *
     884              ;* FUNCTION ENVIRONMENT                                        *
     885              ;*                                                             *
     886              ;* FUNCTION PROPERTIES                                         *
     887              ;*                            0 Parameter,  0 Auto,  0 SOE     *
     888              ;***************************************************************
     889              
     890              ||__relaxed_cosf||:
     891              ;* R0    assigned to x
     892              $C$DW$61        .dwtag  DW_TAG_variable
     893                      .dwattr $C$DW$61, DW_AT_name("x")
     894                      .dwattr $C$DW$61, DW_AT_type(*$C$DW$T$167)
     895                      .dwattr $C$DW$61, DW_AT_location[DW_OP_regx 0x2b]
     896              
TMS320C2000 Assembler PC v22.6.2 Wed Dec 10 14:45:02 2025

Copyright (c) 1996-2018 Texas Instruments Incorporated
fcl_foc_cpu_dm.asm                                                   PAGE   18

     897                      .dwcfi  cfa_offset, -2
     898                      .dwcfi  save_reg_to_mem, 26, 0
     899                      .dwpsn  file "C:/ti/ccs2031/ccs/tools/compiler/ti-cgt-c2000_22.6.2.LTS/include/math.h",line 271,colum
     900 00000000 E271          DIV2PIF32 R0H,R0H               ; [CPU_FPU] |271| 
         00000001 0000 
     901 00000002 7700          NOP       ; [CPU_ALU] 
     902 00000003 E279          COSPUF32  R0H,R0H               ; [CPU_FPU] |271| 
         00000004 0000 
     903 00000005 7700          NOP       ; [CPU_ALU] 
     904 00000006 7700          NOP       ; [CPU_ALU] 
     905              $C$DW$62        .dwtag  DW_TAG_TI_branch
     906                      .dwattr $C$DW$62, DW_AT_low_pc(0x00)
     907                      .dwattr $C$DW$62, DW_AT_TI_return
     908              
     909 00000007 0006          LRETR     ; [CPU_ALU] 
     910                      ; return occurs ; [] 
     911                      .dwattr $C$DW$59, DW_AT_TI_end_file("C:/ti/ccs2031/ccs/tools/compiler/ti-cgt-c2000_22.6.2.LTS/include
     912                      .dwattr $C$DW$59, DW_AT_TI_end_line(0x110)
     913                      .dwattr $C$DW$59, DW_AT_TI_end_column(0x01)
     914                      .dwendentry
     915                      .dwendtag $C$DW$59
     916              
     917 00000000               .sect   ".text:__relaxed_atanf"
     918                      .clink
     919                      .global ||__relaxed_atanf||
     920              
     921              $C$DW$63        .dwtag  DW_TAG_subprogram
     922                      .dwattr $C$DW$63, DW_AT_name("__relaxed_atanf")
     923                      .dwattr $C$DW$63, DW_AT_low_pc(||__relaxed_atanf||)
     924                      .dwattr $C$DW$63, DW_AT_high_pc(0x00)
     925                      .dwattr $C$DW$63, DW_AT_linkage_name("__relaxed_atanf")
     926                      .dwattr $C$DW$63, DW_AT_external
     927                      .dwattr $C$DW$63, DW_AT_type(*$C$DW$T$16)
     928                      .dwattr $C$DW$63, DW_AT_decl_file("C:/ti/ccs2031/ccs/tools/compiler/ti-cgt-c2000_22.6.2.LTS/include/m
     929                      .dwattr $C$DW$63, DW_AT_decl_line(0x112)
     930                      .dwattr $C$DW$63, DW_AT_decl_column(0x10)
     931                      .dwattr $C$DW$63, DW_AT_TI_max_frame_size(-2)
     932                      .dwpsn  file "C:/ti/ccs2031/ccs/tools/compiler/ti-cgt-c2000_22.6.2.LTS/include/math.h",line 275,colum
     933              
     934                      .dwfde $C$DW$CIE, ||__relaxed_atanf||
     935              $C$DW$64        .dwtag  DW_TAG_formal_parameter
     936                      .dwattr $C$DW$64, DW_AT_name("x")
     937                      .dwattr $C$DW$64, DW_AT_type(*$C$DW$T$16)
     938                      .dwattr $C$DW$64, DW_AT_location[DW_OP_regx 0x2b]
     939              
     940              
     941              ;***************************************************************
     942              ;* FNAME: __relaxed_atanf               FR SIZE:   0           *
     943              ;*                                                             *
     944              ;* FUNCTION ENVIRONMENT                                        *
     945              ;*                                                             *
     946              ;* FUNCTION PROPERTIES                                         *
     947              ;*                            0 Parameter,  0 Auto,  0 SOE     *
     948              ;***************************************************************
     949              
TMS320C2000 Assembler PC v22.6.2 Wed Dec 10 14:45:02 2025

Copyright (c) 1996-2018 Texas Instruments Incorporated
fcl_foc_cpu_dm.asm                                                   PAGE   19

     950              ||__relaxed_atanf||:
     951              ;* R0    assigned to x
     952              $C$DW$65        .dwtag  DW_TAG_variable
     953                      .dwattr $C$DW$65, DW_AT_name("x")
     954                      .dwattr $C$DW$65, DW_AT_type(*$C$DW$T$167)
     955                      .dwattr $C$DW$65, DW_AT_location[DW_OP_regx 0x2b]
     956              
     957                      .dwcfi  cfa_offset, -2
     958                      .dwcfi  save_reg_to_mem, 26, 0
     959                      .dwpsn  file "C:/ti/ccs2031/ccs/tools/compiler/ti-cgt-c2000_22.6.2.LTS/include/math.h",line 276,colum
     960 00000000 E801          MOVIZ     R1H,#16256            ; [CPU_FPU] |276| 
         00000001 FC01 
     961 00000002 E27C          QUADF32   R1H,R0H,R0H,R1H       ; [CPU_FPU] |276| 
         00000003 0201 
     962 00000004 7700          NOP       ; [CPU_ALU] 
     963 00000005 7700          NOP       ; [CPU_ALU] 
     964 00000006 7700          NOP       ; [CPU_ALU] 
     965 00000007 7700          NOP       ; [CPU_ALU] 
     966 00000008 E27A          ATANPUF32 R0H,R0H               ; [CPU_FPU] |276| 
         00000009 0000 
     967 0000000a 7700          NOP       ; [CPU_ALU] 
     968 0000000b 7700          NOP       ; [CPU_ALU] 
     969 0000000c 7700          NOP       ; [CPU_ALU] 
     970 0000000d E710          ADDF32    R0H,R0H,R1H           ; [CPU_FPU] |276| 
         0000000e 0040 
     971 0000000f 7700          NOP       ; [CPU_ALU] 
     972 00000010 7700          NOP       ; [CPU_ALU] 
     973 00000011 E270          MPY2PIF32 R0H,R0H               ; [CPU_FPU] |276| 
         00000012 0000 
     974 00000013 7700          NOP       ; [CPU_ALU] 
     975              $C$DW$66        .dwtag  DW_TAG_TI_branch
     976                      .dwattr $C$DW$66, DW_AT_low_pc(0x00)
     977                      .dwattr $C$DW$66, DW_AT_TI_return
     978              
     979 00000014 0006          LRETR     ; [CPU_ALU] 
     980                      ; return occurs ; [] 
     981                      .dwattr $C$DW$63, DW_AT_TI_end_file("C:/ti/ccs2031/ccs/tools/compiler/ti-cgt-c2000_22.6.2.LTS/include
     982                      .dwattr $C$DW$63, DW_AT_TI_end_line(0x115)
     983                      .dwattr $C$DW$63, DW_AT_TI_end_column(0x01)
     984                      .dwendentry
     985                      .dwendtag $C$DW$63
     986              
     987 00000000               .sect   ".text:__relaxed_atan2f"
     988                      .clink
     989                      .global ||__relaxed_atan2f||
     990              
     991              $C$DW$67        .dwtag  DW_TAG_subprogram
     992                      .dwattr $C$DW$67, DW_AT_name("__relaxed_atan2f")
     993                      .dwattr $C$DW$67, DW_AT_low_pc(||__relaxed_atan2f||)
     994                      .dwattr $C$DW$67, DW_AT_high_pc(0x00)
     995                      .dwattr $C$DW$67, DW_AT_linkage_name("__relaxed_atan2f")
     996                      .dwattr $C$DW$67, DW_AT_external
     997                      .dwattr $C$DW$67, DW_AT_type(*$C$DW$T$16)
     998                      .dwattr $C$DW$67, DW_AT_decl_file("C:/ti/ccs2031/ccs/tools/compiler/ti-cgt-c2000_22.6.2.LTS/include/m
     999                      .dwattr $C$DW$67, DW_AT_decl_line(0x117)
TMS320C2000 Assembler PC v22.6.2 Wed Dec 10 14:45:02 2025

Copyright (c) 1996-2018 Texas Instruments Incorporated
fcl_foc_cpu_dm.asm                                                   PAGE   20

    1000                      .dwattr $C$DW$67, DW_AT_decl_column(0x10)
    1001                      .dwattr $C$DW$67, DW_AT_TI_max_frame_size(-2)
    1002                      .dwpsn  file "C:/ti/ccs2031/ccs/tools/compiler/ti-cgt-c2000_22.6.2.LTS/include/math.h",line 280,colum
    1003              
    1004                      .dwfde $C$DW$CIE, ||__relaxed_atan2f||
    1005              $C$DW$68        .dwtag  DW_TAG_formal_parameter
    1006                      .dwattr $C$DW$68, DW_AT_name("y")
    1007                      .dwattr $C$DW$68, DW_AT_type(*$C$DW$T$16)
    1008                      .dwattr $C$DW$68, DW_AT_location[DW_OP_regx 0x2b]
    1009              
    1010              $C$DW$69        .dwtag  DW_TAG_formal_parameter
    1011                      .dwattr $C$DW$69, DW_AT_name("x")
    1012                      .dwattr $C$DW$69, DW_AT_type(*$C$DW$T$16)
    1013                      .dwattr $C$DW$69, DW_AT_location[DW_OP_regx 0x2f]
    1014              
    1015              
    1016              ;***************************************************************
    1017              ;* FNAME: __relaxed_atan2f              FR SIZE:   0           *
    1018              ;*                                                             *
    1019              ;* FUNCTION ENVIRONMENT                                        *
    1020              ;*                                                             *
    1021              ;* FUNCTION PROPERTIES                                         *
    1022              ;*                            0 Parameter,  0 Auto,  0 SOE     *
    1023              ;***************************************************************
    1024              
    1025              ||__relaxed_atan2f||:
    1026              ;* R0    assigned to y
    1027              $C$DW$70        .dwtag  DW_TAG_variable
    1028                      .dwattr $C$DW$70, DW_AT_name("y")
    1029                      .dwattr $C$DW$70, DW_AT_type(*$C$DW$T$167)
    1030                      .dwattr $C$DW$70, DW_AT_location[DW_OP_regx 0x2b]
    1031              
    1032              ;* R1    assigned to x
    1033              $C$DW$71        .dwtag  DW_TAG_variable
    1034                      .dwattr $C$DW$71, DW_AT_name("x")
    1035                      .dwattr $C$DW$71, DW_AT_type(*$C$DW$T$167)
    1036                      .dwattr $C$DW$71, DW_AT_location[DW_OP_regx 0x2f]
    1037              
    1038                      .dwcfi  cfa_offset, -2
    1039                      .dwcfi  save_reg_to_mem, 26, 0
    1040                      .dwpsn  file "C:/ti/ccs2031/ccs/tools/compiler/ti-cgt-c2000_22.6.2.LTS/include/math.h",line 281,colum
    1041 00000000 E27C          QUADF32   R1H,R0H,R0H,R1H       ; [CPU_FPU] |281| 
         00000001 0201 
    1042 00000002 7700          NOP       ; [CPU_ALU] 
    1043 00000003 7700          NOP       ; [CPU_ALU] 
    1044 00000004 7700          NOP       ; [CPU_ALU] 
    1045 00000005 7700          NOP       ; [CPU_ALU] 
    1046 00000006 E27A          ATANPUF32 R0H,R0H               ; [CPU_FPU] |281| 
         00000007 0000 
    1047 00000008 7700          NOP       ; [CPU_ALU] 
    1048 00000009 7700          NOP       ; [CPU_ALU] 
    1049 0000000a 7700          NOP       ; [CPU_ALU] 
    1050 0000000b E710          ADDF32    R0H,R0H,R1H           ; [CPU_FPU] |281| 
         0000000c 0040 
    1051 0000000d 7700          NOP       ; [CPU_ALU] 
TMS320C2000 Assembler PC v22.6.2 Wed Dec 10 14:45:02 2025

Copyright (c) 1996-2018 Texas Instruments Incorporated
fcl_foc_cpu_dm.asm                                                   PAGE   21

    1052 0000000e 7700          NOP       ; [CPU_ALU] 
    1053 0000000f E270          MPY2PIF32 R0H,R0H               ; [CPU_FPU] |281| 
         00000010 0000 
    1054 00000011 7700          NOP       ; [CPU_ALU] 
    1055              $C$DW$72        .dwtag  DW_TAG_TI_branch
    1056                      .dwattr $C$DW$72, DW_AT_low_pc(0x00)
    1057                      .dwattr $C$DW$72, DW_AT_TI_return
    1058              
    1059 00000012 0006          LRETR     ; [CPU_ALU] 
    1060                      ; return occurs ; [] 
    1061                      .dwattr $C$DW$67, DW_AT_TI_end_file("C:/ti/ccs2031/ccs/tools/compiler/ti-cgt-c2000_22.6.2.LTS/include
    1062                      .dwattr $C$DW$67, DW_AT_TI_end_line(0x11a)
    1063                      .dwattr $C$DW$67, DW_AT_TI_end_column(0x01)
    1064                      .dwendentry
    1065                      .dwendtag $C$DW$67
    1066              
    1067 00000000               .sect   ".text:__isnormall"
    1068                      .clink
    1069                      .global ||__isnormall||
    1070              
    1071              $C$DW$73        .dwtag  DW_TAG_subprogram
    1072                      .dwattr $C$DW$73, DW_AT_name("__isnormall")
    1073                      .dwattr $C$DW$73, DW_AT_low_pc(||__isnormall||)
    1074                      .dwattr $C$DW$73, DW_AT_high_pc(0x00)
    1075                      .dwattr $C$DW$73, DW_AT_linkage_name("__isnormall")
    1076                      .dwattr $C$DW$73, DW_AT_external
    1077                      .dwattr $C$DW$73, DW_AT_type(*$C$DW$T$10)
    1078                      .dwattr $C$DW$73, DW_AT_decl_file("C:/ti/ccs2031/ccs/tools/compiler/ti-cgt-c2000_22.6.2.LTS/include/_
    1079                      .dwattr $C$DW$73, DW_AT_decl_line(0x167)
    1080                      .dwattr $C$DW$73, DW_AT_decl_column(0x18)
    1081                      .dwattr $C$DW$73, DW_AT_TI_max_frame_size(-6)
    1082                      .dwpsn  file "C:/ti/ccs2031/ccs/tools/compiler/ti-cgt-c2000_22.6.2.LTS/include/_defs.h",line 360,colu
    1083              
    1084                      .dwfde $C$DW$CIE, ||__isnormall||
    1085              $C$DW$74        .dwtag  DW_TAG_formal_parameter
    1086                      .dwattr $C$DW$74, DW_AT_name("e")
    1087                      .dwattr $C$DW$74, DW_AT_type(*$C$DW$T$171)
    1088                      .dwattr $C$DW$74, DW_AT_location[DW_OP_reg12]
    1089              
    1090              
    1091              ;***************************************************************
    1092              ;* FNAME: __isnormall                   FR SIZE:   4           *
    1093              ;*                                                             *
    1094              ;* FUNCTION ENVIRONMENT                                        *
    1095              ;*                                                             *
    1096              ;* FUNCTION PROPERTIES                                         *
    1097              ;*                            4 Parameter,  0 Auto,  0 SOE     *
    1098              ;***************************************************************
    1099              
    1100              ||__isnormall||:
    1101              ;* AR5   assigned to $O$C2
    1102              ;* AR6   assigned to $O$S1
    1103              ;* AR4   assigned to e
    1104              $C$DW$75        .dwtag  DW_TAG_variable
    1105                      .dwattr $C$DW$75, DW_AT_name("e")
TMS320C2000 Assembler PC v22.6.2 Wed Dec 10 14:45:02 2025

Copyright (c) 1996-2018 Texas Instruments Incorporated
fcl_foc_cpu_dm.asm                                                   PAGE   22

    1106                      .dwattr $C$DW$75, DW_AT_type(*$C$DW$T$172)
    1107                      .dwattr $C$DW$75, DW_AT_location[DW_OP_reg12]
    1108              
    1109                      .dwcfi  cfa_offset, -2
    1110                      .dwcfi  save_reg_to_mem, 26, 0
    1111 00000000 FE04          ADDB      SP,#4                 ; [CPU_ARAU] 
    1112                      .dwcfi  cfa_offset, -6
    1113                      .dwpsn  file "C:/ti/ccs2031/ccs/tools/compiler/ti-cgt-c2000_22.6.2.LTS/include/_defs.h",line 360,colu
    1114 00000001 83C4          MOVL      XAR5,*+XAR4[0]        ; [CPU_ALU] |360| 
    1115 00000002 8AD4          MOVL      XAR4,*+XAR4[2]        ; [CPU_ALU] |360| 
    1116 00000003 BE00          MOVB      XAR6,#0               ; [CPU_ALU] |360| 
    1117 00000004 28AC          MOV       T,#52                 ; [CPU_ALU] |360| 
         00000005 0034 
    1118 00000006 A0AB          MOVL      P,XAR5                ; [CPU_ALU] |360| 
    1119 00000007 A8A9          MOVL      ACC,XAR4              ; [CPU_ALU] |360| 
    1120 00000008 C244          MOVL      *-SP[4],XAR6          ; [CPU_ALU] |360| 
    1121 00000009 2B42          MOV       *-SP[2],#0            ; [CPU_ALU] |360| 
    1122 0000000a 565B          LSR64     ACC:P,T               ; [CPU_ALU] |360| 
    1123 0000000b 2B41          MOV       *-SP[1],#0            ; [CPU_FPU] |360| 
    1124 0000000c 9000          ANDB      AL,#0                 ; [CPU_ALU] |360| 
    1125 0000000d 9100          ANDB      AH,#0                 ; [CPU_ALU] |360| 
    1126 0000000e 18AB          AND       PL,#2047              ; [CPU_ALU] |360| 
         0000000f 07FF 
    1127 00000010 18AA          AND       PH,#0                 ; [CPU_ALU] |360| 
         00000011 0000 
    1128              $C$DW$76        .dwtag  DW_TAG_TI_branch
    1129                      .dwattr $C$DW$76, DW_AT_low_pc(0x00)
    1130                      .dwattr $C$DW$76, DW_AT_name("__c28xabi_cmpull")
    1131                      .dwattr $C$DW$76, DW_AT_TI_call
    1132              
    1133 00000012 7640!         LCR       #||__c28xabi_cmpull|| ; [CPU_ALU] |360| 
         00000013 0000 
    1134                      ; call occurs [#||__c28xabi_cmpull||] ; [] |360| 
    1135 00000014 BE00          MOVB      XAR6,#0               ; [CPU_ALU] |360| 
    1136 00000015 5200          CMPB      AL,#0                 ; [CPU_ALU] |360| 
    1137 00000016 610E          B         ||$C$L3||,EQ          ; [CPU_ALU] |360| 
    1138                      ; branchcc occurs ; [] |360| 
    1139 00000017 A0AB          MOVL      P,XAR5                ; [CPU_ALU] |360| 
    1140 00000018 A8A9          MOVL      ACC,XAR4              ; [CPU_ALU] |360| 
    1141 00000019 28AC          MOV       T,#48                 ; [CPU_ALU] |360| 
         0000001a 0030 
    1142 0000001b 565B          LSR64     ACC:P,T               ; [CPU_ALU] |360| 
    1143 0000001c 18AB          AND       PL,#0x7ff0            ; [CPU_ALU] |360| 
         0000001d 7FF0 
    1144 0000001e 80AB          MOVZ      AR7,PL                ; [CPU_ALU] |360| 
    1145 0000001f FF20          MOV       ACC,#32752            ; [CPU_ALU] |360| 
         00000020 7FF0 
    1146 00000021 0FA7          CMPL      ACC,XAR7              ; [CPU_ALU] |360| 
    1147 00000022 56B0          MOVB      XAR6,#1,NEQ           ; [CPU_ALU] |360| 
         00000023 01A6 
    1148 00000024       ||$C$L3||:    
    1149 00000024 FE84          SUBB      SP,#4                 ; [CPU_ARAU] 
    1150                      .dwcfi  cfa_offset, -2
    1151 00000025 92A6          MOV       AL,AR6                ; [CPU_ALU] |360| 
    1152              $C$DW$77        .dwtag  DW_TAG_TI_branch
TMS320C2000 Assembler PC v22.6.2 Wed Dec 10 14:45:02 2025

Copyright (c) 1996-2018 Texas Instruments Incorporated
fcl_foc_cpu_dm.asm                                                   PAGE   23

    1153                      .dwattr $C$DW$77, DW_AT_low_pc(0x00)
    1154                      .dwattr $C$DW$77, DW_AT_TI_return
    1155              
    1156 00000026 0006          LRETR     ; [CPU_ALU] 
    1157                      ; return occurs ; [] 
    1158                      .dwattr $C$DW$73, DW_AT_TI_end_file("C:/ti/ccs2031/ccs/tools/compiler/ti-cgt-c2000_22.6.2.LTS/include
    1159                      .dwattr $C$DW$73, DW_AT_TI_end_line(0x169)
    1160                      .dwattr $C$DW$73, DW_AT_TI_end_column(0x31)
    1161                      .dwendentry
    1162                      .dwendtag $C$DW$73
    1163              
    1164 00000000               .sect   ".text:__isnormalf"
    1165                      .clink
    1166                      .global ||__isnormalf||
    1167              
    1168              $C$DW$78        .dwtag  DW_TAG_subprogram
    1169                      .dwattr $C$DW$78, DW_AT_name("__isnormalf")
    1170                      .dwattr $C$DW$78, DW_AT_low_pc(||__isnormalf||)
    1171                      .dwattr $C$DW$78, DW_AT_high_pc(0x00)
    1172                      .dwattr $C$DW$78, DW_AT_linkage_name("__isnormalf")
    1173                      .dwattr $C$DW$78, DW_AT_external
    1174                      .dwattr $C$DW$78, DW_AT_type(*$C$DW$T$10)
    1175                      .dwattr $C$DW$78, DW_AT_decl_file("C:/ti/ccs2031/ccs/tools/compiler/ti-cgt-c2000_22.6.2.LTS/include/_
    1176                      .dwattr $C$DW$78, DW_AT_decl_line(0x163)
    1177                      .dwattr $C$DW$78, DW_AT_decl_column(0x18)
    1178                      .dwattr $C$DW$78, DW_AT_TI_max_frame_size(-2)
    1179                      .dwpsn  file "C:/ti/ccs2031/ccs/tools/compiler/ti-cgt-c2000_22.6.2.LTS/include/_defs.h",line 356,colu
    1180              
    1181                      .dwfde $C$DW$CIE, ||__isnormalf||
    1182              $C$DW$79        .dwtag  DW_TAG_formal_parameter
    1183                      .dwattr $C$DW$79, DW_AT_name("f")
    1184                      .dwattr $C$DW$79, DW_AT_type(*$C$DW$T$16)
    1185                      .dwattr $C$DW$79, DW_AT_location[DW_OP_regx 0x2b]
    1186              
    1187              
    1188              ;***************************************************************
    1189              ;* FNAME: __isnormalf                   FR SIZE:   0           *
    1190              ;*                                                             *
    1191              ;* FUNCTION ENVIRONMENT                                        *
    1192              ;*                                                             *
    1193              ;* FUNCTION PROPERTIES                                         *
    1194              ;*                            0 Parameter,  0 Auto,  0 SOE     *
    1195              ;***************************************************************
    1196              
    1197              ||__isnormalf||:
    1198              ;* PL    assigned to $O$K3
    1199              ;* AR6   assigned to $O$S1
    1200              ;* R0    assigned to f
    1201              $C$DW$80        .dwtag  DW_TAG_variable
    1202                      .dwattr $C$DW$80, DW_AT_name("f")
    1203                      .dwattr $C$DW$80, DW_AT_type(*$C$DW$T$167)
    1204                      .dwattr $C$DW$80, DW_AT_location[DW_OP_regx 0x2b]
    1205              
    1206                      .dwcfi  cfa_offset, -2
    1207                      .dwcfi  save_reg_to_mem, 26, 0
TMS320C2000 Assembler PC v22.6.2 Wed Dec 10 14:45:02 2025

Copyright (c) 1996-2018 Texas Instruments Incorporated
fcl_foc_cpu_dm.asm                                                   PAGE   24

    1208                      .dwpsn  file "C:/ti/ccs2031/ccs/tools/compiler/ti-cgt-c2000_22.6.2.LTS/include/_defs.h",line 356,colu
    1209 00000000 BFAB          MOV32     P,R0H                 ; [CPU_FPU] |356| 
         00000001 0F12 
    1210 00000002 28AC          MOV       T,#23                 ; [CPU_ALU] |356| 
         00000003 0017 
    1211 00000004 A9A9          MOVL      ACC,P                 ; [CPU_ALU] |356| 
    1212 00000005 BE00          MOVB      XAR6,#0               ; [CPU_ALU] |356| 
    1213 00000006 5622          LSRL      ACC,T                 ; [CPU_ALU] |356| 
    1214 00000007 90FF          ANDB      AL,#0xff              ; [CPU_ALU] |356| 
    1215 00000008 6109          B         ||$C$L4||,EQ          ; [CPU_ALU] |356| 
    1216                      ; branchcc occurs ; [] |356| 
    1217 00000009 CCAA          AND       AL,PH,#0x7f80         ; [CPU_ALU] |356| 
         0000000a 7F80 
    1218 0000000b 80A9          MOVZ      AR7,AL                ; [CPU_ALU] |356| 
    1219 0000000c FF20          MOV       ACC,#32640            ; [CPU_ALU] |356| 
         0000000d 7F80 
    1220 0000000e 0FA7          CMPL      ACC,XAR7              ; [CPU_ALU] |356| 
    1221 0000000f 56B0          MOVB      XAR6,#1,NEQ           ; [CPU_ALU] |356| 
         00000010 01A6 
    1222 00000011       ||$C$L4||:    
    1223 00000011 92A6          MOV       AL,AR6                ; [CPU_ALU] |356| 
    1224              $C$DW$81        .dwtag  DW_TAG_TI_branch
    1225                      .dwattr $C$DW$81, DW_AT_low_pc(0x00)
    1226                      .dwattr $C$DW$81, DW_AT_TI_return
    1227              
    1228 00000012 0006          LRETR     ; [CPU_ALU] 
    1229                      ; return occurs ; [] 
    1230                      .dwattr $C$DW$78, DW_AT_TI_end_file("C:/ti/ccs2031/ccs/tools/compiler/ti-cgt-c2000_22.6.2.LTS/include
    1231                      .dwattr $C$DW$78, DW_AT_TI_end_line(0x165)
    1232                      .dwattr $C$DW$78, DW_AT_TI_end_column(0x2f)
    1233                      .dwendentry
    1234                      .dwendtag $C$DW$78
    1235              
    1236 00000000               .sect   ".text:__isnormal"
    1237                      .clink
    1238                      .global ||__isnormal||
    1239              
    1240              $C$DW$82        .dwtag  DW_TAG_subprogram
    1241                      .dwattr $C$DW$82, DW_AT_name("__isnormal")
    1242                      .dwattr $C$DW$82, DW_AT_low_pc(||__isnormal||)
    1243                      .dwattr $C$DW$82, DW_AT_high_pc(0x00)
    1244                      .dwattr $C$DW$82, DW_AT_linkage_name("__isnormal")
    1245                      .dwattr $C$DW$82, DW_AT_external
    1246                      .dwattr $C$DW$82, DW_AT_type(*$C$DW$T$10)
    1247                      .dwattr $C$DW$82, DW_AT_decl_file("C:/ti/ccs2031/ccs/tools/compiler/ti-cgt-c2000_22.6.2.LTS/include/_
    1248                      .dwattr $C$DW$82, DW_AT_decl_line(0x15f)
    1249                      .dwattr $C$DW$82, DW_AT_decl_column(0x18)
    1250                      .dwattr $C$DW$82, DW_AT_TI_max_frame_size(-6)
    1251                      .dwpsn  file "C:/ti/ccs2031/ccs/tools/compiler/ti-cgt-c2000_22.6.2.LTS/include/_defs.h",line 352,colu
    1252              
    1253                      .dwfde $C$DW$CIE, ||__isnormal||
    1254              $C$DW$83        .dwtag  DW_TAG_formal_parameter
    1255                      .dwattr $C$DW$83, DW_AT_name("d")
    1256                      .dwattr $C$DW$83, DW_AT_type(*$C$DW$T$168)
    1257                      .dwattr $C$DW$83, DW_AT_location[DW_OP_reg12]
TMS320C2000 Assembler PC v22.6.2 Wed Dec 10 14:45:02 2025

Copyright (c) 1996-2018 Texas Instruments Incorporated
fcl_foc_cpu_dm.asm                                                   PAGE   25

    1258              
    1259              
    1260              ;***************************************************************
    1261              ;* FNAME: __isnormal                    FR SIZE:   4           *
    1262              ;*                                                             *
    1263              ;* FUNCTION ENVIRONMENT                                        *
    1264              ;*                                                             *
    1265              ;* FUNCTION PROPERTIES                                         *
    1266              ;*                            4 Parameter,  0 Auto,  0 SOE     *
    1267              ;***************************************************************
    1268              
    1269              ||__isnormal||:
    1270              ;* AR5   assigned to $O$C2
    1271              ;* AR6   assigned to $O$S1
    1272              ;* AR4   assigned to d
    1273              $C$DW$84        .dwtag  DW_TAG_variable
    1274                      .dwattr $C$DW$84, DW_AT_name("d")
    1275                      .dwattr $C$DW$84, DW_AT_type(*$C$DW$T$169)
    1276                      .dwattr $C$DW$84, DW_AT_location[DW_OP_reg12]
    1277              
    1278                      .dwcfi  cfa_offset, -2
    1279                      .dwcfi  save_reg_to_mem, 26, 0
    1280 00000000 FE04          ADDB      SP,#4                 ; [CPU_ARAU] 
    1281                      .dwcfi  cfa_offset, -6
    1282                      .dwpsn  file "C:/ti/ccs2031/ccs/tools/compiler/ti-cgt-c2000_22.6.2.LTS/include/_defs.h",line 352,colu
    1283 00000001 83C4          MOVL      XAR5,*+XAR4[0]        ; [CPU_ALU] |352| 
    1284 00000002 8AD4          MOVL      XAR4,*+XAR4[2]        ; [CPU_ALU] |352| 
    1285 00000003 BE00          MOVB      XAR6,#0               ; [CPU_ALU] |352| 
    1286 00000004 28AC          MOV       T,#52                 ; [CPU_ALU] |352| 
         00000005 0034 
    1287 00000006 A0AB          MOVL      P,XAR5                ; [CPU_ALU] |352| 
    1288 00000007 A8A9          MOVL      ACC,XAR4              ; [CPU_ALU] |352| 
    1289 00000008 C244          MOVL      *-SP[4],XAR6          ; [CPU_ALU] |352| 
    1290 00000009 2B42          MOV       *-SP[2],#0            ; [CPU_ALU] |352| 
    1291 0000000a 565B          LSR64     ACC:P,T               ; [CPU_ALU] |352| 
    1292 0000000b 2B41          MOV       *-SP[1],#0            ; [CPU_FPU] |352| 
    1293 0000000c 9000          ANDB      AL,#0                 ; [CPU_ALU] |352| 
    1294 0000000d 9100          ANDB      AH,#0                 ; [CPU_ALU] |352| 
    1295 0000000e 18AB          AND       PL,#2047              ; [CPU_ALU] |352| 
         0000000f 07FF 
    1296 00000010 18AA          AND       PH,#0                 ; [CPU_ALU] |352| 
         00000011 0000 
    1297              $C$DW$85        .dwtag  DW_TAG_TI_branch
    1298                      .dwattr $C$DW$85, DW_AT_low_pc(0x00)
    1299                      .dwattr $C$DW$85, DW_AT_name("__c28xabi_cmpull")
    1300                      .dwattr $C$DW$85, DW_AT_TI_call
    1301              
    1302 00000012 7640!         LCR       #||__c28xabi_cmpull|| ; [CPU_ALU] |352| 
         00000013 0000 
    1303                      ; call occurs [#||__c28xabi_cmpull||] ; [] |352| 
    1304 00000014 BE00          MOVB      XAR6,#0               ; [CPU_ALU] |352| 
    1305 00000015 5200          CMPB      AL,#0                 ; [CPU_ALU] |352| 
    1306 00000016 610E          B         ||$C$L5||,EQ          ; [CPU_ALU] |352| 
    1307                      ; branchcc occurs ; [] |352| 
    1308 00000017 A0AB          MOVL      P,XAR5                ; [CPU_ALU] |352| 
TMS320C2000 Assembler PC v22.6.2 Wed Dec 10 14:45:02 2025

Copyright (c) 1996-2018 Texas Instruments Incorporated
fcl_foc_cpu_dm.asm                                                   PAGE   26

    1309 00000018 A8A9          MOVL      ACC,XAR4              ; [CPU_ALU] |352| 
    1310 00000019 28AC          MOV       T,#48                 ; [CPU_ALU] |352| 
         0000001a 0030 
    1311 0000001b 565B          LSR64     ACC:P,T               ; [CPU_ALU] |352| 
    1312 0000001c 18AB          AND       PL,#0x7ff0            ; [CPU_ALU] |352| 
         0000001d 7FF0 
    1313 0000001e 80AB          MOVZ      AR7,PL                ; [CPU_ALU] |352| 
    1314 0000001f FF20          MOV       ACC,#32752            ; [CPU_ALU] |352| 
         00000020 7FF0 
    1315 00000021 0FA7          CMPL      ACC,XAR7              ; [CPU_ALU] |352| 
    1316 00000022 56B0          MOVB      XAR6,#1,NEQ           ; [CPU_ALU] |352| 
         00000023 01A6 
    1317 00000024       ||$C$L5||:    
    1318 00000024 FE84          SUBB      SP,#4                 ; [CPU_ARAU] 
    1319                      .dwcfi  cfa_offset, -2
    1320 00000025 92A6          MOV       AL,AR6                ; [CPU_ALU] |352| 
    1321              $C$DW$86        .dwtag  DW_TAG_TI_branch
    1322                      .dwattr $C$DW$86, DW_AT_low_pc(0x00)
    1323                      .dwattr $C$DW$86, DW_AT_TI_return
    1324              
    1325 00000026 0006          LRETR     ; [CPU_ALU] 
    1326                      ; return occurs ; [] 
    1327                      .dwattr $C$DW$82, DW_AT_TI_end_file("C:/ti/ccs2031/ccs/tools/compiler/ti-cgt-c2000_22.6.2.LTS/include
    1328                      .dwattr $C$DW$82, DW_AT_TI_end_line(0x161)
    1329                      .dwattr $C$DW$82, DW_AT_TI_end_column(0x30)
    1330                      .dwendentry
    1331                      .dwendtag $C$DW$82
    1332              
    1333 00000000               .sect   ".text:__isnanl"
    1334                      .clink
    1335                      .global ||__isnanl||
    1336              
    1337              $C$DW$87        .dwtag  DW_TAG_subprogram
    1338                      .dwattr $C$DW$87, DW_AT_name("__isnanl")
    1339                      .dwattr $C$DW$87, DW_AT_low_pc(||__isnanl||)
    1340                      .dwattr $C$DW$87, DW_AT_high_pc(0x00)
    1341                      .dwattr $C$DW$87, DW_AT_linkage_name("__isnanl")
    1342                      .dwattr $C$DW$87, DW_AT_external
    1343                      .dwattr $C$DW$87, DW_AT_type(*$C$DW$T$10)
    1344                      .dwattr $C$DW$87, DW_AT_decl_file("C:/ti/ccs2031/ccs/tools/compiler/ti-cgt-c2000_22.6.2.LTS/include/_
    1345                      .dwattr $C$DW$87, DW_AT_decl_line(0x15b)
    1346                      .dwattr $C$DW$87, DW_AT_decl_column(0x18)
    1347                      .dwattr $C$DW$87, DW_AT_TI_max_frame_size(-6)
    1348                      .dwpsn  file "C:/ti/ccs2031/ccs/tools/compiler/ti-cgt-c2000_22.6.2.LTS/include/_defs.h",line 348,colu
    1349              
    1350                      .dwfde $C$DW$CIE, ||__isnanl||
    1351              $C$DW$88        .dwtag  DW_TAG_formal_parameter
    1352                      .dwattr $C$DW$88, DW_AT_name("e")
    1353                      .dwattr $C$DW$88, DW_AT_type(*$C$DW$T$171)
    1354                      .dwattr $C$DW$88, DW_AT_location[DW_OP_reg12]
    1355              
    1356              
    1357              ;***************************************************************
    1358              ;* FNAME: __isnanl                      FR SIZE:   4           *
    1359              ;*                                                             *
TMS320C2000 Assembler PC v22.6.2 Wed Dec 10 14:45:02 2025

Copyright (c) 1996-2018 Texas Instruments Incorporated
fcl_foc_cpu_dm.asm                                                   PAGE   27

    1360              ;* FUNCTION ENVIRONMENT                                        *
    1361              ;*                                                             *
    1362              ;* FUNCTION PROPERTIES                                         *
    1363              ;*                            4 Parameter,  0 Auto,  0 SOE     *
    1364              ;***************************************************************
    1365              
    1366              ||__isnanl||:
    1367              ;* AR7   assigned to $O$C2
    1368              ;* AR4   assigned to $O$S1
    1369              ;* AR4   assigned to e
    1370              $C$DW$89        .dwtag  DW_TAG_variable
    1371                      .dwattr $C$DW$89, DW_AT_name("e")
    1372                      .dwattr $C$DW$89, DW_AT_type(*$C$DW$T$172)
    1373                      .dwattr $C$DW$89, DW_AT_location[DW_OP_reg12]
    1374              
    1375                      .dwcfi  cfa_offset, -2
    1376                      .dwcfi  save_reg_to_mem, 26, 0
    1377 00000000 FE04          ADDB      SP,#4                 ; [CPU_ARAU] 
    1378                      .dwcfi  cfa_offset, -6
    1379                      .dwpsn  file "C:/ti/ccs2031/ccs/tools/compiler/ti-cgt-c2000_22.6.2.LTS/include/_defs.h",line 348,colu
    1380 00000001 C5C4          MOVL      XAR7,*+XAR4[0]        ; [CPU_ALU] |348| 
    1381 00000002 06D4          MOVL      ACC,*+XAR4[2]         ; [CPU_ALU] |348| 
    1382 00000003 28AC          MOV       T,#48                 ; [CPU_ALU] |348| 
         00000004 0030 
    1383 00000005 1EA6          MOVL      XAR6,ACC              ; [CPU_ALU] |348| 
    1384 00000006 A3A7          MOVL      P,XAR7                ; [CPU_ALU] |348| 
    1385 00000007 D400          MOVB      XAR4,#0               ; [CPU_ALU] |348| 
    1386 00000008 565B          LSR64     ACC:P,T               ; [CPU_ALU] |348| 
    1387 00000009 2BAA          MOV       PH,#0                 ; [CPU_ALU] |348| 
    1388 0000000a 18AB          AND       PL,#0x7ff0            ; [CPU_ALU] |348| 
         0000000b 7FF0 
    1389 0000000c FF20          MOV       ACC,#32752            ; [CPU_ALU] |348| 
         0000000d 7FF0 
    1390 0000000e 0FAB          CMPL      ACC,P                 ; [CPU_ALU] |348| 
    1391 0000000f 6013          B         ||$C$L6||,NEQ         ; [CPU_ALU] |348| 
    1392                      ; branchcc occurs ; [] |348| 
    1393 00000010 06A6          MOVL      ACC,XAR6              ; [CPU_ALU] |348| 
    1394 00000011 A3A7          MOVL      P,XAR7                ; [CPU_ALU] |348| 
    1395 00000012 BE00          MOVB      XAR6,#0               ; [CPU_ALU] |348| 
    1396 00000013 18A9          AND       AL,#65535             ; [CPU_ALU] |348| 
         00000014 FFFF 
    1397 00000015 910F          ANDB      AH,#15                ; [CPU_ALU] |348| 
    1398 00000016 18AB          AND       PL,#65535             ; [CPU_ALU] |348| 
         00000017 FFFF 
    1399 00000018 18AA          AND       PH,#65535             ; [CPU_ALU] |348| 
         00000019 FFFF 
    1400 0000001a C244          MOVL      *-SP[4],XAR6          ; [CPU_FPU] |348| 
    1401 0000001b 2B42          MOV       *-SP[2],#0            ; [CPU_FPU] |348| 
    1402 0000001c 2B41          MOV       *-SP[1],#0            ; [CPU_FPU] |348| 
    1403              $C$DW$90        .dwtag  DW_TAG_TI_branch
    1404                      .dwattr $C$DW$90, DW_AT_low_pc(0x00)
    1405                      .dwattr $C$DW$90, DW_AT_name("__c28xabi_cmpull")
    1406                      .dwattr $C$DW$90, DW_AT_TI_call
    1407              
    1408 0000001d 7640!         LCR       #||__c28xabi_cmpull|| ; [CPU_ALU] |348| 
TMS320C2000 Assembler PC v22.6.2 Wed Dec 10 14:45:02 2025

Copyright (c) 1996-2018 Texas Instruments Incorporated
fcl_foc_cpu_dm.asm                                                   PAGE   28

         0000001e 0000 
    1409                      ; call occurs [#||__c28xabi_cmpull||] ; [] |348| 
    1410 0000001f 5200          CMPB      AL,#0                 ; [CPU_ALU] |348| 
    1411 00000020 56B0          MOVB      XAR4,#1,NEQ           ; [CPU_ALU] |348| 
         00000021 01A4 
    1412 00000022       ||$C$L6||:    
    1413 00000022 FE84          SUBB      SP,#4                 ; [CPU_ARAU] 
    1414                      .dwcfi  cfa_offset, -2
    1415 00000023 92A4          MOV       AL,AR4                ; [CPU_ALU] |348| 
    1416              $C$DW$91        .dwtag  DW_TAG_TI_branch
    1417                      .dwattr $C$DW$91, DW_AT_low_pc(0x00)
    1418                      .dwattr $C$DW$91, DW_AT_TI_return
    1419              
    1420 00000024 0006          LRETR     ; [CPU_ALU] 
    1421                      ; return occurs ; [] 
    1422                      .dwattr $C$DW$87, DW_AT_TI_end_file("C:/ti/ccs2031/ccs/tools/compiler/ti-cgt-c2000_22.6.2.LTS/include
    1423                      .dwattr $C$DW$87, DW_AT_TI_end_line(0x15d)
    1424                      .dwattr $C$DW$87, DW_AT_TI_end_column(0x30)
    1425                      .dwendentry
    1426                      .dwendtag $C$DW$87
    1427              
    1428 00000000               .sect   ".text:__isnanf"
    1429                      .clink
    1430                      .global ||__isnanf||
    1431              
    1432              $C$DW$92        .dwtag  DW_TAG_subprogram
    1433                      .dwattr $C$DW$92, DW_AT_name("__isnanf")
    1434                      .dwattr $C$DW$92, DW_AT_low_pc(||__isnanf||)
    1435                      .dwattr $C$DW$92, DW_AT_high_pc(0x00)
    1436                      .dwattr $C$DW$92, DW_AT_linkage_name("__isnanf")
    1437                      .dwattr $C$DW$92, DW_AT_external
    1438                      .dwattr $C$DW$92, DW_AT_type(*$C$DW$T$10)
    1439                      .dwattr $C$DW$92, DW_AT_decl_file("C:/ti/ccs2031/ccs/tools/compiler/ti-cgt-c2000_22.6.2.LTS/include/_
    1440                      .dwattr $C$DW$92, DW_AT_decl_line(0x158)
    1441                      .dwattr $C$DW$92, DW_AT_decl_column(0x18)
    1442                      .dwattr $C$DW$92, DW_AT_TI_max_frame_size(-2)
    1443                      .dwpsn  file "C:/ti/ccs2031/ccs/tools/compiler/ti-cgt-c2000_22.6.2.LTS/include/_defs.h",line 345,colu
    1444              
    1445                      .dwfde $C$DW$CIE, ||__isnanf||
    1446              $C$DW$93        .dwtag  DW_TAG_formal_parameter
    1447                      .dwattr $C$DW$93, DW_AT_name("f")
    1448                      .dwattr $C$DW$93, DW_AT_type(*$C$DW$T$16)
    1449                      .dwattr $C$DW$93, DW_AT_location[DW_OP_regx 0x2b]
    1450              
    1451              
    1452              ;***************************************************************
    1453              ;* FNAME: __isnanf                      FR SIZE:   0           *
    1454              ;*                                                             *
    1455              ;* FUNCTION ENVIRONMENT                                        *
    1456              ;*                                                             *
    1457              ;* FUNCTION PROPERTIES                                         *
    1458              ;*                            0 Parameter,  0 Auto,  0 SOE     *
    1459              ;***************************************************************
    1460              
    1461              ||__isnanf||:
TMS320C2000 Assembler PC v22.6.2 Wed Dec 10 14:45:02 2025

Copyright (c) 1996-2018 Texas Instruments Incorporated
fcl_foc_cpu_dm.asm                                                   PAGE   29

    1462              ;* PL    assigned to $O$K3
    1463              ;* AR6   assigned to $O$S1
    1464              ;* R0    assigned to f
    1465              $C$DW$94        .dwtag  DW_TAG_variable
    1466                      .dwattr $C$DW$94, DW_AT_name("f")
    1467                      .dwattr $C$DW$94, DW_AT_type(*$C$DW$T$167)
    1468                      .dwattr $C$DW$94, DW_AT_location[DW_OP_regx 0x2b]
    1469              
    1470                      .dwcfi  cfa_offset, -2
    1471                      .dwcfi  save_reg_to_mem, 26, 0
    1472                      .dwpsn  file "C:/ti/ccs2031/ccs/tools/compiler/ti-cgt-c2000_22.6.2.LTS/include/_defs.h",line 345,colu
    1473 00000000 BFAB          MOV32     P,R0H                 ; [CPU_FPU] |345| 
         00000001 0F12 
    1474 00000002 CCAA          AND       AL,PH,#0x7f80         ; [CPU_ALU] |345| 
         00000003 7F80 
    1475 00000004 80A9          MOVZ      AR7,AL                ; [CPU_ALU] |345| 
    1476 00000005 BE00          MOVB      XAR6,#0               ; [CPU_ALU] |345| 
    1477 00000006 FF20          MOV       ACC,#32640            ; [CPU_ALU] |345| 
         00000007 7F80 
    1478 00000008 0FA7          CMPL      ACC,XAR7              ; [CPU_ALU] |345| 
    1479 00000009 6006          B         ||$C$L7||,NEQ         ; [CPU_ALU] |345| 
    1480                      ; branchcc occurs ; [] |345| 
    1481 0000000a A9A9          MOVL      ACC,P                 ; [CPU_ALU] |345| 
    1482 0000000b 917F          ANDB      AH,#127               ; [CPU_ALU] |345| 
    1483 0000000c FF58          TEST      ACC                   ; [CPU_ALU] |345| 
    1484 0000000d 56B0          MOVB      XAR6,#1,NEQ           ; [CPU_ALU] |345| 
         0000000e 01A6 
    1485 0000000f       ||$C$L7||:    
    1486 0000000f 92A6          MOV       AL,AR6                ; [CPU_ALU] |345| 
    1487              $C$DW$95        .dwtag  DW_TAG_TI_branch
    1488                      .dwattr $C$DW$95, DW_AT_low_pc(0x00)
    1489                      .dwattr $C$DW$95, DW_AT_TI_return
    1490              
    1491 00000010 0006          LRETR     ; [CPU_ALU] 
    1492                      ; return occurs ; [] 
    1493                      .dwattr $C$DW$92, DW_AT_TI_end_file("C:/ti/ccs2031/ccs/tools/compiler/ti-cgt-c2000_22.6.2.LTS/include
    1494                      .dwattr $C$DW$92, DW_AT_TI_end_line(0x15a)
    1495                      .dwattr $C$DW$92, DW_AT_TI_end_column(0x2e)
    1496                      .dwendentry
    1497                      .dwendtag $C$DW$92
    1498              
    1499 00000000               .sect   ".text:__isnan"
    1500                      .clink
    1501                      .global ||__isnan||
    1502              
    1503              $C$DW$96        .dwtag  DW_TAG_subprogram
    1504                      .dwattr $C$DW$96, DW_AT_name("__isnan")
    1505                      .dwattr $C$DW$96, DW_AT_low_pc(||__isnan||)
    1506                      .dwattr $C$DW$96, DW_AT_high_pc(0x00)
    1507                      .dwattr $C$DW$96, DW_AT_linkage_name("__isnan")
    1508                      .dwattr $C$DW$96, DW_AT_external
    1509                      .dwattr $C$DW$96, DW_AT_type(*$C$DW$T$10)
    1510                      .dwattr $C$DW$96, DW_AT_decl_file("C:/ti/ccs2031/ccs/tools/compiler/ti-cgt-c2000_22.6.2.LTS/include/_
    1511                      .dwattr $C$DW$96, DW_AT_decl_line(0x155)
    1512                      .dwattr $C$DW$96, DW_AT_decl_column(0x18)
TMS320C2000 Assembler PC v22.6.2 Wed Dec 10 14:45:02 2025

Copyright (c) 1996-2018 Texas Instruments Incorporated
fcl_foc_cpu_dm.asm                                                   PAGE   30

    1513                      .dwattr $C$DW$96, DW_AT_TI_max_frame_size(-6)
    1514                      .dwpsn  file "C:/ti/ccs2031/ccs/tools/compiler/ti-cgt-c2000_22.6.2.LTS/include/_defs.h",line 342,colu
    1515              
    1516                      .dwfde $C$DW$CIE, ||__isnan||
    1517              $C$DW$97        .dwtag  DW_TAG_formal_parameter
    1518                      .dwattr $C$DW$97, DW_AT_name("d")
    1519                      .dwattr $C$DW$97, DW_AT_type(*$C$DW$T$168)
    1520                      .dwattr $C$DW$97, DW_AT_location[DW_OP_reg12]
    1521              
    1522              
    1523              ;***************************************************************
    1524              ;* FNAME: __isnan                       FR SIZE:   4           *
    1525              ;*                                                             *
    1526              ;* FUNCTION ENVIRONMENT                                        *
    1527              ;*                                                             *
    1528              ;* FUNCTION PROPERTIES                                         *
    1529              ;*                            4 Parameter,  0 Auto,  0 SOE     *
    1530              ;***************************************************************
    1531              
    1532              ||__isnan||:
    1533              ;* AR7   assigned to $O$C2
    1534              ;* AR4   assigned to $O$S1
    1535              ;* AR4   assigned to d
    1536              $C$DW$98        .dwtag  DW_TAG_variable
    1537                      .dwattr $C$DW$98, DW_AT_name("d")
    1538                      .dwattr $C$DW$98, DW_AT_type(*$C$DW$T$169)
    1539                      .dwattr $C$DW$98, DW_AT_location[DW_OP_reg12]
    1540              
    1541                      .dwcfi  cfa_offset, -2
    1542                      .dwcfi  save_reg_to_mem, 26, 0
    1543 00000000 FE04          ADDB      SP,#4                 ; [CPU_ARAU] 
    1544                      .dwcfi  cfa_offset, -6
    1545                      .dwpsn  file "C:/ti/ccs2031/ccs/tools/compiler/ti-cgt-c2000_22.6.2.LTS/include/_defs.h",line 342,colu
    1546 00000001 C5C4          MOVL      XAR7,*+XAR4[0]        ; [CPU_ALU] |342| 
    1547 00000002 06D4          MOVL      ACC,*+XAR4[2]         ; [CPU_ALU] |342| 
    1548 00000003 28AC          MOV       T,#48                 ; [CPU_ALU] |342| 
         00000004 0030 
    1549 00000005 1EA6          MOVL      XAR6,ACC              ; [CPU_ALU] |342| 
    1550 00000006 A3A7          MOVL      P,XAR7                ; [CPU_ALU] |342| 
    1551 00000007 D400          MOVB      XAR4,#0               ; [CPU_ALU] |342| 
    1552 00000008 565B          LSR64     ACC:P,T               ; [CPU_ALU] |342| 
    1553 00000009 2BAA          MOV       PH,#0                 ; [CPU_ALU] |342| 
    1554 0000000a 18AB          AND       PL,#0x7ff0            ; [CPU_ALU] |342| 
         0000000b 7FF0 
    1555 0000000c FF20          MOV       ACC,#32752            ; [CPU_ALU] |342| 
         0000000d 7FF0 
    1556 0000000e 0FAB          CMPL      ACC,P                 ; [CPU_ALU] |342| 
    1557 0000000f 6013          B         ||$C$L8||,NEQ         ; [CPU_ALU] |342| 
    1558                      ; branchcc occurs ; [] |342| 
    1559 00000010 06A6          MOVL      ACC,XAR6              ; [CPU_ALU] |342| 
    1560 00000011 A3A7          MOVL      P,XAR7                ; [CPU_ALU] |342| 
    1561 00000012 BE00          MOVB      XAR6,#0               ; [CPU_ALU] |342| 
    1562 00000013 18A9          AND       AL,#65535             ; [CPU_ALU] |342| 
         00000014 FFFF 
    1563 00000015 910F          ANDB      AH,#15                ; [CPU_ALU] |342| 
TMS320C2000 Assembler PC v22.6.2 Wed Dec 10 14:45:02 2025

Copyright (c) 1996-2018 Texas Instruments Incorporated
fcl_foc_cpu_dm.asm                                                   PAGE   31

    1564 00000016 18AB          AND       PL,#65535             ; [CPU_ALU] |342| 
         00000017 FFFF 
    1565 00000018 18AA          AND       PH,#65535             ; [CPU_ALU] |342| 
         00000019 FFFF 
    1566 0000001a C244          MOVL      *-SP[4],XAR6          ; [CPU_FPU] |342| 
    1567 0000001b 2B42          MOV       *-SP[2],#0            ; [CPU_FPU] |342| 
    1568 0000001c 2B41          MOV       *-SP[1],#0            ; [CPU_FPU] |342| 
    1569              $C$DW$99        .dwtag  DW_TAG_TI_branch
    1570                      .dwattr $C$DW$99, DW_AT_low_pc(0x00)
    1571                      .dwattr $C$DW$99, DW_AT_name("__c28xabi_cmpull")
    1572                      .dwattr $C$DW$99, DW_AT_TI_call
    1573              
    1574 0000001d 7640!         LCR       #||__c28xabi_cmpull|| ; [CPU_ALU] |342| 
         0000001e 0000 
    1575                      ; call occurs [#||__c28xabi_cmpull||] ; [] |342| 
    1576 0000001f 5200          CMPB      AL,#0                 ; [CPU_ALU] |342| 
    1577 00000020 56B0          MOVB      XAR4,#1,NEQ           ; [CPU_ALU] |342| 
         00000021 01A4 
    1578 00000022       ||$C$L8||:    
    1579 00000022 FE84          SUBB      SP,#4                 ; [CPU_ARAU] 
    1580                      .dwcfi  cfa_offset, -2
    1581 00000023 92A4          MOV       AL,AR4                ; [CPU_ALU] |342| 
    1582              $C$DW$100       .dwtag  DW_TAG_TI_branch
    1583                      .dwattr $C$DW$100, DW_AT_low_pc(0x00)
    1584                      .dwattr $C$DW$100, DW_AT_TI_return
    1585              
    1586 00000024 0006          LRETR     ; [CPU_ALU] 
    1587                      ; return occurs ; [] 
    1588                      .dwattr $C$DW$96, DW_AT_TI_end_file("C:/ti/ccs2031/ccs/tools/compiler/ti-cgt-c2000_22.6.2.LTS/include
    1589                      .dwattr $C$DW$96, DW_AT_TI_end_line(0x157)
    1590                      .dwattr $C$DW$96, DW_AT_TI_end_column(0x2f)
    1591                      .dwendentry
    1592                      .dwendtag $C$DW$96
    1593              
    1594 00000000               .sect   ".text:__isinfl"
    1595                      .clink
    1596                      .global ||__isinfl||
    1597              
    1598              $C$DW$101       .dwtag  DW_TAG_subprogram
    1599                      .dwattr $C$DW$101, DW_AT_name("__isinfl")
    1600                      .dwattr $C$DW$101, DW_AT_low_pc(||__isinfl||)
    1601                      .dwattr $C$DW$101, DW_AT_high_pc(0x00)
    1602                      .dwattr $C$DW$101, DW_AT_linkage_name("__isinfl")
    1603                      .dwattr $C$DW$101, DW_AT_external
    1604                      .dwattr $C$DW$101, DW_AT_type(*$C$DW$T$10)
    1605                      .dwattr $C$DW$101, DW_AT_decl_file("C:/ti/ccs2031/ccs/tools/compiler/ti-cgt-c2000_22.6.2.LTS/include/
    1606                      .dwattr $C$DW$101, DW_AT_decl_line(0x17a)
    1607                      .dwattr $C$DW$101, DW_AT_decl_column(0x18)
    1608                      .dwattr $C$DW$101, DW_AT_TI_max_frame_size(-6)
    1609                      .dwpsn  file "C:/ti/ccs2031/ccs/tools/compiler/ti-cgt-c2000_22.6.2.LTS/include/_defs.h",line 379,colu
    1610              
    1611                      .dwfde $C$DW$CIE, ||__isinfl||
    1612              $C$DW$102       .dwtag  DW_TAG_formal_parameter
    1613                      .dwattr $C$DW$102, DW_AT_name("e")
    1614                      .dwattr $C$DW$102, DW_AT_type(*$C$DW$T$171)
TMS320C2000 Assembler PC v22.6.2 Wed Dec 10 14:45:02 2025

Copyright (c) 1996-2018 Texas Instruments Incorporated
fcl_foc_cpu_dm.asm                                                   PAGE   32

    1615                      .dwattr $C$DW$102, DW_AT_location[DW_OP_reg12]
    1616              
    1617              
    1618              ;***************************************************************
    1619              ;* FNAME: __isinfl                      FR SIZE:   4           *
    1620              ;*                                                             *
    1621              ;* FUNCTION ENVIRONMENT                                        *
    1622              ;*                                                             *
    1623              ;* FUNCTION PROPERTIES                                         *
    1624              ;*                            4 Parameter,  0 Auto,  0 SOE     *
    1625              ;***************************************************************
    1626              
    1627              ||__isinfl||:
    1628              ;* AR7   assigned to $O$C2
    1629              ;* AR4   assigned to $O$S1
    1630              ;* AR4   assigned to e
    1631              $C$DW$103       .dwtag  DW_TAG_variable
    1632                      .dwattr $C$DW$103, DW_AT_name("e")
    1633                      .dwattr $C$DW$103, DW_AT_type(*$C$DW$T$172)
    1634                      .dwattr $C$DW$103, DW_AT_location[DW_OP_reg12]
    1635              
    1636                      .dwcfi  cfa_offset, -2
    1637                      .dwcfi  save_reg_to_mem, 26, 0
    1638 00000000 FE04          ADDB      SP,#4                 ; [CPU_ARAU] 
    1639                      .dwcfi  cfa_offset, -6
    1640                      .dwpsn  file "C:/ti/ccs2031/ccs/tools/compiler/ti-cgt-c2000_22.6.2.LTS/include/_defs.h",line 379,colu
    1641 00000001 C5C4          MOVL      XAR7,*+XAR4[0]        ; [CPU_ALU] |379| 
    1642 00000002 06D4          MOVL      ACC,*+XAR4[2]         ; [CPU_ALU] |379| 
    1643 00000003 28AC          MOV       T,#48                 ; [CPU_ALU] |379| 
         00000004 0030 
    1644 00000005 1EA6          MOVL      XAR6,ACC              ; [CPU_ALU] |379| 
    1645 00000006 A3A7          MOVL      P,XAR7                ; [CPU_ALU] |379| 
    1646 00000007 D400          MOVB      XAR4,#0               ; [CPU_ALU] |379| 
    1647 00000008 565B          LSR64     ACC:P,T               ; [CPU_ALU] |379| 
    1648 00000009 2BAA          MOV       PH,#0                 ; [CPU_ALU] |379| 
    1649 0000000a 18AB          AND       PL,#0x7ff0            ; [CPU_ALU] |379| 
         0000000b 7FF0 
    1650 0000000c FF20          MOV       ACC,#32752            ; [CPU_ALU] |379| 
         0000000d 7FF0 
    1651 0000000e 0FAB          CMPL      ACC,P                 ; [CPU_ALU] |379| 
    1652 0000000f 6013          B         ||$C$L9||,NEQ         ; [CPU_ALU] |379| 
    1653                      ; branchcc occurs ; [] |379| 
    1654 00000010 06A6          MOVL      ACC,XAR6              ; [CPU_ALU] |379| 
    1655 00000011 A3A7          MOVL      P,XAR7                ; [CPU_ALU] |379| 
    1656 00000012 BE00          MOVB      XAR6,#0               ; [CPU_ALU] |379| 
    1657 00000013 18A9          AND       AL,#65535             ; [CPU_ALU] |379| 
         00000014 FFFF 
    1658 00000015 910F          ANDB      AH,#15                ; [CPU_ALU] |379| 
    1659 00000016 18AB          AND       PL,#65535             ; [CPU_ALU] |379| 
         00000017 FFFF 
    1660 00000018 18AA          AND       PH,#65535             ; [CPU_ALU] |379| 
         00000019 FFFF 
    1661 0000001a C244          MOVL      *-SP[4],XAR6          ; [CPU_FPU] |379| 
    1662 0000001b 2B42          MOV       *-SP[2],#0            ; [CPU_FPU] |379| 
    1663 0000001c 2B41          MOV       *-SP[1],#0            ; [CPU_FPU] |379| 
TMS320C2000 Assembler PC v22.6.2 Wed Dec 10 14:45:02 2025

Copyright (c) 1996-2018 Texas Instruments Incorporated
fcl_foc_cpu_dm.asm                                                   PAGE   33

    1664              $C$DW$104       .dwtag  DW_TAG_TI_branch
    1665                      .dwattr $C$DW$104, DW_AT_low_pc(0x00)
    1666                      .dwattr $C$DW$104, DW_AT_name("__c28xabi_cmpull")
    1667                      .dwattr $C$DW$104, DW_AT_TI_call
    1668              
    1669 0000001d 7640!         LCR       #||__c28xabi_cmpull|| ; [CPU_ALU] |379| 
         0000001e 0000 
    1670                      ; call occurs [#||__c28xabi_cmpull||] ; [] |379| 
    1671 0000001f 5200          CMPB      AL,#0                 ; [CPU_ALU] |379| 
    1672 00000020 56B1          MOVB      XAR4,#1,EQ            ; [CPU_ALU] |379| 
         00000021 01A4 
    1673 00000022       ||$C$L9||:    
    1674 00000022 FE84          SUBB      SP,#4                 ; [CPU_ARAU] 
    1675                      .dwcfi  cfa_offset, -2
    1676 00000023 92A4          MOV       AL,AR4                ; [CPU_ALU] |379| 
    1677              $C$DW$105       .dwtag  DW_TAG_TI_branch
    1678                      .dwattr $C$DW$105, DW_AT_low_pc(0x00)
    1679                      .dwattr $C$DW$105, DW_AT_TI_return
    1680              
    1681 00000024 0006          LRETR     ; [CPU_ALU] 
    1682                      ; return occurs ; [] 
    1683                      .dwattr $C$DW$101, DW_AT_TI_end_file("C:/ti/ccs2031/ccs/tools/compiler/ti-cgt-c2000_22.6.2.LTS/includ
    1684                      .dwattr $C$DW$101, DW_AT_TI_end_line(0x17b)
    1685                      .dwattr $C$DW$101, DW_AT_TI_end_column(0x4c)
    1686                      .dwendentry
    1687                      .dwendtag $C$DW$101
    1688              
    1689 00000000               .sect   ".text:__isinff"
    1690                      .clink
    1691                      .global ||__isinff||
    1692              
    1693              $C$DW$106       .dwtag  DW_TAG_subprogram
    1694                      .dwattr $C$DW$106, DW_AT_name("__isinff")
    1695                      .dwattr $C$DW$106, DW_AT_low_pc(||__isinff||)
    1696                      .dwattr $C$DW$106, DW_AT_high_pc(0x00)
    1697                      .dwattr $C$DW$106, DW_AT_linkage_name("__isinff")
    1698                      .dwattr $C$DW$106, DW_AT_external
    1699                      .dwattr $C$DW$106, DW_AT_type(*$C$DW$T$10)
    1700                      .dwattr $C$DW$106, DW_AT_decl_file("C:/ti/ccs2031/ccs/tools/compiler/ti-cgt-c2000_22.6.2.LTS/include/
    1701                      .dwattr $C$DW$106, DW_AT_decl_line(0x176)
    1702                      .dwattr $C$DW$106, DW_AT_decl_column(0x18)
    1703                      .dwattr $C$DW$106, DW_AT_TI_max_frame_size(-2)
    1704                      .dwpsn  file "C:/ti/ccs2031/ccs/tools/compiler/ti-cgt-c2000_22.6.2.LTS/include/_defs.h",line 375,colu
    1705              
    1706                      .dwfde $C$DW$CIE, ||__isinff||
    1707              $C$DW$107       .dwtag  DW_TAG_formal_parameter
    1708                      .dwattr $C$DW$107, DW_AT_name("f")
    1709                      .dwattr $C$DW$107, DW_AT_type(*$C$DW$T$16)
    1710                      .dwattr $C$DW$107, DW_AT_location[DW_OP_regx 0x2b]
    1711              
    1712              
    1713              ;***************************************************************
    1714              ;* FNAME: __isinff                      FR SIZE:   0           *
    1715              ;*                                                             *
    1716              ;* FUNCTION ENVIRONMENT                                        *
TMS320C2000 Assembler PC v22.6.2 Wed Dec 10 14:45:02 2025

Copyright (c) 1996-2018 Texas Instruments Incorporated
fcl_foc_cpu_dm.asm                                                   PAGE   34

    1717              ;*                                                             *
    1718              ;* FUNCTION PROPERTIES                                         *
    1719              ;*                            0 Parameter,  0 Auto,  0 SOE     *
    1720              ;***************************************************************
    1721              
    1722              ||__isinff||:
    1723              ;* PL    assigned to $O$K3
    1724              ;* AR6   assigned to $O$S1
    1725              ;* R0    assigned to f
    1726              $C$DW$108       .dwtag  DW_TAG_variable
    1727                      .dwattr $C$DW$108, DW_AT_name("f")
    1728                      .dwattr $C$DW$108, DW_AT_type(*$C$DW$T$167)
    1729                      .dwattr $C$DW$108, DW_AT_location[DW_OP_regx 0x2b]
    1730              
    1731                      .dwcfi  cfa_offset, -2
    1732                      .dwcfi  save_reg_to_mem, 26, 0
    1733                      .dwpsn  file "C:/ti/ccs2031/ccs/tools/compiler/ti-cgt-c2000_22.6.2.LTS/include/_defs.h",line 375,colu
    1734 00000000 BFAB          MOV32     P,R0H                 ; [CPU_FPU] |375| 
         00000001 0F12 
    1735 00000002 CCAA          AND       AL,PH,#0x7f80         ; [CPU_ALU] |375| 
         00000003 7F80 
    1736 00000004 80A9          MOVZ      AR7,AL                ; [CPU_ALU] |375| 
    1737 00000005 BE00          MOVB      XAR6,#0               ; [CPU_ALU] |375| 
    1738 00000006 FF20          MOV       ACC,#32640            ; [CPU_ALU] |375| 
         00000007 7F80 
    1739 00000008 0FA7          CMPL      ACC,XAR7              ; [CPU_ALU] |375| 
    1740 00000009 6006          B         ||$C$L10||,NEQ        ; [CPU_ALU] |375| 
    1741                      ; branchcc occurs ; [] |375| 
    1742 0000000a A9A9          MOVL      ACC,P                 ; [CPU_ALU] |375| 
    1743 0000000b 917F          ANDB      AH,#127               ; [CPU_ALU] |375| 
    1744 0000000c FF58          TEST      ACC                   ; [CPU_ALU] |375| 
    1745 0000000d 56B1          MOVB      XAR6,#1,EQ            ; [CPU_ALU] |375| 
         0000000e 01A6 
    1746 0000000f       ||$C$L10||:    
    1747 0000000f 92A6          MOV       AL,AR6                ; [CPU_ALU] |375| 
    1748              $C$DW$109       .dwtag  DW_TAG_TI_branch
    1749                      .dwattr $C$DW$109, DW_AT_low_pc(0x00)
    1750                      .dwattr $C$DW$109, DW_AT_TI_return
    1751              
    1752 00000010 0006          LRETR     ; [CPU_ALU] 
    1753                      ; return occurs ; [] 
    1754                      .dwattr $C$DW$106, DW_AT_TI_end_file("C:/ti/ccs2031/ccs/tools/compiler/ti-cgt-c2000_22.6.2.LTS/includ
    1755                      .dwattr $C$DW$106, DW_AT_TI_end_line(0x177)
    1756                      .dwattr $C$DW$106, DW_AT_TI_end_column(0x48)
    1757                      .dwendentry
    1758                      .dwendtag $C$DW$106
    1759              
    1760 00000000               .sect   ".text:__isinf"
    1761                      .clink
    1762                      .global ||__isinf||
    1763              
    1764              $C$DW$110       .dwtag  DW_TAG_subprogram
    1765                      .dwattr $C$DW$110, DW_AT_name("__isinf")
    1766                      .dwattr $C$DW$110, DW_AT_low_pc(||__isinf||)
    1767                      .dwattr $C$DW$110, DW_AT_high_pc(0x00)
TMS320C2000 Assembler PC v22.6.2 Wed Dec 10 14:45:02 2025

Copyright (c) 1996-2018 Texas Instruments Incorporated
fcl_foc_cpu_dm.asm                                                   PAGE   35

    1768                      .dwattr $C$DW$110, DW_AT_linkage_name("__isinf")
    1769                      .dwattr $C$DW$110, DW_AT_external
    1770                      .dwattr $C$DW$110, DW_AT_type(*$C$DW$T$10)
    1771                      .dwattr $C$DW$110, DW_AT_decl_file("C:/ti/ccs2031/ccs/tools/compiler/ti-cgt-c2000_22.6.2.LTS/include/
    1772                      .dwattr $C$DW$110, DW_AT_decl_line(0x178)
    1773                      .dwattr $C$DW$110, DW_AT_decl_column(0x18)
    1774                      .dwattr $C$DW$110, DW_AT_TI_max_frame_size(-6)
    1775                      .dwpsn  file "C:/ti/ccs2031/ccs/tools/compiler/ti-cgt-c2000_22.6.2.LTS/include/_defs.h",line 377,colu
    1776              
    1777                      .dwfde $C$DW$CIE, ||__isinf||
    1778              $C$DW$111       .dwtag  DW_TAG_formal_parameter
    1779                      .dwattr $C$DW$111, DW_AT_name("d")
    1780                      .dwattr $C$DW$111, DW_AT_type(*$C$DW$T$168)
    1781                      .dwattr $C$DW$111, DW_AT_location[DW_OP_reg12]
    1782              
    1783              
    1784              ;***************************************************************
    1785              ;* FNAME: __isinf                       FR SIZE:   4           *
    1786              ;*                                                             *
    1787              ;* FUNCTION ENVIRONMENT                                        *
    1788              ;*                                                             *
    1789              ;* FUNCTION PROPERTIES                                         *
    1790              ;*                            4 Parameter,  0 Auto,  0 SOE     *
    1791              ;***************************************************************
    1792              
    1793              ||__isinf||:
    1794              ;* AR7   assigned to $O$C2
    1795              ;* AR4   assigned to $O$S1
    1796              ;* AR4   assigned to d
    1797              $C$DW$112       .dwtag  DW_TAG_variable
    1798                      .dwattr $C$DW$112, DW_AT_name("d")
    1799                      .dwattr $C$DW$112, DW_AT_type(*$C$DW$T$169)
    1800                      .dwattr $C$DW$112, DW_AT_location[DW_OP_reg12]
    1801              
    1802                      .dwcfi  cfa_offset, -2
    1803                      .dwcfi  save_reg_to_mem, 26, 0
    1804 00000000 FE04          ADDB      SP,#4                 ; [CPU_ARAU] 
    1805                      .dwcfi  cfa_offset, -6
    1806                      .dwpsn  file "C:/ti/ccs2031/ccs/tools/compiler/ti-cgt-c2000_22.6.2.LTS/include/_defs.h",line 377,colu
    1807 00000001 C5C4          MOVL      XAR7,*+XAR4[0]        ; [CPU_ALU] |377| 
    1808 00000002 06D4          MOVL      ACC,*+XAR4[2]         ; [CPU_ALU] |377| 
    1809 00000003 28AC          MOV       T,#48                 ; [CPU_ALU] |377| 
         00000004 0030 
    1810 00000005 1EA6          MOVL      XAR6,ACC              ; [CPU_ALU] |377| 
    1811 00000006 A3A7          MOVL      P,XAR7                ; [CPU_ALU] |377| 
    1812 00000007 D400          MOVB      XAR4,#0               ; [CPU_ALU] |377| 
    1813 00000008 565B          LSR64     ACC:P,T               ; [CPU_ALU] |377| 
    1814 00000009 2BAA          MOV       PH,#0                 ; [CPU_ALU] |377| 
    1815 0000000a 18AB          AND       PL,#0x7ff0            ; [CPU_ALU] |377| 
         0000000b 7FF0 
    1816 0000000c FF20          MOV       ACC,#32752            ; [CPU_ALU] |377| 
         0000000d 7FF0 
    1817 0000000e 0FAB          CMPL      ACC,P                 ; [CPU_ALU] |377| 
    1818 0000000f 6013          B         ||$C$L11||,NEQ        ; [CPU_ALU] |377| 
    1819                      ; branchcc occurs ; [] |377| 
TMS320C2000 Assembler PC v22.6.2 Wed Dec 10 14:45:02 2025

Copyright (c) 1996-2018 Texas Instruments Incorporated
fcl_foc_cpu_dm.asm                                                   PAGE   36

    1820 00000010 06A6          MOVL      ACC,XAR6              ; [CPU_ALU] |377| 
    1821 00000011 A3A7          MOVL      P,XAR7                ; [CPU_ALU] |377| 
    1822 00000012 BE00          MOVB      XAR6,#0               ; [CPU_ALU] |377| 
    1823 00000013 18A9          AND       AL,#65535             ; [CPU_ALU] |377| 
         00000014 FFFF 
    1824 00000015 910F          ANDB      AH,#15                ; [CPU_ALU] |377| 
    1825 00000016 18AB          AND       PL,#65535             ; [CPU_ALU] |377| 
         00000017 FFFF 
    1826 00000018 18AA          AND       PH,#65535             ; [CPU_ALU] |377| 
         00000019 FFFF 
    1827 0000001a C244          MOVL      *-SP[4],XAR6          ; [CPU_FPU] |377| 
    1828 0000001b 2B42          MOV       *-SP[2],#0            ; [CPU_FPU] |377| 
    1829 0000001c 2B41          MOV       *-SP[1],#0            ; [CPU_FPU] |377| 
    1830              $C$DW$113       .dwtag  DW_TAG_TI_branch
    1831                      .dwattr $C$DW$113, DW_AT_low_pc(0x00)
    1832                      .dwattr $C$DW$113, DW_AT_name("__c28xabi_cmpull")
    1833                      .dwattr $C$DW$113, DW_AT_TI_call
    1834              
    1835 0000001d 7640!         LCR       #||__c28xabi_cmpull|| ; [CPU_ALU] |377| 
         0000001e 0000 
    1836                      ; call occurs [#||__c28xabi_cmpull||] ; [] |377| 
    1837 0000001f 5200          CMPB      AL,#0                 ; [CPU_ALU] |377| 
    1838 00000020 56B1          MOVB      XAR4,#1,EQ            ; [CPU_ALU] |377| 
         00000021 01A4 
    1839 00000022       ||$C$L11||:    
    1840 00000022 FE84          SUBB      SP,#4                 ; [CPU_ARAU] 
    1841                      .dwcfi  cfa_offset, -2
    1842 00000023 92A4          MOV       AL,AR4                ; [CPU_ALU] |377| 
    1843              $C$DW$114       .dwtag  DW_TAG_TI_branch
    1844                      .dwattr $C$DW$114, DW_AT_low_pc(0x00)
    1845                      .dwattr $C$DW$114, DW_AT_TI_return
    1846              
    1847 00000024 0006          LRETR     ; [CPU_ALU] 
    1848                      ; return occurs ; [] 
    1849                      .dwattr $C$DW$110, DW_AT_TI_end_file("C:/ti/ccs2031/ccs/tools/compiler/ti-cgt-c2000_22.6.2.LTS/includ
    1850                      .dwattr $C$DW$110, DW_AT_TI_end_line(0x179)
    1851                      .dwattr $C$DW$110, DW_AT_TI_end_column(0x4a)
    1852                      .dwendentry
    1853                      .dwendtag $C$DW$110
    1854              
    1855 00000000               .sect   ".text:__isfinitel"
    1856                      .clink
    1857                      .global ||__isfinitel||
    1858              
    1859              $C$DW$115       .dwtag  DW_TAG_subprogram
    1860                      .dwattr $C$DW$115, DW_AT_name("__isfinitel")
    1861                      .dwattr $C$DW$115, DW_AT_low_pc(||__isfinitel||)
    1862                      .dwattr $C$DW$115, DW_AT_high_pc(0x00)
    1863                      .dwattr $C$DW$115, DW_AT_linkage_name("__isfinitel")
    1864                      .dwattr $C$DW$115, DW_AT_external
    1865                      .dwattr $C$DW$115, DW_AT_type(*$C$DW$T$10)
    1866                      .dwattr $C$DW$115, DW_AT_decl_file("C:/ti/ccs2031/ccs/tools/compiler/ti-cgt-c2000_22.6.2.LTS/include/
    1867                      .dwattr $C$DW$115, DW_AT_decl_line(0x152)
    1868                      .dwattr $C$DW$115, DW_AT_decl_column(0x18)
    1869                      .dwattr $C$DW$115, DW_AT_TI_max_frame_size(-2)
TMS320C2000 Assembler PC v22.6.2 Wed Dec 10 14:45:02 2025

Copyright (c) 1996-2018 Texas Instruments Incorporated
fcl_foc_cpu_dm.asm                                                   PAGE   37

    1870                      .dwpsn  file "C:/ti/ccs2031/ccs/tools/compiler/ti-cgt-c2000_22.6.2.LTS/include/_defs.h",line 339,colu
    1871              
    1872                      .dwfde $C$DW$CIE, ||__isfinitel||
    1873              $C$DW$116       .dwtag  DW_TAG_formal_parameter
    1874                      .dwattr $C$DW$116, DW_AT_name("e")
    1875                      .dwattr $C$DW$116, DW_AT_type(*$C$DW$T$171)
    1876                      .dwattr $C$DW$116, DW_AT_location[DW_OP_reg12]
    1877              
    1878              
    1879              ;***************************************************************
    1880              ;* FNAME: __isfinitel                   FR SIZE:   0           *
    1881              ;*                                                             *
    1882              ;* FUNCTION ENVIRONMENT                                        *
    1883              ;*                                                             *
    1884              ;* FUNCTION PROPERTIES                                         *
    1885              ;*                            0 Parameter,  0 Auto,  0 SOE     *
    1886              ;***************************************************************
    1887              
    1888              ||__isfinitel||:
    1889              ;* AR4   assigned to e
    1890              $C$DW$117       .dwtag  DW_TAG_variable
    1891                      .dwattr $C$DW$117, DW_AT_name("e")
    1892                      .dwattr $C$DW$117, DW_AT_type(*$C$DW$T$172)
    1893                      .dwattr $C$DW$117, DW_AT_location[DW_OP_reg12]
    1894              
    1895                      .dwcfi  cfa_offset, -2
    1896                      .dwcfi  save_reg_to_mem, 26, 0
    1897                      .dwpsn  file "C:/ti/ccs2031/ccs/tools/compiler/ti-cgt-c2000_22.6.2.LTS/include/_defs.h",line 339,colu
    1898 00000000 A3C4          MOVL      P,*+XAR4[0]           ; [CPU_ALU] |339| 
    1899 00000001 06D4          MOVL      ACC,*+XAR4[2]         ; [CPU_ALU] |339| 
    1900 00000002 28AC          MOV       T,#48                 ; [CPU_ALU] |339| 
         00000003 0030 
    1901 00000004 565B          LSR64     ACC:P,T               ; [CPU_ALU] |339| 
    1902 00000005 18AB          AND       PL,#0x7ff0            ; [CPU_ALU] |339| 
         00000006 7FF0 
    1903 00000007 80AB          MOVZ      AR7,PL                ; [CPU_ALU] |339| 
    1904 00000008 FF20          MOV       ACC,#32752            ; [CPU_ALU] |339| 
         00000009 7FF0 
    1905 0000000a BE00          MOVB      XAR6,#0               ; [CPU_ALU] |339| 
    1906 0000000b 0FA7          CMPL      ACC,XAR7              ; [CPU_ALU] |339| 
    1907 0000000c 56B0          MOVB      XAR6,#1,NEQ           ; [CPU_ALU] |339| 
         0000000d 01A6 
    1908 0000000e 92A6          MOV       AL,AR6                ; [CPU_ALU] |339| 
    1909              $C$DW$118       .dwtag  DW_TAG_TI_branch
    1910                      .dwattr $C$DW$118, DW_AT_low_pc(0x00)
    1911                      .dwattr $C$DW$118, DW_AT_TI_return
    1912              
    1913 0000000f 0006          LRETR     ; [CPU_ALU] 
    1914                      ; return occurs ; [] 
    1915                      .dwattr $C$DW$115, DW_AT_TI_end_file("C:/ti/ccs2031/ccs/tools/compiler/ti-cgt-c2000_22.6.2.LTS/includ
    1916                      .dwattr $C$DW$115, DW_AT_TI_end_line(0x153)
    1917                      .dwattr $C$DW$115, DW_AT_TI_end_column(0x2f)
    1918                      .dwendentry
    1919                      .dwendtag $C$DW$115
    1920              
TMS320C2000 Assembler PC v22.6.2 Wed Dec 10 14:45:02 2025

Copyright (c) 1996-2018 Texas Instruments Incorporated
fcl_foc_cpu_dm.asm                                                   PAGE   38

    1921 00000000               .sect   ".text:__isfinitef"
    1922                      .clink
    1923                      .global ||__isfinitef||
    1924              
    1925              $C$DW$119       .dwtag  DW_TAG_subprogram
    1926                      .dwattr $C$DW$119, DW_AT_name("__isfinitef")
    1927                      .dwattr $C$DW$119, DW_AT_low_pc(||__isfinitef||)
    1928                      .dwattr $C$DW$119, DW_AT_high_pc(0x00)
    1929                      .dwattr $C$DW$119, DW_AT_linkage_name("__isfinitef")
    1930                      .dwattr $C$DW$119, DW_AT_external
    1931                      .dwattr $C$DW$119, DW_AT_type(*$C$DW$T$10)
    1932                      .dwattr $C$DW$119, DW_AT_decl_file("C:/ti/ccs2031/ccs/tools/compiler/ti-cgt-c2000_22.6.2.LTS/include/
    1933                      .dwattr $C$DW$119, DW_AT_decl_line(0x150)
    1934                      .dwattr $C$DW$119, DW_AT_decl_column(0x18)
    1935                      .dwattr $C$DW$119, DW_AT_TI_max_frame_size(-2)
    1936                      .dwpsn  file "C:/ti/ccs2031/ccs/tools/compiler/ti-cgt-c2000_22.6.2.LTS/include/_defs.h",line 337,colu
    1937              
    1938                      .dwfde $C$DW$CIE, ||__isfinitef||
    1939              $C$DW$120       .dwtag  DW_TAG_formal_parameter
    1940                      .dwattr $C$DW$120, DW_AT_name("f")
    1941                      .dwattr $C$DW$120, DW_AT_type(*$C$DW$T$16)
    1942                      .dwattr $C$DW$120, DW_AT_location[DW_OP_regx 0x2b]
    1943              
    1944              
    1945              ;***************************************************************
    1946              ;* FNAME: __isfinitef                   FR SIZE:   0           *
    1947              ;*                                                             *
    1948              ;* FUNCTION ENVIRONMENT                                        *
    1949              ;*                                                             *
    1950              ;* FUNCTION PROPERTIES                                         *
    1951              ;*                            0 Parameter,  0 Auto,  0 SOE     *
    1952              ;***************************************************************
    1953              
    1954              ||__isfinitef||:
    1955              ;* R0    assigned to f
    1956              $C$DW$121       .dwtag  DW_TAG_variable
    1957                      .dwattr $C$DW$121, DW_AT_name("f")
    1958                      .dwattr $C$DW$121, DW_AT_type(*$C$DW$T$167)
    1959                      .dwattr $C$DW$121, DW_AT_location[DW_OP_regx 0x2b]
    1960              
    1961                      .dwcfi  cfa_offset, -2
    1962                      .dwcfi  save_reg_to_mem, 26, 0
    1963                      .dwpsn  file "C:/ti/ccs2031/ccs/tools/compiler/ti-cgt-c2000_22.6.2.LTS/include/_defs.h",line 337,colu
    1964 00000000 BFAB          MOV32     P,R0H                 ; [CPU_FPU] |337| 
         00000001 0F12 
    1965 00000002 18AA          AND       PH,#0x7f80            ; [CPU_ALU] |337| 
         00000003 7F80 
    1966 00000004 80AA          MOVZ      AR7,PH                ; [CPU_ALU] |337| 
    1967 00000005 FF20          MOV       ACC,#32640            ; [CPU_ALU] |337| 
         00000006 7F80 
    1968 00000007 BE00          MOVB      XAR6,#0               ; [CPU_ALU] |337| 
    1969 00000008 0FA7          CMPL      ACC,XAR7              ; [CPU_ALU] |337| 
    1970 00000009 56B0          MOVB      XAR6,#1,NEQ           ; [CPU_ALU] |337| 
         0000000a 01A6 
    1971 0000000b 92A6          MOV       AL,AR6                ; [CPU_ALU] |337| 
TMS320C2000 Assembler PC v22.6.2 Wed Dec 10 14:45:02 2025

Copyright (c) 1996-2018 Texas Instruments Incorporated
fcl_foc_cpu_dm.asm                                                   PAGE   39

    1972              $C$DW$122       .dwtag  DW_TAG_TI_branch
    1973                      .dwattr $C$DW$122, DW_AT_low_pc(0x00)
    1974                      .dwattr $C$DW$122, DW_AT_TI_return
    1975              
    1976 0000000c 0006          LRETR     ; [CPU_ALU] 
    1977                      ; return occurs ; [] 
    1978                      .dwattr $C$DW$119, DW_AT_TI_end_file("C:/ti/ccs2031/ccs/tools/compiler/ti-cgt-c2000_22.6.2.LTS/includ
    1979                      .dwattr $C$DW$119, DW_AT_TI_end_line(0x151)
    1980                      .dwattr $C$DW$119, DW_AT_TI_end_column(0x2d)
    1981                      .dwendentry
    1982                      .dwendtag $C$DW$119
    1983              
    1984 00000000               .sect   ".text:__isfinite"
    1985                      .clink
    1986                      .global ||__isfinite||
    1987              
    1988              $C$DW$123       .dwtag  DW_TAG_subprogram
    1989                      .dwattr $C$DW$123, DW_AT_name("__isfinite")
    1990                      .dwattr $C$DW$123, DW_AT_low_pc(||__isfinite||)
    1991                      .dwattr $C$DW$123, DW_AT_high_pc(0x00)
    1992                      .dwattr $C$DW$123, DW_AT_linkage_name("__isfinite")
    1993                      .dwattr $C$DW$123, DW_AT_external
    1994                      .dwattr $C$DW$123, DW_AT_type(*$C$DW$T$10)
    1995                      .dwattr $C$DW$123, DW_AT_decl_file("C:/ti/ccs2031/ccs/tools/compiler/ti-cgt-c2000_22.6.2.LTS/include/
    1996                      .dwattr $C$DW$123, DW_AT_decl_line(0x14e)
    1997                      .dwattr $C$DW$123, DW_AT_decl_column(0x18)
    1998                      .dwattr $C$DW$123, DW_AT_TI_max_frame_size(-2)
    1999                      .dwpsn  file "C:/ti/ccs2031/ccs/tools/compiler/ti-cgt-c2000_22.6.2.LTS/include/_defs.h",line 335,colu
    2000              
    2001                      .dwfde $C$DW$CIE, ||__isfinite||
    2002              $C$DW$124       .dwtag  DW_TAG_formal_parameter
    2003                      .dwattr $C$DW$124, DW_AT_name("d")
    2004                      .dwattr $C$DW$124, DW_AT_type(*$C$DW$T$168)
    2005                      .dwattr $C$DW$124, DW_AT_location[DW_OP_reg12]
    2006              
    2007              
    2008              ;***************************************************************
    2009              ;* FNAME: __isfinite                    FR SIZE:   0           *
    2010              ;*                                                             *
    2011              ;* FUNCTION ENVIRONMENT                                        *
    2012              ;*                                                             *
    2013              ;* FUNCTION PROPERTIES                                         *
    2014              ;*                            0 Parameter,  0 Auto,  0 SOE     *
    2015              ;***************************************************************
    2016              
    2017              ||__isfinite||:
    2018              ;* AR4   assigned to d
    2019              $C$DW$125       .dwtag  DW_TAG_variable
    2020                      .dwattr $C$DW$125, DW_AT_name("d")
    2021                      .dwattr $C$DW$125, DW_AT_type(*$C$DW$T$169)
    2022                      .dwattr $C$DW$125, DW_AT_location[DW_OP_reg12]
    2023              
    2024                      .dwcfi  cfa_offset, -2
    2025                      .dwcfi  save_reg_to_mem, 26, 0
    2026                      .dwpsn  file "C:/ti/ccs2031/ccs/tools/compiler/ti-cgt-c2000_22.6.2.LTS/include/_defs.h",line 335,colu
TMS320C2000 Assembler PC v22.6.2 Wed Dec 10 14:45:02 2025

Copyright (c) 1996-2018 Texas Instruments Incorporated
fcl_foc_cpu_dm.asm                                                   PAGE   40

    2027 00000000 A3C4          MOVL      P,*+XAR4[0]           ; [CPU_ALU] |335| 
    2028 00000001 06D4          MOVL      ACC,*+XAR4[2]         ; [CPU_ALU] |335| 
    2029 00000002 28AC          MOV       T,#48                 ; [CPU_ALU] |335| 
         00000003 0030 
    2030 00000004 565B          LSR64     ACC:P,T               ; [CPU_ALU] |335| 
    2031 00000005 18AB          AND       PL,#0x7ff0            ; [CPU_ALU] |335| 
         00000006 7FF0 
    2032 00000007 80AB          MOVZ      AR7,PL                ; [CPU_ALU] |335| 
    2033 00000008 FF20          MOV       ACC,#32752            ; [CPU_ALU] |335| 
         00000009 7FF0 
    2034 0000000a BE00          MOVB      XAR6,#0               ; [CPU_ALU] |335| 
    2035 0000000b 0FA7          CMPL      ACC,XAR7              ; [CPU_ALU] |335| 
    2036 0000000c 56B0          MOVB      XAR6,#1,NEQ           ; [CPU_ALU] |335| 
         0000000d 01A6 
    2037 0000000e 92A6          MOV       AL,AR6                ; [CPU_ALU] |335| 
    2038              $C$DW$126       .dwtag  DW_TAG_TI_branch
    2039                      .dwattr $C$DW$126, DW_AT_low_pc(0x00)
    2040                      .dwattr $C$DW$126, DW_AT_TI_return
    2041              
    2042 0000000f 0006          LRETR     ; [CPU_ALU] 
    2043                      ; return occurs ; [] 
    2044                      .dwattr $C$DW$123, DW_AT_TI_end_file("C:/ti/ccs2031/ccs/tools/compiler/ti-cgt-c2000_22.6.2.LTS/includ
    2045                      .dwattr $C$DW$123, DW_AT_TI_end_line(0x14f)
    2046                      .dwattr $C$DW$123, DW_AT_TI_end_column(0x2e)
    2047                      .dwendentry
    2048                      .dwendtag $C$DW$123
    2049              
    2050 00000000               .sect   ".text:__fpclassifyl"
    2051                      .clink
    2052                      .global ||__fpclassifyl||
    2053              
    2054              $C$DW$127       .dwtag  DW_TAG_subprogram
    2055                      .dwattr $C$DW$127, DW_AT_name("__fpclassifyl")
    2056                      .dwattr $C$DW$127, DW_AT_low_pc(||__fpclassifyl||)
    2057                      .dwattr $C$DW$127, DW_AT_high_pc(0x00)
    2058                      .dwattr $C$DW$127, DW_AT_linkage_name("__fpclassifyl")
    2059                      .dwattr $C$DW$127, DW_AT_external
    2060                      .dwattr $C$DW$127, DW_AT_type(*$C$DW$T$10)
    2061                      .dwattr $C$DW$127, DW_AT_decl_file("C:/ti/ccs2031/ccs/tools/compiler/ti-cgt-c2000_22.6.2.LTS/include/
    2062                      .dwattr $C$DW$127, DW_AT_decl_line(0x1ae)
    2063                      .dwattr $C$DW$127, DW_AT_decl_column(0x18)
    2064                      .dwattr $C$DW$127, DW_AT_TI_max_frame_size(-10)
    2065                      .dwpsn  file "C:/ti/ccs2031/ccs/tools/compiler/ti-cgt-c2000_22.6.2.LTS/include/_defs.h",line 431,colu
    2066              
    2067                      .dwfde $C$DW$CIE, ||__fpclassifyl||
    2068              $C$DW$128       .dwtag  DW_TAG_formal_parameter
    2069                      .dwattr $C$DW$128, DW_AT_name("e")
    2070                      .dwattr $C$DW$128, DW_AT_type(*$C$DW$T$171)
    2071                      .dwattr $C$DW$128, DW_AT_location[DW_OP_reg12]
    2072              
    2073              
    2074              ;***************************************************************
    2075              ;* FNAME: __fpclassifyl                 FR SIZE:   8           *
    2076              ;*                                                             *
    2077              ;* FUNCTION ENVIRONMENT                                        *
TMS320C2000 Assembler PC v22.6.2 Wed Dec 10 14:45:02 2025

Copyright (c) 1996-2018 Texas Instruments Incorporated
fcl_foc_cpu_dm.asm                                                   PAGE   41

    2078              ;*                                                             *
    2079              ;* FUNCTION PROPERTIES                                         *
    2080              ;*                            4 Parameter,  4 Auto,  0 SOE     *
    2081              ;***************************************************************
    2082              
    2083              ||__fpclassifyl||:
    2084              $C$DW$129       .dwtag  DW_TAG_variable
    2085                      .dwattr $C$DW$129, DW_AT_name("e")
    2086                      .dwattr $C$DW$129, DW_AT_type(*$C$DW$T$18)
    2087                      .dwattr $C$DW$129, DW_AT_location[DW_OP_breg20 -8]
    2088              
    2089              ;* AR5   assigned to $O$C1
    2090              ;* AR4   assigned to e
    2091              $C$DW$130       .dwtag  DW_TAG_variable
    2092                      .dwattr $C$DW$130, DW_AT_name("e")
    2093                      .dwattr $C$DW$130, DW_AT_type(*$C$DW$T$172)
    2094                      .dwattr $C$DW$130, DW_AT_location[DW_OP_reg12]
    2095              
    2096                      .dwcfi  cfa_offset, -2
    2097                      .dwcfi  save_reg_to_mem, 26, 0
    2098 00000000 FE08          ADDB      SP,#8                 ; [CPU_ARAU] 
    2099                      .dwcfi  cfa_offset, -10
    2100 00000001 C4D4          MOVL      XAR6,*+XAR4[2]        ; [CPU_ALU] |431| 
    2101 00000002 06C4          MOVL      ACC,*+XAR4[0]         ; [CPU_ALU] |431| 
    2102 00000003 1E48          MOVL      *-SP[8],ACC           ; [CPU_ALU] |431| 
    2103 00000004 C246          MOVL      *-SP[6],XAR6          ; [CPU_ALU] |431| 
    2104                      .dwpsn  file "C:/ti/ccs2031/ccs/tools/compiler/ti-cgt-c2000_22.6.2.LTS/include/_defs.h",line 432,colu
    2105 00000005 8348          MOVL      XAR5,*-SP[8]          ; [CPU_ALU] |432| 
    2106 00000006 8A46          MOVL      XAR4,*-SP[6]          ; [CPU_ALU] |432| 
    2107                      .dwpsn  file "C:/ti/ccs2031/ccs/tools/compiler/ti-cgt-c2000_22.6.2.LTS/include/_defs.h",line 436,colu
    2108 00000007 28AC          MOV       T,#48                 ; [CPU_ALU] |436| 
         00000008 0030 
    2109 00000009 A0AB          MOVL      P,XAR5                ; [CPU_ALU] |436| 
    2110 0000000a A8A9          MOVL      ACC,XAR4              ; [CPU_ALU] |436| 
    2111 0000000b 565B          LSR64     ACC:P,T               ; [CPU_ALU] |436| 
    2112 0000000c 18AB          AND       PL,#0x7ff0            ; [CPU_ALU] |436| 
         0000000d 7FF0 
    2113 0000000e 88AB          MOVZ      AR6,PL                ; [CPU_ALU] |436| 
    2114 0000000f FF20          MOV       ACC,#32752            ; [CPU_ALU] |436| 
         00000010 7FF0 
    2115 00000011 0FA6          CMPL      ACC,XAR6              ; [CPU_ALU] |436| 
    2116 00000012 6016          B         ||$C$L13||,NEQ        ; [CPU_ALU] |436| 
    2117                      ; branchcc occurs ; [] |436| 
    2118 00000013 0200          MOVB      ACC,#0                ; [CPU_ALU] |436| 
    2119 00000014 1E44          MOVL      *-SP[4],ACC           ; [CPU_ALU] |436| 
    2120 00000015 2B42          MOV       *-SP[2],#0            ; [CPU_ALU] |436| 
    2121 00000016 2B41          MOV       *-SP[1],#0            ; [CPU_ALU] |436| 
    2122 00000017 A348          MOVL      P,*-SP[8]             ; [CPU_ALU] |436| 
    2123 00000018 0646          MOVL      ACC,*-SP[6]           ; [CPU_ALU] |436| 
    2124 00000019 18AB          AND       PL,#65535             ; [CPU_ALU] |436| 
         0000001a FFFF 
    2125 0000001b 18AA          AND       PH,#65535             ; [CPU_ALU] |436| 
         0000001c FFFF 
    2126 0000001d 18A9          AND       AL,#65535             ; [CPU_ALU] |436| 
         0000001e FFFF 
TMS320C2000 Assembler PC v22.6.2 Wed Dec 10 14:45:02 2025

Copyright (c) 1996-2018 Texas Instruments Incorporated
fcl_foc_cpu_dm.asm                                                   PAGE   42

    2127 0000001f 910F          ANDB      AH,#15                ; [CPU_ALU] |436| 
    2128              $C$DW$131       .dwtag  DW_TAG_TI_branch
    2129                      .dwattr $C$DW$131, DW_AT_low_pc(0x00)
    2130                      .dwattr $C$DW$131, DW_AT_name("__c28xabi_cmpull")
    2131                      .dwattr $C$DW$131, DW_AT_TI_call
    2132              
    2133 00000020 7640!         LCR       #||__c28xabi_cmpull|| ; [CPU_ALU] |436| 
         00000021 0000 
    2134                      ; call occurs [#||__c28xabi_cmpull||] ; [] |436| 
    2135 00000022 5200          CMPB      AL,#0                 ; [CPU_ALU] |436| 
    2136 00000023 6103          B         ||$C$L12||,EQ         ; [CPU_ALU] |436| 
    2137                      ; branchcc occurs ; [] |436| 
    2138 00000024 9A02          MOVB      AL,#2                 ; [CPU_ALU] |436| 
    2139 00000025 6F2D          B         ||$C$L16||,UNC        ; [CPU_ALU] |436| 
    2140                      ; branch occurs ; [] |436| 
    2141 00000026       ||$C$L12||:    
    2142 00000026 9A01          MOVB      AL,#1                 ; [CPU_ALU] |436| 
    2143 00000027 6F2B          B         ||$C$L16||,UNC        ; [CPU_ALU] |436| 
    2144                      ; branch occurs ; [] |436| 
    2145 00000028       ||$C$L13||:    
    2146 00000028 BE00          MOVB      XAR6,#0               ; [CPU_ALU] |436| 
    2147 00000029 A0AB          MOVL      P,XAR5                ; [CPU_ALU] |436| 
    2148 0000002a A8A9          MOVL      ACC,XAR4              ; [CPU_ALU] |436| 
    2149 0000002b 28AC          MOV       T,#52                 ; [CPU_ALU] |436| 
         0000002c 0034 
    2150 0000002d C244          MOVL      *-SP[4],XAR6          ; [CPU_ALU] |436| 
    2151 0000002e 2B42          MOV       *-SP[2],#0            ; [CPU_ALU] |436| 
    2152 0000002f 565B          LSR64     ACC:P,T               ; [CPU_ALU] |436| 
    2153 00000030 2B41          MOV       *-SP[1],#0            ; [CPU_FPU] |436| 
    2154 00000031 9000          ANDB      AL,#0                 ; [CPU_ALU] |436| 
    2155 00000032 9100          ANDB      AH,#0                 ; [CPU_ALU] |436| 
    2156 00000033 18AB          AND       PL,#2047              ; [CPU_ALU] |436| 
         00000034 07FF 
    2157 00000035 18AA          AND       PH,#0                 ; [CPU_ALU] |436| 
         00000036 0000 
    2158              $C$DW$132       .dwtag  DW_TAG_TI_branch
    2159                      .dwattr $C$DW$132, DW_AT_low_pc(0x00)
    2160                      .dwattr $C$DW$132, DW_AT_name("__c28xabi_cmpull")
    2161                      .dwattr $C$DW$132, DW_AT_TI_call
    2162              
    2163 00000037 7640!         LCR       #||__c28xabi_cmpull|| ; [CPU_ALU] |436| 
         00000038 0000 
    2164                      ; call occurs [#||__c28xabi_cmpull||] ; [] |436| 
    2165 00000039 5200          CMPB      AL,#0                 ; [CPU_ALU] |436| 
    2166 0000003a 6104          B         ||$C$L14||,EQ         ; [CPU_ALU] |436| 
    2167                      ; branchcc occurs ; [] |436| 
    2168 0000003b 28A9          MOV       AL,#-1                ; [CPU_ALU] |436| 
         0000003c FFFF 
    2169 0000003d 6F15          B         ||$C$L16||,UNC        ; [CPU_ALU] |436| 
    2170                      ; branch occurs ; [] |436| 
    2171 0000003e       ||$C$L14||:    
    2172 0000003e C244          MOVL      *-SP[4],XAR6          ; [CPU_ALU] |436| 
    2173 0000003f A8A9          MOVL      ACC,XAR4              ; [CPU_ALU] |436| 
    2174 00000040 A0AB          MOVL      P,XAR5                ; [CPU_ALU] |436| 
    2175 00000041 2B42          MOV       *-SP[2],#0            ; [CPU_ALU] |436| 
TMS320C2000 Assembler PC v22.6.2 Wed Dec 10 14:45:02 2025

Copyright (c) 1996-2018 Texas Instruments Incorporated
fcl_foc_cpu_dm.asm                                                   PAGE   43

    2176 00000042 18A9          AND       AL,#65535             ; [CPU_ALU] |436| 
         00000043 FFFF 
    2177 00000044 910F          ANDB      AH,#15                ; [CPU_ALU] |436| 
    2178 00000045 18AB          AND       PL,#65535             ; [CPU_ALU] |436| 
         00000046 FFFF 
    2179 00000047 18AA          AND       PH,#65535             ; [CPU_ALU] |436| 
         00000048 FFFF 
    2180 00000049 2B41          MOV       *-SP[1],#0            ; [CPU_FPU] |436| 
    2181              $C$DW$133       .dwtag  DW_TAG_TI_branch
    2182                      .dwattr $C$DW$133, DW_AT_low_pc(0x00)
    2183                      .dwattr $C$DW$133, DW_AT_name("__c28xabi_cmpull")
    2184                      .dwattr $C$DW$133, DW_AT_TI_call
    2185              
    2186 0000004a 7640!         LCR       #||__c28xabi_cmpull|| ; [CPU_ALU] |436| 
         0000004b 0000 
    2187                      ; call occurs [#||__c28xabi_cmpull||] ; [] |436| 
    2188 0000004c 5200          CMPB      AL,#0                 ; [CPU_ALU] |436| 
    2189 0000004d 6104          B         ||$C$L15||,EQ         ; [CPU_ALU] |436| 
    2190                      ; branchcc occurs ; [] |436| 
    2191 0000004e 28A9          MOV       AL,#-2                ; [CPU_ALU] |436| 
         0000004f FFFE 
    2192 00000050 6F02          B         ||$C$L16||,UNC        ; [CPU_ALU] |436| 
    2193                      ; branch occurs ; [] |436| 
    2194 00000051       ||$C$L15||:    
    2195 00000051 9A00          MOVB      AL,#0                 ; [CPU_ALU] |436| 
    2196 00000052       ||$C$L16||:    
    2197 00000052 FE88          SUBB      SP,#8                 ; [CPU_ARAU] 
    2198                      .dwcfi  cfa_offset, -2
    2199              $C$DW$134       .dwtag  DW_TAG_TI_branch
    2200                      .dwattr $C$DW$134, DW_AT_low_pc(0x00)
    2201                      .dwattr $C$DW$134, DW_AT_TI_return
    2202              
    2203 00000053 0006          LRETR     ; [CPU_ALU] 
    2204                      ; return occurs ; [] 
    2205                      .dwattr $C$DW$127, DW_AT_TI_end_file("C:/ti/ccs2031/ccs/tools/compiler/ti-cgt-c2000_22.6.2.LTS/includ
    2206                      .dwattr $C$DW$127, DW_AT_TI_end_line(0x1bd)
    2207                      .dwattr $C$DW$127, DW_AT_TI_end_column(0x01)
    2208                      .dwendentry
    2209                      .dwendtag $C$DW$127
    2210              
    2211 00000000               .sect   ".text:__fpclassifyf"
    2212                      .clink
    2213                      .global ||__fpclassifyf||
    2214              
    2215              $C$DW$135       .dwtag  DW_TAG_subprogram
    2216                      .dwattr $C$DW$135, DW_AT_name("__fpclassifyf")
    2217                      .dwattr $C$DW$135, DW_AT_low_pc(||__fpclassifyf||)
    2218                      .dwattr $C$DW$135, DW_AT_high_pc(0x00)
    2219                      .dwattr $C$DW$135, DW_AT_linkage_name("__fpclassifyf")
    2220                      .dwattr $C$DW$135, DW_AT_external
    2221                      .dwattr $C$DW$135, DW_AT_type(*$C$DW$T$10)
    2222                      .dwattr $C$DW$135, DW_AT_decl_file("C:/ti/ccs2031/ccs/tools/compiler/ti-cgt-c2000_22.6.2.LTS/include/
    2223                      .dwattr $C$DW$135, DW_AT_decl_line(0x18c)
    2224                      .dwattr $C$DW$135, DW_AT_decl_column(0x18)
    2225                      .dwattr $C$DW$135, DW_AT_TI_max_frame_size(-2)
TMS320C2000 Assembler PC v22.6.2 Wed Dec 10 14:45:02 2025

Copyright (c) 1996-2018 Texas Instruments Incorporated
fcl_foc_cpu_dm.asm                                                   PAGE   44

    2226                      .dwpsn  file "C:/ti/ccs2031/ccs/tools/compiler/ti-cgt-c2000_22.6.2.LTS/include/_defs.h",line 397,colu
    2227              
    2228                      .dwfde $C$DW$CIE, ||__fpclassifyf||
    2229              $C$DW$136       .dwtag  DW_TAG_formal_parameter
    2230                      .dwattr $C$DW$136, DW_AT_name("f")
    2231                      .dwattr $C$DW$136, DW_AT_type(*$C$DW$T$16)
    2232                      .dwattr $C$DW$136, DW_AT_location[DW_OP_regx 0x2b]
    2233              
    2234              
    2235              ;***************************************************************
    2236              ;* FNAME: __fpclassifyf                 FR SIZE:   0           *
    2237              ;*                                                             *
    2238              ;* FUNCTION ENVIRONMENT                                        *
    2239              ;*                                                             *
    2240              ;* FUNCTION PROPERTIES                                         *
    2241              ;*                            0 Parameter,  0 Auto,  0 SOE     *
    2242              ;***************************************************************
    2243              
    2244              ||__fpclassifyf||:
    2245              ;* PL    assigned to $O$K1
    2246              ;* R0    assigned to f
    2247              $C$DW$137       .dwtag  DW_TAG_variable
    2248                      .dwattr $C$DW$137, DW_AT_name("f")
    2249                      .dwattr $C$DW$137, DW_AT_type(*$C$DW$T$167)
    2250                      .dwattr $C$DW$137, DW_AT_location[DW_OP_regx 0x2b]
    2251              
    2252                      .dwcfi  cfa_offset, -2
    2253                      .dwcfi  save_reg_to_mem, 26, 0
    2254                      .dwpsn  file "C:/ti/ccs2031/ccs/tools/compiler/ti-cgt-c2000_22.6.2.LTS/include/_defs.h",line 398,colu
    2255 00000000 BFAB          MOV32     P,R0H                 ; [CPU_FPU] |398| 
         00000001 0F12 
    2256                      .dwpsn  file "C:/ti/ccs2031/ccs/tools/compiler/ti-cgt-c2000_22.6.2.LTS/include/_defs.h",line 402,colu
    2257 00000002 CCAA          AND       AL,PH,#0x7f80         ; [CPU_ALU] |402| 
         00000003 7F80 
    2258 00000004 88A9          MOVZ      AR6,AL                ; [CPU_ALU] |402| 
    2259 00000005 FF20          MOV       ACC,#32640            ; [CPU_ALU] |402| 
         00000006 7F80 
    2260 00000007 0FA6          CMPL      ACC,XAR6              ; [CPU_ALU] |402| 
    2261 00000008 6009          B         ||$C$L18||,NEQ        ; [CPU_ALU] |402| 
    2262                      ; branchcc occurs ; [] |402| 
    2263 00000009 A9A9          MOVL      ACC,P                 ; [CPU_ALU] |402| 
    2264 0000000a 917F          ANDB      AH,#127               ; [CPU_ALU] |402| 
    2265 0000000b FF58          TEST      ACC                   ; [CPU_ALU] |402| 
    2266 0000000c 6103          B         ||$C$L17||,EQ         ; [CPU_ALU] |402| 
    2267                      ; branchcc occurs ; [] |402| 
    2268                      .dwcfi  remember_state
    2269 0000000d 9A02          MOVB      AL,#2                 ; [CPU_ALU] |402| 
    2270              $C$DW$138       .dwtag  DW_TAG_TI_branch
    2271                      .dwattr $C$DW$138, DW_AT_low_pc(0x00)
    2272                      .dwattr $C$DW$138, DW_AT_TI_return
    2273              
    2274 0000000e 0006          LRETR     ; [CPU_ALU] 
    2275                      ; return occurs ; [] 
    2276                      .dwcfi  restore_state
    2277 0000000f       ||$C$L17||:    
TMS320C2000 Assembler PC v22.6.2 Wed Dec 10 14:45:02 2025

Copyright (c) 1996-2018 Texas Instruments Incorporated
fcl_foc_cpu_dm.asm                                                   PAGE   45

    2278                      .dwcfi  remember_state
    2279 0000000f 9A01          MOVB      AL,#1                 ; [CPU_ALU] |402| 
    2280              $C$DW$139       .dwtag  DW_TAG_TI_branch
    2281                      .dwattr $C$DW$139, DW_AT_low_pc(0x00)
    2282                      .dwattr $C$DW$139, DW_AT_TI_return
    2283              
    2284 00000010 0006          LRETR     ; [CPU_ALU] 
    2285                      ; return occurs ; [] 
    2286                      .dwcfi  restore_state
    2287 00000011       ||$C$L18||:    
    2288 00000011 A9A9          MOVL      ACC,P                 ; [CPU_ALU] |402| 
    2289 00000012 28AC          MOV       T,#23                 ; [CPU_ALU] |402| 
         00000013 0017 
    2290 00000014 5622          LSRL      ACC,T                 ; [CPU_ALU] |402| 
    2291 00000015 90FF          ANDB      AL,#0xff              ; [CPU_ALU] |402| 
    2292 00000016 6104          B         ||$C$L19||,EQ         ; [CPU_ALU] |402| 
    2293                      ; branchcc occurs ; [] |402| 
    2294                      .dwcfi  remember_state
    2295 00000017 28A9          MOV       AL,#-1                ; [CPU_ALU] |402| 
         00000018 FFFF 
    2296              $C$DW$140       .dwtag  DW_TAG_TI_branch
    2297                      .dwattr $C$DW$140, DW_AT_low_pc(0x00)
    2298                      .dwattr $C$DW$140, DW_AT_TI_return
    2299              
    2300 00000019 0006          LRETR     ; [CPU_ALU] 
    2301                      ; return occurs ; [] 
    2302                      .dwcfi  restore_state
    2303 0000001a       ||$C$L19||:    
    2304 0000001a A9A9          MOVL      ACC,P                 ; [CPU_ALU] |402| 
    2305 0000001b 917F          ANDB      AH,#127               ; [CPU_ALU] |402| 
    2306 0000001c FF58          TEST      ACC                   ; [CPU_ALU] |402| 
    2307 0000001d 6104          B         ||$C$L20||,EQ         ; [CPU_ALU] |402| 
    2308                      ; branchcc occurs ; [] |402| 
    2309                      .dwcfi  remember_state
    2310 0000001e 28A9          MOV       AL,#-2                ; [CPU_ALU] |402| 
         0000001f FFFE 
    2311              $C$DW$141       .dwtag  DW_TAG_TI_branch
    2312                      .dwattr $C$DW$141, DW_AT_low_pc(0x00)
    2313                      .dwattr $C$DW$141, DW_AT_TI_return
    2314              
    2315 00000020 0006          LRETR     ; [CPU_ALU] 
    2316                      ; return occurs ; [] 
    2317                      .dwcfi  restore_state
    2318 00000021       ||$C$L20||:    
    2319 00000021 9A00          MOVB      AL,#0                 ; [CPU_ALU] |402| 
    2320              $C$DW$142       .dwtag  DW_TAG_TI_branch
    2321                      .dwattr $C$DW$142, DW_AT_low_pc(0x00)
    2322                      .dwattr $C$DW$142, DW_AT_TI_return
    2323              
    2324 00000022 0006          LRETR     ; [CPU_ALU] 
    2325                      ; return occurs ; [] 
    2326                      .dwattr $C$DW$135, DW_AT_TI_end_file("C:/ti/ccs2031/ccs/tools/compiler/ti-cgt-c2000_22.6.2.LTS/includ
    2327                      .dwattr $C$DW$135, DW_AT_TI_end_line(0x19b)
    2328                      .dwattr $C$DW$135, DW_AT_TI_end_column(0x01)
    2329                      .dwendentry
TMS320C2000 Assembler PC v22.6.2 Wed Dec 10 14:45:02 2025

Copyright (c) 1996-2018 Texas Instruments Incorporated
fcl_foc_cpu_dm.asm                                                   PAGE   46

    2330                      .dwendtag $C$DW$135
    2331              
    2332 00000000               .sect   ".text:__fpclassify"
    2333                      .clink
    2334                      .global ||__fpclassify||
    2335              
    2336              $C$DW$143       .dwtag  DW_TAG_subprogram
    2337                      .dwattr $C$DW$143, DW_AT_name("__fpclassify")
    2338                      .dwattr $C$DW$143, DW_AT_low_pc(||__fpclassify||)
    2339                      .dwattr $C$DW$143, DW_AT_high_pc(0x00)
    2340                      .dwattr $C$DW$143, DW_AT_linkage_name("__fpclassify")
    2341                      .dwattr $C$DW$143, DW_AT_external
    2342                      .dwattr $C$DW$143, DW_AT_type(*$C$DW$T$10)
    2343                      .dwattr $C$DW$143, DW_AT_decl_file("C:/ti/ccs2031/ccs/tools/compiler/ti-cgt-c2000_22.6.2.LTS/include/
    2344                      .dwattr $C$DW$143, DW_AT_decl_line(0x19d)
    2345                      .dwattr $C$DW$143, DW_AT_decl_column(0x18)
    2346                      .dwattr $C$DW$143, DW_AT_TI_max_frame_size(-10)
    2347                      .dwpsn  file "C:/ti/ccs2031/ccs/tools/compiler/ti-cgt-c2000_22.6.2.LTS/include/_defs.h",line 414,colu
    2348              
    2349                      .dwfde $C$DW$CIE, ||__fpclassify||
    2350              $C$DW$144       .dwtag  DW_TAG_formal_parameter
    2351                      .dwattr $C$DW$144, DW_AT_name("d")
    2352                      .dwattr $C$DW$144, DW_AT_type(*$C$DW$T$168)
    2353                      .dwattr $C$DW$144, DW_AT_location[DW_OP_reg12]
    2354              
    2355              
    2356              ;***************************************************************
    2357              ;* FNAME: __fpclassify                  FR SIZE:   8           *
    2358              ;*                                                             *
    2359              ;* FUNCTION ENVIRONMENT                                        *
    2360              ;*                                                             *
    2361              ;* FUNCTION PROPERTIES                                         *
    2362              ;*                            4 Parameter,  4 Auto,  0 SOE     *
    2363              ;***************************************************************
    2364              
    2365              ||__fpclassify||:
    2366              $C$DW$145       .dwtag  DW_TAG_variable
    2367                      .dwattr $C$DW$145, DW_AT_name("d")
    2368                      .dwattr $C$DW$145, DW_AT_type(*$C$DW$T$17)
    2369                      .dwattr $C$DW$145, DW_AT_location[DW_OP_breg20 -8]
    2370              
    2371              ;* AR5   assigned to $O$C1
    2372              ;* AR4   assigned to d
    2373              $C$DW$146       .dwtag  DW_TAG_variable
    2374                      .dwattr $C$DW$146, DW_AT_name("d")
    2375                      .dwattr $C$DW$146, DW_AT_type(*$C$DW$T$169)
    2376                      .dwattr $C$DW$146, DW_AT_location[DW_OP_reg12]
    2377              
    2378                      .dwcfi  cfa_offset, -2
    2379                      .dwcfi  save_reg_to_mem, 26, 0
    2380 00000000 FE08          ADDB      SP,#8                 ; [CPU_ARAU] 
    2381                      .dwcfi  cfa_offset, -10
    2382 00000001 C4D4          MOVL      XAR6,*+XAR4[2]        ; [CPU_ALU] |414| 
    2383 00000002 06C4          MOVL      ACC,*+XAR4[0]         ; [CPU_ALU] |414| 
    2384 00000003 1E48          MOVL      *-SP[8],ACC           ; [CPU_ALU] |414| 
TMS320C2000 Assembler PC v22.6.2 Wed Dec 10 14:45:02 2025

Copyright (c) 1996-2018 Texas Instruments Incorporated
fcl_foc_cpu_dm.asm                                                   PAGE   47

    2385 00000004 C246          MOVL      *-SP[6],XAR6          ; [CPU_ALU] |414| 
    2386                      .dwpsn  file "C:/ti/ccs2031/ccs/tools/compiler/ti-cgt-c2000_22.6.2.LTS/include/_defs.h",line 415,colu
    2387 00000005 8348          MOVL      XAR5,*-SP[8]          ; [CPU_ALU] |415| 
    2388 00000006 8A46          MOVL      XAR4,*-SP[6]          ; [CPU_ALU] |415| 
    2389                      .dwpsn  file "C:/ti/ccs2031/ccs/tools/compiler/ti-cgt-c2000_22.6.2.LTS/include/_defs.h",line 419,colu
    2390 00000007 28AC          MOV       T,#48                 ; [CPU_ALU] |419| 
         00000008 0030 
    2391 00000009 A0AB          MOVL      P,XAR5                ; [CPU_ALU] |419| 
    2392 0000000a A8A9          MOVL      ACC,XAR4              ; [CPU_ALU] |419| 
    2393 0000000b 565B          LSR64     ACC:P,T               ; [CPU_ALU] |419| 
    2394 0000000c 18AB          AND       PL,#0x7ff0            ; [CPU_ALU] |419| 
         0000000d 7FF0 
    2395 0000000e 88AB          MOVZ      AR6,PL                ; [CPU_ALU] |419| 
    2396 0000000f FF20          MOV       ACC,#32752            ; [CPU_ALU] |419| 
         00000010 7FF0 
    2397 00000011 0FA6          CMPL      ACC,XAR6              ; [CPU_ALU] |419| 
    2398 00000012 6016          B         ||$C$L22||,NEQ        ; [CPU_ALU] |419| 
    2399                      ; branchcc occurs ; [] |419| 
    2400 00000013 0200          MOVB      ACC,#0                ; [CPU_ALU] |419| 
    2401 00000014 1E44          MOVL      *-SP[4],ACC           ; [CPU_ALU] |419| 
    2402 00000015 2B42          MOV       *-SP[2],#0            ; [CPU_ALU] |419| 
    2403 00000016 2B41          MOV       *-SP[1],#0            ; [CPU_ALU] |419| 
    2404 00000017 A348          MOVL      P,*-SP[8]             ; [CPU_ALU] |419| 
    2405 00000018 0646          MOVL      ACC,*-SP[6]           ; [CPU_ALU] |419| 
    2406 00000019 18AB          AND       PL,#65535             ; [CPU_ALU] |419| 
         0000001a FFFF 
    2407 0000001b 18AA          AND       PH,#65535             ; [CPU_ALU] |419| 
         0000001c FFFF 
    2408 0000001d 18A9          AND       AL,#65535             ; [CPU_ALU] |419| 
         0000001e FFFF 
    2409 0000001f 910F          ANDB      AH,#15                ; [CPU_ALU] |419| 
    2410              $C$DW$147       .dwtag  DW_TAG_TI_branch
    2411                      .dwattr $C$DW$147, DW_AT_low_pc(0x00)
    2412                      .dwattr $C$DW$147, DW_AT_name("__c28xabi_cmpull")
    2413                      .dwattr $C$DW$147, DW_AT_TI_call
    2414              
    2415 00000020 7640!         LCR       #||__c28xabi_cmpull|| ; [CPU_ALU] |419| 
         00000021 0000 
    2416                      ; call occurs [#||__c28xabi_cmpull||] ; [] |419| 
    2417 00000022 5200          CMPB      AL,#0                 ; [CPU_ALU] |419| 
    2418 00000023 6103          B         ||$C$L21||,EQ         ; [CPU_ALU] |419| 
    2419                      ; branchcc occurs ; [] |419| 
    2420 00000024 9A02          MOVB      AL,#2                 ; [CPU_ALU] |419| 
    2421 00000025 6F2D          B         ||$C$L25||,UNC        ; [CPU_ALU] |419| 
    2422                      ; branch occurs ; [] |419| 
    2423 00000026       ||$C$L21||:    
    2424 00000026 9A01          MOVB      AL,#1                 ; [CPU_ALU] |419| 
    2425 00000027 6F2B          B         ||$C$L25||,UNC        ; [CPU_ALU] |419| 
    2426                      ; branch occurs ; [] |419| 
    2427 00000028       ||$C$L22||:    
    2428 00000028 BE00          MOVB      XAR6,#0               ; [CPU_ALU] |419| 
    2429 00000029 A0AB          MOVL      P,XAR5                ; [CPU_ALU] |419| 
    2430 0000002a A8A9          MOVL      ACC,XAR4              ; [CPU_ALU] |419| 
    2431 0000002b 28AC          MOV       T,#52                 ; [CPU_ALU] |419| 
         0000002c 0034 
TMS320C2000 Assembler PC v22.6.2 Wed Dec 10 14:45:02 2025

Copyright (c) 1996-2018 Texas Instruments Incorporated
fcl_foc_cpu_dm.asm                                                   PAGE   48

    2432 0000002d C244          MOVL      *-SP[4],XAR6          ; [CPU_ALU] |419| 
    2433 0000002e 2B42          MOV       *-SP[2],#0            ; [CPU_ALU] |419| 
    2434 0000002f 565B          LSR64     ACC:P,T               ; [CPU_ALU] |419| 
    2435 00000030 2B41          MOV       *-SP[1],#0            ; [CPU_FPU] |419| 
    2436 00000031 9000          ANDB      AL,#0                 ; [CPU_ALU] |419| 
    2437 00000032 9100          ANDB      AH,#0                 ; [CPU_ALU] |419| 
    2438 00000033 18AB          AND       PL,#2047              ; [CPU_ALU] |419| 
         00000034 07FF 
    2439 00000035 18AA          AND       PH,#0                 ; [CPU_ALU] |419| 
         00000036 0000 
    2440              $C$DW$148       .dwtag  DW_TAG_TI_branch
    2441                      .dwattr $C$DW$148, DW_AT_low_pc(0x00)
    2442                      .dwattr $C$DW$148, DW_AT_name("__c28xabi_cmpull")
    2443                      .dwattr $C$DW$148, DW_AT_TI_call
    2444              
    2445 00000037 7640!         LCR       #||__c28xabi_cmpull|| ; [CPU_ALU] |419| 
         00000038 0000 
    2446                      ; call occurs [#||__c28xabi_cmpull||] ; [] |419| 
    2447 00000039 5200          CMPB      AL,#0                 ; [CPU_ALU] |419| 
    2448 0000003a 6104          B         ||$C$L23||,EQ         ; [CPU_ALU] |419| 
    2449                      ; branchcc occurs ; [] |419| 
    2450 0000003b 28A9          MOV       AL,#-1                ; [CPU_ALU] |419| 
         0000003c FFFF 
    2451 0000003d 6F15          B         ||$C$L25||,UNC        ; [CPU_ALU] |419| 
    2452                      ; branch occurs ; [] |419| 
    2453 0000003e       ||$C$L23||:    
    2454 0000003e C244          MOVL      *-SP[4],XAR6          ; [CPU_ALU] |419| 
    2455 0000003f A8A9          MOVL      ACC,XAR4              ; [CPU_ALU] |419| 
    2456 00000040 A0AB          MOVL      P,XAR5                ; [CPU_ALU] |419| 
    2457 00000041 2B42          MOV       *-SP[2],#0            ; [CPU_ALU] |419| 
    2458 00000042 18A9          AND       AL,#65535             ; [CPU_ALU] |419| 
         00000043 FFFF 
    2459 00000044 910F          ANDB      AH,#15                ; [CPU_ALU] |419| 
    2460 00000045 18AB          AND       PL,#65535             ; [CPU_ALU] |419| 
         00000046 FFFF 
    2461 00000047 18AA          AND       PH,#65535             ; [CPU_ALU] |419| 
         00000048 FFFF 
    2462 00000049 2B41          MOV       *-SP[1],#0            ; [CPU_FPU] |419| 
    2463              $C$DW$149       .dwtag  DW_TAG_TI_branch
    2464                      .dwattr $C$DW$149, DW_AT_low_pc(0x00)
    2465                      .dwattr $C$DW$149, DW_AT_name("__c28xabi_cmpull")
    2466                      .dwattr $C$DW$149, DW_AT_TI_call
    2467              
    2468 0000004a 7640!         LCR       #||__c28xabi_cmpull|| ; [CPU_ALU] |419| 
         0000004b 0000 
    2469                      ; call occurs [#||__c28xabi_cmpull||] ; [] |419| 
    2470 0000004c 5200          CMPB      AL,#0                 ; [CPU_ALU] |419| 
    2471 0000004d 6104          B         ||$C$L24||,EQ         ; [CPU_ALU] |419| 
    2472                      ; branchcc occurs ; [] |419| 
    2473 0000004e 28A9          MOV       AL,#-2                ; [CPU_ALU] |419| 
         0000004f FFFE 
    2474 00000050 6F02          B         ||$C$L25||,UNC        ; [CPU_ALU] |419| 
    2475                      ; branch occurs ; [] |419| 
    2476 00000051       ||$C$L24||:    
    2477 00000051 9A00          MOVB      AL,#0                 ; [CPU_ALU] |419| 
TMS320C2000 Assembler PC v22.6.2 Wed Dec 10 14:45:02 2025

Copyright (c) 1996-2018 Texas Instruments Incorporated
fcl_foc_cpu_dm.asm                                                   PAGE   49

    2478 00000052       ||$C$L25||:    
    2479 00000052 FE88          SUBB      SP,#8                 ; [CPU_ARAU] 
    2480                      .dwcfi  cfa_offset, -2
    2481              $C$DW$150       .dwtag  DW_TAG_TI_branch
    2482                      .dwattr $C$DW$150, DW_AT_low_pc(0x00)
    2483                      .dwattr $C$DW$150, DW_AT_TI_return
    2484              
    2485 00000053 0006          LRETR     ; [CPU_ALU] 
    2486                      ; return occurs ; [] 
    2487                      .dwattr $C$DW$143, DW_AT_TI_end_file("C:/ti/ccs2031/ccs/tools/compiler/ti-cgt-c2000_22.6.2.LTS/includ
    2488                      .dwattr $C$DW$143, DW_AT_TI_end_line(0x1ac)
    2489                      .dwattr $C$DW$143, DW_AT_TI_end_column(0x01)
    2490                      .dwendentry
    2491                      .dwendtag $C$DW$143
    2492              
    2493 00000000               .sect   ".text:__fast_lldiv"
    2494                      .clink
    2495                      .global ||__fast_lldiv||
    2496              
    2497              $C$DW$151       .dwtag  DW_TAG_subprogram
    2498                      .dwattr $C$DW$151, DW_AT_name("__fast_lldiv")
    2499                      .dwattr $C$DW$151, DW_AT_low_pc(||__fast_lldiv||)
    2500                      .dwattr $C$DW$151, DW_AT_high_pc(0x00)
    2501                      .dwattr $C$DW$151, DW_AT_linkage_name("__fast_lldiv")
    2502                      .dwattr $C$DW$151, DW_AT_external
    2503                      .dwattr $C$DW$151, DW_AT_type(*$C$DW$T$131)
    2504                      .dwattr $C$DW$151, DW_AT_decl_file("C:/ti/ccs2031/ccs/tools/compiler/ti-cgt-c2000_22.6.2.LTS/include/
    2505                      .dwattr $C$DW$151, DW_AT_decl_line(0x1ab)
    2506                      .dwattr $C$DW$151, DW_AT_decl_column(0x12)
    2507                      .dwattr $C$DW$151, DW_AT_TI_max_frame_size(-14)
    2508                      .dwpsn  file "C:/ti/ccs2031/ccs/tools/compiler/ti-cgt-c2000_22.6.2.LTS/include/stdlib.h",line 428,col
    2509              
    2510                      .dwfde $C$DW$CIE, ||__fast_lldiv||
    2511              $C$DW$152       .dwtag  DW_TAG_formal_parameter
    2512                      .dwattr $C$DW$152, DW_AT_name("_numer")
    2513                      .dwattr $C$DW$152, DW_AT_type(*$C$DW$T$14)
    2514                      .dwattr $C$DW$152, DW_AT_location[DW_OP_reg2]
    2515              
    2516              $C$DW$153       .dwtag  DW_TAG_formal_parameter
    2517                      .dwattr $C$DW$153, DW_AT_name("_denom")
    2518                      .dwattr $C$DW$153, DW_AT_type(*$C$DW$T$14)
    2519                      .dwattr $C$DW$153, DW_AT_location[DW_OP_breg20 -18]
    2520              
    2521              
    2522              ;***************************************************************
    2523              ;* FNAME: __fast_lldiv                  FR SIZE:  12           *
    2524              ;*                                                             *
    2525              ;* FUNCTION ENVIRONMENT                                        *
    2526              ;*                                                             *
    2527              ;* FUNCTION PROPERTIES                                         *
    2528              ;*                            0 Parameter,  8 Auto,  4 SOE     *
    2529              ;***************************************************************
    2530              
    2531 00000000       ||__fast_lldiv||:
    2532                      .dwcfi  cfa_offset, -2
TMS320C2000 Assembler PC v22.6.2 Wed Dec 10 14:45:02 2025

Copyright (c) 1996-2018 Texas Instruments Incorporated
fcl_foc_cpu_dm.asm                                                   PAGE   50

    2533                      .dwcfi  save_reg_to_mem, 26, 0
    2534 00000000 E203          MOV32     *SP++,R4H             ; [CPU_FPU] 
         00000001 04BD 
    2535                      .dwcfi  save_reg_to_mem, 59, 2
    2536                      .dwcfi  cfa_offset, -4
    2537 00000002 E203          MOV32     *SP++,R5H             ; [CPU_FPU] 
         00000003 05BD 
    2538                      .dwcfi  save_reg_to_mem, 63, 4
    2539                      .dwcfi  cfa_offset, -6
    2540 00000004 FE08          ADDB      SP,#8                 ; [CPU_ARAU] 
    2541                      .dwcfi  cfa_offset, -14
    2542 00000005 1EA7          MOVL      XAR7,ACC              ; [CPU_ALU] |428| 
    2543 00000006 5CAD          MOVZ      AR4,SP                ; [CPU_ALU] |428| 
    2544 00000007 06A6          MOVL      ACC,XAR6              ; [CPU_ALU] |428| 
    2545                      .dwpsn  file "C:/ti/ccs2031/ccs/tools/compiler/ti-cgt-c2000_22.6.2.LTS/include/stdlib.h",line 429,col
    2546 00000008 C4A7          MOVL      XAR6,XAR7             ; [CPU_ALU] |429| 
    2547                      .dwpsn  file "C:/ti/ccs2031/ccs/tools/compiler/ti-cgt-c2000_22.6.2.LTS/include/stdlib.h",line 428,col
    2548 00000009 DC92          SUBB      XAR4,#18              ; [CPU_ARAU] |428| 
    2549                      .dwpsn  file "C:/ti/ccs2031/ccs/tools/compiler/ti-cgt-c2000_22.6.2.LTS/include/stdlib.h",line 429,col
    2550 0000000a E2AF          MOV32     R3H,*+XAR4[2]         ; [CPU_FPU] |429| 
         0000000b 03D4 
    2551 0000000c BDA6          MOV32     R1H,XAR6              ; [CPU_FPU] |429| 
         0000000d 0F16 
    2552 0000000e BDAB          MOV32     R0H,P                 ; [CPU_FPU] |429| 
         0000000f 0F12 
    2553 00000010 E2AF          MOV32     R5H,*+XAR4[0]         ; [CPU_FPU] |429| 
         00000011 05C4 
    2554 00000012 5CAD          MOVZ      AR4,SP                ; [CPU_ALU] |429| 
    2555 00000013 DC88          SUBB      XAR4,#8               ; [CPU_ARAU] |429| 
    2556 00000014 80A4          MOVZ      AR7,AR4               ; [CPU_ALU] |429| 
    2557 00000015 E5B8          ABSI64DIV64 R2H:R4H,R1H:R0H,R3H:R5H ; [CPU_FPU] |429| 
    2558 00000016 E565          SUBC2UI64 R2H:R4H,R1H:R0H,R3H:R5H ; [CPU_FPU] |429| 
    2559 00000017 E565          SUBC2UI64 R2H:R4H,R1H:R0H,R3H:R5H ; [CPU_FPU] |429| 
    2560 00000018 E565          SUBC2UI64 R2H:R4H,R1H:R0H,R3H:R5H ; [CPU_FPU] |429| 
    2561 00000019 E565          SUBC2UI64 R2H:R4H,R1H:R0H,R3H:R5H ; [CPU_FPU] |429| 
    2562 0000001a E565          SUBC2UI64 R2H:R4H,R1H:R0H,R3H:R5H ; [CPU_FPU] |429| 
    2563 0000001b E565          SUBC2UI64 R2H:R4H,R1H:R0H,R3H:R5H ; [CPU_FPU] |429| 
    2564 0000001c E565          SUBC2UI64 R2H:R4H,R1H:R0H,R3H:R5H ; [CPU_FPU] |429| 
    2565 0000001d E565          SUBC2UI64 R2H:R4H,R1H:R0H,R3H:R5H ; [CPU_FPU] |429| 
    2566 0000001e E565          SUBC2UI64 R2H:R4H,R1H:R0H,R3H:R5H ; [CPU_FPU] |429| 
    2567 0000001f E565          SUBC2UI64 R2H:R4H,R1H:R0H,R3H:R5H ; [CPU_FPU] |429| 
    2568 00000020 E565          SUBC2UI64 R2H:R4H,R1H:R0H,R3H:R5H ; [CPU_FPU] |429| 
    2569 00000021 E565          SUBC2UI64 R2H:R4H,R1H:R0H,R3H:R5H ; [CPU_FPU] |429| 
    2570 00000022 E565          SUBC2UI64 R2H:R4H,R1H:R0H,R3H:R5H ; [CPU_FPU] |429| 
    2571 00000023 E565          SUBC2UI64 R2H:R4H,R1H:R0H,R3H:R5H ; [CPU_FPU] |429| 
    2572 00000024 E565          SUBC2UI64 R2H:R4H,R1H:R0H,R3H:R5H ; [CPU_FPU] |429| 
    2573 00000025 E565          SUBC2UI64 R2H:R4H,R1H:R0H,R3H:R5H ; [CPU_FPU] |429| 
    2574 00000026 E565          SUBC2UI64 R2H:R4H,R1H:R0H,R3H:R5H ; [CPU_FPU] |429| 
    2575 00000027 E565          SUBC2UI64 R2H:R4H,R1H:R0H,R3H:R5H ; [CPU_FPU] |429| 
    2576 00000028 E565          SUBC2UI64 R2H:R4H,R1H:R0H,R3H:R5H ; [CPU_FPU] |429| 
    2577 00000029 E565          SUBC2UI64 R2H:R4H,R1H:R0H,R3H:R5H ; [CPU_FPU] |429| 
    2578 0000002a E565          SUBC2UI64 R2H:R4H,R1H:R0H,R3H:R5H ; [CPU_FPU] |429| 
    2579 0000002b E565          SUBC2UI64 R2H:R4H,R1H:R0H,R3H:R5H ; [CPU_FPU] |429| 
    2580 0000002c E565          SUBC2UI64 R2H:R4H,R1H:R0H,R3H:R5H ; [CPU_FPU] |429| 
    2581 0000002d E565          SUBC2UI64 R2H:R4H,R1H:R0H,R3H:R5H ; [CPU_FPU] |429| 
TMS320C2000 Assembler PC v22.6.2 Wed Dec 10 14:45:02 2025

Copyright (c) 1996-2018 Texas Instruments Incorporated
fcl_foc_cpu_dm.asm                                                   PAGE   51

    2582 0000002e E565          SUBC2UI64 R2H:R4H,R1H:R0H,R3H:R5H ; [CPU_FPU] |429| 
    2583 0000002f E565          SUBC2UI64 R2H:R4H,R1H:R0H,R3H:R5H ; [CPU_FPU] |429| 
    2584 00000030 E565          SUBC2UI64 R2H:R4H,R1H:R0H,R3H:R5H ; [CPU_FPU] |429| 
    2585 00000031 E565          SUBC2UI64 R2H:R4H,R1H:R0H,R3H:R5H ; [CPU_FPU] |429| 
    2586 00000032 E565          SUBC2UI64 R2H:R4H,R1H:R0H,R3H:R5H ; [CPU_FPU] |429| 
    2587 00000033 E565          SUBC2UI64 R2H:R4H,R1H:R0H,R3H:R5H ; [CPU_FPU] |429| 
    2588 00000034 E565          SUBC2UI64 R2H:R4H,R1H:R0H,R3H:R5H ; [CPU_FPU] |429| 
    2589 00000035 E565          SUBC2UI64 R2H:R4H,R1H:R0H,R3H:R5H ; [CPU_FPU] |429| 
    2590 00000036 E5BA          NEGI64DIV64 R1H:R0H,R2H:R4H     ; [CPU_FPU] |429| 
    2591 00000037 E203          MOV32     *-SP[6],R1H           ; [CPU_FPU] |429| 
         00000038 0146 
    2592 00000039 E203          MOV32     *-SP[8],R0H           ; [CPU_FPU] |429| 
         0000003a 0048 
    2593 0000003b E203          MOV32     *-SP[2],R2H           ; [CPU_FPU] |429| 
         0000003c 0242 
    2594 0000003d E203          MOV32     *-SP[4],R4H           ; [CPU_FPU] |429| 
         0000003e 0444 
    2595 0000003f 6104          B         ||$C$L26||,EQ         ; [CPU_ALU] |429| 
    2596                      ; branchcc occurs ; [] |429| 
    2597 00000040 8AA9          MOVL      XAR4,ACC              ; [CPU_ALU] |429| 
    2598 00000041 F607          RPT       #7
    2599 00000042 2484  ||     PREAD     *XAR4++,*XAR7         ; [CPU_ALU] |429| 
    2600 00000043       ||$C$L26||:    
    2601 00000043 FE88          SUBB      SP,#8                 ; [CPU_ARAU] 
    2602                      .dwcfi  cfa_offset, -6
    2603 00000044 E2AF          MOV32     R5H,*--SP             ; [CPU_FPU] 
         00000045 05BE 
    2604                      .dwcfi  cfa_offset, -4
    2605                      .dwcfi  restore_reg, 63
    2606 00000046 E2AF          MOV32     R4H,*--SP             ; [CPU_FPU] 
         00000047 04BE 
    2607                      .dwcfi  cfa_offset, -2
    2608                      .dwcfi  restore_reg, 59
    2609              $C$DW$154       .dwtag  DW_TAG_TI_branch
    2610                      .dwattr $C$DW$154, DW_AT_low_pc(0x00)
    2611                      .dwattr $C$DW$154, DW_AT_TI_return
    2612              
    2613 00000048 0006          LRETR     ; [CPU_ALU] 
    2614                      ; return occurs ; [] 
    2615                      .dwattr $C$DW$151, DW_AT_TI_end_file("C:/ti/ccs2031/ccs/tools/compiler/ti-cgt-c2000_22.6.2.LTS/includ
    2616                      .dwattr $C$DW$151, DW_AT_TI_end_line(0x1ae)
    2617                      .dwattr $C$DW$151, DW_AT_TI_end_column(0x01)
    2618                      .dwendentry
    2619                      .dwendtag $C$DW$151
    2620              
    2621 00000000               .sect   ".text:__fast_ldiv"
    2622                      .clink
    2623                      .global ||__fast_ldiv||
    2624              
    2625              $C$DW$155       .dwtag  DW_TAG_subprogram
    2626                      .dwattr $C$DW$155, DW_AT_name("__fast_ldiv")
    2627                      .dwattr $C$DW$155, DW_AT_low_pc(||__fast_ldiv||)
    2628                      .dwattr $C$DW$155, DW_AT_high_pc(0x00)
    2629                      .dwattr $C$DW$155, DW_AT_linkage_name("__fast_ldiv")
    2630                      .dwattr $C$DW$155, DW_AT_external
TMS320C2000 Assembler PC v22.6.2 Wed Dec 10 14:45:02 2025

Copyright (c) 1996-2018 Texas Instruments Incorporated
fcl_foc_cpu_dm.asm                                                   PAGE   52

    2631                      .dwattr $C$DW$155, DW_AT_type(*$C$DW$T$128)
    2632                      .dwattr $C$DW$155, DW_AT_decl_file("C:/ti/ccs2031/ccs/tools/compiler/ti-cgt-c2000_22.6.2.LTS/include/
    2633                      .dwattr $C$DW$155, DW_AT_decl_line(0x1a4)
    2634                      .dwattr $C$DW$155, DW_AT_decl_column(0x11)
    2635                      .dwattr $C$DW$155, DW_AT_TI_max_frame_size(-6)
    2636                      .dwpsn  file "C:/ti/ccs2031/ccs/tools/compiler/ti-cgt-c2000_22.6.2.LTS/include/stdlib.h",line 421,col
    2637              
    2638                      .dwfde $C$DW$CIE, ||__fast_ldiv||
    2639              $C$DW$156       .dwtag  DW_TAG_formal_parameter
    2640                      .dwattr $C$DW$156, DW_AT_name("_numer")
    2641                      .dwattr $C$DW$156, DW_AT_type(*$C$DW$T$12)
    2642                      .dwattr $C$DW$156, DW_AT_location[DW_OP_reg0]
    2643              
    2644              $C$DW$157       .dwtag  DW_TAG_formal_parameter
    2645                      .dwattr $C$DW$157, DW_AT_name("_denom")
    2646                      .dwattr $C$DW$157, DW_AT_type(*$C$DW$T$12)
    2647                      .dwattr $C$DW$157, DW_AT_location[DW_OP_breg20 -8]
    2648              
    2649              
    2650              ;***************************************************************
    2651              ;* FNAME: __fast_ldiv                   FR SIZE:   4           *
    2652              ;*                                                             *
    2653              ;* FUNCTION ENVIRONMENT                                        *
    2654              ;*                                                             *
    2655              ;* FUNCTION PROPERTIES                                         *
    2656              ;*                            0 Parameter,  4 Auto,  0 SOE     *
    2657              ;***************************************************************
    2658              
    2659              ||__fast_ldiv||:
    2660              ;* AR7   assigned to _numer
    2661              $C$DW$158       .dwtag  DW_TAG_variable
    2662                      .dwattr $C$DW$158, DW_AT_name("_numer")
    2663                      .dwattr $C$DW$158, DW_AT_type(*$C$DW$T$156)
    2664                      .dwattr $C$DW$158, DW_AT_location[DW_OP_reg18]
    2665              
    2666                      .dwcfi  cfa_offset, -2
    2667                      .dwcfi  save_reg_to_mem, 26, 0
    2668 00000000 FE04          ADDB      SP,#4                 ; [CPU_ARAU] 
    2669                      .dwcfi  cfa_offset, -6
    2670 00000001 1EA7          MOVL      XAR7,ACC              ; [CPU_ALU] |421| 
    2671                      .dwpsn  file "C:/ti/ccs2031/ccs/tools/compiler/ti-cgt-c2000_22.6.2.LTS/include/stdlib.h",line 422,col
    2672 00000002 5CAD          MOVZ      AR4,SP                ; [CPU_ALU] |422| 
    2673 00000003 BDA7          MOV32     R1H,XAR7              ; [CPU_FPU] |422| 
         00000004 0F16 
    2674 00000005 E2AF          MOV32     R3H,*-SP[8]           ; [CPU_FPU] |422| 
         00000006 0348 
    2675 00000007 DC84          SUBB      XAR4,#4               ; [CPU_ARAU] |422| 
    2676                      .dwpsn  file "C:/ti/ccs2031/ccs/tools/compiler/ti-cgt-c2000_22.6.2.LTS/include/stdlib.h",line 421,col
    2677 00000008 06A6          MOVL      ACC,XAR6              ; [CPU_ALU] |421| 
    2678                      .dwpsn  file "C:/ti/ccs2031/ccs/tools/compiler/ti-cgt-c2000_22.6.2.LTS/include/stdlib.h",line 422,col
    2679 00000009 80A4          MOVZ      AR7,AR4               ; [CPU_ALU] |422| 
    2680 0000000a E568          ABSI32DIV32 R2H,R1H,R3H         ; [CPU_FPU] |422| 
    2681 0000000b E564          SUBC4UI32 R2H,R1H,R3H           ; [CPU_FPU] |422| 
    2682 0000000c E564          SUBC4UI32 R2H,R1H,R3H           ; [CPU_FPU] |422| 
    2683 0000000d E564          SUBC4UI32 R2H,R1H,R3H           ; [CPU_FPU] |422| 
TMS320C2000 Assembler PC v22.6.2 Wed Dec 10 14:45:02 2025

Copyright (c) 1996-2018 Texas Instruments Incorporated
fcl_foc_cpu_dm.asm                                                   PAGE   53

    2684 0000000e E564          SUBC4UI32 R2H,R1H,R3H           ; [CPU_FPU] |422| 
    2685 0000000f E564          SUBC4UI32 R2H,R1H,R3H           ; [CPU_FPU] |422| 
    2686 00000010 E564          SUBC4UI32 R2H,R1H,R3H           ; [CPU_FPU] |422| 
    2687 00000011 E564          SUBC4UI32 R2H,R1H,R3H           ; [CPU_FPU] |422| 
    2688 00000012 E564          SUBC4UI32 R2H,R1H,R3H           ; [CPU_FPU] |422| 
    2689 00000013 E56A          NEGI32DIV32 R1H,R2H             ; [CPU_FPU] |422| 
    2690 00000014 E203          MOV32     *-SP[4],R1H           ; [CPU_FPU] |422| 
         00000015 0144 
    2691 00000016 E203          MOV32     *-SP[2],R2H           ; [CPU_FPU] |422| 
         00000017 0242 
    2692 00000018 6104          B         ||$C$L27||,EQ         ; [CPU_ALU] |422| 
    2693                      ; branchcc occurs ; [] |422| 
    2694 00000019 8AA9          MOVL      XAR4,ACC              ; [CPU_ALU] |422| 
    2695 0000001a F603          RPT       #3
    2696 0000001b 2484  ||     PREAD     *XAR4++,*XAR7         ; [CPU_ALU] |422| 
    2697 0000001c       ||$C$L27||:    
    2698 0000001c FE84          SUBB      SP,#4                 ; [CPU_ARAU] 
    2699                      .dwcfi  cfa_offset, -2
    2700              $C$DW$159       .dwtag  DW_TAG_TI_branch
    2701                      .dwattr $C$DW$159, DW_AT_low_pc(0x00)
    2702                      .dwattr $C$DW$159, DW_AT_TI_return
    2703              
    2704 0000001d 0006          LRETR     ; [CPU_ALU] 
    2705                      ; return occurs ; [] 
    2706                      .dwattr $C$DW$155, DW_AT_TI_end_file("C:/ti/ccs2031/ccs/tools/compiler/ti-cgt-c2000_22.6.2.LTS/includ
    2707                      .dwattr $C$DW$155, DW_AT_TI_end_line(0x1a7)
    2708                      .dwattr $C$DW$155, DW_AT_TI_end_column(0x01)
    2709                      .dwendentry
    2710                      .dwendtag $C$DW$155
    2711              
    2712 00000000               .sect   ".text:FCL_initQEP"
    2713                      .clink
    2714                      .global ||FCL_initQEP||
    2715              
    2716              $C$DW$160       .dwtag  DW_TAG_subprogram
    2717                      .dwattr $C$DW$160, DW_AT_name("FCL_initQEP")
    2718                      .dwattr $C$DW$160, DW_AT_low_pc(||FCL_initQEP||)
    2719                      .dwattr $C$DW$160, DW_AT_high_pc(0x00)
    2720                      .dwattr $C$DW$160, DW_AT_linkage_name("FCL_initQEP")
    2721                      .dwattr $C$DW$160, DW_AT_external
    2722                      .dwattr $C$DW$160, DW_AT_decl_file("../sources/fcl_foc_cpu_dm.c")
    2723                      .dwattr $C$DW$160, DW_AT_decl_line(0xa2)
    2724                      .dwattr $C$DW$160, DW_AT_decl_column(0x06)
    2725                      .dwattr $C$DW$160, DW_AT_TI_max_frame_size(-2)
    2726                      .dwpsn  file "../sources/fcl_foc_cpu_dm.c",line 163,column 1,is_stmt,address ||FCL_initQEP||,isa 0
    2727              
    2728                      .dwfde $C$DW$CIE, ||FCL_initQEP||
    2729              $C$DW$161       .dwtag  DW_TAG_formal_parameter
    2730                      .dwattr $C$DW$161, DW_AT_name("pMotor")
    2731                      .dwattr $C$DW$161, DW_AT_type(*$C$DW$T$139)
    2732                      .dwattr $C$DW$161, DW_AT_location[DW_OP_reg12]
    2733              
    2734              $C$DW$162       .dwtag  DW_TAG_formal_parameter
    2735                      .dwattr $C$DW$162, DW_AT_name("qepBaseA")
    2736                      .dwattr $C$DW$162, DW_AT_type(*$C$DW$T$24)
TMS320C2000 Assembler PC v22.6.2 Wed Dec 10 14:45:02 2025

Copyright (c) 1996-2018 Texas Instruments Incorporated
fcl_foc_cpu_dm.asm                                                   PAGE   54

    2737                      .dwattr $C$DW$162, DW_AT_location[DW_OP_reg0]
    2738              
    2739              
    2740              ;***************************************************************
    2741              ;* FNAME: FCL_initQEP                   FR SIZE:   0           *
    2742              ;*                                                             *
    2743              ;* FUNCTION ENVIRONMENT                                        *
    2744              ;*                                                             *
    2745              ;* FUNCTION PROPERTIES                                         *
    2746              ;*                            0 Parameter,  0 Auto,  0 SOE     *
    2747              ;***************************************************************
    2748              
    2749              ||FCL_initQEP||:
    2750              ;* AR4   assigned to pMotor
    2751              $C$DW$163       .dwtag  DW_TAG_variable
    2752                      .dwattr $C$DW$163, DW_AT_name("pMotor")
    2753                      .dwattr $C$DW$163, DW_AT_type(*$C$DW$T$140)
    2754                      .dwattr $C$DW$163, DW_AT_location[DW_OP_reg12]
    2755              
    2756              ;* AL    assigned to qepBaseA
    2757              $C$DW$164       .dwtag  DW_TAG_variable
    2758                      .dwattr $C$DW$164, DW_AT_name("qepBaseA")
    2759                      .dwattr $C$DW$164, DW_AT_type(*$C$DW$T$145)
    2760                      .dwattr $C$DW$164, DW_AT_location[DW_OP_reg0]
    2761              
    2762                      .dwcfi  cfa_offset, -2
    2763                      .dwcfi  save_reg_to_mem, 26, 0
    2764                      .dwpsn  file "../sources/fcl_foc_cpu_dm.c",line 164,column 5,is_stmt,isa 0
    2765 00000000 8D00          MOVL      XAR0,#408             ; [CPU_ALU] |164| 
         00000001 0198 
    2766 00000002 1E94          MOVL      *+XAR4[AR0],ACC       ; [CPU_ALU] |164| 
    2767              $C$DW$165       .dwtag  DW_TAG_TI_branch
    2768                      .dwattr $C$DW$165, DW_AT_low_pc(0x00)
    2769                      .dwattr $C$DW$165, DW_AT_TI_return
    2770              
    2771 00000003 0006          LRETR     ; [CPU_ALU] 
    2772                      ; return occurs ; [] 
    2773                      .dwattr $C$DW$160, DW_AT_TI_end_file("../sources/fcl_foc_cpu_dm.c")
    2774                      .dwattr $C$DW$160, DW_AT_TI_end_line(0xa7)
    2775                      .dwattr $C$DW$160, DW_AT_TI_end_column(0x01)
    2776                      .dwendentry
    2777                      .dwendtag $C$DW$160
    2778              
    2779 00000000               .sect   ".text:FCL_initPWM"
    2780                      .clink
    2781                      .global ||FCL_initPWM||
    2782              
    2783              $C$DW$166       .dwtag  DW_TAG_subprogram
    2784                      .dwattr $C$DW$166, DW_AT_name("FCL_initPWM")
    2785                      .dwattr $C$DW$166, DW_AT_low_pc(||FCL_initPWM||)
    2786                      .dwattr $C$DW$166, DW_AT_high_pc(0x00)
    2787                      .dwattr $C$DW$166, DW_AT_linkage_name("FCL_initPWM")
    2788                      .dwattr $C$DW$166, DW_AT_external
    2789                      .dwattr $C$DW$166, DW_AT_decl_file("../sources/fcl_foc_cpu_dm.c")
    2790                      .dwattr $C$DW$166, DW_AT_decl_line(0x62)
TMS320C2000 Assembler PC v22.6.2 Wed Dec 10 14:45:02 2025

Copyright (c) 1996-2018 Texas Instruments Incorporated
fcl_foc_cpu_dm.asm                                                   PAGE   55

    2791                      .dwattr $C$DW$166, DW_AT_decl_column(0x06)
    2792                      .dwattr $C$DW$166, DW_AT_TI_max_frame_size(-4)
    2793                      .dwpsn  file "../sources/fcl_foc_cpu_dm.c",line 102,column 1,is_stmt,address ||FCL_initPWM||,isa 0
    2794              
    2795                      .dwfde $C$DW$CIE, ||FCL_initPWM||
    2796              $C$DW$167       .dwtag  DW_TAG_formal_parameter
    2797                      .dwattr $C$DW$167, DW_AT_name("ptrMotor")
    2798                      .dwattr $C$DW$167, DW_AT_type(*$C$DW$T$139)
    2799                      .dwattr $C$DW$167, DW_AT_location[DW_OP_reg12]
    2800              
    2801              $C$DW$168       .dwtag  DW_TAG_formal_parameter
    2802                      .dwattr $C$DW$168, DW_AT_name("pwmBaseU")
    2803                      .dwattr $C$DW$168, DW_AT_type(*$C$DW$T$24)
    2804                      .dwattr $C$DW$168, DW_AT_location[DW_OP_reg0]
    2805              
    2806              $C$DW$169       .dwtag  DW_TAG_formal_parameter
    2807                      .dwattr $C$DW$169, DW_AT_name("pwmBaseV")
    2808                      .dwattr $C$DW$169, DW_AT_type(*$C$DW$T$24)
    2809                      .dwattr $C$DW$169, DW_AT_location[DW_OP_breg20 -6]
    2810              
    2811              $C$DW$170       .dwtag  DW_TAG_formal_parameter
    2812                      .dwattr $C$DW$170, DW_AT_name("pwmBaseW")
    2813                      .dwattr $C$DW$170, DW_AT_type(*$C$DW$T$24)
    2814                      .dwattr $C$DW$170, DW_AT_location[DW_OP_breg20 -8]
    2815              
    2816              
    2817              ;***************************************************************
    2818              ;* FNAME: FCL_initPWM                   FR SIZE:   2           *
    2819              ;*                                                             *
    2820              ;* FUNCTION ENVIRONMENT                                        *
    2821              ;*                                                             *
    2822              ;* FUNCTION PROPERTIES                                         *
    2823              ;*                            0 Parameter,  0 Auto,  2 SOE     *
    2824              ;***************************************************************
    2825              
    2826              ||FCL_initPWM||:
    2827              ;* AR5   assigned to $O$C1
    2828              ;* AR5   assigned to $O$C2
    2829              ;* AR5   assigned to $O$C3
    2830              ;* AR5   assigned to $O$C4
    2831              ;* AR5   assigned to $O$C5
    2832              ;* AR5   assigned to $O$C6
    2833              ;* AR5   assigned to $O$C7
    2834              ;* AR5   assigned to $O$C8
    2835              ;* AR5   assigned to $O$C9
    2836              ;* AR5   assigned to $O$C10
    2837              ;* AR5   assigned to $O$C11
    2838              ;* AR5   assigned to $O$C12
    2839              ;* AR4   assigned to ptrMotor
    2840              $C$DW$171       .dwtag  DW_TAG_variable
    2841                      .dwattr $C$DW$171, DW_AT_name("ptrMotor")
    2842                      .dwattr $C$DW$171, DW_AT_type(*$C$DW$T$140)
    2843                      .dwattr $C$DW$171, DW_AT_location[DW_OP_reg12]
    2844              
    2845              ;* AL    assigned to pwmBaseU
TMS320C2000 Assembler PC v22.6.2 Wed Dec 10 14:45:02 2025

Copyright (c) 1996-2018 Texas Instruments Incorporated
fcl_foc_cpu_dm.asm                                                   PAGE   56

    2846              $C$DW$172       .dwtag  DW_TAG_variable
    2847                      .dwattr $C$DW$172, DW_AT_name("pwmBaseU")
    2848                      .dwattr $C$DW$172, DW_AT_type(*$C$DW$T$145)
    2849                      .dwattr $C$DW$172, DW_AT_location[DW_OP_reg0]
    2850              
    2851              ;* AR7   assigned to pwmBaseV
    2852              $C$DW$173       .dwtag  DW_TAG_variable
    2853                      .dwattr $C$DW$173, DW_AT_name("pwmBaseV")
    2854                      .dwattr $C$DW$173, DW_AT_type(*$C$DW$T$145)
    2855                      .dwattr $C$DW$173, DW_AT_location[DW_OP_reg18]
    2856              
    2857              ;* AR6   assigned to pwmBaseW
    2858              $C$DW$174       .dwtag  DW_TAG_variable
    2859                      .dwattr $C$DW$174, DW_AT_name("pwmBaseW")
    2860                      .dwattr $C$DW$174, DW_AT_type(*$C$DW$T$145)
    2861                      .dwattr $C$DW$174, DW_AT_location[DW_OP_reg16]
    2862              
    2863                      .dwcfi  cfa_offset, -2
    2864                      .dwcfi  save_reg_to_mem, 26, 0
    2865 00000000 B2BD          MOVL      *SP++,XAR1            ; [CPU_ALU] 
    2866                      .dwcfi  save_reg_to_mem, 7, 2
    2867                      .dwcfi  cfa_offset, -4
    2868                      .dwpsn  file "../sources/fcl_foc_cpu_dm.c",line 103,column 5,is_stmt,isa 0
    2869 00000001 8D40          MOVL      XAR1,#416             ; [CPU_ALU] |103| 
         00000002 01A0 
    2870                      .dwpsn  file "../sources/fcl_foc_cpu_dm.c",line 102,column 1,is_stmt,isa 0
    2871 00000003 C546          MOVL      XAR7,*-SP[6]          ; [CPU_ALU] |102| 
    2872                      .dwpsn  file "../sources/fcl_foc_cpu_dm.c",line 104,column 5,is_stmt,isa 0
    2873 00000004 8D00          MOVL      XAR0,#418             ; [CPU_ALU] |104| 
         00000005 01A2 
    2874                      .dwpsn  file "../sources/fcl_foc_cpu_dm.c",line 102,column 1,is_stmt,isa 0
    2875 00000006 C448          MOVL      XAR6,*-SP[8]          ; [CPU_ALU] |102| 
    2876                      .dwpsn  file "../sources/fcl_foc_cpu_dm.c",line 103,column 5,is_stmt,isa 0
    2877 00000007 1E9C          MOVL      *+XAR4[AR1],ACC       ; [CPU_ALU] |103| 
    2878                      .dwpsn  file "../sources/fcl_foc_cpu_dm.c",line 104,column 5,is_stmt,isa 0
    2879 00000008 C394          MOVL      *+XAR4[AR0],XAR7      ; [CPU_ALU] |104| 
    2880                      .dwpsn  file "../sources/fcl_foc_cpu_dm.c",line 107,column 5,is_stmt,isa 0
    2881 00000009 8D00          MOVL      XAR0,#449             ; [CPU_ALU] |107| 
         0000000a 01C1 
    2882 0000000b 9294          MOV       AL,*+XAR4[AR0]        ; [CPU_ALU] |107| 
    2883                      .dwpsn  file "../sources/fcl_foc_cpu_dm.c",line 105,column 5,is_stmt,isa 0
    2884 0000000c 8D00          MOVL      XAR0,#420             ; [CPU_ALU] |105| 
         0000000d 01A4 
    2885 0000000e C294          MOVL      *+XAR4[AR0],XAR6      ; [CPU_ALU] |105| 
    2886                      .dwpsn  file "../sources/fcl_foc_cpu_dm.c",line 107,column 5,is_stmt,isa 0
    2887 0000000f 614E          B         ||$C$L31||,EQ         ; [CPU_ALU] |107| 
    2888                      ; branchcc occurs ; [] |107| 
    2889 00000010 5201          CMPB      AL,#1                 ; [CPU_ALU] |107| 
    2890 00000011 6134          B         ||$C$L30||,EQ         ; [CPU_ALU] |107| 
    2891                      ; branchcc occurs ; [] |107| 
    2892 00000012 5202          CMPB      AL,#2                 ; [CPU_ALU] |107| 
    2893 00000013 611A          B         ||$C$L29||,EQ         ; [CPU_ALU] |107| 
    2894                      ; branchcc occurs ; [] |107| 
    2895 00000014 5203          CMPB      AL,#3                 ; [CPU_ALU] |107| 
    2896 00000015 605E          B         ||$C$L32||,NEQ        ; [CPU_ALU] |107| 
TMS320C2000 Assembler PC v22.6.2 Wed Dec 10 14:45:02 2025

Copyright (c) 1996-2018 Texas Instruments Incorporated
fcl_foc_cpu_dm.asm                                                   PAGE   57

    2897                      ; branchcc occurs ; [] |107| 
    2898                      .dwpsn  file "C:/ti/C2000Ware_MotorControl_SDK_5_04_00_00/c2000ware/driverlib/f28002x/driverlib/epwm.
    2899 00000016 839C          MOVL      XAR5,*+XAR4[AR1]      ; [CPU_ALU] |2594| 
    2900 00000017 D008          MOVB      XAR0,#8               ; [CPU_ALU] |2594| 
    2901 00000018 8D40          MOVL      XAR1,#418             ; [CPU_ALU] |2594| 
         00000019 01A2 
    2902 0000001a 9295          MOV       AL,*+XAR5[AR0]        ; [CPU_ALU] |2594| 
    2903 0000001b D008          MOVB      XAR0,#8               ; [CPU_ALU] |2594| 
    2904 0000001c 5010          ORB       AL,#0x10              ; [CPU_ALU] |2594| 
    2905 0000001d 9695          MOV       *+XAR5[AR0],AL        ; [CPU_ALU] |2594| 
    2906 0000001e 839C          MOVL      XAR5,*+XAR4[AR1]      ; [CPU_ALU] |2594| 
    2907 0000001f D008          MOVB      XAR0,#8               ; [CPU_ALU] |2594| 
    2908 00000020 8D40          MOVL      XAR1,#420             ; [CPU_ALU] |2594| 
         00000021 01A4 
    2909 00000022 9295          MOV       AL,*+XAR5[AR0]        ; [CPU_ALU] |2594| 
    2910 00000023 D008          MOVB      XAR0,#8               ; [CPU_ALU] |2594| 
    2911 00000024 5010          ORB       AL,#0x10              ; [CPU_ALU] |2594| 
    2912 00000025 9695          MOV       *+XAR5[AR0],AL        ; [CPU_ALU] |2594| 
    2913 00000026 839C          MOVL      XAR5,*+XAR4[AR1]      ; [CPU_ALU] |2594| 
    2914 00000027 D008          MOVB      XAR0,#8               ; [CPU_ALU] |2594| 
    2915 00000028 9295          MOV       AL,*+XAR5[AR0]        ; [CPU_ALU] |2594| 
    2916 00000029 5010          ORB       AL,#0x10              ; [CPU_ALU] |2594| 
    2917 0000002a       ||$C$L28||:    
    2918 0000002a D008          MOVB      XAR0,#8               ; [CPU_ALU] |2594| 
    2919 0000002b 9695          MOV       *+XAR5[AR0],AL        ; [CPU_ALU] |2594| 
    2920                      .dwpsn  file "../sources/fcl_foc_cpu_dm.c",line 149,column 13,is_stmt,isa 0
    2921 0000002c 6F47          B         ||$C$L32||,UNC        ; [CPU_ALU] |149| 
    2922                      ; branch occurs ; [] |149| 
    2923 0000002d       ||$C$L29||:    
    2924                      .dwpsn  file "C:/ti/C2000Ware_MotorControl_SDK_5_04_00_00/c2000ware/driverlib/f28002x/driverlib/epwm.
    2925 0000002d 839C          MOVL      XAR5,*+XAR4[AR1]      ; [CPU_ALU] |2537| 
    2926 0000002e D008          MOVB      XAR0,#8               ; [CPU_ALU] |2537| 
    2927 0000002f 8D40          MOVL      XAR1,#418             ; [CPU_ALU] |2537| 
         00000030 01A2 
    2928 00000031 CC95          AND       AL,*+XAR5[AR0],#0xf3ee ; [CPU_ALU] |2537| 
         00000032 F3EE 
    2929 00000033 D008          MOVB      XAR0,#8               ; [CPU_ALU] |2537| 
    2930 00000034 5002          ORB       AL,#0x02              ; [CPU_ALU] |2537| 
    2931 00000035 9695          MOV       *+XAR5[AR0],AL        ; [CPU_ALU] |2537| 
    2932 00000036 839C          MOVL      XAR5,*+XAR4[AR1]      ; [CPU_ALU] |2537| 
    2933 00000037 D008          MOVB      XAR0,#8               ; [CPU_ALU] |2537| 
    2934 00000038 8D40          MOVL      XAR1,#420             ; [CPU_ALU] |2537| 
         00000039 01A4 
    2935 0000003a CC95          AND       AL,*+XAR5[AR0],#0xf3ee ; [CPU_ALU] |2537| 
         0000003b F3EE 
    2936 0000003c D008          MOVB      XAR0,#8               ; [CPU_ALU] |2537| 
    2937 0000003d 5002          ORB       AL,#0x02              ; [CPU_ALU] |2537| 
    2938 0000003e 9695          MOV       *+XAR5[AR0],AL        ; [CPU_ALU] |2537| 
    2939 0000003f 839C          MOVL      XAR5,*+XAR4[AR1]      ; [CPU_ALU] |2537| 
    2940 00000040 D008          MOVB      XAR0,#8               ; [CPU_ALU] |2537| 
    2941 00000041 CC95          AND       AL,*+XAR5[AR0],#0xf3ee ; [CPU_ALU] |2537| 
         00000042 F3EE 
    2942 00000043 5002          ORB       AL,#0x02              ; [CPU_ALU] |2537| 
    2943                      .dwpsn  file "../sources/fcl_foc_cpu_dm.c",line 141,column 13,is_stmt,isa 0
    2944 00000044 6FE6          B         ||$C$L28||,UNC        ; [CPU_ALU] |141| 
TMS320C2000 Assembler PC v22.6.2 Wed Dec 10 14:45:02 2025

Copyright (c) 1996-2018 Texas Instruments Incorporated
fcl_foc_cpu_dm.asm                                                   PAGE   58

    2945                      ; branch occurs ; [] |141| 
    2946 00000045       ||$C$L30||:    
    2947                      .dwpsn  file "C:/ti/C2000Ware_MotorControl_SDK_5_04_00_00/c2000ware/driverlib/f28002x/driverlib/epwm.
    2948 00000045 839C          MOVL      XAR5,*+XAR4[AR1]      ; [CPU_ALU] |2537| 
    2949 00000046 D008          MOVB      XAR0,#8               ; [CPU_ALU] |2537| 
    2950 00000047 8D40          MOVL      XAR1,#418             ; [CPU_ALU] |2537| 
         00000048 01A2 
    2951 00000049 CC95          AND       AL,*+XAR5[AR0],#0xf3ec ; [CPU_ALU] |2537| 
         0000004a F3EC 
    2952 0000004b D008          MOVB      XAR0,#8               ; [CPU_ALU] |2537| 
    2953 0000004c 5001          ORB       AL,#0x01              ; [CPU_ALU] |2537| 
    2954 0000004d 9695          MOV       *+XAR5[AR0],AL        ; [CPU_ALU] |2537| 
    2955 0000004e 839C          MOVL      XAR5,*+XAR4[AR1]      ; [CPU_ALU] |2537| 
    2956 0000004f D008          MOVB      XAR0,#8               ; [CPU_ALU] |2537| 
    2957 00000050 8D40          MOVL      XAR1,#420             ; [CPU_ALU] |2537| 
         00000051 01A4 
    2958 00000052 CC95          AND       AL,*+XAR5[AR0],#0xf3ec ; [CPU_ALU] |2537| 
         00000053 F3EC 
    2959 00000054 D008          MOVB      XAR0,#8               ; [CPU_ALU] |2537| 
    2960 00000055 5001          ORB       AL,#0x01              ; [CPU_ALU] |2537| 
    2961 00000056 9695          MOV       *+XAR5[AR0],AL        ; [CPU_ALU] |2537| 
    2962 00000057 839C          MOVL      XAR5,*+XAR4[AR1]      ; [CPU_ALU] |2537| 
    2963 00000058 D008          MOVB      XAR0,#8               ; [CPU_ALU] |2537| 
    2964 00000059 CC95          AND       AL,*+XAR5[AR0],#0xf3ec ; [CPU_ALU] |2537| 
         0000005a F3EC 
    2965 0000005b 5001          ORB       AL,#0x01              ; [CPU_ALU] |2537| 
    2966                      .dwpsn  file "../sources/fcl_foc_cpu_dm.c",line 130,column 13,is_stmt,isa 0
    2967 0000005c 6FCE          B         ||$C$L28||,UNC        ; [CPU_ALU] |130| 
    2968                      ; branch occurs ; [] |130| 
    2969 0000005d       ||$C$L31||:    
    2970                      .dwpsn  file "C:/ti/C2000Ware_MotorControl_SDK_5_04_00_00/c2000ware/driverlib/f28002x/driverlib/epwm.
    2971 0000005d 839C          MOVL      XAR5,*+XAR4[AR1]      ; [CPU_ALU] |2537| 
    2972 0000005e D008          MOVB      XAR0,#8               ; [CPU_ALU] |2537| 
    2973 0000005f 8D40          MOVL      XAR1,#418             ; [CPU_ALU] |2537| 
         00000060 01A2 
    2974 00000061 CC95          AND       AL,*+XAR5[AR0],#0xf3ec ; [CPU_ALU] |2537| 
         00000062 F3EC 
    2975 00000063 D008          MOVB      XAR0,#8               ; [CPU_ALU] |2537| 
    2976 00000064 9695          MOV       *+XAR5[AR0],AL        ; [CPU_ALU] |2537| 
    2977 00000065 839C          MOVL      XAR5,*+XAR4[AR1]      ; [CPU_ALU] |2537| 
    2978 00000066 D008          MOVB      XAR0,#8               ; [CPU_ALU] |2537| 
    2979 00000067 8D40          MOVL      XAR1,#420             ; [CPU_ALU] |2537| 
         00000068 01A4 
    2980 00000069 CC95          AND       AL,*+XAR5[AR0],#0xf3ec ; [CPU_ALU] |2537| 
         0000006a F3EC 
    2981 0000006b D008          MOVB      XAR0,#8               ; [CPU_ALU] |2537| 
    2982 0000006c 9695          MOV       *+XAR5[AR0],AL        ; [CPU_ALU] |2537| 
    2983 0000006d 839C          MOVL      XAR5,*+XAR4[AR1]      ; [CPU_ALU] |2537| 
    2984 0000006e D008          MOVB      XAR0,#8               ; [CPU_ALU] |2537| 
    2985 0000006f D108          MOVB      XAR1,#8               ; [CPU_ALU] |2537| 
    2986 00000070 CC95          AND       AL,*+XAR5[AR0],#0xf3ec ; [CPU_ALU] |2537| 
         00000071 F3EC 
    2987 00000072 969D          MOV       *+XAR5[AR1],AL        ; [CPU_ALU] |2537| 
    2988 00000073       ||$C$L32||:    
    2989                      .dwpsn  file "../sources/fcl_foc_cpu_dm.c",line 152,column 5,is_stmt,isa 0
TMS320C2000 Assembler PC v22.6.2 Wed Dec 10 14:45:02 2025

Copyright (c) 1996-2018 Texas Instruments Incorporated
fcl_foc_cpu_dm.asm                                                   PAGE   59

    2990 00000073 026A          MOVB      ACC,#106              ; [CPU_ALU] |152| 
    2991 00000074 8D00          MOVL      XAR0,#416             ; [CPU_ALU] |152| 
         00000075 01A0 
    2992 00000076 0794          ADDL      ACC,*+XAR4[AR0]       ; [CPU_ALU] |152| 
    2993 00000077 8D00          MOVL      XAR0,#392             ; [CPU_FPU] |152| 
         00000078 0188 
    2994 00000079 1E94          MOVL      *+XAR4[AR0],ACC       ; [CPU_ALU] |152| 
    2995                      .dwpsn  file "../sources/fcl_foc_cpu_dm.c",line 153,column 5,is_stmt,isa 0
    2996 0000007a 8D00          MOVL      XAR0,#418             ; [CPU_ALU] |153| 
         0000007b 01A2 
    2997 0000007c 026A          MOVB      ACC,#106              ; [CPU_ALU] |153| 
    2998 0000007d 0794          ADDL      ACC,*+XAR4[AR0]       ; [CPU_ALU] |153| 
    2999 0000007e 8D00          MOVL      XAR0,#394             ; [CPU_FPU] |153| 
         0000007f 018A 
    3000 00000080 1E94          MOVL      *+XAR4[AR0],ACC       ; [CPU_ALU] |153| 
    3001                      .dwpsn  file "../sources/fcl_foc_cpu_dm.c",line 154,column 5,is_stmt,isa 0
    3002 00000081 8D00          MOVL      XAR0,#420             ; [CPU_ALU] |154| 
         00000082 01A4 
    3003 00000083 026A          MOVB      ACC,#106              ; [CPU_ALU] |154| 
    3004 00000084 0794          ADDL      ACC,*+XAR4[AR0]       ; [CPU_ALU] |154| 
    3005 00000085 8D00          MOVL      XAR0,#396             ; [CPU_FPU] |154| 
         00000086 018C 
    3006 00000087 1E94          MOVL      *+XAR4[AR0],ACC       ; [CPU_ALU] |154| 
    3007 00000088 8BBE          MOVL      XAR1,*--SP            ; [CPU_ALU] 
    3008                      .dwcfi  cfa_offset, -2
    3009                      .dwcfi  restore_reg, 7
    3010              $C$DW$175       .dwtag  DW_TAG_TI_branch
    3011                      .dwattr $C$DW$175, DW_AT_low_pc(0x00)
    3012                      .dwattr $C$DW$175, DW_AT_TI_return
    3013              
    3014 00000089 0006          LRETR     ; [CPU_ALU] 
    3015                      ; return occurs ; [] 
    3016                      .dwattr $C$DW$166, DW_AT_TI_end_file("../sources/fcl_foc_cpu_dm.c")
    3017                      .dwattr $C$DW$166, DW_AT_TI_end_line(0x9d)
    3018                      .dwattr $C$DW$166, DW_AT_TI_end_column(0x01)
    3019                      .dwendentry
    3020                      .dwendtag $C$DW$166
    3021              
    3022 00000000               .sect   ".text:FCL_initADC_3In"
    3023                      .clink
    3024                      .global ||FCL_initADC_3In||
    3025              
    3026              $C$DW$176       .dwtag  DW_TAG_subprogram
    3027                      .dwattr $C$DW$176, DW_AT_name("FCL_initADC_3In")
    3028                      .dwattr $C$DW$176, DW_AT_low_pc(||FCL_initADC_3In||)
    3029                      .dwattr $C$DW$176, DW_AT_high_pc(0x00)
    3030                      .dwattr $C$DW$176, DW_AT_linkage_name("FCL_initADC_3In")
    3031                      .dwattr $C$DW$176, DW_AT_external
    3032                      .dwattr $C$DW$176, DW_AT_decl_file("../sources/fcl_foc_cpu_dm.c")
    3033                      .dwattr $C$DW$176, DW_AT_decl_line(0x3f)
    3034                      .dwattr $C$DW$176, DW_AT_decl_column(0x06)
    3035                      .dwattr $C$DW$176, DW_AT_TI_max_frame_size(-8)
    3036                      .dwpsn  file "../sources/fcl_foc_cpu_dm.c",line 67,column 1,is_stmt,address ||FCL_initADC_3In||,isa 0
    3037              
    3038                      .dwfde $C$DW$CIE, ||FCL_initADC_3In||
TMS320C2000 Assembler PC v22.6.2 Wed Dec 10 14:45:02 2025

Copyright (c) 1996-2018 Texas Instruments Incorporated
fcl_foc_cpu_dm.asm                                                   PAGE   60

    3039              $C$DW$177       .dwtag  DW_TAG_formal_parameter
    3040                      .dwattr $C$DW$177, DW_AT_name("pMotor")
    3041                      .dwattr $C$DW$177, DW_AT_type(*$C$DW$T$139)
    3042                      .dwattr $C$DW$177, DW_AT_location[DW_OP_reg12]
    3043              
    3044              $C$DW$178       .dwtag  DW_TAG_formal_parameter
    3045                      .dwattr $C$DW$178, DW_AT_name("adcBaseW")
    3046                      .dwattr $C$DW$178, DW_AT_type(*$C$DW$T$24)
    3047                      .dwattr $C$DW$178, DW_AT_location[DW_OP_reg0]
    3048              
    3049              $C$DW$179       .dwtag  DW_TAG_formal_parameter
    3050                      .dwattr $C$DW$179, DW_AT_name("adcResultBaseU")
    3051                      .dwattr $C$DW$179, DW_AT_type(*$C$DW$T$24)
    3052                      .dwattr $C$DW$179, DW_AT_location[DW_OP_breg20 -10]
    3053              
    3054              $C$DW$180       .dwtag  DW_TAG_formal_parameter
    3055                      .dwattr $C$DW$180, DW_AT_name("adcU_PPBNum")
    3056                      .dwattr $C$DW$180, DW_AT_type(*$C$DW$T$102)
    3057                      .dwattr $C$DW$180, DW_AT_location[DW_OP_reg14]
    3058              
    3059              $C$DW$181       .dwtag  DW_TAG_formal_parameter
    3060                      .dwattr $C$DW$181, DW_AT_name("adcResultBaseV")
    3061                      .dwattr $C$DW$181, DW_AT_type(*$C$DW$T$24)
    3062                      .dwattr $C$DW$181, DW_AT_location[DW_OP_breg20 -12]
    3063              
    3064              $C$DW$182       .dwtag  DW_TAG_formal_parameter
    3065                      .dwattr $C$DW$182, DW_AT_name("adcV_PPBNum")
    3066                      .dwattr $C$DW$182, DW_AT_type(*$C$DW$T$102)
    3067                      .dwattr $C$DW$182, DW_AT_location[DW_OP_breg20 -13]
    3068              
    3069              $C$DW$183       .dwtag  DW_TAG_formal_parameter
    3070                      .dwattr $C$DW$183, DW_AT_name("adcResultBaseW")
    3071                      .dwattr $C$DW$183, DW_AT_type(*$C$DW$T$24)
    3072                      .dwattr $C$DW$183, DW_AT_location[DW_OP_breg20 -16]
    3073              
    3074              $C$DW$184       .dwtag  DW_TAG_formal_parameter
    3075                      .dwattr $C$DW$184, DW_AT_name("adcW_PPBNum")
    3076                      .dwattr $C$DW$184, DW_AT_type(*$C$DW$T$102)
    3077                      .dwattr $C$DW$184, DW_AT_location[DW_OP_breg20 -17]
    3078              
    3079              
    3080              ;***************************************************************
    3081              ;* FNAME: FCL_initADC_3In               FR SIZE:   6           *
    3082              ;*                                                             *
    3083              ;* FUNCTION ENVIRONMENT                                        *
    3084              ;*                                                             *
    3085              ;* FUNCTION PROPERTIES                                         *
    3086              ;*                            0 Parameter,  2 Auto,  4 SOE     *
    3087              ;***************************************************************
    3088              
    3089              ||FCL_initADC_3In||:
    3090              ;* AR4   assigned to pMotor
    3091              $C$DW$185       .dwtag  DW_TAG_variable
    3092                      .dwattr $C$DW$185, DW_AT_name("pMotor")
    3093                      .dwattr $C$DW$185, DW_AT_type(*$C$DW$T$140)
TMS320C2000 Assembler PC v22.6.2 Wed Dec 10 14:45:02 2025

Copyright (c) 1996-2018 Texas Instruments Incorporated
fcl_foc_cpu_dm.asm                                                   PAGE   61

    3094                      .dwattr $C$DW$185, DW_AT_location[DW_OP_reg12]
    3095              
    3096              ;* AR6   assigned to adcResultBaseU
    3097              $C$DW$186       .dwtag  DW_TAG_variable
    3098                      .dwattr $C$DW$186, DW_AT_name("adcResultBaseU")
    3099                      .dwattr $C$DW$186, DW_AT_type(*$C$DW$T$145)
    3100                      .dwattr $C$DW$186, DW_AT_location[DW_OP_reg16]
    3101              
    3102              ;* AR5   assigned to adcU_PPBNum
    3103              $C$DW$187       .dwtag  DW_TAG_variable
    3104                      .dwattr $C$DW$187, DW_AT_name("adcU_PPBNum")
    3105                      .dwattr $C$DW$187, DW_AT_type(*$C$DW$T$118)
    3106                      .dwattr $C$DW$187, DW_AT_location[DW_OP_reg14]
    3107              
    3108              ;* AR3   assigned to adcResultBaseV
    3109              $C$DW$188       .dwtag  DW_TAG_variable
    3110                      .dwattr $C$DW$188, DW_AT_name("adcResultBaseV")
    3111                      .dwattr $C$DW$188, DW_AT_type(*$C$DW$T$145)
    3112                      .dwattr $C$DW$188, DW_AT_location[DW_OP_reg10]
    3113              
    3114              ;* PL    assigned to adcV_PPBNum
    3115              $C$DW$189       .dwtag  DW_TAG_variable
    3116                      .dwattr $C$DW$189, DW_AT_name("adcV_PPBNum")
    3117                      .dwattr $C$DW$189, DW_AT_type(*$C$DW$T$119)
    3118                      .dwattr $C$DW$189, DW_AT_location[DW_OP_reg2]
    3119              
    3120              ;* XT    assigned to adcResultBaseW
    3121              $C$DW$190       .dwtag  DW_TAG_variable
    3122                      .dwattr $C$DW$190, DW_AT_name("adcResultBaseW")
    3123                      .dwattr $C$DW$190, DW_AT_type(*$C$DW$T$145)
    3124                      .dwattr $C$DW$190, DW_AT_location[DW_OP_reg21]
    3125              
    3126              ;* AR7   assigned to adcW_PPBNum
    3127              $C$DW$191       .dwtag  DW_TAG_variable
    3128                      .dwattr $C$DW$191, DW_AT_name("adcW_PPBNum")
    3129                      .dwattr $C$DW$191, DW_AT_type(*$C$DW$T$120)
    3130                      .dwattr $C$DW$191, DW_AT_location[DW_OP_reg18]
    3131              
    3132                      .dwcfi  cfa_offset, -2
    3133                      .dwcfi  save_reg_to_mem, 26, 0
    3134 00000000 B2BD          MOVL      *SP++,XAR1            ; [CPU_ALU] 
    3135                      .dwcfi  save_reg_to_mem, 7, 2
    3136                      .dwcfi  cfa_offset, -4
    3137 00000001 A2BD          MOVL      *SP++,XAR3            ; [CPU_ALU] 
    3138                      .dwcfi  save_reg_to_mem, 11, 4
    3139                      .dwcfi  cfa_offset, -6
    3140 00000002 FE02          ADDB      SP,#2                 ; [CPU_ARAU] 
    3141                      .dwcfi  cfa_offset, -8
    3142 00000003 1E42          MOVL      *-SP[2],ACC           ; [CPU_ALU] |67| 
    3143                      .dwpsn  file "../sources/fcl_foc_cpu_dm.c",line 77,column 5,is_stmt,isa 0
    3144 00000004 8D40          MOVL      XAR1,#398             ; [CPU_ALU] |77| 
         00000005 018E 
    3145                      .dwpsn  file "../sources/fcl_foc_cpu_dm.c",line 67,column 1,is_stmt,isa 0
    3146 00000006 C44A          MOVL      XAR6,*-SP[10]         ; [CPU_ALU] |67| 
    3147                      .dwpsn  file "../sources/fcl_foc_cpu_dm.c",line 77,column 5,is_stmt,isa 0
TMS320C2000 Assembler PC v22.6.2 Wed Dec 10 14:45:02 2025

Copyright (c) 1996-2018 Texas Instruments Incorporated
fcl_foc_cpu_dm.asm                                                   PAGE   62

    3148 00000007 9A08          MOVB      AL,#8                 ; [CPU_ALU] |77| 
    3149                      .dwpsn  file "../sources/fcl_foc_cpu_dm.c",line 67,column 1,is_stmt,isa 0
    3150 00000008 8051          MOVZ      AR7,*-SP[17]          ; [CPU_ALU] |67| 
    3151 00000009 8750          MOVL      XT,*-SP[16]           ; [CPU_ALU] |67| 
    3152 0000000a 824C          MOVL      XAR3,*-SP[12]         ; [CPU_ALU] |67| 
    3153                      .dwpsn  file "../sources/fcl_foc_cpu_dm.c",line 78,column 5,is_stmt,isa 0
    3154 0000000b 8D00          MOVL      XAR0,#400             ; [CPU_ALU] |78| 
         0000000c 0190 
    3155                      .dwpsn  file "../sources/fcl_foc_cpu_dm.c",line 77,column 5,is_stmt,isa 0
    3156 0000000d 94A5          ADD       AL,AR5                ; [CPU_ALU] |77| 
    3157 0000000e 5603          MOV       ACC,AL << #1          ; [CPU_ALU] |77| 
         0000000f 01A9 
    3158 00000010 27A9          MOV       PL,AL                 ; [CPU_ALU] |77| 
    3159 00000011 06A6          MOVL      ACC,XAR6              ; [CPU_ALU] |77| 
    3160 00000012 0DAB          ADDU      ACC,PL                ; [CPU_ALU] |77| 
    3161                      .dwpsn  file "../sources/fcl_foc_cpu_dm.c",line 67,column 1,is_stmt,isa 0
    3162 00000013 274D          MOV       PL,*-SP[13]           ; [CPU_ALU] |67| 
    3163                      .dwpsn  file "../sources/fcl_foc_cpu_dm.c",line 77,column 5,is_stmt,isa 0
    3164 00000014 1E9C          MOVL      *+XAR4[AR1],ACC       ; [CPU_ALU] |77| 
    3165                      .dwpsn  file "../sources/fcl_foc_cpu_dm.c",line 78,column 5,is_stmt,isa 0
    3166 00000015 9A08          MOVB      AL,#8                 ; [CPU_ALU] |78| 
    3167 00000016 94AB          ADD       AL,PL                 ; [CPU_ALU] |78| 
    3168                      .dwpsn  file "../sources/fcl_foc_cpu_dm.c",line 85,column 5,is_stmt,isa 0
    3169 00000017 8D40          MOVL      XAR1,#424             ; [CPU_ALU] |85| 
         00000018 01A8 
    3170                      .dwpsn  file "../sources/fcl_foc_cpu_dm.c",line 78,column 5,is_stmt,isa 0
    3171 00000019 5603          MOV       ACC,AL << #1          ; [CPU_ALU] |78| 
         0000001a 01A9 
    3172 0000001b 2FA9          MOV       PH,AL                 ; [CPU_ALU] |78| 
    3173 0000001c A2A9          MOVL      ACC,XAR3              ; [CPU_ALU] |78| 
    3174 0000001d 0DAA          ADDU      ACC,PH                ; [CPU_ALU] |78| 
    3175 0000001e 1E94          MOVL      *+XAR4[AR0],ACC       ; [CPU_ALU] |78| 
    3176                      .dwpsn  file "../sources/fcl_foc_cpu_dm.c",line 79,column 5,is_stmt,isa 0
    3177 0000001f 9A08          MOVB      AL,#8                 ; [CPU_ALU] |79| 
    3178                      .dwpsn  file "../sources/fcl_foc_cpu_dm.c",line 81,column 5,is_stmt,isa 0
    3179 00000020 8D00          MOVL      XAR0,#410             ; [CPU_ALU] |81| 
         00000021 019A 
    3180                      .dwpsn  file "../sources/fcl_foc_cpu_dm.c",line 79,column 5,is_stmt,isa 0
    3181 00000022 94A7          ADD       AL,AR7                ; [CPU_ALU] |79| 
    3182                      .dwpsn  file "../sources/fcl_foc_cpu_dm.c",line 81,column 5,is_stmt,isa 0
    3183 00000023 C294          MOVL      *+XAR4[AR0],XAR6      ; [CPU_ALU] |81| 
    3184                      .dwpsn  file "../sources/fcl_foc_cpu_dm.c",line 79,column 5,is_stmt,isa 0
    3185 00000024 5603          MOV       ACC,AL << #1          ; [CPU_ALU] |79| 
         00000025 01A9 
    3186                      .dwpsn  file "../sources/fcl_foc_cpu_dm.c",line 82,column 5,is_stmt,isa 0
    3187 00000026 8D00          MOVL      XAR0,#412             ; [CPU_ALU] |82| 
         00000027 019C 
    3188                      .dwpsn  file "../sources/fcl_foc_cpu_dm.c",line 79,column 5,is_stmt,isa 0
    3189 00000028 C442          MOVL      XAR6,*-SP[2]          ; [CPU_ALU] |79| 
    3190                      .dwpsn  file "../sources/fcl_foc_cpu_dm.c",line 85,column 5,is_stmt,isa 0
    3191 00000029 7D9C          MOV       *+XAR4[AR1],AR5       ; [CPU_ALU] |85| 
    3192                      .dwpsn  file "../sources/fcl_foc_cpu_dm.c",line 82,column 5,is_stmt,isa 0
    3193 0000002a A294          MOVL      *+XAR4[AR0],XAR3      ; [CPU_ALU] |82| 
    3194                      .dwpsn  file "../sources/fcl_foc_cpu_dm.c",line 83,column 5,is_stmt,isa 0
    3195 0000002b 8D00          MOVL      XAR0,#414             ; [CPU_ALU] |83| 
TMS320C2000 Assembler PC v22.6.2 Wed Dec 10 14:45:02 2025

Copyright (c) 1996-2018 Texas Instruments Incorporated
fcl_foc_cpu_dm.asm                                                   PAGE   63

         0000002c 019E 
    3196                      .dwpsn  file "../sources/fcl_foc_cpu_dm.c",line 89,column 5,is_stmt,isa 0
    3197 0000002d DE03          ADDB      XAR6,#3               ; [CPU_ALU] |89| 
    3198                      .dwpsn  file "../sources/fcl_foc_cpu_dm.c",line 83,column 5,is_stmt,isa 0
    3199 0000002e AB94          MOVL      *+XAR4[AR0],XT        ; [CPU_ALU] |83| 
    3200                      .dwpsn  file "../sources/fcl_foc_cpu_dm.c",line 86,column 5,is_stmt,isa 0
    3201 0000002f 8D00          MOVL      XAR0,#425             ; [CPU_ALU] |86| 
         00000030 01A9 
    3202 00000031 FE82          SUBB      SP,#2                 ; [CPU_ARAU] 
    3203                      .dwcfi  cfa_offset, -6
    3204 00000032 3F94          MOV       *+XAR4[AR0],P         ; [CPU_ALU] |86| 
    3205                      .dwpsn  file "../sources/fcl_foc_cpu_dm.c",line 87,column 5,is_stmt,isa 0
    3206 00000033 8D00          MOVL      XAR0,#426             ; [CPU_ALU] |87| 
         00000034 01AA 
    3207 00000035 7F94          MOV       *+XAR4[AR0],AR7       ; [CPU_ALU] |87| 
    3208                      .dwpsn  file "../sources/fcl_foc_cpu_dm.c",line 89,column 5,is_stmt,isa 0
    3209 00000036 8D00          MOVL      XAR0,#406             ; [CPU_ALU] |89| 
         00000037 0196 
    3210                      .dwpsn  file "../sources/fcl_foc_cpu_dm.c",line 79,column 5,is_stmt,isa 0
    3211 00000038 80A9          MOVZ      AR7,AL                ; [CPU_ALU] |79| 
    3212 00000039 ABA9          MOVL      ACC,XT                ; [CPU_ALU] |79| 
    3213                      .dwpsn  file "../sources/fcl_foc_cpu_dm.c",line 89,column 5,is_stmt,isa 0
    3214 0000003a C294          MOVL      *+XAR4[AR0],XAR6      ; [CPU_ALU] |89| 
    3215                      .dwpsn  file "../sources/fcl_foc_cpu_dm.c",line 79,column 5,is_stmt,isa 0
    3216 0000003b 8D00          MOVL      XAR0,#402             ; [CPU_ALU] |79| 
         0000003c 0192 
    3217 0000003d 0DA7          ADDU      ACC,AR7               ; [CPU_ALU] |79| 
    3218 0000003e 1E94          MOVL      *+XAR4[AR0],ACC       ; [CPU_ALU] |79| 
    3219 0000003f 82BE          MOVL      XAR3,*--SP            ; [CPU_ALU] 
    3220                      .dwcfi  cfa_offset, -4
    3221                      .dwcfi  restore_reg, 11
    3222 00000040 8BBE          MOVL      XAR1,*--SP            ; [CPU_ALU] 
    3223                      .dwcfi  cfa_offset, -2
    3224                      .dwcfi  restore_reg, 7
    3225              $C$DW$192       .dwtag  DW_TAG_TI_branch
    3226                      .dwattr $C$DW$192, DW_AT_low_pc(0x00)
    3227                      .dwattr $C$DW$192, DW_AT_TI_return
    3228              
    3229 00000041 0006          LRETR     ; [CPU_ALU] 
    3230                      ; return occurs ; [] 
    3231                      .dwattr $C$DW$176, DW_AT_TI_end_file("../sources/fcl_foc_cpu_dm.c")
    3232                      .dwattr $C$DW$176, DW_AT_TI_end_line(0x5c)
    3233                      .dwattr $C$DW$176, DW_AT_TI_end_column(0x01)
    3234                      .dwendentry
    3235                      .dwendtag $C$DW$176
    3236              
    3237 00000000               .sect   ".text:FCL_initADC_2In"
    3238                      .clink
    3239                      .global ||FCL_initADC_2In||
    3240              
    3241              $C$DW$193       .dwtag  DW_TAG_subprogram
    3242                      .dwattr $C$DW$193, DW_AT_name("FCL_initADC_2In")
    3243                      .dwattr $C$DW$193, DW_AT_low_pc(||FCL_initADC_2In||)
    3244                      .dwattr $C$DW$193, DW_AT_high_pc(0x00)
    3245                      .dwattr $C$DW$193, DW_AT_linkage_name("FCL_initADC_2In")
TMS320C2000 Assembler PC v22.6.2 Wed Dec 10 14:45:02 2025

Copyright (c) 1996-2018 Texas Instruments Incorporated
fcl_foc_cpu_dm.asm                                                   PAGE   64

    3246                      .dwattr $C$DW$193, DW_AT_external
    3247                      .dwattr $C$DW$193, DW_AT_decl_file("../sources/fcl_foc_cpu_dm.c")
    3248                      .dwattr $C$DW$193, DW_AT_decl_line(0x21)
    3249                      .dwattr $C$DW$193, DW_AT_decl_column(0x06)
    3250                      .dwattr $C$DW$193, DW_AT_TI_max_frame_size(-4)
    3251                      .dwpsn  file "../sources/fcl_foc_cpu_dm.c",line 36,column 1,is_stmt,address ||FCL_initADC_2In||,isa 0
    3252              
    3253                      .dwfde $C$DW$CIE, ||FCL_initADC_2In||
    3254              $C$DW$194       .dwtag  DW_TAG_formal_parameter
    3255                      .dwattr $C$DW$194, DW_AT_name("pMotor")
    3256                      .dwattr $C$DW$194, DW_AT_type(*$C$DW$T$139)
    3257                      .dwattr $C$DW$194, DW_AT_location[DW_OP_reg12]
    3258              
    3259              $C$DW$195       .dwtag  DW_TAG_formal_parameter
    3260                      .dwattr $C$DW$195, DW_AT_name("adcBaseW")
    3261                      .dwattr $C$DW$195, DW_AT_type(*$C$DW$T$24)
    3262                      .dwattr $C$DW$195, DW_AT_location[DW_OP_reg0]
    3263              
    3264              $C$DW$196       .dwtag  DW_TAG_formal_parameter
    3265                      .dwattr $C$DW$196, DW_AT_name("adcResultBaseV")
    3266                      .dwattr $C$DW$196, DW_AT_type(*$C$DW$T$24)
    3267                      .dwattr $C$DW$196, DW_AT_location[DW_OP_breg20 -6]
    3268              
    3269              $C$DW$197       .dwtag  DW_TAG_formal_parameter
    3270                      .dwattr $C$DW$197, DW_AT_name("adcV_PPBNum")
    3271                      .dwattr $C$DW$197, DW_AT_type(*$C$DW$T$102)
    3272                      .dwattr $C$DW$197, DW_AT_location[DW_OP_reg14]
    3273              
    3274              $C$DW$198       .dwtag  DW_TAG_formal_parameter
    3275                      .dwattr $C$DW$198, DW_AT_name("adcResultBaseW")
    3276                      .dwattr $C$DW$198, DW_AT_type(*$C$DW$T$24)
    3277                      .dwattr $C$DW$198, DW_AT_location[DW_OP_breg20 -8]
    3278              
    3279              $C$DW$199       .dwtag  DW_TAG_formal_parameter
    3280                      .dwattr $C$DW$199, DW_AT_name("adcW_PPBNum")
    3281                      .dwattr $C$DW$199, DW_AT_type(*$C$DW$T$102)
    3282                      .dwattr $C$DW$199, DW_AT_location[DW_OP_breg20 -9]
    3283              
    3284              
    3285              ;***************************************************************
    3286              ;* FNAME: FCL_initADC_2In               FR SIZE:   2           *
    3287              ;*                                                             *
    3288              ;* FUNCTION ENVIRONMENT                                        *
    3289              ;*                                                             *
    3290              ;* FUNCTION PROPERTIES                                         *
    3291              ;*                            0 Parameter,  0 Auto,  2 SOE     *
    3292              ;***************************************************************
    3293              
    3294              ||FCL_initADC_2In||:
    3295              ;* AR4   assigned to pMotor
    3296              $C$DW$200       .dwtag  DW_TAG_variable
    3297                      .dwattr $C$DW$200, DW_AT_name("pMotor")
    3298                      .dwattr $C$DW$200, DW_AT_type(*$C$DW$T$140)
    3299                      .dwattr $C$DW$200, DW_AT_location[DW_OP_reg12]
    3300              
TMS320C2000 Assembler PC v22.6.2 Wed Dec 10 14:45:02 2025

Copyright (c) 1996-2018 Texas Instruments Incorporated
fcl_foc_cpu_dm.asm                                                   PAGE   65

    3301              ;* AR6   assigned to adcBaseW
    3302              $C$DW$201       .dwtag  DW_TAG_variable
    3303                      .dwattr $C$DW$201, DW_AT_name("adcBaseW")
    3304                      .dwattr $C$DW$201, DW_AT_type(*$C$DW$T$145)
    3305                      .dwattr $C$DW$201, DW_AT_location[DW_OP_reg16]
    3306              
    3307              ;* PL    assigned to adcResultBaseV
    3308              $C$DW$202       .dwtag  DW_TAG_variable
    3309                      .dwattr $C$DW$202, DW_AT_name("adcResultBaseV")
    3310                      .dwattr $C$DW$202, DW_AT_type(*$C$DW$T$145)
    3311                      .dwattr $C$DW$202, DW_AT_location[DW_OP_reg2]
    3312              
    3313              ;* AR5   assigned to adcV_PPBNum
    3314              $C$DW$203       .dwtag  DW_TAG_variable
    3315                      .dwattr $C$DW$203, DW_AT_name("adcV_PPBNum")
    3316                      .dwattr $C$DW$203, DW_AT_type(*$C$DW$T$121)
    3317                      .dwattr $C$DW$203, DW_AT_location[DW_OP_reg14]
    3318              
    3319              ;* XT    assigned to adcResultBaseW
    3320              $C$DW$204       .dwtag  DW_TAG_variable
    3321                      .dwattr $C$DW$204, DW_AT_name("adcResultBaseW")
    3322                      .dwattr $C$DW$204, DW_AT_type(*$C$DW$T$145)
    3323                      .dwattr $C$DW$204, DW_AT_location[DW_OP_reg21]
    3324              
    3325              ;* AR7   assigned to adcW_PPBNum
    3326              $C$DW$205       .dwtag  DW_TAG_variable
    3327                      .dwattr $C$DW$205, DW_AT_name("adcW_PPBNum")
    3328                      .dwattr $C$DW$205, DW_AT_type(*$C$DW$T$122)
    3329                      .dwattr $C$DW$205, DW_AT_location[DW_OP_reg18]
    3330              
    3331                      .dwcfi  cfa_offset, -2
    3332                      .dwcfi  save_reg_to_mem, 26, 0
    3333 00000000 1EA6          MOVL      XAR6,ACC              ; [CPU_ALU] |36| 
    3334 00000001 B2BD          MOVL      *SP++,XAR1            ; [CPU_ALU] 
    3335                      .dwcfi  save_reg_to_mem, 7, 2
    3336                      .dwcfi  cfa_offset, -4
    3337                      .dwpsn  file "../sources/fcl_foc_cpu_dm.c",line 46,column 5,is_stmt,isa 0
    3338 00000002 9A08          MOVB      AL,#8                 ; [CPU_ALU] |46| 
    3339 00000003 94A5          ADD       AL,AR5                ; [CPU_ALU] |46| 
    3340                      .dwpsn  file "../sources/fcl_foc_cpu_dm.c",line 36,column 1,is_stmt,isa 0
    3341 00000004 A346          MOVL      P,*-SP[6]             ; [CPU_FPU] |36| 
    3342                      .dwpsn  file "../sources/fcl_foc_cpu_dm.c",line 46,column 5,is_stmt,isa 0
    3343 00000005 8D40          MOVL      XAR1,#398             ; [CPU_ALU] |46| 
         00000006 018E 
    3344 00000007 5603          MOV       ACC,AL << #1          ; [CPU_ALU] |46| 
         00000008 01A9 
    3345 00000009 80A9          MOVZ      AR7,AL                ; [CPU_ALU] |46| 
    3346                      .dwpsn  file "../sources/fcl_foc_cpu_dm.c",line 36,column 1,is_stmt,isa 0
    3347 0000000a 8748          MOVL      XT,*-SP[8]            ; [CPU_ALU] |36| 
    3348                      .dwpsn  file "../sources/fcl_foc_cpu_dm.c",line 39,column 5,is_stmt,isa 0
    3349 0000000b 8D00          MOVL      XAR0,#422             ; [CPU_ALU] |39| 
         0000000c 01A6 
    3350                      .dwpsn  file "../sources/fcl_foc_cpu_dm.c",line 46,column 5,is_stmt,isa 0
    3351 0000000d A9A9          MOVL      ACC,P                 ; [CPU_ALU] |46| 
    3352 0000000e 0DA7          ADDU      ACC,AR7               ; [CPU_ALU] |46| 
TMS320C2000 Assembler PC v22.6.2 Wed Dec 10 14:45:02 2025

Copyright (c) 1996-2018 Texas Instruments Incorporated
fcl_foc_cpu_dm.asm                                                   PAGE   66

    3353                      .dwpsn  file "../sources/fcl_foc_cpu_dm.c",line 36,column 1,is_stmt,isa 0
    3354 0000000f 8049          MOVZ      AR7,*-SP[9]           ; [CPU_ALU] |36| 
    3355                      .dwpsn  file "../sources/fcl_foc_cpu_dm.c",line 46,column 5,is_stmt,isa 0
    3356 00000010 1E9C          MOVL      *+XAR4[AR1],ACC       ; [CPU_ALU] |46| 
    3357                      .dwpsn  file "../sources/fcl_foc_cpu_dm.c",line 47,column 5,is_stmt,isa 0
    3358 00000011 9A08          MOVB      AL,#8                 ; [CPU_ALU] |47| 
    3359                      .dwpsn  file "../sources/fcl_foc_cpu_dm.c",line 39,column 5,is_stmt,isa 0
    3360 00000012 C294          MOVL      *+XAR4[AR0],XAR6      ; [CPU_ALU] |39| 
    3361                      .dwpsn  file "../sources/fcl_foc_cpu_dm.c",line 52,column 5,is_stmt,isa 0
    3362 00000013 8D40          MOVL      XAR1,#425             ; [CPU_ALU] |52| 
         00000014 01A9 
    3363                      .dwpsn  file "../sources/fcl_foc_cpu_dm.c",line 49,column 5,is_stmt,isa 0
    3364 00000015 8D00          MOVL      XAR0,#412             ; [CPU_ALU] |49| 
         00000016 019C 
    3365                      .dwpsn  file "../sources/fcl_foc_cpu_dm.c",line 47,column 5,is_stmt,isa 0
    3366 00000017 94A7          ADD       AL,AR7                ; [CPU_ALU] |47| 
    3367                      .dwpsn  file "../sources/fcl_foc_cpu_dm.c",line 49,column 5,is_stmt,isa 0
    3368 00000018 A994          MOVL      *+XAR4[AR0],P         ; [CPU_ALU] |49| 
    3369                      .dwpsn  file "../sources/fcl_foc_cpu_dm.c",line 52,column 5,is_stmt,isa 0
    3370 00000019 7D9C          MOV       *+XAR4[AR1],AR5       ; [CPU_FPU] |52| 
    3371                      .dwpsn  file "../sources/fcl_foc_cpu_dm.c",line 47,column 5,is_stmt,isa 0
    3372 0000001a 5603          MOV       ACC,AL << #1          ; [CPU_ALU] |47| 
         0000001b 01A9 
    3373                      .dwpsn  file "../sources/fcl_foc_cpu_dm.c",line 50,column 5,is_stmt,isa 0
    3374 0000001c 8D00          MOVL      XAR0,#414             ; [CPU_ALU] |50| 
         0000001d 019E 
    3375                      .dwpsn  file "../sources/fcl_foc_cpu_dm.c",line 55,column 5,is_stmt,isa 0
    3376 0000001e DE03          ADDB      XAR6,#3               ; [CPU_ALU] |55| 
    3377                      .dwpsn  file "../sources/fcl_foc_cpu_dm.c",line 50,column 5,is_stmt,isa 0
    3378 0000001f AB94          MOVL      *+XAR4[AR0],XT        ; [CPU_ALU] |50| 
    3379                      .dwpsn  file "../sources/fcl_foc_cpu_dm.c",line 53,column 5,is_stmt,isa 0
    3380 00000020 8D00          MOVL      XAR0,#426             ; [CPU_ALU] |53| 
         00000021 01AA 
    3381 00000022 7F94          MOV       *+XAR4[AR0],AR7       ; [CPU_ALU] |53| 
    3382                      .dwpsn  file "../sources/fcl_foc_cpu_dm.c",line 55,column 5,is_stmt,isa 0
    3383 00000023 8D00          MOVL      XAR0,#406             ; [CPU_ALU] |55| 
         00000024 0196 
    3384                      .dwpsn  file "../sources/fcl_foc_cpu_dm.c",line 47,column 5,is_stmt,isa 0
    3385 00000025 80A9          MOVZ      AR7,AL                ; [CPU_ALU] |47| 
    3386                      .dwpsn  file "../sources/fcl_foc_cpu_dm.c",line 55,column 5,is_stmt,isa 0
    3387 00000026 C294          MOVL      *+XAR4[AR0],XAR6      ; [CPU_ALU] |55| 
    3388                      .dwpsn  file "../sources/fcl_foc_cpu_dm.c",line 47,column 5,is_stmt,isa 0
    3389 00000027 ABA9          MOVL      ACC,XT                ; [CPU_ALU] |47| 
    3390 00000028 8D00          MOVL      XAR0,#400             ; [CPU_ALU] |47| 
         00000029 0190 
    3391 0000002a 0DA7          ADDU      ACC,AR7               ; [CPU_ALU] |47| 
    3392 0000002b 1E94          MOVL      *+XAR4[AR0],ACC       ; [CPU_ALU] |47| 
    3393 0000002c 8BBE          MOVL      XAR1,*--SP            ; [CPU_ALU] 
    3394                      .dwcfi  cfa_offset, -2
    3395                      .dwcfi  restore_reg, 7
    3396              $C$DW$206       .dwtag  DW_TAG_TI_branch
    3397                      .dwattr $C$DW$206, DW_AT_low_pc(0x00)
    3398                      .dwattr $C$DW$206, DW_AT_TI_return
    3399              
    3400 0000002d 0006          LRETR     ; [CPU_ALU] 
TMS320C2000 Assembler PC v22.6.2 Wed Dec 10 14:45:02 2025

Copyright (c) 1996-2018 Texas Instruments Incorporated
fcl_foc_cpu_dm.asm                                                   PAGE   67

    3401                      ; return occurs ; [] 
    3402                      .dwattr $C$DW$193, DW_AT_TI_end_file("../sources/fcl_foc_cpu_dm.c")
    3403                      .dwattr $C$DW$193, DW_AT_TI_end_line(0x3a)
    3404                      .dwattr $C$DW$193, DW_AT_TI_end_column(0x01)
    3405                      .dwendentry
    3406                      .dwendtag $C$DW$193
    3407              
    3408 00000000               .sect   ".text:FCL_getSwVersion"
    3409                      .clink
    3410                      .global ||FCL_getSwVersion||
    3411              
    3412              $C$DW$207       .dwtag  DW_TAG_subprogram
    3413                      .dwattr $C$DW$207, DW_AT_name("FCL_getSwVersion")
    3414                      .dwattr $C$DW$207, DW_AT_low_pc(||FCL_getSwVersion||)
    3415                      .dwattr $C$DW$207, DW_AT_high_pc(0x00)
    3416                      .dwattr $C$DW$207, DW_AT_linkage_name("FCL_getSwVersion")
    3417                      .dwattr $C$DW$207, DW_AT_external
    3418                      .dwattr $C$DW$207, DW_AT_type(*$C$DW$T$24)
    3419                      .dwattr $C$DW$207, DW_AT_decl_file("../sources/fcl_foc_cpu_dm.c")
    3420                      .dwattr $C$DW$207, DW_AT_decl_line(0x18)
    3421                      .dwattr $C$DW$207, DW_AT_decl_column(0x0a)
    3422                      .dwattr $C$DW$207, DW_AT_TI_max_frame_size(-2)
    3423                      .dwpsn  file "../sources/fcl_foc_cpu_dm.c",line 25,column 1,is_stmt,address ||FCL_getSwVersion||,isa 
    3424              
    3425                      .dwfde $C$DW$CIE, ||FCL_getSwVersion||
    3426              
    3427              ;***************************************************************
    3428              ;* FNAME: FCL_getSwVersion              FR SIZE:   0           *
    3429              ;*                                                             *
    3430              ;* FUNCTION ENVIRONMENT                                        *
    3431              ;*                                                             *
    3432              ;* FUNCTION PROPERTIES                                         *
    3433              ;*                            0 Parameter,  0 Auto,  0 SOE     *
    3434              ;***************************************************************
    3435              
    3436 00000000       ||FCL_getSwVersion||:
    3437                      .dwcfi  cfa_offset, -2
    3438                      .dwcfi  save_reg_to_mem, 26, 0
    3439                      .dwpsn  file "../sources/fcl_foc_cpu_dm.c",line 27,column 5,is_stmt,isa 0
    3440 00000000 FF20          MOV       ACC,#513              ; [CPU_ALU] |27| 
         00000001 0201 
    3441              $C$DW$208       .dwtag  DW_TAG_TI_branch
    3442                      .dwattr $C$DW$208, DW_AT_low_pc(0x00)
    3443                      .dwattr $C$DW$208, DW_AT_TI_return
    3444              
    3445 00000002 0006          LRETR     ; [CPU_ALU] 
    3446                      ; return occurs ; [] 
    3447                      .dwattr $C$DW$207, DW_AT_TI_end_file("../sources/fcl_foc_cpu_dm.c")
    3448                      .dwattr $C$DW$207, DW_AT_TI_end_line(0x1c)
    3449                      .dwattr $C$DW$207, DW_AT_TI_end_column(0x01)
    3450                      .dwendentry
    3451                      .dwendtag $C$DW$207
    3452              
    3453              ;**************************************************************
    3454              ;* UNDEFINED EXTERNAL REFERENCES                              *
TMS320C2000 Assembler PC v22.6.2 Wed Dec 10 14:45:02 2025

Copyright (c) 1996-2018 Texas Instruments Incorporated
fcl_foc_cpu_dm.asm                                                   PAGE   68

    3455              ;**************************************************************
    3456                      .global ||__c28xabi_cmpull||
    3457              ;**************************************************************
    3458              ;* SECTION GROUPS                                             *
    3459              ;**************************************************************
    3460                      .group    "__fast_ldiv", 1
    3461                      .gmember  ".text:__fast_ldiv"
    3462                      .endgroup
    3463                      .group    "__fast_lldiv", 1
    3464                      .gmember  ".text:__fast_lldiv"
    3465                      .endgroup
    3466                      .group    "__fpclassify", 1
    3467                      .gmember  ".text:__fpclassify"
    3468                      .endgroup
    3469                      .group    "__fpclassifyf", 1
    3470                      .gmember  ".text:__fpclassifyf"
    3471                      .endgroup
    3472                      .group    "__fpclassifyl", 1
    3473                      .gmember  ".text:__fpclassifyl"
    3474                      .endgroup
    3475                      .group    "__isfinite", 1
    3476                      .gmember  ".text:__isfinite"
    3477                      .endgroup
    3478                      .group    "__isfinitef", 1
    3479                      .gmember  ".text:__isfinitef"
    3480                      .endgroup
    3481                      .group    "__isfinitel", 1
    3482                      .gmember  ".text:__isfinitel"
    3483                      .endgroup
    3484                      .group    "__isinf", 1
    3485                      .gmember  ".text:__isinf"
    3486                      .endgroup
    3487                      .group    "__isinff", 1
    3488                      .gmember  ".text:__isinff"
    3489                      .endgroup
    3490                      .group    "__isinfl", 1
    3491                      .gmember  ".text:__isinfl"
    3492                      .endgroup
    3493                      .group    "__isnan", 1
    3494                      .gmember  ".text:__isnan"
    3495                      .endgroup
    3496                      .group    "__isnanf", 1
    3497                      .gmember  ".text:__isnanf"
    3498                      .endgroup
    3499                      .group    "__isnanl", 1
    3500                      .gmember  ".text:__isnanl"
    3501                      .endgroup
    3502                      .group    "__isnormal", 1
    3503                      .gmember  ".text:__isnormal"
    3504                      .endgroup
    3505                      .group    "__isnormalf", 1
    3506                      .gmember  ".text:__isnormalf"
    3507                      .endgroup
    3508                      .group    "__isnormall", 1
    3509                      .gmember  ".text:__isnormall"
TMS320C2000 Assembler PC v22.6.2 Wed Dec 10 14:45:02 2025

Copyright (c) 1996-2018 Texas Instruments Incorporated
fcl_foc_cpu_dm.asm                                                   PAGE   69

    3510                      .endgroup
    3511                      .group    "__relaxed_atan2f", 1
    3512                      .gmember  ".text:__relaxed_atan2f"
    3513                      .endgroup
    3514                      .group    "__relaxed_atanf", 1
    3515                      .gmember  ".text:__relaxed_atanf"
    3516                      .endgroup
    3517                      .group    "__relaxed_cosf", 1
    3518                      .gmember  ".text:__relaxed_cosf"
    3519                      .endgroup
    3520                      .group    "__relaxed_expf", 1
    3521                      .gmember  ".text:__relaxed_expf"
    3522                      .endgroup
    3523                      .group    "__relaxed_fmaxf", 1
    3524                      .gmember  ".text:__relaxed_fmaxf"
    3525                      .endgroup
    3526                      .group    "__relaxed_fminf", 1
    3527                      .gmember  ".text:__relaxed_fminf"
    3528                      .endgroup
    3529                      .group    "__relaxed_fmodf", 1
    3530                      .gmember  ".text:__relaxed_fmodf"
    3531                      .endgroup
    3532                      .group    "__relaxed_log2f", 1
    3533                      .gmember  ".text:__relaxed_log2f"
    3534                      .endgroup
    3535                      .group    "__relaxed_logf", 1
    3536                      .gmember  ".text:__relaxed_logf"
    3537                      .endgroup
    3538                      .group    "__relaxed_powf", 1
    3539                      .gmember  ".text:__relaxed_powf"
    3540                      .endgroup
    3541                      .group    "__relaxed_sinf", 1
    3542                      .gmember  ".text:__relaxed_sinf"
    3543                      .endgroup
    3544                      .group    "__relaxed_sqrtf", 1
    3545                      .gmember  ".text:__relaxed_sqrtf"
    3546                      .endgroup
    3547                      .group    "__signbit", 1
    3548                      .gmember  ".text:__signbit"
    3549                      .endgroup
    3550                      .group    "__signbitf", 1
    3551                      .gmember  ".text:__signbitf"
    3552                      .endgroup
    3553                      .group    "__signbitl", 1
    3554                      .gmember  ".text:__signbitl"
    3555                      .endgroup
    3556              
    3557              
    3558              ;***************************************************************
    3559              ;* BUILD ATTRIBUTES                                            *
    3560              ;***************************************************************
    3561                      .battr "c28xabi", Tag_File, 1, Tag_float_args(1)
    3562                      .battr "c28xabi", Tag_File, 1, Tag_double_args(1)
    3563                      .dwattr $C$DW$CU, DW_AT_language(DW_LANG_C)
    3564              
TMS320C2000 Assembler PC v22.6.2 Wed Dec 10 14:45:02 2025

Copyright (c) 1996-2018 Texas Instruments Incorporated
fcl_foc_cpu_dm.asm                                                   PAGE   70

    3565              ;***************************************************************
    3566              ;* DWARF CIE ENTRIES                                           *
    3567              ;***************************************************************
    3568              
    3569              $C$DW$CIE       .dwcie 26
    3570                      .dwcfi  cfa_register, 20
    3571                      .dwcfi  cfa_offset, 0
    3572                      .dwcfi  same_value, 28
    3573                      .dwcfi  same_value, 6
    3574                      .dwcfi  same_value, 7
    3575                      .dwcfi  same_value, 8
    3576                      .dwcfi  same_value, 9
    3577                      .dwcfi  same_value, 10
    3578                      .dwcfi  same_value, 11
    3579                      .dwcfi  same_value, 59
    3580                      .dwcfi  same_value, 63
    3581                      .dwcfi  same_value, 67
    3582                      .dwcfi  same_value, 71
    3583                      .dwendentry
    3584                      .dwendtag $C$DW$CU
    3585              
    3586              
    3587              ;***************************************************************
    3588              ;* TYPE INFORMATION                                            *
    3589              ;***************************************************************
    3590              
    3591              $C$DW$TU$101    .dwtag  DW_TAG_type_unit
    3592                      .dwmtype  $C$DW$T$101
    3593              
    3594              $C$DW$T$101     .dwtag  DW_TAG_enumeration_type
    3595                      .dwattr $C$DW$T$101, DW_AT_byte_size(0x01)
    3596              $C$DW$209       .dwtag  DW_TAG_enumerator
    3597                      .dwattr $C$DW$209, DW_AT_name("ADC_PPB_NUMBER1")
    3598                      .dwattr $C$DW$209, DW_AT_const_value(0x00)
    3599                      .dwattr $C$DW$209, DW_AT_decl_file("C:/ti/C2000Ware_MotorControl_SDK_5_04_00_00/c2000ware/driverlib/f
    3600                      .dwattr $C$DW$209, DW_AT_decl_line(0xf7)
    3601                      .dwattr $C$DW$209, DW_AT_decl_column(0x05)
    3602              
    3603              $C$DW$210       .dwtag  DW_TAG_enumerator
    3604                      .dwattr $C$DW$210, DW_AT_name("ADC_PPB_NUMBER2")
    3605                      .dwattr $C$DW$210, DW_AT_const_value(0x01)
    3606                      .dwattr $C$DW$210, DW_AT_decl_file("C:/ti/C2000Ware_MotorControl_SDK_5_04_00_00/c2000ware/driverlib/f
    3607                      .dwattr $C$DW$210, DW_AT_decl_line(0xf8)
    3608                      .dwattr $C$DW$210, DW_AT_decl_column(0x05)
    3609              
    3610              $C$DW$211       .dwtag  DW_TAG_enumerator
    3611                      .dwattr $C$DW$211, DW_AT_name("ADC_PPB_NUMBER3")
    3612                      .dwattr $C$DW$211, DW_AT_const_value(0x02)
    3613                      .dwattr $C$DW$211, DW_AT_decl_file("C:/ti/C2000Ware_MotorControl_SDK_5_04_00_00/c2000ware/driverlib/f
    3614                      .dwattr $C$DW$211, DW_AT_decl_line(0xf9)
    3615                      .dwattr $C$DW$211, DW_AT_decl_column(0x05)
    3616              
    3617              $C$DW$212       .dwtag  DW_TAG_enumerator
    3618                      .dwattr $C$DW$212, DW_AT_name("ADC_PPB_NUMBER4")
    3619                      .dwattr $C$DW$212, DW_AT_const_value(0x03)
TMS320C2000 Assembler PC v22.6.2 Wed Dec 10 14:45:02 2025

Copyright (c) 1996-2018 Texas Instruments Incorporated
fcl_foc_cpu_dm.asm                                                   PAGE   71

    3620                      .dwattr $C$DW$212, DW_AT_decl_file("C:/ti/C2000Ware_MotorControl_SDK_5_04_00_00/c2000ware/driverlib/f
    3621                      .dwattr $C$DW$212, DW_AT_decl_line(0xfa)
    3622                      .dwattr $C$DW$212, DW_AT_decl_column(0x05)
    3623              
    3624                      .dwattr $C$DW$T$101, DW_AT_decl_file("C:/ti/C2000Ware_MotorControl_SDK_5_04_00_00/c2000ware/driverlib
    3625                      .dwattr $C$DW$T$101, DW_AT_decl_line(0xf6)
    3626                      .dwattr $C$DW$T$101, DW_AT_decl_column(0x01)
    3627                      .dwendtag $C$DW$T$101
    3628              
    3629                      .dwendtag $C$DW$TU$101
    3630              
    3631              
    3632              $C$DW$TU$102    .dwtag  DW_TAG_type_unit
    3633                      .dwmtype  $C$DW$T$102
    3634              $C$DW$T$102     .dwtag  DW_TAG_typedef
    3635                      .dwattr $C$DW$T$102, DW_AT_name("ADC_PPBNumber")
    3636                      .dwattr $C$DW$T$102, DW_AT_type(*$C$DW$T$101)
    3637                      .dwattr $C$DW$T$102, DW_AT_decl_file("C:/ti/C2000Ware_MotorControl_SDK_5_04_00_00/c2000ware/driverlib
    3638                      .dwattr $C$DW$T$102, DW_AT_decl_line(0xfb)
    3639                      .dwattr $C$DW$T$102, DW_AT_decl_column(0x03)
    3640              
    3641                      .dwendtag $C$DW$TU$102
    3642              
    3643              
    3644              $C$DW$TU$118    .dwtag  DW_TAG_type_unit
    3645                      .dwmtype  $C$DW$T$118
    3646              $C$DW$213       .dwtag  DW_TAG_TI_far_type
    3647                      .dwattr $C$DW$213, DW_AT_type(*$C$DW$T$102)
    3648              
    3649              $C$DW$T$118     .dwtag  DW_TAG_const_type
    3650                      .dwattr $C$DW$T$118, DW_AT_type(*$C$DW$213)
    3651              
    3652                      .dwendtag $C$DW$TU$118
    3653              
    3654              
    3655              $C$DW$TU$119    .dwtag  DW_TAG_type_unit
    3656                      .dwmtype  $C$DW$T$119
    3657              $C$DW$214       .dwtag  DW_TAG_TI_far_type
    3658                      .dwattr $C$DW$214, DW_AT_type(*$C$DW$T$102)
    3659              
    3660              $C$DW$T$119     .dwtag  DW_TAG_const_type
    3661                      .dwattr $C$DW$T$119, DW_AT_type(*$C$DW$214)
    3662              
    3663                      .dwendtag $C$DW$TU$119
    3664              
    3665              
    3666              $C$DW$TU$120    .dwtag  DW_TAG_type_unit
    3667                      .dwmtype  $C$DW$T$120
    3668              $C$DW$215       .dwtag  DW_TAG_TI_far_type
    3669                      .dwattr $C$DW$215, DW_AT_type(*$C$DW$T$102)
    3670              
    3671              $C$DW$T$120     .dwtag  DW_TAG_const_type
    3672                      .dwattr $C$DW$T$120, DW_AT_type(*$C$DW$215)
    3673              
    3674                      .dwendtag $C$DW$TU$120
TMS320C2000 Assembler PC v22.6.2 Wed Dec 10 14:45:02 2025

Copyright (c) 1996-2018 Texas Instruments Incorporated
fcl_foc_cpu_dm.asm                                                   PAGE   72

    3675              
    3676              
    3677              $C$DW$TU$121    .dwtag  DW_TAG_type_unit
    3678                      .dwmtype  $C$DW$T$121
    3679              $C$DW$216       .dwtag  DW_TAG_TI_far_type
    3680                      .dwattr $C$DW$216, DW_AT_type(*$C$DW$T$102)
    3681              
    3682              $C$DW$T$121     .dwtag  DW_TAG_const_type
    3683                      .dwattr $C$DW$T$121, DW_AT_type(*$C$DW$216)
    3684              
    3685                      .dwendtag $C$DW$TU$121
    3686              
    3687              
    3688              $C$DW$TU$122    .dwtag  DW_TAG_type_unit
    3689                      .dwmtype  $C$DW$T$122
    3690              $C$DW$217       .dwtag  DW_TAG_TI_far_type
    3691                      .dwattr $C$DW$217, DW_AT_type(*$C$DW$T$102)
    3692              
    3693              $C$DW$T$122     .dwtag  DW_TAG_const_type
    3694                      .dwattr $C$DW$T$122, DW_AT_type(*$C$DW$217)
    3695              
    3696                      .dwendtag $C$DW$TU$122
    3697              
    3698              
    3699              $C$DW$TU$103    .dwtag  DW_TAG_type_unit
    3700                      .dwmtype  $C$DW$T$103
    3701              
    3702              $C$DW$T$103     .dwtag  DW_TAG_enumeration_type
    3703                      .dwattr $C$DW$T$103, DW_AT_byte_size(0x01)
    3704              $C$DW$218       .dwtag  DW_TAG_enumerator
    3705                      .dwattr $C$DW$218, DW_AT_name("ADC_INT_NUMBER1")
    3706                      .dwattr $C$DW$218, DW_AT_const_value(0x00)
    3707                      .dwattr $C$DW$218, DW_AT_decl_file("C:/ti/C2000Ware_MotorControl_SDK_5_04_00_00/c2000ware/driverlib/f
    3708                      .dwattr $C$DW$218, DW_AT_decl_line(0xe9)
    3709                      .dwattr $C$DW$218, DW_AT_decl_column(0x05)
    3710              
    3711              $C$DW$219       .dwtag  DW_TAG_enumerator
    3712                      .dwattr $C$DW$219, DW_AT_name("ADC_INT_NUMBER2")
    3713                      .dwattr $C$DW$219, DW_AT_const_value(0x01)
    3714                      .dwattr $C$DW$219, DW_AT_decl_file("C:/ti/C2000Ware_MotorControl_SDK_5_04_00_00/c2000ware/driverlib/f
    3715                      .dwattr $C$DW$219, DW_AT_decl_line(0xea)
    3716                      .dwattr $C$DW$219, DW_AT_decl_column(0x05)
    3717              
    3718              $C$DW$220       .dwtag  DW_TAG_enumerator
    3719                      .dwattr $C$DW$220, DW_AT_name("ADC_INT_NUMBER3")
    3720                      .dwattr $C$DW$220, DW_AT_const_value(0x02)
    3721                      .dwattr $C$DW$220, DW_AT_decl_file("C:/ti/C2000Ware_MotorControl_SDK_5_04_00_00/c2000ware/driverlib/f
    3722                      .dwattr $C$DW$220, DW_AT_decl_line(0xeb)
    3723                      .dwattr $C$DW$220, DW_AT_decl_column(0x05)
    3724              
    3725              $C$DW$221       .dwtag  DW_TAG_enumerator
    3726                      .dwattr $C$DW$221, DW_AT_name("ADC_INT_NUMBER4")
    3727                      .dwattr $C$DW$221, DW_AT_const_value(0x03)
    3728                      .dwattr $C$DW$221, DW_AT_decl_file("C:/ti/C2000Ware_MotorControl_SDK_5_04_00_00/c2000ware/driverlib/f
    3729                      .dwattr $C$DW$221, DW_AT_decl_line(0xec)
TMS320C2000 Assembler PC v22.6.2 Wed Dec 10 14:45:02 2025

Copyright (c) 1996-2018 Texas Instruments Incorporated
fcl_foc_cpu_dm.asm                                                   PAGE   73

    3730                      .dwattr $C$DW$221, DW_AT_decl_column(0x05)
    3731              
    3732                      .dwattr $C$DW$T$103, DW_AT_decl_file("C:/ti/C2000Ware_MotorControl_SDK_5_04_00_00/c2000ware/driverlib
    3733                      .dwattr $C$DW$T$103, DW_AT_decl_line(0xe8)
    3734                      .dwattr $C$DW$T$103, DW_AT_decl_column(0x01)
    3735                      .dwendtag $C$DW$T$103
    3736              
    3737                      .dwendtag $C$DW$TU$103
    3738              
    3739              
    3740              $C$DW$TU$104    .dwtag  DW_TAG_type_unit
    3741                      .dwmtype  $C$DW$T$104
    3742              $C$DW$T$104     .dwtag  DW_TAG_typedef
    3743                      .dwattr $C$DW$T$104, DW_AT_name("ADC_IntNumber")
    3744                      .dwattr $C$DW$T$104, DW_AT_type(*$C$DW$T$103)
    3745                      .dwattr $C$DW$T$104, DW_AT_decl_file("C:/ti/C2000Ware_MotorControl_SDK_5_04_00_00/c2000ware/driverlib
    3746                      .dwattr $C$DW$T$104, DW_AT_decl_line(0xed)
    3747                      .dwattr $C$DW$T$104, DW_AT_decl_column(0x03)
    3748              
    3749                      .dwendtag $C$DW$TU$104
    3750              
    3751              
    3752              $C$DW$TU$105    .dwtag  DW_TAG_type_unit
    3753                      .dwmtype  $C$DW$T$105
    3754              
    3755              $C$DW$T$105     .dwtag  DW_TAG_enumeration_type
    3756                      .dwattr $C$DW$T$105, DW_AT_byte_size(0x01)
    3757              $C$DW$222       .dwtag  DW_TAG_enumerator
    3758                      .dwattr $C$DW$222, DW_AT_name("ENC_ALIGNMENT")
    3759                      .dwattr $C$DW$222, DW_AT_const_value(0x00)
    3760                      .dwattr $C$DW$222, DW_AT_decl_file("C:/ti/C2000Ware_MotorControl_SDK_5_04_00_00/libraries/position_se
    3761                      .dwattr $C$DW$222, DW_AT_decl_line(0x40)
    3762                      .dwattr $C$DW$222, DW_AT_decl_column(0x05)
    3763              
    3764              $C$DW$223       .dwtag  DW_TAG_enumerator
    3765                      .dwattr $C$DW$223, DW_AT_name("ENC_WAIT_FOR_INDEX")
    3766                      .dwattr $C$DW$223, DW_AT_const_value(0x01)
    3767                      .dwattr $C$DW$223, DW_AT_decl_file("C:/ti/C2000Ware_MotorControl_SDK_5_04_00_00/libraries/position_se
    3768                      .dwattr $C$DW$223, DW_AT_decl_line(0x41)
    3769                      .dwattr $C$DW$223, DW_AT_decl_column(0x05)
    3770              
    3771              $C$DW$224       .dwtag  DW_TAG_enumerator
    3772                      .dwattr $C$DW$224, DW_AT_name("ENC_CALIBRATION_DONE")
    3773                      .dwattr $C$DW$224, DW_AT_const_value(0x02)
    3774                      .dwattr $C$DW$224, DW_AT_decl_file("C:/ti/C2000Ware_MotorControl_SDK_5_04_00_00/libraries/position_se
    3775                      .dwattr $C$DW$224, DW_AT_decl_line(0x42)
    3776                      .dwattr $C$DW$224, DW_AT_decl_column(0x05)
    3777              
    3778                      .dwattr $C$DW$T$105, DW_AT_decl_file("C:/ti/C2000Ware_MotorControl_SDK_5_04_00_00/libraries/position_
    3779                      .dwattr $C$DW$T$105, DW_AT_decl_line(0x3f)
    3780                      .dwattr $C$DW$T$105, DW_AT_decl_column(0x01)
    3781                      .dwendtag $C$DW$T$105
    3782              
    3783                      .dwendtag $C$DW$TU$105
    3784              
TMS320C2000 Assembler PC v22.6.2 Wed Dec 10 14:45:02 2025

Copyright (c) 1996-2018 Texas Instruments Incorporated
fcl_foc_cpu_dm.asm                                                   PAGE   74

    3785              
    3786              $C$DW$TU$106    .dwtag  DW_TAG_type_unit
    3787                      .dwmtype  $C$DW$T$106
    3788              $C$DW$T$106     .dwtag  DW_TAG_typedef
    3789                      .dwattr $C$DW$T$106, DW_AT_name("ENC_Status_e")
    3790                      .dwattr $C$DW$T$106, DW_AT_type(*$C$DW$T$105)
    3791                      .dwattr $C$DW$T$106, DW_AT_decl_file("C:/ti/C2000Ware_MotorControl_SDK_5_04_00_00/libraries/position_
    3792                      .dwattr $C$DW$T$106, DW_AT_decl_line(0x43)
    3793                      .dwattr $C$DW$T$106, DW_AT_decl_column(0x03)
    3794              
    3795                      .dwendtag $C$DW$TU$106
    3796              
    3797              
    3798              $C$DW$TU$107    .dwtag  DW_TAG_type_unit
    3799                      .dwmtype  $C$DW$T$107
    3800              
    3801              $C$DW$T$107     .dwtag  DW_TAG_enumeration_type
    3802                      .dwattr $C$DW$T$107, DW_AT_byte_size(0x01)
    3803              $C$DW$225       .dwtag  DW_TAG_enumerator
    3804                      .dwattr $C$DW$225, DW_AT_name("PWW_CMP_CTR_ZERO")
    3805                      .dwattr $C$DW$225, DW_AT_const_value(0x00)
    3806                      .dwattr $C$DW$225, DW_AT_decl_file("C:/ti/C2000Ware_MotorControl_SDK_5_04_00_00/solutions/common/sens
    3807                      .dwattr $C$DW$225, DW_AT_decl_line(0x34)
    3808                      .dwattr $C$DW$225, DW_AT_decl_column(0x05)
    3809              
    3810              $C$DW$226       .dwtag  DW_TAG_enumerator
    3811                      .dwattr $C$DW$226, DW_AT_name("PWW_CMP_CTR_PRD")
    3812                      .dwattr $C$DW$226, DW_AT_const_value(0x01)
    3813                      .dwattr $C$DW$226, DW_AT_decl_file("C:/ti/C2000Ware_MotorControl_SDK_5_04_00_00/solutions/common/sens
    3814                      .dwattr $C$DW$226, DW_AT_decl_line(0x35)
    3815                      .dwattr $C$DW$226, DW_AT_decl_column(0x05)
    3816              
    3817              $C$DW$227       .dwtag  DW_TAG_enumerator
    3818                      .dwattr $C$DW$227, DW_AT_name("PWW_CMP_CTR_BOTH")
    3819                      .dwattr $C$DW$227, DW_AT_const_value(0x02)
    3820                      .dwattr $C$DW$227, DW_AT_decl_file("C:/ti/C2000Ware_MotorControl_SDK_5_04_00_00/solutions/common/sens
    3821                      .dwattr $C$DW$227, DW_AT_decl_line(0x36)
    3822                      .dwattr $C$DW$227, DW_AT_decl_column(0x05)
    3823              
    3824              $C$DW$228       .dwtag  DW_TAG_enumerator
    3825                      .dwattr $C$DW$228, DW_AT_name("PWW_CMP_IMMEDIATE")
    3826                      .dwattr $C$DW$228, DW_AT_const_value(0x03)
    3827                      .dwattr $C$DW$228, DW_AT_decl_file("C:/ti/C2000Ware_MotorControl_SDK_5_04_00_00/solutions/common/sens
    3828                      .dwattr $C$DW$228, DW_AT_decl_line(0x37)
    3829                      .dwattr $C$DW$228, DW_AT_decl_column(0x05)
    3830              
    3831                      .dwattr $C$DW$T$107, DW_AT_decl_file("C:/ti/C2000Ware_MotorControl_SDK_5_04_00_00/solutions/common/se
    3832                      .dwattr $C$DW$T$107, DW_AT_decl_line(0x33)
    3833                      .dwattr $C$DW$T$107, DW_AT_decl_column(0x01)
    3834                      .dwendtag $C$DW$T$107
    3835              
    3836                      .dwendtag $C$DW$TU$107
    3837              
    3838              
    3839              $C$DW$TU$108    .dwtag  DW_TAG_type_unit
TMS320C2000 Assembler PC v22.6.2 Wed Dec 10 14:45:02 2025

Copyright (c) 1996-2018 Texas Instruments Incorporated
fcl_foc_cpu_dm.asm                                                   PAGE   75

    3840                      .dwmtype  $C$DW$T$108
    3841              $C$DW$T$108     .dwtag  DW_TAG_typedef
    3842                      .dwattr $C$DW$T$108, DW_AT_name("PWMUpdateMode_e")
    3843                      .dwattr $C$DW$T$108, DW_AT_type(*$C$DW$T$107)
    3844                      .dwattr $C$DW$T$108, DW_AT_decl_file("C:/ti/C2000Ware_MotorControl_SDK_5_04_00_00/solutions/common/se
    3845                      .dwattr $C$DW$T$108, DW_AT_decl_line(0x38)
    3846                      .dwattr $C$DW$T$108, DW_AT_decl_column(0x03)
    3847              
    3848                      .dwendtag $C$DW$TU$108
    3849              
    3850              
    3851              $C$DW$TU$109    .dwtag  DW_TAG_type_unit
    3852                      .dwmtype  $C$DW$T$109
    3853              
    3854              $C$DW$T$109     .dwtag  DW_TAG_enumeration_type
    3855                      .dwattr $C$DW$T$109, DW_AT_byte_size(0x01)
    3856              $C$DW$229       .dwtag  DW_TAG_enumerator
    3857                      .dwattr $C$DW$229, DW_AT_name("MTR_1")
    3858                      .dwattr $C$DW$229, DW_AT_const_value(0x00)
    3859                      .dwattr $C$DW$229, DW_AT_decl_file("..\sources\dual_axis_servo_drive_hal.h")
    3860                      .dwattr $C$DW$229, DW_AT_decl_line(0x87)
    3861                      .dwattr $C$DW$229, DW_AT_decl_column(0x05)
    3862              
    3863              $C$DW$230       .dwtag  DW_TAG_enumerator
    3864                      .dwattr $C$DW$230, DW_AT_name("MTR_2")
    3865                      .dwattr $C$DW$230, DW_AT_const_value(0x01)
    3866                      .dwattr $C$DW$230, DW_AT_decl_file("..\sources\dual_axis_servo_drive_hal.h")
    3867                      .dwattr $C$DW$230, DW_AT_decl_line(0x88)
    3868                      .dwattr $C$DW$230, DW_AT_decl_column(0x05)
    3869              
    3870                      .dwattr $C$DW$T$109, DW_AT_decl_file("..\sources\dual_axis_servo_drive_hal.h")
    3871                      .dwattr $C$DW$T$109, DW_AT_decl_line(0x86)
    3872                      .dwattr $C$DW$T$109, DW_AT_decl_column(0x01)
    3873                      .dwendtag $C$DW$T$109
    3874              
    3875                      .dwendtag $C$DW$TU$109
    3876              
    3877              
    3878              $C$DW$TU$110    .dwtag  DW_TAG_type_unit
    3879                      .dwmtype  $C$DW$T$110
    3880              $C$DW$T$110     .dwtag  DW_TAG_typedef
    3881                      .dwattr $C$DW$T$110, DW_AT_name("MotorNum_e")
    3882                      .dwattr $C$DW$T$110, DW_AT_type(*$C$DW$T$109)
    3883                      .dwattr $C$DW$T$110, DW_AT_decl_file("..\sources\dual_axis_servo_drive_hal.h")
    3884                      .dwattr $C$DW$T$110, DW_AT_decl_line(0x89)
    3885                      .dwattr $C$DW$T$110, DW_AT_decl_column(0x03)
    3886              
    3887                      .dwendtag $C$DW$TU$110
    3888              
    3889              
    3890              $C$DW$TU$111    .dwtag  DW_TAG_type_unit
    3891                      .dwmtype  $C$DW$T$111
    3892              
    3893              $C$DW$T$111     .dwtag  DW_TAG_enumeration_type
    3894                      .dwattr $C$DW$T$111, DW_AT_byte_size(0x01)
TMS320C2000 Assembler PC v22.6.2 Wed Dec 10 14:45:02 2025

Copyright (c) 1996-2018 Texas Instruments Incorporated
fcl_foc_cpu_dm.asm                                                   PAGE   76

    3895              $C$DW$231       .dwtag  DW_TAG_enumerator
    3896                      .dwattr $C$DW$231, DW_AT_name("MOTOR_STOP")
    3897                      .dwattr $C$DW$231, DW_AT_const_value(0x00)
    3898                      .dwattr $C$DW$231, DW_AT_decl_file("C:/ti/C2000Ware_MotorControl_SDK_5_04_00_00/solutions/common/sens
    3899                      .dwattr $C$DW$231, DW_AT_decl_line(0x4a)
    3900                      .dwattr $C$DW$231, DW_AT_decl_column(0x05)
    3901              
    3902              $C$DW$232       .dwtag  DW_TAG_enumerator
    3903                      .dwattr $C$DW$232, DW_AT_name("MOTOR_RUN")
    3904                      .dwattr $C$DW$232, DW_AT_const_value(0x01)
    3905                      .dwattr $C$DW$232, DW_AT_decl_file("C:/ti/C2000Ware_MotorControl_SDK_5_04_00_00/solutions/common/sens
    3906                      .dwattr $C$DW$232, DW_AT_decl_line(0x4b)
    3907                      .dwattr $C$DW$232, DW_AT_decl_column(0x05)
    3908              
    3909                      .dwattr $C$DW$T$111, DW_AT_decl_file("C:/ti/C2000Ware_MotorControl_SDK_5_04_00_00/solutions/common/se
    3910                      .dwattr $C$DW$T$111, DW_AT_decl_line(0x49)
    3911                      .dwattr $C$DW$T$111, DW_AT_decl_column(0x01)
    3912                      .dwendtag $C$DW$T$111
    3913              
    3914                      .dwendtag $C$DW$TU$111
    3915              
    3916              
    3917              $C$DW$TU$112    .dwtag  DW_TAG_type_unit
    3918                      .dwmtype  $C$DW$T$112
    3919              $C$DW$T$112     .dwtag  DW_TAG_typedef
    3920                      .dwattr $C$DW$T$112, DW_AT_name("MotorRunStop_e")
    3921                      .dwattr $C$DW$T$112, DW_AT_type(*$C$DW$T$111)
    3922                      .dwattr $C$DW$T$112, DW_AT_decl_file("C:/ti/C2000Ware_MotorControl_SDK_5_04_00_00/solutions/common/se
    3923                      .dwattr $C$DW$T$112, DW_AT_decl_line(0x4c)
    3924                      .dwattr $C$DW$T$112, DW_AT_decl_column(0x03)
    3925              
    3926                      .dwendtag $C$DW$TU$112
    3927              
    3928              
    3929              $C$DW$TU$113    .dwtag  DW_TAG_type_unit
    3930                      .dwmtype  $C$DW$T$113
    3931              
    3932              $C$DW$T$113     .dwtag  DW_TAG_enumeration_type
    3933                      .dwattr $C$DW$T$113, DW_AT_byte_size(0x01)
    3934              $C$DW$233       .dwtag  DW_TAG_enumerator
    3935                      .dwattr $C$DW$233, DW_AT_name("CTRL_STOP")
    3936                      .dwattr $C$DW$233, DW_AT_const_value(0x00)
    3937                      .dwattr $C$DW$233, DW_AT_decl_file("C:/ti/C2000Ware_MotorControl_SDK_5_04_00_00/solutions/common/sens
    3938                      .dwattr $C$DW$233, DW_AT_decl_line(0x64)
    3939                      .dwattr $C$DW$233, DW_AT_decl_column(0x05)
    3940              
    3941              $C$DW$234       .dwtag  DW_TAG_enumerator
    3942                      .dwattr $C$DW$234, DW_AT_name("CTRL_RUN")
    3943                      .dwattr $C$DW$234, DW_AT_const_value(0x01)
    3944                      .dwattr $C$DW$234, DW_AT_decl_file("C:/ti/C2000Ware_MotorControl_SDK_5_04_00_00/solutions/common/sens
    3945                      .dwattr $C$DW$234, DW_AT_decl_line(0x65)
    3946                      .dwattr $C$DW$234, DW_AT_decl_column(0x05)
    3947              
    3948              $C$DW$235       .dwtag  DW_TAG_enumerator
    3949                      .dwattr $C$DW$235, DW_AT_name("CTRL_BRAKE")
TMS320C2000 Assembler PC v22.6.2 Wed Dec 10 14:45:02 2025

Copyright (c) 1996-2018 Texas Instruments Incorporated
fcl_foc_cpu_dm.asm                                                   PAGE   77

    3950                      .dwattr $C$DW$235, DW_AT_const_value(0x02)
    3951                      .dwattr $C$DW$235, DW_AT_decl_file("C:/ti/C2000Ware_MotorControl_SDK_5_04_00_00/solutions/common/sens
    3952                      .dwattr $C$DW$235, DW_AT_decl_line(0x66)
    3953                      .dwattr $C$DW$235, DW_AT_decl_column(0x05)
    3954              
    3955              $C$DW$236       .dwtag  DW_TAG_enumerator
    3956                      .dwattr $C$DW$236, DW_AT_name("CTRL_RESET")
    3957                      .dwattr $C$DW$236, DW_AT_const_value(0x03)
    3958                      .dwattr $C$DW$236, DW_AT_decl_file("C:/ti/C2000Ware_MotorControl_SDK_5_04_00_00/solutions/common/sens
    3959                      .dwattr $C$DW$236, DW_AT_decl_line(0x67)
    3960                      .dwattr $C$DW$236, DW_AT_decl_column(0x05)
    3961              
    3962              $C$DW$237       .dwtag  DW_TAG_enumerator
    3963                      .dwattr $C$DW$237, DW_AT_name("CTRL_FAULT")
    3964                      .dwattr $C$DW$237, DW_AT_const_value(0x04)
    3965                      .dwattr $C$DW$237, DW_AT_decl_file("C:/ti/C2000Ware_MotorControl_SDK_5_04_00_00/solutions/common/sens
    3966                      .dwattr $C$DW$237, DW_AT_decl_line(0x68)
    3967                      .dwattr $C$DW$237, DW_AT_decl_column(0x05)
    3968              
    3969                      .dwattr $C$DW$T$113, DW_AT_decl_file("C:/ti/C2000Ware_MotorControl_SDK_5_04_00_00/solutions/common/se
    3970                      .dwattr $C$DW$T$113, DW_AT_decl_line(0x63)
    3971                      .dwattr $C$DW$T$113, DW_AT_decl_column(0x01)
    3972                      .dwendtag $C$DW$T$113
    3973              
    3974                      .dwendtag $C$DW$TU$113
    3975              
    3976              
    3977              $C$DW$TU$114    .dwtag  DW_TAG_type_unit
    3978                      .dwmtype  $C$DW$T$114
    3979              $C$DW$T$114     .dwtag  DW_TAG_typedef
    3980                      .dwattr $C$DW$T$114, DW_AT_name("CtrlState_e")
    3981                      .dwattr $C$DW$T$114, DW_AT_type(*$C$DW$T$113)
    3982                      .dwattr $C$DW$T$114, DW_AT_decl_file("C:/ti/C2000Ware_MotorControl_SDK_5_04_00_00/solutions/common/se
    3983                      .dwattr $C$DW$T$114, DW_AT_decl_line(0x69)
    3984                      .dwattr $C$DW$T$114, DW_AT_decl_column(0x03)
    3985              
    3986                      .dwendtag $C$DW$TU$114
    3987              
    3988              
    3989              $C$DW$TU$123    .dwtag  DW_TAG_type_unit
    3990                      .dwmtype  $C$DW$T$123
    3991              
    3992              $C$DW$T$123     .dwtag  DW_TAG_enumeration_type
    3993                      .dwattr $C$DW$T$123, DW_AT_byte_size(0x01)
    3994              $C$DW$238       .dwtag  DW_TAG_enumerator
    3995                      .dwattr $C$DW$238, DW_AT_name("EPWM_COUNTER_COMPARE_A")
    3996                      .dwattr $C$DW$238, DW_AT_const_value(0x00)
    3997                      .dwattr $C$DW$238, DW_AT_decl_file("C:/ti/C2000Ware_MotorControl_SDK_5_04_00_00/c2000ware/driverlib/f
    3998                      .dwattr $C$DW$238, DW_AT_decl_line(0x14c)
    3999                      .dwattr $C$DW$238, DW_AT_decl_column(0x05)
    4000              
    4001              $C$DW$239       .dwtag  DW_TAG_enumerator
    4002                      .dwattr $C$DW$239, DW_AT_name("EPWM_COUNTER_COMPARE_B")
    4003                      .dwattr $C$DW$239, DW_AT_const_value(0x02)
    4004                      .dwattr $C$DW$239, DW_AT_decl_file("C:/ti/C2000Ware_MotorControl_SDK_5_04_00_00/c2000ware/driverlib/f
TMS320C2000 Assembler PC v22.6.2 Wed Dec 10 14:45:02 2025

Copyright (c) 1996-2018 Texas Instruments Incorporated
fcl_foc_cpu_dm.asm                                                   PAGE   78

    4005                      .dwattr $C$DW$239, DW_AT_decl_line(0x14d)
    4006                      .dwattr $C$DW$239, DW_AT_decl_column(0x05)
    4007              
    4008              $C$DW$240       .dwtag  DW_TAG_enumerator
    4009                      .dwattr $C$DW$240, DW_AT_name("EPWM_COUNTER_COMPARE_C")
    4010                      .dwattr $C$DW$240, DW_AT_const_value(0x05)
    4011                      .dwattr $C$DW$240, DW_AT_decl_file("C:/ti/C2000Ware_MotorControl_SDK_5_04_00_00/c2000ware/driverlib/f
    4012                      .dwattr $C$DW$240, DW_AT_decl_line(0x14e)
    4013                      .dwattr $C$DW$240, DW_AT_decl_column(0x05)
    4014              
    4015              $C$DW$241       .dwtag  DW_TAG_enumerator
    4016                      .dwattr $C$DW$241, DW_AT_name("EPWM_COUNTER_COMPARE_D")
    4017                      .dwattr $C$DW$241, DW_AT_const_value(0x07)
    4018                      .dwattr $C$DW$241, DW_AT_decl_file("C:/ti/C2000Ware_MotorControl_SDK_5_04_00_00/c2000ware/driverlib/f
    4019                      .dwattr $C$DW$241, DW_AT_decl_line(0x14f)
    4020                      .dwattr $C$DW$241, DW_AT_decl_column(0x05)
    4021              
    4022                      .dwattr $C$DW$T$123, DW_AT_decl_file("C:/ti/C2000Ware_MotorControl_SDK_5_04_00_00/c2000ware/driverlib
    4023                      .dwattr $C$DW$T$123, DW_AT_decl_line(0x14b)
    4024                      .dwattr $C$DW$T$123, DW_AT_decl_column(0x01)
    4025                      .dwendtag $C$DW$T$123
    4026              
    4027                      .dwendtag $C$DW$TU$123
    4028              
    4029              
    4030              $C$DW$TU$124    .dwtag  DW_TAG_type_unit
    4031                      .dwmtype  $C$DW$T$124
    4032              $C$DW$T$124     .dwtag  DW_TAG_typedef
    4033                      .dwattr $C$DW$T$124, DW_AT_name("EPWM_CounterCompareModule")
    4034                      .dwattr $C$DW$T$124, DW_AT_type(*$C$DW$T$123)
    4035                      .dwattr $C$DW$T$124, DW_AT_decl_file("C:/ti/C2000Ware_MotorControl_SDK_5_04_00_00/c2000ware/driverlib
    4036                      .dwattr $C$DW$T$124, DW_AT_decl_line(0x150)
    4037                      .dwattr $C$DW$T$124, DW_AT_decl_column(0x03)
    4038              
    4039                      .dwendtag $C$DW$TU$124
    4040              
    4041              
    4042              $C$DW$TU$125    .dwtag  DW_TAG_type_unit
    4043                      .dwmtype  $C$DW$T$125
    4044              
    4045              $C$DW$T$125     .dwtag  DW_TAG_enumeration_type
    4046                      .dwattr $C$DW$T$125, DW_AT_byte_size(0x01)
    4047              $C$DW$242       .dwtag  DW_TAG_enumerator
    4048                      .dwattr $C$DW$242, DW_AT_name("EPWM_COMP_LOAD_ON_CNTR_ZERO")
    4049                      .dwattr $C$DW$242, DW_AT_const_value(0x00)
    4050                      .dwattr $C$DW$242, DW_AT_decl_file("C:/ti/C2000Ware_MotorControl_SDK_5_04_00_00/c2000ware/driverlib/f
    4051                      .dwattr $C$DW$242, DW_AT_decl_line(0x15b)
    4052                      .dwattr $C$DW$242, DW_AT_decl_column(0x05)
    4053              
    4054              $C$DW$243       .dwtag  DW_TAG_enumerator
    4055                      .dwattr $C$DW$243, DW_AT_name("EPWM_COMP_LOAD_ON_CNTR_PERIOD")
    4056                      .dwattr $C$DW$243, DW_AT_const_value(0x01)
    4057                      .dwattr $C$DW$243, DW_AT_decl_file("C:/ti/C2000Ware_MotorControl_SDK_5_04_00_00/c2000ware/driverlib/f
    4058                      .dwattr $C$DW$243, DW_AT_decl_line(0x15d)
    4059                      .dwattr $C$DW$243, DW_AT_decl_column(0x05)
TMS320C2000 Assembler PC v22.6.2 Wed Dec 10 14:45:02 2025

Copyright (c) 1996-2018 Texas Instruments Incorporated
fcl_foc_cpu_dm.asm                                                   PAGE   79

    4060              
    4061              $C$DW$244       .dwtag  DW_TAG_enumerator
    4062                      .dwattr $C$DW$244, DW_AT_name("EPWM_COMP_LOAD_ON_CNTR_ZERO_PERIOD")
    4063                      .dwattr $C$DW$244, DW_AT_const_value(0x02)
    4064                      .dwattr $C$DW$244, DW_AT_decl_file("C:/ti/C2000Ware_MotorControl_SDK_5_04_00_00/c2000ware/driverlib/f
    4065                      .dwattr $C$DW$244, DW_AT_decl_line(0x15f)
    4066                      .dwattr $C$DW$244, DW_AT_decl_column(0x05)
    4067              
    4068              $C$DW$245       .dwtag  DW_TAG_enumerator
    4069                      .dwattr $C$DW$245, DW_AT_name("EPWM_COMP_LOAD_FREEZE")
    4070                      .dwattr $C$DW$245, DW_AT_const_value(0x03)
    4071                      .dwattr $C$DW$245, DW_AT_decl_file("C:/ti/C2000Ware_MotorControl_SDK_5_04_00_00/c2000ware/driverlib/f
    4072                      .dwattr $C$DW$245, DW_AT_decl_line(0x161)
    4073                      .dwattr $C$DW$245, DW_AT_decl_column(0x05)
    4074              
    4075              $C$DW$246       .dwtag  DW_TAG_enumerator
    4076                      .dwattr $C$DW$246, DW_AT_name("EPWM_COMP_LOAD_ON_SYNC_CNTR_ZERO")
    4077                      .dwattr $C$DW$246, DW_AT_const_value(0x04)
    4078                      .dwattr $C$DW$246, DW_AT_decl_file("C:/ti/C2000Ware_MotorControl_SDK_5_04_00_00/c2000ware/driverlib/f
    4079                      .dwattr $C$DW$246, DW_AT_decl_line(0x163)
    4080                      .dwattr $C$DW$246, DW_AT_decl_column(0x05)
    4081              
    4082              $C$DW$247       .dwtag  DW_TAG_enumerator
    4083                      .dwattr $C$DW$247, DW_AT_name("EPWM_COMP_LOAD_ON_SYNC_CNTR_PERIOD")
    4084                      .dwattr $C$DW$247, DW_AT_const_value(0x05)
    4085                      .dwattr $C$DW$247, DW_AT_decl_file("C:/ti/C2000Ware_MotorControl_SDK_5_04_00_00/c2000ware/driverlib/f
    4086                      .dwattr $C$DW$247, DW_AT_decl_line(0x165)
    4087                      .dwattr $C$DW$247, DW_AT_decl_column(0x05)
    4088              
    4089              $C$DW$248       .dwtag  DW_TAG_enumerator
    4090                      .dwattr $C$DW$248, DW_AT_name("EPWM_COMP_LOAD_ON_SYNC_CNTR_ZERO_PERIOD")
    4091                      .dwattr $C$DW$248, DW_AT_const_value(0x06)
    4092                      .dwattr $C$DW$248, DW_AT_decl_file("C:/ti/C2000Ware_MotorControl_SDK_5_04_00_00/c2000ware/driverlib/f
    4093                      .dwattr $C$DW$248, DW_AT_decl_line(0x167)
    4094                      .dwattr $C$DW$248, DW_AT_decl_column(0x05)
    4095              
    4096              $C$DW$249       .dwtag  DW_TAG_enumerator
    4097                      .dwattr $C$DW$249, DW_AT_name("EPWM_COMP_LOAD_ON_SYNC_ONLY")
    4098                      .dwattr $C$DW$249, DW_AT_const_value(0x08)
    4099                      .dwattr $C$DW$249, DW_AT_decl_file("C:/ti/C2000Ware_MotorControl_SDK_5_04_00_00/c2000ware/driverlib/f
    4100                      .dwattr $C$DW$249, DW_AT_decl_line(0x169)
    4101                      .dwattr $C$DW$249, DW_AT_decl_column(0x05)
    4102              
    4103                      .dwattr $C$DW$T$125, DW_AT_decl_file("C:/ti/C2000Ware_MotorControl_SDK_5_04_00_00/c2000ware/driverlib
    4104                      .dwattr $C$DW$T$125, DW_AT_decl_line(0x159)
    4105                      .dwattr $C$DW$T$125, DW_AT_decl_column(0x01)
    4106                      .dwendtag $C$DW$T$125
    4107              
    4108                      .dwendtag $C$DW$TU$125
    4109              
    4110              
    4111              $C$DW$TU$126    .dwtag  DW_TAG_type_unit
    4112                      .dwmtype  $C$DW$T$126
    4113              $C$DW$T$126     .dwtag  DW_TAG_typedef
    4114                      .dwattr $C$DW$T$126, DW_AT_name("EPWM_CounterCompareLoadMode")
TMS320C2000 Assembler PC v22.6.2 Wed Dec 10 14:45:02 2025

Copyright (c) 1996-2018 Texas Instruments Incorporated
fcl_foc_cpu_dm.asm                                                   PAGE   80

    4115                      .dwattr $C$DW$T$126, DW_AT_type(*$C$DW$T$125)
    4116                      .dwattr $C$DW$T$126, DW_AT_decl_file("C:/ti/C2000Ware_MotorControl_SDK_5_04_00_00/c2000ware/driverlib
    4117                      .dwattr $C$DW$T$126, DW_AT_decl_line(0x16a)
    4118                      .dwattr $C$DW$T$126, DW_AT_decl_column(0x03)
    4119              
    4120                      .dwendtag $C$DW$TU$126
    4121              
    4122              
    4123              $C$DW$TU$19     .dwtag  DW_TAG_type_unit
    4124                      .dwmtype  $C$DW$T$19
    4125              
    4126              $C$DW$T$19      .dwtag  DW_TAG_structure_type
    4127                      .dwattr $C$DW$T$19, DW_AT_byte_size(0x04)
    4128              $C$DW$250       .dwtag  DW_TAG_member
    4129                      .dwattr $C$DW$250, DW_AT_type(*$C$DW$T$12)
    4130                      .dwattr $C$DW$250, DW_AT_name("quot")
    4131                      .dwattr $C$DW$250, DW_AT_accessibility(DW_ACCESS_public)
    4132                      .dwattr $C$DW$250, DW_AT_decl_file("C:/ti/ccs2031/ccs/tools/compiler/ti-cgt-c2000_22.6.2.LTS/include/
    4133                      .dwattr $C$DW$250, DW_AT_decl_line(0x59)
    4134                      .dwattr $C$DW$250, DW_AT_decl_column(0x17)
    4135              
    4136              $C$DW$251       .dwtag  DW_TAG_member
    4137                      .dwattr $C$DW$251, DW_AT_type(*$C$DW$T$12)
    4138                      .dwattr $C$DW$251, DW_AT_name("rem")
    4139                      .dwattr $C$DW$251, DW_AT_data_member_location[DW_OP_plus_uconst 0x2]
    4140                      .dwattr $C$DW$251, DW_AT_accessibility(DW_ACCESS_public)
    4141                      .dwattr $C$DW$251, DW_AT_decl_file("C:/ti/ccs2031/ccs/tools/compiler/ti-cgt-c2000_22.6.2.LTS/include/
    4142                      .dwattr $C$DW$251, DW_AT_decl_line(0x59)
    4143                      .dwattr $C$DW$251, DW_AT_decl_column(0x1d)
    4144              
    4145                      .dwattr $C$DW$T$19, DW_AT_decl_file("C:/ti/ccs2031/ccs/tools/compiler/ti-cgt-c2000_22.6.2.LTS/include
    4146                      .dwattr $C$DW$T$19, DW_AT_decl_line(0x59)
    4147                      .dwattr $C$DW$T$19, DW_AT_decl_column(0x10)
    4148                      .dwendtag $C$DW$T$19
    4149              
    4150                      .dwendtag $C$DW$TU$19
    4151              
    4152              
    4153              $C$DW$TU$128    .dwtag  DW_TAG_type_unit
    4154                      .dwmtype  $C$DW$T$128
    4155              $C$DW$T$128     .dwtag  DW_TAG_typedef
    4156                      .dwattr $C$DW$T$128, DW_AT_name("ldiv_t")
    4157                      .dwattr $C$DW$T$128, DW_AT_type(*$C$DW$T$19)
    4158                      .dwattr $C$DW$T$128, DW_AT_decl_file("C:/ti/ccs2031/ccs/tools/compiler/ti-cgt-c2000_22.6.2.LTS/includ
    4159                      .dwattr $C$DW$T$128, DW_AT_decl_line(0x59)
    4160                      .dwattr $C$DW$T$128, DW_AT_decl_column(0x24)
    4161              
    4162                      .dwendtag $C$DW$TU$128
    4163              
    4164              
    4165              $C$DW$TU$20     .dwtag  DW_TAG_type_unit
    4166                      .dwmtype  $C$DW$T$20
    4167              
    4168              $C$DW$T$20      .dwtag  DW_TAG_structure_type
    4169                      .dwattr $C$DW$T$20, DW_AT_byte_size(0x08)
TMS320C2000 Assembler PC v22.6.2 Wed Dec 10 14:45:02 2025

Copyright (c) 1996-2018 Texas Instruments Incorporated
fcl_foc_cpu_dm.asm                                                   PAGE   81

    4170              $C$DW$252       .dwtag  DW_TAG_member
    4171                      .dwattr $C$DW$252, DW_AT_type(*$C$DW$T$14)
    4172                      .dwattr $C$DW$252, DW_AT_name("quot")
    4173                      .dwattr $C$DW$252, DW_AT_accessibility(DW_ACCESS_public)
    4174                      .dwattr $C$DW$252, DW_AT_decl_file("C:/ti/ccs2031/ccs/tools/compiler/ti-cgt-c2000_22.6.2.LTS/include/
    4175                      .dwattr $C$DW$252, DW_AT_decl_line(0x63)
    4176                      .dwattr $C$DW$252, DW_AT_decl_column(0x1c)
    4177              
    4178              $C$DW$253       .dwtag  DW_TAG_member
    4179                      .dwattr $C$DW$253, DW_AT_type(*$C$DW$T$14)
    4180                      .dwattr $C$DW$253, DW_AT_name("rem")
    4181                      .dwattr $C$DW$253, DW_AT_data_member_location[DW_OP_plus_uconst 0x4]
    4182                      .dwattr $C$DW$253, DW_AT_accessibility(DW_ACCESS_public)
    4183                      .dwattr $C$DW$253, DW_AT_decl_file("C:/ti/ccs2031/ccs/tools/compiler/ti-cgt-c2000_22.6.2.LTS/include/
    4184                      .dwattr $C$DW$253, DW_AT_decl_line(0x63)
    4185                      .dwattr $C$DW$253, DW_AT_decl_column(0x22)
    4186              
    4187                      .dwattr $C$DW$T$20, DW_AT_decl_file("C:/ti/ccs2031/ccs/tools/compiler/ti-cgt-c2000_22.6.2.LTS/include
    4188                      .dwattr $C$DW$T$20, DW_AT_decl_line(0x63)
    4189                      .dwattr $C$DW$T$20, DW_AT_decl_column(0x10)
    4190                      .dwendtag $C$DW$T$20
    4191              
    4192                      .dwendtag $C$DW$TU$20
    4193              
    4194              
    4195              $C$DW$TU$131    .dwtag  DW_TAG_type_unit
    4196                      .dwmtype  $C$DW$T$131
    4197              $C$DW$T$131     .dwtag  DW_TAG_typedef
    4198                      .dwattr $C$DW$T$131, DW_AT_name("lldiv_t")
    4199                      .dwattr $C$DW$T$131, DW_AT_type(*$C$DW$T$20)
    4200                      .dwattr $C$DW$T$131, DW_AT_decl_file("C:/ti/ccs2031/ccs/tools/compiler/ti-cgt-c2000_22.6.2.LTS/includ
    4201                      .dwattr $C$DW$T$131, DW_AT_decl_line(0x63)
    4202                      .dwattr $C$DW$T$131, DW_AT_decl_column(0x29)
    4203              
    4204                      .dwendtag $C$DW$TU$131
    4205              
    4206              
    4207              $C$DW$TU$22     .dwtag  DW_TAG_type_unit
    4208                      .dwmtype  $C$DW$T$22
    4209              
    4210              $C$DW$T$22      .dwtag  DW_TAG_structure_type
    4211                      .dwattr $C$DW$T$22, DW_AT_byte_size(0x0c)
    4212              $C$DW$254       .dwtag  DW_TAG_member
    4213                      .dwattr $C$DW$254, DW_AT_type(*$C$DW$T$21)
    4214                      .dwattr $C$DW$254, DW_AT_name("Freq")
    4215                      .dwattr $C$DW$254, DW_AT_accessibility(DW_ACCESS_public)
    4216                      .dwattr $C$DW$254, DW_AT_decl_file("C:/ti/C2000Ware_MotorControl_SDK_5_04_00_00/libraries/utilities/m
    4217                      .dwattr $C$DW$254, DW_AT_decl_line(0x29)
    4218                      .dwattr $C$DW$254, DW_AT_decl_column(0x1d)
    4219              
    4220              $C$DW$255       .dwtag  DW_TAG_member
    4221                      .dwattr $C$DW$255, DW_AT_type(*$C$DW$T$21)
    4222                      .dwattr $C$DW$255, DW_AT_name("StepAngleMax")
    4223                      .dwattr $C$DW$255, DW_AT_data_member_location[DW_OP_plus_uconst 0x2]
    4224                      .dwattr $C$DW$255, DW_AT_accessibility(DW_ACCESS_public)
TMS320C2000 Assembler PC v22.6.2 Wed Dec 10 14:45:02 2025

Copyright (c) 1996-2018 Texas Instruments Incorporated
fcl_foc_cpu_dm.asm                                                   PAGE   82

    4225                      .dwattr $C$DW$255, DW_AT_decl_file("C:/ti/C2000Ware_MotorControl_SDK_5_04_00_00/libraries/utilities/m
    4226                      .dwattr $C$DW$255, DW_AT_decl_line(0x2a)
    4227                      .dwattr $C$DW$255, DW_AT_decl_column(0x11)
    4228              
    4229              $C$DW$256       .dwtag  DW_TAG_member
    4230                      .dwattr $C$DW$256, DW_AT_type(*$C$DW$T$21)
    4231                      .dwattr $C$DW$256, DW_AT_name("Angle")
    4232                      .dwattr $C$DW$256, DW_AT_data_member_location[DW_OP_plus_uconst 0x4]
    4233                      .dwattr $C$DW$256, DW_AT_accessibility(DW_ACCESS_public)
    4234                      .dwattr $C$DW$256, DW_AT_decl_file("C:/ti/C2000Ware_MotorControl_SDK_5_04_00_00/libraries/utilities/m
    4235                      .dwattr $C$DW$256, DW_AT_decl_line(0x2b)
    4236                      .dwattr $C$DW$256, DW_AT_decl_column(0x11)
    4237              
    4238              $C$DW$257       .dwtag  DW_TAG_member
    4239                      .dwattr $C$DW$257, DW_AT_type(*$C$DW$T$21)
    4240                      .dwattr $C$DW$257, DW_AT_name("Gain")
    4241                      .dwattr $C$DW$257, DW_AT_data_member_location[DW_OP_plus_uconst 0x6]
    4242                      .dwattr $C$DW$257, DW_AT_accessibility(DW_ACCESS_public)
    4243                      .dwattr $C$DW$257, DW_AT_decl_file("C:/ti/C2000Ware_MotorControl_SDK_5_04_00_00/libraries/utilities/m
    4244                      .dwattr $C$DW$257, DW_AT_decl_line(0x2c)
    4245                      .dwattr $C$DW$257, DW_AT_decl_column(0x11)
    4246              
    4247              $C$DW$258       .dwtag  DW_TAG_member
    4248                      .dwattr $C$DW$258, DW_AT_type(*$C$DW$T$21)
    4249                      .dwattr $C$DW$258, DW_AT_name("Out")
    4250                      .dwattr $C$DW$258, DW_AT_data_member_location[DW_OP_plus_uconst 0x8]
    4251                      .dwattr $C$DW$258, DW_AT_accessibility(DW_ACCESS_public)
    4252                      .dwattr $C$DW$258, DW_AT_decl_file("C:/ti/C2000Ware_MotorControl_SDK_5_04_00_00/libraries/utilities/m
    4253                      .dwattr $C$DW$258, DW_AT_decl_line(0x2d)
    4254                      .dwattr $C$DW$258, DW_AT_decl_column(0x11)
    4255              
    4256              $C$DW$259       .dwtag  DW_TAG_member
    4257                      .dwattr $C$DW$259, DW_AT_type(*$C$DW$T$21)
    4258                      .dwattr $C$DW$259, DW_AT_name("Offset")
    4259                      .dwattr $C$DW$259, DW_AT_data_member_location[DW_OP_plus_uconst 0xa]
    4260                      .dwattr $C$DW$259, DW_AT_accessibility(DW_ACCESS_public)
    4261                      .dwattr $C$DW$259, DW_AT_decl_file("C:/ti/C2000Ware_MotorControl_SDK_5_04_00_00/libraries/utilities/m
    4262                      .dwattr $C$DW$259, DW_AT_decl_line(0x2e)
    4263                      .dwattr $C$DW$259, DW_AT_decl_column(0x11)
    4264              
    4265                      .dwattr $C$DW$T$22, DW_AT_decl_file("C:/ti/C2000Ware_MotorControl_SDK_5_04_00_00/libraries/utilities/
    4266                      .dwattr $C$DW$T$22, DW_AT_decl_line(0x29)
    4267                      .dwattr $C$DW$T$22, DW_AT_decl_column(0x10)
    4268                      .dwendtag $C$DW$T$22
    4269              
    4270                      .dwendtag $C$DW$TU$22
    4271              
    4272              
    4273              $C$DW$TU$83     .dwtag  DW_TAG_type_unit
    4274                      .dwmtype  $C$DW$T$83
    4275              $C$DW$T$83      .dwtag  DW_TAG_typedef
    4276                      .dwattr $C$DW$T$83, DW_AT_name("RAMPGEN")
    4277                      .dwattr $C$DW$T$83, DW_AT_type(*$C$DW$T$22)
    4278                      .dwattr $C$DW$T$83, DW_AT_decl_file("C:/ti/C2000Ware_MotorControl_SDK_5_04_00_00/libraries/utilities/
    4279                      .dwattr $C$DW$T$83, DW_AT_decl_line(0x2f)
TMS320C2000 Assembler PC v22.6.2 Wed Dec 10 14:45:02 2025

Copyright (c) 1996-2018 Texas Instruments Incorporated
fcl_foc_cpu_dm.asm                                                   PAGE   83

    4280                      .dwattr $C$DW$T$83, DW_AT_decl_column(0x0d)
    4281              
    4282                      .dwendtag $C$DW$TU$83
    4283              
    4284              
    4285              $C$DW$TU$25     .dwtag  DW_TAG_type_unit
    4286                      .dwmtype  $C$DW$T$25
    4287              
    4288              $C$DW$T$25      .dwtag  DW_TAG_structure_type
    4289                      .dwattr $C$DW$T$25, DW_AT_byte_size(0x10)
    4290              $C$DW$260       .dwtag  DW_TAG_member
    4291                      .dwattr $C$DW$260, DW_AT_type(*$C$DW$T$21)
    4292                      .dwattr $C$DW$260, DW_AT_name("TargetValue")
    4293                      .dwattr $C$DW$260, DW_AT_accessibility(DW_ACCESS_public)
    4294                      .dwattr $C$DW$260, DW_AT_decl_file("C:/ti/C2000Ware_MotorControl_SDK_5_04_00_00/libraries/utilities/m
    4295                      .dwattr $C$DW$260, DW_AT_decl_line(0x2b)
    4296                      .dwattr $C$DW$260, DW_AT_decl_column(0x0f)
    4297              
    4298              $C$DW$261       .dwtag  DW_TAG_member
    4299                      .dwattr $C$DW$261, DW_AT_type(*$C$DW$T$24)
    4300                      .dwattr $C$DW$261, DW_AT_name("RampDelayMax")
    4301                      .dwattr $C$DW$261, DW_AT_data_member_location[DW_OP_plus_uconst 0x2]
    4302                      .dwattr $C$DW$261, DW_AT_accessibility(DW_ACCESS_public)
    4303                      .dwattr $C$DW$261, DW_AT_decl_file("C:/ti/C2000Ware_MotorControl_SDK_5_04_00_00/libraries/utilities/m
    4304                      .dwattr $C$DW$261, DW_AT_decl_line(0x2c)
    4305                      .dwattr $C$DW$261, DW_AT_decl_column(0x0f)
    4306              
    4307              $C$DW$262       .dwtag  DW_TAG_member
    4308                      .dwattr $C$DW$262, DW_AT_type(*$C$DW$T$21)
    4309                      .dwattr $C$DW$262, DW_AT_name("RampLowLimit")
    4310                      .dwattr $C$DW$262, DW_AT_data_member_location[DW_OP_plus_uconst 0x4]
    4311                      .dwattr $C$DW$262, DW_AT_accessibility(DW_ACCESS_public)
    4312                      .dwattr $C$DW$262, DW_AT_decl_file("C:/ti/C2000Ware_MotorControl_SDK_5_04_00_00/libraries/utilities/m
    4313                      .dwattr $C$DW$262, DW_AT_decl_line(0x2d)
    4314                      .dwattr $C$DW$262, DW_AT_decl_column(0x0f)
    4315              
    4316              $C$DW$263       .dwtag  DW_TAG_member
    4317                      .dwattr $C$DW$263, DW_AT_type(*$C$DW$T$21)
    4318                      .dwattr $C$DW$263, DW_AT_name("RampHighLimit")
    4319                      .dwattr $C$DW$263, DW_AT_data_member_location[DW_OP_plus_uconst 0x6]
    4320                      .dwattr $C$DW$263, DW_AT_accessibility(DW_ACCESS_public)
    4321                      .dwattr $C$DW$263, DW_AT_decl_file("C:/ti/C2000Ware_MotorControl_SDK_5_04_00_00/libraries/utilities/m
    4322                      .dwattr $C$DW$263, DW_AT_decl_line(0x2e)
    4323                      .dwattr $C$DW$263, DW_AT_decl_column(0x0f)
    4324              
    4325              $C$DW$264       .dwtag  DW_TAG_member
    4326                      .dwattr $C$DW$264, DW_AT_type(*$C$DW$T$24)
    4327                      .dwattr $C$DW$264, DW_AT_name("RampDelayCount")
    4328                      .dwattr $C$DW$264, DW_AT_data_member_location[DW_OP_plus_uconst 0x8]
    4329                      .dwattr $C$DW$264, DW_AT_accessibility(DW_ACCESS_public)
    4330                      .dwattr $C$DW$264, DW_AT_decl_file("C:/ti/C2000Ware_MotorControl_SDK_5_04_00_00/libraries/utilities/m
    4331                      .dwattr $C$DW$264, DW_AT_decl_line(0x2f)
    4332                      .dwattr $C$DW$264, DW_AT_decl_column(0x0c)
    4333              
    4334              $C$DW$265       .dwtag  DW_TAG_member
TMS320C2000 Assembler PC v22.6.2 Wed Dec 10 14:45:02 2025

Copyright (c) 1996-2018 Texas Instruments Incorporated
fcl_foc_cpu_dm.asm                                                   PAGE   84

    4335                      .dwattr $C$DW$265, DW_AT_type(*$C$DW$T$21)
    4336                      .dwattr $C$DW$265, DW_AT_name("SetpointValue")
    4337                      .dwattr $C$DW$265, DW_AT_data_member_location[DW_OP_plus_uconst 0xa]
    4338                      .dwattr $C$DW$265, DW_AT_accessibility(DW_ACCESS_public)
    4339                      .dwattr $C$DW$265, DW_AT_decl_file("C:/ti/C2000Ware_MotorControl_SDK_5_04_00_00/libraries/utilities/m
    4340                      .dwattr $C$DW$265, DW_AT_decl_line(0x30)
    4341                      .dwattr $C$DW$265, DW_AT_decl_column(0x0c)
    4342              
    4343              $C$DW$266       .dwtag  DW_TAG_member
    4344                      .dwattr $C$DW$266, DW_AT_type(*$C$DW$T$24)
    4345                      .dwattr $C$DW$266, DW_AT_name("EqualFlag")
    4346                      .dwattr $C$DW$266, DW_AT_data_member_location[DW_OP_plus_uconst 0xc]
    4347                      .dwattr $C$DW$266, DW_AT_accessibility(DW_ACCESS_public)
    4348                      .dwattr $C$DW$266, DW_AT_decl_file("C:/ti/C2000Ware_MotorControl_SDK_5_04_00_00/libraries/utilities/m
    4349                      .dwattr $C$DW$266, DW_AT_decl_line(0x31)
    4350                      .dwattr $C$DW$266, DW_AT_decl_column(0x0c)
    4351              
    4352              $C$DW$267       .dwtag  DW_TAG_member
    4353                      .dwattr $C$DW$267, DW_AT_type(*$C$DW$T$21)
    4354                      .dwattr $C$DW$267, DW_AT_name("Tmp")
    4355                      .dwattr $C$DW$267, DW_AT_data_member_location[DW_OP_plus_uconst 0xe]
    4356                      .dwattr $C$DW$267, DW_AT_accessibility(DW_ACCESS_public)
    4357                      .dwattr $C$DW$267, DW_AT_decl_file("C:/ti/C2000Ware_MotorControl_SDK_5_04_00_00/libraries/utilities/m
    4358                      .dwattr $C$DW$267, DW_AT_decl_line(0x32)
    4359                      .dwattr $C$DW$267, DW_AT_decl_column(0x0c)
    4360              
    4361                      .dwattr $C$DW$T$25, DW_AT_decl_file("C:/ti/C2000Ware_MotorControl_SDK_5_04_00_00/libraries/utilities/
    4362                      .dwattr $C$DW$T$25, DW_AT_decl_line(0x2a)
    4363                      .dwattr $C$DW$T$25, DW_AT_decl_column(0x10)
    4364                      .dwendtag $C$DW$T$25
    4365              
    4366                      .dwendtag $C$DW$TU$25
    4367              
    4368              
    4369              $C$DW$TU$84     .dwtag  DW_TAG_type_unit
    4370                      .dwmtype  $C$DW$T$84
    4371              $C$DW$T$84      .dwtag  DW_TAG_typedef
    4372                      .dwattr $C$DW$T$84, DW_AT_name("RMPCNTL")
    4373                      .dwattr $C$DW$T$84, DW_AT_type(*$C$DW$T$25)
    4374                      .dwattr $C$DW$T$84, DW_AT_decl_file("C:/ti/C2000Ware_MotorControl_SDK_5_04_00_00/libraries/utilities/
    4375                      .dwattr $C$DW$T$84, DW_AT_decl_line(0x33)
    4376                      .dwattr $C$DW$T$84, DW_AT_decl_column(0x03)
    4377              
    4378                      .dwendtag $C$DW$TU$84
    4379              
    4380              
    4381              $C$DW$TU$26     .dwtag  DW_TAG_type_unit
    4382                      .dwmtype  $C$DW$T$26
    4383              
    4384              $C$DW$T$26      .dwtag  DW_TAG_structure_type
    4385                      .dwattr $C$DW$T$26, DW_AT_byte_size(0x0a)
    4386              $C$DW$268       .dwtag  DW_TAG_member
    4387                      .dwattr $C$DW$268, DW_AT_type(*$C$DW$T$21)
    4388                      .dwattr $C$DW$268, DW_AT_name("As")
    4389                      .dwattr $C$DW$268, DW_AT_accessibility(DW_ACCESS_public)
TMS320C2000 Assembler PC v22.6.2 Wed Dec 10 14:45:02 2025

Copyright (c) 1996-2018 Texas Instruments Incorporated
fcl_foc_cpu_dm.asm                                                   PAGE   85

    4390                      .dwattr $C$DW$268, DW_AT_decl_file("C:/ti/C2000Ware_MotorControl_SDK_5_04_00_00/libraries/utilities/m
    4391                      .dwattr $C$DW$268, DW_AT_decl_line(0x2a)
    4392                      .dwattr $C$DW$268, DW_AT_decl_column(0x1e)
    4393              
    4394              $C$DW$269       .dwtag  DW_TAG_member
    4395                      .dwattr $C$DW$269, DW_AT_type(*$C$DW$T$21)
    4396                      .dwattr $C$DW$269, DW_AT_name("Bs")
    4397                      .dwattr $C$DW$269, DW_AT_data_member_location[DW_OP_plus_uconst 0x2]
    4398                      .dwattr $C$DW$269, DW_AT_accessibility(DW_ACCESS_public)
    4399                      .dwattr $C$DW$269, DW_AT_decl_file("C:/ti/C2000Ware_MotorControl_SDK_5_04_00_00/libraries/utilities/m
    4400                      .dwattr $C$DW$269, DW_AT_decl_line(0x2b)
    4401                      .dwattr $C$DW$269, DW_AT_decl_column(0x12)
    4402              
    4403              $C$DW$270       .dwtag  DW_TAG_member
    4404                      .dwattr $C$DW$270, DW_AT_type(*$C$DW$T$21)
    4405                      .dwattr $C$DW$270, DW_AT_name("Cs")
    4406                      .dwattr $C$DW$270, DW_AT_data_member_location[DW_OP_plus_uconst 0x4]
    4407                      .dwattr $C$DW$270, DW_AT_accessibility(DW_ACCESS_public)
    4408                      .dwattr $C$DW$270, DW_AT_decl_file("C:/ti/C2000Ware_MotorControl_SDK_5_04_00_00/libraries/utilities/m
    4409                      .dwattr $C$DW$270, DW_AT_decl_line(0x2c)
    4410                      .dwattr $C$DW$270, DW_AT_decl_column(0x12)
    4411              
    4412              $C$DW$271       .dwtag  DW_TAG_member
    4413                      .dwattr $C$DW$271, DW_AT_type(*$C$DW$T$21)
    4414                      .dwattr $C$DW$271, DW_AT_name("Alpha")
    4415                      .dwattr $C$DW$271, DW_AT_data_member_location[DW_OP_plus_uconst 0x6]
    4416                      .dwattr $C$DW$271, DW_AT_accessibility(DW_ACCESS_public)
    4417                      .dwattr $C$DW$271, DW_AT_decl_file("C:/ti/C2000Ware_MotorControl_SDK_5_04_00_00/libraries/utilities/m
    4418                      .dwattr $C$DW$271, DW_AT_decl_line(0x2d)
    4419                      .dwattr $C$DW$271, DW_AT_decl_column(0x12)
    4420              
    4421              $C$DW$272       .dwtag  DW_TAG_member
    4422                      .dwattr $C$DW$272, DW_AT_type(*$C$DW$T$21)
    4423                      .dwattr $C$DW$272, DW_AT_name("Beta")
    4424                      .dwattr $C$DW$272, DW_AT_data_member_location[DW_OP_plus_uconst 0x8]
    4425                      .dwattr $C$DW$272, DW_AT_accessibility(DW_ACCESS_public)
    4426                      .dwattr $C$DW$272, DW_AT_decl_file("C:/ti/C2000Ware_MotorControl_SDK_5_04_00_00/libraries/utilities/m
    4427                      .dwattr $C$DW$272, DW_AT_decl_line(0x2e)
    4428                      .dwattr $C$DW$272, DW_AT_decl_column(0x12)
    4429              
    4430                      .dwattr $C$DW$T$26, DW_AT_decl_file("C:/ti/C2000Ware_MotorControl_SDK_5_04_00_00/libraries/utilities/
    4431                      .dwattr $C$DW$T$26, DW_AT_decl_line(0x2a)
    4432                      .dwattr $C$DW$T$26, DW_AT_decl_column(0x10)
    4433                      .dwendtag $C$DW$T$26
    4434              
    4435                      .dwendtag $C$DW$TU$26
    4436              
    4437              
    4438              $C$DW$TU$85     .dwtag  DW_TAG_type_unit
    4439                      .dwmtype  $C$DW$T$85
    4440              $C$DW$T$85      .dwtag  DW_TAG_typedef
    4441                      .dwattr $C$DW$T$85, DW_AT_name("CLARKE")
    4442                      .dwattr $C$DW$T$85, DW_AT_type(*$C$DW$T$26)
    4443                      .dwattr $C$DW$T$85, DW_AT_decl_file("C:/ti/C2000Ware_MotorControl_SDK_5_04_00_00/libraries/utilities/
    4444                      .dwattr $C$DW$T$85, DW_AT_decl_line(0x2f)
TMS320C2000 Assembler PC v22.6.2 Wed Dec 10 14:45:02 2025

Copyright (c) 1996-2018 Texas Instruments Incorporated
fcl_foc_cpu_dm.asm                                                   PAGE   86

    4445                      .dwattr $C$DW$T$85, DW_AT_decl_column(0x09)
    4446              
    4447                      .dwendtag $C$DW$TU$85
    4448              
    4449              
    4450              $C$DW$TU$27     .dwtag  DW_TAG_type_unit
    4451                      .dwmtype  $C$DW$T$27
    4452              
    4453              $C$DW$T$27      .dwtag  DW_TAG_structure_type
    4454                      .dwattr $C$DW$T$27, DW_AT_byte_size(0x0e)
    4455              $C$DW$273       .dwtag  DW_TAG_member
    4456                      .dwattr $C$DW$273, DW_AT_type(*$C$DW$T$21)
    4457                      .dwattr $C$DW$273, DW_AT_name("Alpha")
    4458                      .dwattr $C$DW$273, DW_AT_accessibility(DW_ACCESS_public)
    4459                      .dwattr $C$DW$273, DW_AT_decl_file("C:/ti/C2000Ware_MotorControl_SDK_5_04_00_00/libraries/utilities/m
    4460                      .dwattr $C$DW$273, DW_AT_decl_line(0x29)
    4461                      .dwattr $C$DW$273, DW_AT_decl_column(0x1e)
    4462              
    4463              $C$DW$274       .dwtag  DW_TAG_member
    4464                      .dwattr $C$DW$274, DW_AT_type(*$C$DW$T$21)
    4465                      .dwattr $C$DW$274, DW_AT_name("Beta")
    4466                      .dwattr $C$DW$274, DW_AT_data_member_location[DW_OP_plus_uconst 0x2]
    4467                      .dwattr $C$DW$274, DW_AT_accessibility(DW_ACCESS_public)
    4468                      .dwattr $C$DW$274, DW_AT_decl_file("C:/ti/C2000Ware_MotorControl_SDK_5_04_00_00/libraries/utilities/m
    4469                      .dwattr $C$DW$274, DW_AT_decl_line(0x2a)
    4470                      .dwattr $C$DW$274, DW_AT_decl_column(0x12)
    4471              
    4472              $C$DW$275       .dwtag  DW_TAG_member
    4473                      .dwattr $C$DW$275, DW_AT_type(*$C$DW$T$21)
    4474                      .dwattr $C$DW$275, DW_AT_name("Angle")
    4475                      .dwattr $C$DW$275, DW_AT_data_member_location[DW_OP_plus_uconst 0x4]
    4476                      .dwattr $C$DW$275, DW_AT_accessibility(DW_ACCESS_public)
    4477                      .dwattr $C$DW$275, DW_AT_decl_file("C:/ti/C2000Ware_MotorControl_SDK_5_04_00_00/libraries/utilities/m
    4478                      .dwattr $C$DW$275, DW_AT_decl_line(0x2b)
    4479                      .dwattr $C$DW$275, DW_AT_decl_column(0x12)
    4480              
    4481              $C$DW$276       .dwtag  DW_TAG_member
    4482                      .dwattr $C$DW$276, DW_AT_type(*$C$DW$T$21)
    4483                      .dwattr $C$DW$276, DW_AT_name("Ds")
    4484                      .dwattr $C$DW$276, DW_AT_data_member_location[DW_OP_plus_uconst 0x6]
    4485                      .dwattr $C$DW$276, DW_AT_accessibility(DW_ACCESS_public)
    4486                      .dwattr $C$DW$276, DW_AT_decl_file("C:/ti/C2000Ware_MotorControl_SDK_5_04_00_00/libraries/utilities/m
    4487                      .dwattr $C$DW$276, DW_AT_decl_line(0x2c)
    4488                      .dwattr $C$DW$276, DW_AT_decl_column(0x12)
    4489              
    4490              $C$DW$277       .dwtag  DW_TAG_member
    4491                      .dwattr $C$DW$277, DW_AT_type(*$C$DW$T$21)
    4492                      .dwattr $C$DW$277, DW_AT_name("Qs")
    4493                      .dwattr $C$DW$277, DW_AT_data_member_location[DW_OP_plus_uconst 0x8]
    4494                      .dwattr $C$DW$277, DW_AT_accessibility(DW_ACCESS_public)
    4495                      .dwattr $C$DW$277, DW_AT_decl_file("C:/ti/C2000Ware_MotorControl_SDK_5_04_00_00/libraries/utilities/m
    4496                      .dwattr $C$DW$277, DW_AT_decl_line(0x2d)
    4497                      .dwattr $C$DW$277, DW_AT_decl_column(0x12)
    4498              
    4499              $C$DW$278       .dwtag  DW_TAG_member
TMS320C2000 Assembler PC v22.6.2 Wed Dec 10 14:45:02 2025

Copyright (c) 1996-2018 Texas Instruments Incorporated
fcl_foc_cpu_dm.asm                                                   PAGE   87

    4500                      .dwattr $C$DW$278, DW_AT_type(*$C$DW$T$21)
    4501                      .dwattr $C$DW$278, DW_AT_name("Sine")
    4502                      .dwattr $C$DW$278, DW_AT_data_member_location[DW_OP_plus_uconst 0xa]
    4503                      .dwattr $C$DW$278, DW_AT_accessibility(DW_ACCESS_public)
    4504                      .dwattr $C$DW$278, DW_AT_decl_file("C:/ti/C2000Ware_MotorControl_SDK_5_04_00_00/libraries/utilities/m
    4505                      .dwattr $C$DW$278, DW_AT_decl_line(0x2e)
    4506                      .dwattr $C$DW$278, DW_AT_decl_column(0x12)
    4507              
    4508              $C$DW$279       .dwtag  DW_TAG_member
    4509                      .dwattr $C$DW$279, DW_AT_type(*$C$DW$T$21)
    4510                      .dwattr $C$DW$279, DW_AT_name("Cosine")
    4511                      .dwattr $C$DW$279, DW_AT_data_member_location[DW_OP_plus_uconst 0xc]
    4512                      .dwattr $C$DW$279, DW_AT_accessibility(DW_ACCESS_public)
    4513                      .dwattr $C$DW$279, DW_AT_decl_file("C:/ti/C2000Ware_MotorControl_SDK_5_04_00_00/libraries/utilities/m
    4514                      .dwattr $C$DW$279, DW_AT_decl_line(0x2f)
    4515                      .dwattr $C$DW$279, DW_AT_decl_column(0x12)
    4516              
    4517                      .dwattr $C$DW$T$27, DW_AT_decl_file("C:/ti/C2000Ware_MotorControl_SDK_5_04_00_00/libraries/utilities/
    4518                      .dwattr $C$DW$T$27, DW_AT_decl_line(0x29)
    4519                      .dwattr $C$DW$T$27, DW_AT_decl_column(0x10)
    4520                      .dwendtag $C$DW$T$27
    4521              
    4522                      .dwendtag $C$DW$TU$27
    4523              
    4524              
    4525              $C$DW$TU$86     .dwtag  DW_TAG_type_unit
    4526                      .dwmtype  $C$DW$T$86
    4527              $C$DW$T$86      .dwtag  DW_TAG_typedef
    4528                      .dwattr $C$DW$T$86, DW_AT_name("PARK")
    4529                      .dwattr $C$DW$T$86, DW_AT_type(*$C$DW$T$27)
    4530                      .dwattr $C$DW$T$86, DW_AT_decl_file("C:/ti/C2000Ware_MotorControl_SDK_5_04_00_00/libraries/utilities/
    4531                      .dwattr $C$DW$T$86, DW_AT_decl_line(0x30)
    4532                      .dwattr $C$DW$T$86, DW_AT_decl_column(0x09)
    4533              
    4534                      .dwendtag $C$DW$TU$86
    4535              
    4536              
    4537              $C$DW$TU$28     .dwtag  DW_TAG_type_unit
    4538                      .dwmtype  $C$DW$T$28
    4539              
    4540              $C$DW$T$28      .dwtag  DW_TAG_structure_type
    4541                      .dwattr $C$DW$T$28, DW_AT_byte_size(0x0e)
    4542              $C$DW$280       .dwtag  DW_TAG_member
    4543                      .dwattr $C$DW$280, DW_AT_type(*$C$DW$T$21)
    4544                      .dwattr $C$DW$280, DW_AT_name("Alpha")
    4545                      .dwattr $C$DW$280, DW_AT_accessibility(DW_ACCESS_public)
    4546                      .dwattr $C$DW$280, DW_AT_decl_file("C:/ti/C2000Ware_MotorControl_SDK_5_04_00_00/libraries/utilities/m
    4547                      .dwattr $C$DW$280, DW_AT_decl_line(0x29)
    4548                      .dwattr $C$DW$280, DW_AT_decl_column(0x1e)
    4549              
    4550              $C$DW$281       .dwtag  DW_TAG_member
    4551                      .dwattr $C$DW$281, DW_AT_type(*$C$DW$T$21)
    4552                      .dwattr $C$DW$281, DW_AT_name("Beta")
    4553                      .dwattr $C$DW$281, DW_AT_data_member_location[DW_OP_plus_uconst 0x2]
    4554                      .dwattr $C$DW$281, DW_AT_accessibility(DW_ACCESS_public)
TMS320C2000 Assembler PC v22.6.2 Wed Dec 10 14:45:02 2025

Copyright (c) 1996-2018 Texas Instruments Incorporated
fcl_foc_cpu_dm.asm                                                   PAGE   88

    4555                      .dwattr $C$DW$281, DW_AT_decl_file("C:/ti/C2000Ware_MotorControl_SDK_5_04_00_00/libraries/utilities/m
    4556                      .dwattr $C$DW$281, DW_AT_decl_line(0x2a)
    4557                      .dwattr $C$DW$281, DW_AT_decl_column(0x12)
    4558              
    4559              $C$DW$282       .dwtag  DW_TAG_member
    4560                      .dwattr $C$DW$282, DW_AT_type(*$C$DW$T$21)
    4561                      .dwattr $C$DW$282, DW_AT_name("Angle")
    4562                      .dwattr $C$DW$282, DW_AT_data_member_location[DW_OP_plus_uconst 0x4]
    4563                      .dwattr $C$DW$282, DW_AT_accessibility(DW_ACCESS_public)
    4564                      .dwattr $C$DW$282, DW_AT_decl_file("C:/ti/C2000Ware_MotorControl_SDK_5_04_00_00/libraries/utilities/m
    4565                      .dwattr $C$DW$282, DW_AT_decl_line(0x2b)
    4566                      .dwattr $C$DW$282, DW_AT_decl_column(0x12)
    4567              
    4568              $C$DW$283       .dwtag  DW_TAG_member
    4569                      .dwattr $C$DW$283, DW_AT_type(*$C$DW$T$21)
    4570                      .dwattr $C$DW$283, DW_AT_name("Ds")
    4571                      .dwattr $C$DW$283, DW_AT_data_member_location[DW_OP_plus_uconst 0x6]
    4572                      .dwattr $C$DW$283, DW_AT_accessibility(DW_ACCESS_public)
    4573                      .dwattr $C$DW$283, DW_AT_decl_file("C:/ti/C2000Ware_MotorControl_SDK_5_04_00_00/libraries/utilities/m
    4574                      .dwattr $C$DW$283, DW_AT_decl_line(0x2c)
    4575                      .dwattr $C$DW$283, DW_AT_decl_column(0x12)
    4576              
    4577              $C$DW$284       .dwtag  DW_TAG_member
    4578                      .dwattr $C$DW$284, DW_AT_type(*$C$DW$T$21)
    4579                      .dwattr $C$DW$284, DW_AT_name("Qs")
    4580                      .dwattr $C$DW$284, DW_AT_data_member_location[DW_OP_plus_uconst 0x8]
    4581                      .dwattr $C$DW$284, DW_AT_accessibility(DW_ACCESS_public)
    4582                      .dwattr $C$DW$284, DW_AT_decl_file("C:/ti/C2000Ware_MotorControl_SDK_5_04_00_00/libraries/utilities/m
    4583                      .dwattr $C$DW$284, DW_AT_decl_line(0x2d)
    4584                      .dwattr $C$DW$284, DW_AT_decl_column(0x12)
    4585              
    4586              $C$DW$285       .dwtag  DW_TAG_member
    4587                      .dwattr $C$DW$285, DW_AT_type(*$C$DW$T$21)
    4588                      .dwattr $C$DW$285, DW_AT_name("Sine")
    4589                      .dwattr $C$DW$285, DW_AT_data_member_location[DW_OP_plus_uconst 0xa]
    4590                      .dwattr $C$DW$285, DW_AT_accessibility(DW_ACCESS_public)
    4591                      .dwattr $C$DW$285, DW_AT_decl_file("C:/ti/C2000Ware_MotorControl_SDK_5_04_00_00/libraries/utilities/m
    4592                      .dwattr $C$DW$285, DW_AT_decl_line(0x2e)
    4593                      .dwattr $C$DW$285, DW_AT_decl_column(0x12)
    4594              
    4595              $C$DW$286       .dwtag  DW_TAG_member
    4596                      .dwattr $C$DW$286, DW_AT_type(*$C$DW$T$21)
    4597                      .dwattr $C$DW$286, DW_AT_name("Cosine")
    4598                      .dwattr $C$DW$286, DW_AT_data_member_location[DW_OP_plus_uconst 0xc]
    4599                      .dwattr $C$DW$286, DW_AT_accessibility(DW_ACCESS_public)
    4600                      .dwattr $C$DW$286, DW_AT_decl_file("C:/ti/C2000Ware_MotorControl_SDK_5_04_00_00/libraries/utilities/m
    4601                      .dwattr $C$DW$286, DW_AT_decl_line(0x2f)
    4602                      .dwattr $C$DW$286, DW_AT_decl_column(0x12)
    4603              
    4604                      .dwattr $C$DW$T$28, DW_AT_decl_file("C:/ti/C2000Ware_MotorControl_SDK_5_04_00_00/libraries/utilities/
    4605                      .dwattr $C$DW$T$28, DW_AT_decl_line(0x29)
    4606                      .dwattr $C$DW$T$28, DW_AT_decl_column(0x10)
    4607                      .dwendtag $C$DW$T$28
    4608              
    4609                      .dwendtag $C$DW$TU$28
TMS320C2000 Assembler PC v22.6.2 Wed Dec 10 14:45:02 2025

Copyright (c) 1996-2018 Texas Instruments Incorporated
fcl_foc_cpu_dm.asm                                                   PAGE   89

    4610              
    4611              
    4612              $C$DW$TU$87     .dwtag  DW_TAG_type_unit
    4613                      .dwmtype  $C$DW$T$87
    4614              $C$DW$T$87      .dwtag  DW_TAG_typedef
    4615                      .dwattr $C$DW$T$87, DW_AT_name("IPARK")
    4616                      .dwattr $C$DW$T$87, DW_AT_type(*$C$DW$T$28)
    4617                      .dwattr $C$DW$T$87, DW_AT_decl_file("C:/ti/C2000Ware_MotorControl_SDK_5_04_00_00/libraries/utilities/
    4618                      .dwattr $C$DW$T$87, DW_AT_decl_line(0x30)
    4619                      .dwattr $C$DW$T$87, DW_AT_decl_column(0x0b)
    4620              
    4621                      .dwendtag $C$DW$TU$87
    4622              
    4623              
    4624              $C$DW$TU$31     .dwtag  DW_TAG_type_unit
    4625                      .dwmtype  $C$DW$T$31
    4626              
    4627              $C$DW$T$31      .dwtag  DW_TAG_structure_type
    4628                      .dwattr $C$DW$T$31, DW_AT_byte_size(0x12)
    4629              $C$DW$287       .dwtag  DW_TAG_member
    4630                      .dwattr $C$DW$287, DW_AT_type(*$C$DW$T$21)
    4631                      .dwattr $C$DW$287, DW_AT_name("Ualpha")
    4632                      .dwattr $C$DW$287, DW_AT_accessibility(DW_ACCESS_public)
    4633                      .dwattr $C$DW$287, DW_AT_decl_file("C:/ti/C2000Ware_MotorControl_SDK_5_04_00_00/libraries/utilities/m
    4634                      .dwattr $C$DW$287, DW_AT_decl_line(0x2b)
    4635                      .dwattr $C$DW$287, DW_AT_decl_column(0x10)
    4636              
    4637              $C$DW$288       .dwtag  DW_TAG_member
    4638                      .dwattr $C$DW$288, DW_AT_type(*$C$DW$T$21)
    4639                      .dwattr $C$DW$288, DW_AT_name("Ubeta")
    4640                      .dwattr $C$DW$288, DW_AT_data_member_location[DW_OP_plus_uconst 0x2]
    4641                      .dwattr $C$DW$288, DW_AT_accessibility(DW_ACCESS_public)
    4642                      .dwattr $C$DW$288, DW_AT_decl_file("C:/ti/C2000Ware_MotorControl_SDK_5_04_00_00/libraries/utilities/m
    4643                      .dwattr $C$DW$288, DW_AT_decl_line(0x2c)
    4644                      .dwattr $C$DW$288, DW_AT_decl_column(0x10)
    4645              
    4646              $C$DW$289       .dwtag  DW_TAG_member
    4647                      .dwattr $C$DW$289, DW_AT_type(*$C$DW$T$21)
    4648                      .dwattr $C$DW$289, DW_AT_name("Ta")
    4649                      .dwattr $C$DW$289, DW_AT_data_member_location[DW_OP_plus_uconst 0x4]
    4650                      .dwattr $C$DW$289, DW_AT_accessibility(DW_ACCESS_public)
    4651                      .dwattr $C$DW$289, DW_AT_decl_file("C:/ti/C2000Ware_MotorControl_SDK_5_04_00_00/libraries/utilities/m
    4652                      .dwattr $C$DW$289, DW_AT_decl_line(0x2d)
    4653                      .dwattr $C$DW$289, DW_AT_decl_column(0x10)
    4654              
    4655              $C$DW$290       .dwtag  DW_TAG_member
    4656                      .dwattr $C$DW$290, DW_AT_type(*$C$DW$T$21)
    4657                      .dwattr $C$DW$290, DW_AT_name("Tb")
    4658                      .dwattr $C$DW$290, DW_AT_data_member_location[DW_OP_plus_uconst 0x6]
    4659                      .dwattr $C$DW$290, DW_AT_accessibility(DW_ACCESS_public)
    4660                      .dwattr $C$DW$290, DW_AT_decl_file("C:/ti/C2000Ware_MotorControl_SDK_5_04_00_00/libraries/utilities/m
    4661                      .dwattr $C$DW$290, DW_AT_decl_line(0x2e)
    4662                      .dwattr $C$DW$290, DW_AT_decl_column(0x10)
    4663              
    4664              $C$DW$291       .dwtag  DW_TAG_member
TMS320C2000 Assembler PC v22.6.2 Wed Dec 10 14:45:02 2025

Copyright (c) 1996-2018 Texas Instruments Incorporated
fcl_foc_cpu_dm.asm                                                   PAGE   90

    4665                      .dwattr $C$DW$291, DW_AT_type(*$C$DW$T$21)
    4666                      .dwattr $C$DW$291, DW_AT_name("Tc")
    4667                      .dwattr $C$DW$291, DW_AT_data_member_location[DW_OP_plus_uconst 0x8]
    4668                      .dwattr $C$DW$291, DW_AT_accessibility(DW_ACCESS_public)
    4669                      .dwattr $C$DW$291, DW_AT_decl_file("C:/ti/C2000Ware_MotorControl_SDK_5_04_00_00/libraries/utilities/m
    4670                      .dwattr $C$DW$291, DW_AT_decl_line(0x2f)
    4671                      .dwattr $C$DW$291, DW_AT_decl_column(0x10)
    4672              
    4673              $C$DW$292       .dwtag  DW_TAG_member
    4674                      .dwattr $C$DW$292, DW_AT_type(*$C$DW$T$21)
    4675                      .dwattr $C$DW$292, DW_AT_name("tmp1")
    4676                      .dwattr $C$DW$292, DW_AT_data_member_location[DW_OP_plus_uconst 0xa]
    4677                      .dwattr $C$DW$292, DW_AT_accessibility(DW_ACCESS_public)
    4678                      .dwattr $C$DW$292, DW_AT_decl_file("C:/ti/C2000Ware_MotorControl_SDK_5_04_00_00/libraries/utilities/m
    4679                      .dwattr $C$DW$292, DW_AT_decl_line(0x30)
    4680                      .dwattr $C$DW$292, DW_AT_decl_column(0x10)
    4681              
    4682              $C$DW$293       .dwtag  DW_TAG_member
    4683                      .dwattr $C$DW$293, DW_AT_type(*$C$DW$T$21)
    4684                      .dwattr $C$DW$293, DW_AT_name("tmp2")
    4685                      .dwattr $C$DW$293, DW_AT_data_member_location[DW_OP_plus_uconst 0xc]
    4686                      .dwattr $C$DW$293, DW_AT_accessibility(DW_ACCESS_public)
    4687                      .dwattr $C$DW$293, DW_AT_decl_file("C:/ti/C2000Ware_MotorControl_SDK_5_04_00_00/libraries/utilities/m
    4688                      .dwattr $C$DW$293, DW_AT_decl_line(0x31)
    4689                      .dwattr $C$DW$293, DW_AT_decl_column(0x10)
    4690              
    4691              $C$DW$294       .dwtag  DW_TAG_member
    4692                      .dwattr $C$DW$294, DW_AT_type(*$C$DW$T$21)
    4693                      .dwattr $C$DW$294, DW_AT_name("tmp3")
    4694                      .dwattr $C$DW$294, DW_AT_data_member_location[DW_OP_plus_uconst 0xe]
    4695                      .dwattr $C$DW$294, DW_AT_accessibility(DW_ACCESS_public)
    4696                      .dwattr $C$DW$294, DW_AT_decl_file("C:/ti/C2000Ware_MotorControl_SDK_5_04_00_00/libraries/utilities/m
    4697                      .dwattr $C$DW$294, DW_AT_decl_line(0x32)
    4698                      .dwattr $C$DW$294, DW_AT_decl_column(0x10)
    4699              
    4700              $C$DW$295       .dwtag  DW_TAG_member
    4701                      .dwattr $C$DW$295, DW_AT_type(*$C$DW$T$30)
    4702                      .dwattr $C$DW$295, DW_AT_name("VecSector")
    4703                      .dwattr $C$DW$295, DW_AT_data_member_location[DW_OP_plus_uconst 0x10]
    4704                      .dwattr $C$DW$295, DW_AT_accessibility(DW_ACCESS_public)
    4705                      .dwattr $C$DW$295, DW_AT_decl_file("C:/ti/C2000Ware_MotorControl_SDK_5_04_00_00/libraries/utilities/m
    4706                      .dwattr $C$DW$295, DW_AT_decl_line(0x33)
    4707                      .dwattr $C$DW$295, DW_AT_decl_column(0x0b)
    4708              
    4709                      .dwattr $C$DW$T$31, DW_AT_decl_file("C:/ti/C2000Ware_MotorControl_SDK_5_04_00_00/libraries/utilities/
    4710                      .dwattr $C$DW$T$31, DW_AT_decl_line(0x2a)
    4711                      .dwattr $C$DW$T$31, DW_AT_decl_column(0x11)
    4712                      .dwendtag $C$DW$T$31
    4713              
    4714                      .dwendtag $C$DW$TU$31
    4715              
    4716              
    4717              $C$DW$TU$88     .dwtag  DW_TAG_type_unit
    4718                      .dwmtype  $C$DW$T$88
    4719              $C$DW$T$88      .dwtag  DW_TAG_typedef
TMS320C2000 Assembler PC v22.6.2 Wed Dec 10 14:45:02 2025

Copyright (c) 1996-2018 Texas Instruments Incorporated
fcl_foc_cpu_dm.asm                                                   PAGE   91

    4720                      .dwattr $C$DW$T$88, DW_AT_name("SVGEN")
    4721                      .dwattr $C$DW$T$88, DW_AT_type(*$C$DW$T$31)
    4722                      .dwattr $C$DW$T$88, DW_AT_decl_file("C:/ti/C2000Ware_MotorControl_SDK_5_04_00_00/libraries/utilities/
    4723                      .dwattr $C$DW$T$88, DW_AT_decl_line(0x34)
    4724                      .dwattr $C$DW$T$88, DW_AT_decl_column(0x04)
    4725              
    4726                      .dwendtag $C$DW$TU$88
    4727              
    4728              
    4729              $C$DW$TU$34     .dwtag  DW_TAG_type_unit
    4730                      .dwmtype  $C$DW$T$34
    4731              
    4732              $C$DW$T$34      .dwtag  DW_TAG_structure_type
    4733                      .dwattr $C$DW$T$34, DW_AT_byte_size(0x14)
    4734              $C$DW$296       .dwtag  DW_TAG_member
    4735                      .dwattr $C$DW$296, DW_AT_type(*$C$DW$T$21)
    4736                      .dwattr $C$DW$296, DW_AT_name("ElecTheta")
    4737                      .dwattr $C$DW$296, DW_AT_accessibility(DW_ACCESS_public)
    4738                      .dwattr $C$DW$296, DW_AT_decl_file("C:/ti/C2000Ware_MotorControl_SDK_5_04_00_00/libraries/utilities/m
    4739                      .dwattr $C$DW$296, DW_AT_decl_line(0x2b)
    4740                      .dwattr $C$DW$296, DW_AT_decl_column(0x12)
    4741              
    4742              $C$DW$297       .dwtag  DW_TAG_member
    4743                      .dwattr $C$DW$297, DW_AT_type(*$C$DW$T$24)
    4744                      .dwattr $C$DW$297, DW_AT_name("DirectionQep")
    4745                      .dwattr $C$DW$297, DW_AT_data_member_location[DW_OP_plus_uconst 0x2]
    4746                      .dwattr $C$DW$297, DW_AT_accessibility(DW_ACCESS_public)
    4747                      .dwattr $C$DW$297, DW_AT_decl_file("C:/ti/C2000Ware_MotorControl_SDK_5_04_00_00/libraries/utilities/m
    4748                      .dwattr $C$DW$297, DW_AT_decl_line(0x2c)
    4749                      .dwattr $C$DW$297, DW_AT_decl_column(0x11)
    4750              
    4751              $C$DW$298       .dwtag  DW_TAG_member
    4752                      .dwattr $C$DW$298, DW_AT_type(*$C$DW$T$21)
    4753                      .dwattr $C$DW$298, DW_AT_name("OldElecTheta")
    4754                      .dwattr $C$DW$298, DW_AT_data_member_location[DW_OP_plus_uconst 0x4]
    4755                      .dwattr $C$DW$298, DW_AT_accessibility(DW_ACCESS_public)
    4756                      .dwattr $C$DW$298, DW_AT_decl_file("C:/ti/C2000Ware_MotorControl_SDK_5_04_00_00/libraries/utilities/m
    4757                      .dwattr $C$DW$298, DW_AT_decl_line(0x2d)
    4758                      .dwattr $C$DW$298, DW_AT_decl_column(0x12)
    4759              
    4760              $C$DW$299       .dwtag  DW_TAG_member
    4761                      .dwattr $C$DW$299, DW_AT_type(*$C$DW$T$21)
    4762                      .dwattr $C$DW$299, DW_AT_name("Speed")
    4763                      .dwattr $C$DW$299, DW_AT_data_member_location[DW_OP_plus_uconst 0x6]
    4764                      .dwattr $C$DW$299, DW_AT_accessibility(DW_ACCESS_public)
    4765                      .dwattr $C$DW$299, DW_AT_decl_file("C:/ti/C2000Ware_MotorControl_SDK_5_04_00_00/libraries/utilities/m
    4766                      .dwattr $C$DW$299, DW_AT_decl_line(0x2e)
    4767                      .dwattr $C$DW$299, DW_AT_decl_column(0x12)
    4768              
    4769              $C$DW$300       .dwtag  DW_TAG_member
    4770                      .dwattr $C$DW$300, DW_AT_type(*$C$DW$T$24)
    4771                      .dwattr $C$DW$300, DW_AT_name("BaseRpm")
    4772                      .dwattr $C$DW$300, DW_AT_data_member_location[DW_OP_plus_uconst 0x8]
    4773                      .dwattr $C$DW$300, DW_AT_accessibility(DW_ACCESS_public)
    4774                      .dwattr $C$DW$300, DW_AT_decl_file("C:/ti/C2000Ware_MotorControl_SDK_5_04_00_00/libraries/utilities/m
TMS320C2000 Assembler PC v22.6.2 Wed Dec 10 14:45:02 2025

Copyright (c) 1996-2018 Texas Instruments Incorporated
fcl_foc_cpu_dm.asm                                                   PAGE   92

    4775                      .dwattr $C$DW$300, DW_AT_decl_line(0x2f)
    4776                      .dwattr $C$DW$300, DW_AT_decl_column(0x11)
    4777              
    4778              $C$DW$301       .dwtag  DW_TAG_member
    4779                      .dwattr $C$DW$301, DW_AT_type(*$C$DW$T$21)
    4780                      .dwattr $C$DW$301, DW_AT_name("K1")
    4781                      .dwattr $C$DW$301, DW_AT_data_member_location[DW_OP_plus_uconst 0xa]
    4782                      .dwattr $C$DW$301, DW_AT_accessibility(DW_ACCESS_public)
    4783                      .dwattr $C$DW$301, DW_AT_decl_file("C:/ti/C2000Ware_MotorControl_SDK_5_04_00_00/libraries/utilities/m
    4784                      .dwattr $C$DW$301, DW_AT_decl_line(0x30)
    4785                      .dwattr $C$DW$301, DW_AT_decl_column(0x12)
    4786              
    4787              $C$DW$302       .dwtag  DW_TAG_member
    4788                      .dwattr $C$DW$302, DW_AT_type(*$C$DW$T$21)
    4789                      .dwattr $C$DW$302, DW_AT_name("K2")
    4790                      .dwattr $C$DW$302, DW_AT_data_member_location[DW_OP_plus_uconst 0xc]
    4791                      .dwattr $C$DW$302, DW_AT_accessibility(DW_ACCESS_public)
    4792                      .dwattr $C$DW$302, DW_AT_decl_file("C:/ti/C2000Ware_MotorControl_SDK_5_04_00_00/libraries/utilities/m
    4793                      .dwattr $C$DW$302, DW_AT_decl_line(0x31)
    4794                      .dwattr $C$DW$302, DW_AT_decl_column(0x12)
    4795              
    4796              $C$DW$303       .dwtag  DW_TAG_member
    4797                      .dwattr $C$DW$303, DW_AT_type(*$C$DW$T$21)
    4798                      .dwattr $C$DW$303, DW_AT_name("K3")
    4799                      .dwattr $C$DW$303, DW_AT_data_member_location[DW_OP_plus_uconst 0xe]
    4800                      .dwattr $C$DW$303, DW_AT_accessibility(DW_ACCESS_public)
    4801                      .dwattr $C$DW$303, DW_AT_decl_file("C:/ti/C2000Ware_MotorControl_SDK_5_04_00_00/libraries/utilities/m
    4802                      .dwattr $C$DW$303, DW_AT_decl_line(0x32)
    4803                      .dwattr $C$DW$303, DW_AT_decl_column(0x12)
    4804              
    4805              $C$DW$304       .dwtag  DW_TAG_member
    4806                      .dwattr $C$DW$304, DW_AT_type(*$C$DW$T$33)
    4807                      .dwattr $C$DW$304, DW_AT_name("SpeedRpm")
    4808                      .dwattr $C$DW$304, DW_AT_data_member_location[DW_OP_plus_uconst 0x10]
    4809                      .dwattr $C$DW$304, DW_AT_accessibility(DW_ACCESS_public)
    4810                      .dwattr $C$DW$304, DW_AT_decl_file("C:/ti/C2000Ware_MotorControl_SDK_5_04_00_00/libraries/utilities/m
    4811                      .dwattr $C$DW$304, DW_AT_decl_line(0x33)
    4812                      .dwattr $C$DW$304, DW_AT_decl_column(0x10)
    4813              
    4814              $C$DW$305       .dwtag  DW_TAG_member
    4815                      .dwattr $C$DW$305, DW_AT_type(*$C$DW$T$21)
    4816                      .dwattr $C$DW$305, DW_AT_name("Tmp")
    4817                      .dwattr $C$DW$305, DW_AT_data_member_location[DW_OP_plus_uconst 0x12]
    4818                      .dwattr $C$DW$305, DW_AT_accessibility(DW_ACCESS_public)
    4819                      .dwattr $C$DW$305, DW_AT_decl_file("C:/ti/C2000Ware_MotorControl_SDK_5_04_00_00/libraries/utilities/m
    4820                      .dwattr $C$DW$305, DW_AT_decl_line(0x34)
    4821                      .dwattr $C$DW$305, DW_AT_decl_column(0x12)
    4822              
    4823                      .dwattr $C$DW$T$34, DW_AT_decl_file("C:/ti/C2000Ware_MotorControl_SDK_5_04_00_00/libraries/utilities/
    4824                      .dwattr $C$DW$T$34, DW_AT_decl_line(0x2a)
    4825                      .dwattr $C$DW$T$34, DW_AT_decl_column(0x10)
    4826                      .dwendtag $C$DW$T$34
    4827              
    4828                      .dwendtag $C$DW$TU$34
    4829              
TMS320C2000 Assembler PC v22.6.2 Wed Dec 10 14:45:02 2025

Copyright (c) 1996-2018 Texas Instruments Incorporated
fcl_foc_cpu_dm.asm                                                   PAGE   93

    4830              
    4831              $C$DW$TU$89     .dwtag  DW_TAG_type_unit
    4832                      .dwmtype  $C$DW$T$89
    4833              $C$DW$T$89      .dwtag  DW_TAG_typedef
    4834                      .dwattr $C$DW$T$89, DW_AT_name("SPEED_MEAS_QEP")
    4835                      .dwattr $C$DW$T$89, DW_AT_type(*$C$DW$T$34)
    4836                      .dwattr $C$DW$T$89, DW_AT_decl_file("C:/ti/C2000Ware_MotorControl_SDK_5_04_00_00/libraries/utilities/
    4837                      .dwattr $C$DW$T$89, DW_AT_decl_line(0x35)
    4838                      .dwattr $C$DW$T$89, DW_AT_decl_column(0x0a)
    4839              
    4840                      .dwendtag $C$DW$TU$89
    4841              
    4842              
    4843              $C$DW$TU$35     .dwtag  DW_TAG_type_unit
    4844                      .dwmtype  $C$DW$T$35
    4845              
    4846              $C$DW$T$35      .dwtag  DW_TAG_structure_type
    4847                      .dwattr $C$DW$T$35, DW_AT_byte_size(0x0a)
    4848              $C$DW$306       .dwtag  DW_TAG_member
    4849                      .dwattr $C$DW$306, DW_AT_type(*$C$DW$T$21)
    4850                      .dwattr $C$DW$306, DW_AT_name("Ref")
    4851                      .dwattr $C$DW$306, DW_AT_accessibility(DW_ACCESS_public)
    4852                      .dwattr $C$DW$306, DW_AT_decl_file("C:/ti/C2000Ware_MotorControl_SDK_5_04_00_00/libraries/utilities/m
    4853                      .dwattr $C$DW$306, DW_AT_decl_line(0x2a)
    4854                      .dwattr $C$DW$306, DW_AT_decl_column(0x1e)
    4855              
    4856              $C$DW$307       .dwtag  DW_TAG_member
    4857                      .dwattr $C$DW$307, DW_AT_type(*$C$DW$T$21)
    4858                      .dwattr $C$DW$307, DW_AT_name("Fbk")
    4859                      .dwattr $C$DW$307, DW_AT_data_member_location[DW_OP_plus_uconst 0x2]
    4860                      .dwattr $C$DW$307, DW_AT_accessibility(DW_ACCESS_public)
    4861                      .dwattr $C$DW$307, DW_AT_decl_file("C:/ti/C2000Ware_MotorControl_SDK_5_04_00_00/libraries/utilities/m
    4862                      .dwattr $C$DW$307, DW_AT_decl_line(0x2b)
    4863                      .dwattr $C$DW$307, DW_AT_decl_column(0x12)
    4864              
    4865              $C$DW$308       .dwtag  DW_TAG_member
    4866                      .dwattr $C$DW$308, DW_AT_type(*$C$DW$T$21)
    4867                      .dwattr $C$DW$308, DW_AT_name("Out")
    4868                      .dwattr $C$DW$308, DW_AT_data_member_location[DW_OP_plus_uconst 0x4]
    4869                      .dwattr $C$DW$308, DW_AT_accessibility(DW_ACCESS_public)
    4870                      .dwattr $C$DW$308, DW_AT_decl_file("C:/ti/C2000Ware_MotorControl_SDK_5_04_00_00/libraries/utilities/m
    4871                      .dwattr $C$DW$308, DW_AT_decl_line(0x2c)
    4872                      .dwattr $C$DW$308, DW_AT_decl_column(0x12)
    4873              
    4874              $C$DW$309       .dwtag  DW_TAG_member
    4875                      .dwattr $C$DW$309, DW_AT_type(*$C$DW$T$21)
    4876                      .dwattr $C$DW$309, DW_AT_name("c1")
    4877                      .dwattr $C$DW$309, DW_AT_data_member_location[DW_OP_plus_uconst 0x6]
    4878                      .dwattr $C$DW$309, DW_AT_accessibility(DW_ACCESS_public)
    4879                      .dwattr $C$DW$309, DW_AT_decl_file("C:/ti/C2000Ware_MotorControl_SDK_5_04_00_00/libraries/utilities/m
    4880                      .dwattr $C$DW$309, DW_AT_decl_line(0x2d)
    4881                      .dwattr $C$DW$309, DW_AT_decl_column(0x12)
    4882              
    4883              $C$DW$310       .dwtag  DW_TAG_member
    4884                      .dwattr $C$DW$310, DW_AT_type(*$C$DW$T$21)
TMS320C2000 Assembler PC v22.6.2 Wed Dec 10 14:45:02 2025

Copyright (c) 1996-2018 Texas Instruments Incorporated
fcl_foc_cpu_dm.asm                                                   PAGE   94

    4885                      .dwattr $C$DW$310, DW_AT_name("c2")
    4886                      .dwattr $C$DW$310, DW_AT_data_member_location[DW_OP_plus_uconst 0x8]
    4887                      .dwattr $C$DW$310, DW_AT_accessibility(DW_ACCESS_public)
    4888                      .dwattr $C$DW$310, DW_AT_decl_file("C:/ti/C2000Ware_MotorControl_SDK_5_04_00_00/libraries/utilities/m
    4889                      .dwattr $C$DW$310, DW_AT_decl_line(0x2e)
    4890                      .dwattr $C$DW$310, DW_AT_decl_column(0x12)
    4891              
    4892                      .dwattr $C$DW$T$35, DW_AT_decl_file("C:/ti/C2000Ware_MotorControl_SDK_5_04_00_00/libraries/utilities/
    4893                      .dwattr $C$DW$T$35, DW_AT_decl_line(0x2a)
    4894                      .dwattr $C$DW$T$35, DW_AT_decl_column(0x10)
    4895                      .dwendtag $C$DW$T$35
    4896              
    4897                      .dwendtag $C$DW$TU$35
    4898              
    4899              
    4900              $C$DW$TU$38     .dwtag  DW_TAG_type_unit
    4901                      .dwmtype  $C$DW$T$38
    4902              $C$DW$T$38      .dwtag  DW_TAG_typedef
    4903                      .dwattr $C$DW$T$38, DW_AT_name("PID_TERMINALS")
    4904                      .dwattr $C$DW$T$38, DW_AT_type(*$C$DW$T$35)
    4905                      .dwattr $C$DW$T$38, DW_AT_decl_file("C:/ti/C2000Ware_MotorControl_SDK_5_04_00_00/libraries/utilities/
    4906                      .dwattr $C$DW$T$38, DW_AT_decl_line(0x2f)
    4907                      .dwattr $C$DW$T$38, DW_AT_decl_column(0x07)
    4908              
    4909                      .dwendtag $C$DW$TU$38
    4910              
    4911              
    4912              $C$DW$TU$36     .dwtag  DW_TAG_type_unit
    4913                      .dwmtype  $C$DW$T$36
    4914              
    4915              $C$DW$T$36      .dwtag  DW_TAG_structure_type
    4916                      .dwattr $C$DW$T$36, DW_AT_byte_size(0x0e)
    4917              $C$DW$311       .dwtag  DW_TAG_member
    4918                      .dwattr $C$DW$311, DW_AT_type(*$C$DW$T$21)
    4919                      .dwattr $C$DW$311, DW_AT_name("Kr")
    4920                      .dwattr $C$DW$311, DW_AT_accessibility(DW_ACCESS_public)
    4921                      .dwattr $C$DW$311, DW_AT_decl_file("C:/ti/C2000Ware_MotorControl_SDK_5_04_00_00/libraries/utilities/m
    4922                      .dwattr $C$DW$311, DW_AT_decl_line(0x32)
    4923                      .dwattr $C$DW$311, DW_AT_decl_column(0x1e)
    4924              
    4925              $C$DW$312       .dwtag  DW_TAG_member
    4926                      .dwattr $C$DW$312, DW_AT_type(*$C$DW$T$21)
    4927                      .dwattr $C$DW$312, DW_AT_name("Kp")
    4928                      .dwattr $C$DW$312, DW_AT_data_member_location[DW_OP_plus_uconst 0x2]
    4929                      .dwattr $C$DW$312, DW_AT_accessibility(DW_ACCESS_public)
    4930                      .dwattr $C$DW$312, DW_AT_decl_file("C:/ti/C2000Ware_MotorControl_SDK_5_04_00_00/libraries/utilities/m
    4931                      .dwattr $C$DW$312, DW_AT_decl_line(0x33)
    4932                      .dwattr $C$DW$312, DW_AT_decl_column(0x12)
    4933              
    4934              $C$DW$313       .dwtag  DW_TAG_member
    4935                      .dwattr $C$DW$313, DW_AT_type(*$C$DW$T$21)
    4936                      .dwattr $C$DW$313, DW_AT_name("Ki")
    4937                      .dwattr $C$DW$313, DW_AT_data_member_location[DW_OP_plus_uconst 0x4]
    4938                      .dwattr $C$DW$313, DW_AT_accessibility(DW_ACCESS_public)
    4939                      .dwattr $C$DW$313, DW_AT_decl_file("C:/ti/C2000Ware_MotorControl_SDK_5_04_00_00/libraries/utilities/m
TMS320C2000 Assembler PC v22.6.2 Wed Dec 10 14:45:02 2025

Copyright (c) 1996-2018 Texas Instruments Incorporated
fcl_foc_cpu_dm.asm                                                   PAGE   95

    4940                      .dwattr $C$DW$313, DW_AT_decl_line(0x34)
    4941                      .dwattr $C$DW$313, DW_AT_decl_column(0x12)
    4942              
    4943              $C$DW$314       .dwtag  DW_TAG_member
    4944                      .dwattr $C$DW$314, DW_AT_type(*$C$DW$T$21)
    4945                      .dwattr $C$DW$314, DW_AT_name("Kd")
    4946                      .dwattr $C$DW$314, DW_AT_data_member_location[DW_OP_plus_uconst 0x6]
    4947                      .dwattr $C$DW$314, DW_AT_accessibility(DW_ACCESS_public)
    4948                      .dwattr $C$DW$314, DW_AT_decl_file("C:/ti/C2000Ware_MotorControl_SDK_5_04_00_00/libraries/utilities/m
    4949                      .dwattr $C$DW$314, DW_AT_decl_line(0x35)
    4950                      .dwattr $C$DW$314, DW_AT_decl_column(0x12)
    4951              
    4952              $C$DW$315       .dwtag  DW_TAG_member
    4953                      .dwattr $C$DW$315, DW_AT_type(*$C$DW$T$21)
    4954                      .dwattr $C$DW$315, DW_AT_name("Km")
    4955                      .dwattr $C$DW$315, DW_AT_data_member_location[DW_OP_plus_uconst 0x8]
    4956                      .dwattr $C$DW$315, DW_AT_accessibility(DW_ACCESS_public)
    4957                      .dwattr $C$DW$315, DW_AT_decl_file("C:/ti/C2000Ware_MotorControl_SDK_5_04_00_00/libraries/utilities/m
    4958                      .dwattr $C$DW$315, DW_AT_decl_line(0x36)
    4959                      .dwattr $C$DW$315, DW_AT_decl_column(0x12)
    4960              
    4961              $C$DW$316       .dwtag  DW_TAG_member
    4962                      .dwattr $C$DW$316, DW_AT_type(*$C$DW$T$21)
    4963                      .dwattr $C$DW$316, DW_AT_name("Umax")
    4964                      .dwattr $C$DW$316, DW_AT_data_member_location[DW_OP_plus_uconst 0xa]
    4965                      .dwattr $C$DW$316, DW_AT_accessibility(DW_ACCESS_public)
    4966                      .dwattr $C$DW$316, DW_AT_decl_file("C:/ti/C2000Ware_MotorControl_SDK_5_04_00_00/libraries/utilities/m
    4967                      .dwattr $C$DW$316, DW_AT_decl_line(0x37)
    4968                      .dwattr $C$DW$316, DW_AT_decl_column(0x12)
    4969              
    4970              $C$DW$317       .dwtag  DW_TAG_member
    4971                      .dwattr $C$DW$317, DW_AT_type(*$C$DW$T$21)
    4972                      .dwattr $C$DW$317, DW_AT_name("Umin")
    4973                      .dwattr $C$DW$317, DW_AT_data_member_location[DW_OP_plus_uconst 0xc]
    4974                      .dwattr $C$DW$317, DW_AT_accessibility(DW_ACCESS_public)
    4975                      .dwattr $C$DW$317, DW_AT_decl_file("C:/ti/C2000Ware_MotorControl_SDK_5_04_00_00/libraries/utilities/m
    4976                      .dwattr $C$DW$317, DW_AT_decl_line(0x38)
    4977                      .dwattr $C$DW$317, DW_AT_decl_column(0x12)
    4978              
    4979                      .dwattr $C$DW$T$36, DW_AT_decl_file("C:/ti/C2000Ware_MotorControl_SDK_5_04_00_00/libraries/utilities/
    4980                      .dwattr $C$DW$T$36, DW_AT_decl_line(0x32)
    4981                      .dwattr $C$DW$T$36, DW_AT_decl_column(0x10)
    4982                      .dwendtag $C$DW$T$36
    4983              
    4984                      .dwendtag $C$DW$TU$36
    4985              
    4986              
    4987              $C$DW$TU$39     .dwtag  DW_TAG_type_unit
    4988                      .dwmtype  $C$DW$T$39
    4989              $C$DW$T$39      .dwtag  DW_TAG_typedef
    4990                      .dwattr $C$DW$T$39, DW_AT_name("PID_PARAMETERS")
    4991                      .dwattr $C$DW$T$39, DW_AT_type(*$C$DW$T$36)
    4992                      .dwattr $C$DW$T$39, DW_AT_decl_file("C:/ti/C2000Ware_MotorControl_SDK_5_04_00_00/libraries/utilities/
    4993                      .dwattr $C$DW$T$39, DW_AT_decl_line(0x39)
    4994                      .dwattr $C$DW$T$39, DW_AT_decl_column(0x07)
TMS320C2000 Assembler PC v22.6.2 Wed Dec 10 14:45:02 2025

Copyright (c) 1996-2018 Texas Instruments Incorporated
fcl_foc_cpu_dm.asm                                                   PAGE   96

    4995              
    4996                      .dwendtag $C$DW$TU$39
    4997              
    4998              
    4999              $C$DW$TU$37     .dwtag  DW_TAG_type_unit
    5000                      .dwmtype  $C$DW$T$37
    5001              
    5002              $C$DW$T$37      .dwtag  DW_TAG_structure_type
    5003                      .dwattr $C$DW$T$37, DW_AT_byte_size(0x10)
    5004              $C$DW$318       .dwtag  DW_TAG_member
    5005                      .dwattr $C$DW$318, DW_AT_type(*$C$DW$T$21)
    5006                      .dwattr $C$DW$318, DW_AT_name("up")
    5007                      .dwattr $C$DW$318, DW_AT_accessibility(DW_ACCESS_public)
    5008                      .dwattr $C$DW$318, DW_AT_decl_file("C:/ti/C2000Ware_MotorControl_SDK_5_04_00_00/libraries/utilities/m
    5009                      .dwattr $C$DW$318, DW_AT_decl_line(0x3b)
    5010                      .dwattr $C$DW$318, DW_AT_decl_column(0x1e)
    5011              
    5012              $C$DW$319       .dwtag  DW_TAG_member
    5013                      .dwattr $C$DW$319, DW_AT_type(*$C$DW$T$21)
    5014                      .dwattr $C$DW$319, DW_AT_name("ui")
    5015                      .dwattr $C$DW$319, DW_AT_data_member_location[DW_OP_plus_uconst 0x2]
    5016                      .dwattr $C$DW$319, DW_AT_accessibility(DW_ACCESS_public)
    5017                      .dwattr $C$DW$319, DW_AT_decl_file("C:/ti/C2000Ware_MotorControl_SDK_5_04_00_00/libraries/utilities/m
    5018                      .dwattr $C$DW$319, DW_AT_decl_line(0x3c)
    5019                      .dwattr $C$DW$319, DW_AT_decl_column(0x12)
    5020              
    5021              $C$DW$320       .dwtag  DW_TAG_member
    5022                      .dwattr $C$DW$320, DW_AT_type(*$C$DW$T$21)
    5023                      .dwattr $C$DW$320, DW_AT_name("ud")
    5024                      .dwattr $C$DW$320, DW_AT_data_member_location[DW_OP_plus_uconst 0x4]
    5025                      .dwattr $C$DW$320, DW_AT_accessibility(DW_ACCESS_public)
    5026                      .dwattr $C$DW$320, DW_AT_decl_file("C:/ti/C2000Ware_MotorControl_SDK_5_04_00_00/libraries/utilities/m
    5027                      .dwattr $C$DW$320, DW_AT_decl_line(0x3d)
    5028                      .dwattr $C$DW$320, DW_AT_decl_column(0x12)
    5029              
    5030              $C$DW$321       .dwtag  DW_TAG_member
    5031                      .dwattr $C$DW$321, DW_AT_type(*$C$DW$T$21)
    5032                      .dwattr $C$DW$321, DW_AT_name("v1")
    5033                      .dwattr $C$DW$321, DW_AT_data_member_location[DW_OP_plus_uconst 0x6]
    5034                      .dwattr $C$DW$321, DW_AT_accessibility(DW_ACCESS_public)
    5035                      .dwattr $C$DW$321, DW_AT_decl_file("C:/ti/C2000Ware_MotorControl_SDK_5_04_00_00/libraries/utilities/m
    5036                      .dwattr $C$DW$321, DW_AT_decl_line(0x3e)
    5037                      .dwattr $C$DW$321, DW_AT_decl_column(0x12)
    5038              
    5039              $C$DW$322       .dwtag  DW_TAG_member
    5040                      .dwattr $C$DW$322, DW_AT_type(*$C$DW$T$21)
    5041                      .dwattr $C$DW$322, DW_AT_name("i1")
    5042                      .dwattr $C$DW$322, DW_AT_data_member_location[DW_OP_plus_uconst 0x8]
    5043                      .dwattr $C$DW$322, DW_AT_accessibility(DW_ACCESS_public)
    5044                      .dwattr $C$DW$322, DW_AT_decl_file("C:/ti/C2000Ware_MotorControl_SDK_5_04_00_00/libraries/utilities/m
    5045                      .dwattr $C$DW$322, DW_AT_decl_line(0x3f)
    5046                      .dwattr $C$DW$322, DW_AT_decl_column(0x12)
    5047              
    5048              $C$DW$323       .dwtag  DW_TAG_member
    5049                      .dwattr $C$DW$323, DW_AT_type(*$C$DW$T$21)
TMS320C2000 Assembler PC v22.6.2 Wed Dec 10 14:45:02 2025

Copyright (c) 1996-2018 Texas Instruments Incorporated
fcl_foc_cpu_dm.asm                                                   PAGE   97

    5050                      .dwattr $C$DW$323, DW_AT_name("d1")
    5051                      .dwattr $C$DW$323, DW_AT_data_member_location[DW_OP_plus_uconst 0xa]
    5052                      .dwattr $C$DW$323, DW_AT_accessibility(DW_ACCESS_public)
    5053                      .dwattr $C$DW$323, DW_AT_decl_file("C:/ti/C2000Ware_MotorControl_SDK_5_04_00_00/libraries/utilities/m
    5054                      .dwattr $C$DW$323, DW_AT_decl_line(0x40)
    5055                      .dwattr $C$DW$323, DW_AT_decl_column(0x12)
    5056              
    5057              $C$DW$324       .dwtag  DW_TAG_member
    5058                      .dwattr $C$DW$324, DW_AT_type(*$C$DW$T$21)
    5059                      .dwattr $C$DW$324, DW_AT_name("d2")
    5060                      .dwattr $C$DW$324, DW_AT_data_member_location[DW_OP_plus_uconst 0xc]
    5061                      .dwattr $C$DW$324, DW_AT_accessibility(DW_ACCESS_public)
    5062                      .dwattr $C$DW$324, DW_AT_decl_file("C:/ti/C2000Ware_MotorControl_SDK_5_04_00_00/libraries/utilities/m
    5063                      .dwattr $C$DW$324, DW_AT_decl_line(0x41)
    5064                      .dwattr $C$DW$324, DW_AT_decl_column(0x12)
    5065              
    5066              $C$DW$325       .dwtag  DW_TAG_member
    5067                      .dwattr $C$DW$325, DW_AT_type(*$C$DW$T$21)
    5068                      .dwattr $C$DW$325, DW_AT_name("w1")
    5069                      .dwattr $C$DW$325, DW_AT_data_member_location[DW_OP_plus_uconst 0xe]
    5070                      .dwattr $C$DW$325, DW_AT_accessibility(DW_ACCESS_public)
    5071                      .dwattr $C$DW$325, DW_AT_decl_file("C:/ti/C2000Ware_MotorControl_SDK_5_04_00_00/libraries/utilities/m
    5072                      .dwattr $C$DW$325, DW_AT_decl_line(0x42)
    5073                      .dwattr $C$DW$325, DW_AT_decl_column(0x12)
    5074              
    5075                      .dwattr $C$DW$T$37, DW_AT_decl_file("C:/ti/C2000Ware_MotorControl_SDK_5_04_00_00/libraries/utilities/
    5076                      .dwattr $C$DW$T$37, DW_AT_decl_line(0x3b)
    5077                      .dwattr $C$DW$T$37, DW_AT_decl_column(0x10)
    5078                      .dwendtag $C$DW$T$37
    5079              
    5080                      .dwendtag $C$DW$TU$37
    5081              
    5082              
    5083              $C$DW$TU$40     .dwtag  DW_TAG_type_unit
    5084                      .dwmtype  $C$DW$T$40
    5085              $C$DW$T$40      .dwtag  DW_TAG_typedef
    5086                      .dwattr $C$DW$T$40, DW_AT_name("PID_DATA")
    5087                      .dwattr $C$DW$T$40, DW_AT_type(*$C$DW$T$37)
    5088                      .dwattr $C$DW$T$40, DW_AT_decl_file("C:/ti/C2000Ware_MotorControl_SDK_5_04_00_00/libraries/utilities/
    5089                      .dwattr $C$DW$T$40, DW_AT_decl_line(0x43)
    5090                      .dwattr $C$DW$T$40, DW_AT_decl_column(0x07)
    5091              
    5092                      .dwendtag $C$DW$TU$40
    5093              
    5094              
    5095              $C$DW$TU$41     .dwtag  DW_TAG_type_unit
    5096                      .dwmtype  $C$DW$T$41
    5097              
    5098              $C$DW$T$41      .dwtag  DW_TAG_structure_type
    5099                      .dwattr $C$DW$T$41, DW_AT_byte_size(0x28)
    5100              $C$DW$326       .dwtag  DW_TAG_member
    5101                      .dwattr $C$DW$326, DW_AT_type(*$C$DW$T$38)
    5102                      .dwattr $C$DW$326, DW_AT_name("term")
    5103                      .dwattr $C$DW$326, DW_AT_accessibility(DW_ACCESS_public)
    5104                      .dwattr $C$DW$326, DW_AT_decl_file("C:/ti/C2000Ware_MotorControl_SDK_5_04_00_00/libraries/utilities/m
TMS320C2000 Assembler PC v22.6.2 Wed Dec 10 14:45:02 2025

Copyright (c) 1996-2018 Texas Instruments Incorporated
fcl_foc_cpu_dm.asm                                                   PAGE   98

    5105                      .dwattr $C$DW$326, DW_AT_decl_line(0x46)
    5106                      .dwattr $C$DW$326, DW_AT_decl_column(0x21)
    5107              
    5108              $C$DW$327       .dwtag  DW_TAG_member
    5109                      .dwattr $C$DW$327, DW_AT_type(*$C$DW$T$39)
    5110                      .dwattr $C$DW$327, DW_AT_name("param")
    5111                      .dwattr $C$DW$327, DW_AT_data_member_location[DW_OP_plus_uconst 0xa]
    5112                      .dwattr $C$DW$327, DW_AT_accessibility(DW_ACCESS_public)
    5113                      .dwattr $C$DW$327, DW_AT_decl_file("C:/ti/C2000Ware_MotorControl_SDK_5_04_00_00/libraries/utilities/m
    5114                      .dwattr $C$DW$327, DW_AT_decl_line(0x47)
    5115                      .dwattr $C$DW$327, DW_AT_decl_column(0x16)
    5116              
    5117              $C$DW$328       .dwtag  DW_TAG_member
    5118                      .dwattr $C$DW$328, DW_AT_type(*$C$DW$T$40)
    5119                      .dwattr $C$DW$328, DW_AT_name("data")
    5120                      .dwattr $C$DW$328, DW_AT_data_member_location[DW_OP_plus_uconst 0x18]
    5121                      .dwattr $C$DW$328, DW_AT_accessibility(DW_ACCESS_public)
    5122                      .dwattr $C$DW$328, DW_AT_decl_file("C:/ti/C2000Ware_MotorControl_SDK_5_04_00_00/libraries/utilities/m
    5123                      .dwattr $C$DW$328, DW_AT_decl_line(0x48)
    5124                      .dwattr $C$DW$328, DW_AT_decl_column(0x11)
    5125              
    5126                      .dwattr $C$DW$T$41, DW_AT_decl_file("C:/ti/C2000Ware_MotorControl_SDK_5_04_00_00/libraries/utilities/
    5127                      .dwattr $C$DW$T$41, DW_AT_decl_line(0x46)
    5128                      .dwattr $C$DW$T$41, DW_AT_decl_column(0x10)
    5129                      .dwendtag $C$DW$T$41
    5130              
    5131                      .dwendtag $C$DW$TU$41
    5132              
    5133              
    5134              $C$DW$TU$91     .dwtag  DW_TAG_type_unit
    5135                      .dwmtype  $C$DW$T$91
    5136              $C$DW$T$91      .dwtag  DW_TAG_typedef
    5137                      .dwattr $C$DW$T$91, DW_AT_name("PID_CONTROLLER")
    5138                      .dwattr $C$DW$T$91, DW_AT_type(*$C$DW$T$41)
    5139                      .dwattr $C$DW$T$91, DW_AT_decl_file("C:/ti/C2000Ware_MotorControl_SDK_5_04_00_00/libraries/utilities/
    5140                      .dwattr $C$DW$T$91, DW_AT_decl_line(0x49)
    5141                      .dwattr $C$DW$T$91, DW_AT_decl_column(0x07)
    5142              
    5143                      .dwendtag $C$DW$TU$91
    5144              
    5145              
    5146              $C$DW$TU$42     .dwtag  DW_TAG_type_unit
    5147                      .dwmtype  $C$DW$T$42
    5148              
    5149              $C$DW$T$42      .dwtag  DW_TAG_structure_type
    5150                      .dwattr $C$DW$T$42, DW_AT_byte_size(0x18)
    5151              $C$DW$329       .dwtag  DW_TAG_member
    5152                      .dwattr $C$DW$329, DW_AT_type(*$C$DW$T$21)
    5153                      .dwattr $C$DW$329, DW_AT_name("Ref")
    5154                      .dwattr $C$DW$329, DW_AT_accessibility(DW_ACCESS_public)
    5155                      .dwattr $C$DW$329, DW_AT_decl_file("C:/ti/C2000Ware_MotorControl_SDK_5_04_00_00/libraries/utilities/m
    5156                      .dwattr $C$DW$329, DW_AT_decl_line(0x2a)
    5157                      .dwattr $C$DW$329, DW_AT_decl_column(0x1e)
    5158              
    5159              $C$DW$330       .dwtag  DW_TAG_member
TMS320C2000 Assembler PC v22.6.2 Wed Dec 10 14:45:02 2025

Copyright (c) 1996-2018 Texas Instruments Incorporated
fcl_foc_cpu_dm.asm                                                   PAGE   99

    5160                      .dwattr $C$DW$330, DW_AT_type(*$C$DW$T$21)
    5161                      .dwattr $C$DW$330, DW_AT_name("Fbk")
    5162                      .dwattr $C$DW$330, DW_AT_data_member_location[DW_OP_plus_uconst 0x2]
    5163                      .dwattr $C$DW$330, DW_AT_accessibility(DW_ACCESS_public)
    5164                      .dwattr $C$DW$330, DW_AT_decl_file("C:/ti/C2000Ware_MotorControl_SDK_5_04_00_00/libraries/utilities/m
    5165                      .dwattr $C$DW$330, DW_AT_decl_line(0x2b)
    5166                      .dwattr $C$DW$330, DW_AT_decl_column(0x12)
    5167              
    5168              $C$DW$331       .dwtag  DW_TAG_member
    5169                      .dwattr $C$DW$331, DW_AT_type(*$C$DW$T$21)
    5170                      .dwattr $C$DW$331, DW_AT_name("Out")
    5171                      .dwattr $C$DW$331, DW_AT_data_member_location[DW_OP_plus_uconst 0x4]
    5172                      .dwattr $C$DW$331, DW_AT_accessibility(DW_ACCESS_public)
    5173                      .dwattr $C$DW$331, DW_AT_decl_file("C:/ti/C2000Ware_MotorControl_SDK_5_04_00_00/libraries/utilities/m
    5174                      .dwattr $C$DW$331, DW_AT_decl_line(0x2c)
    5175                      .dwattr $C$DW$331, DW_AT_decl_column(0x12)
    5176              
    5177              $C$DW$332       .dwtag  DW_TAG_member
    5178                      .dwattr $C$DW$332, DW_AT_type(*$C$DW$T$21)
    5179                      .dwattr $C$DW$332, DW_AT_name("Kp")
    5180                      .dwattr $C$DW$332, DW_AT_data_member_location[DW_OP_plus_uconst 0x6]
    5181                      .dwattr $C$DW$332, DW_AT_accessibility(DW_ACCESS_public)
    5182                      .dwattr $C$DW$332, DW_AT_decl_file("C:/ti/C2000Ware_MotorControl_SDK_5_04_00_00/libraries/utilities/m
    5183                      .dwattr $C$DW$332, DW_AT_decl_line(0x2d)
    5184                      .dwattr $C$DW$332, DW_AT_decl_column(0x12)
    5185              
    5186              $C$DW$333       .dwtag  DW_TAG_member
    5187                      .dwattr $C$DW$333, DW_AT_type(*$C$DW$T$21)
    5188                      .dwattr $C$DW$333, DW_AT_name("Ki")
    5189                      .dwattr $C$DW$333, DW_AT_data_member_location[DW_OP_plus_uconst 0x8]
    5190                      .dwattr $C$DW$333, DW_AT_accessibility(DW_ACCESS_public)
    5191                      .dwattr $C$DW$333, DW_AT_decl_file("C:/ti/C2000Ware_MotorControl_SDK_5_04_00_00/libraries/utilities/m
    5192                      .dwattr $C$DW$333, DW_AT_decl_line(0x2e)
    5193                      .dwattr $C$DW$333, DW_AT_decl_column(0x12)
    5194              
    5195              $C$DW$334       .dwtag  DW_TAG_member
    5196                      .dwattr $C$DW$334, DW_AT_type(*$C$DW$T$21)
    5197                      .dwattr $C$DW$334, DW_AT_name("Umax")
    5198                      .dwattr $C$DW$334, DW_AT_data_member_location[DW_OP_plus_uconst 0xa]
    5199                      .dwattr $C$DW$334, DW_AT_accessibility(DW_ACCESS_public)
    5200                      .dwattr $C$DW$334, DW_AT_decl_file("C:/ti/C2000Ware_MotorControl_SDK_5_04_00_00/libraries/utilities/m
    5201                      .dwattr $C$DW$334, DW_AT_decl_line(0x2f)
    5202                      .dwattr $C$DW$334, DW_AT_decl_column(0x12)
    5203              
    5204              $C$DW$335       .dwtag  DW_TAG_member
    5205                      .dwattr $C$DW$335, DW_AT_type(*$C$DW$T$21)
    5206                      .dwattr $C$DW$335, DW_AT_name("Umin")
    5207                      .dwattr $C$DW$335, DW_AT_data_member_location[DW_OP_plus_uconst 0xc]
    5208                      .dwattr $C$DW$335, DW_AT_accessibility(DW_ACCESS_public)
    5209                      .dwattr $C$DW$335, DW_AT_decl_file("C:/ti/C2000Ware_MotorControl_SDK_5_04_00_00/libraries/utilities/m
    5210                      .dwattr $C$DW$335, DW_AT_decl_line(0x30)
    5211                      .dwattr $C$DW$335, DW_AT_decl_column(0x12)
    5212              
    5213              $C$DW$336       .dwtag  DW_TAG_member
    5214                      .dwattr $C$DW$336, DW_AT_type(*$C$DW$T$21)
TMS320C2000 Assembler PC v22.6.2 Wed Dec 10 14:45:02 2025

Copyright (c) 1996-2018 Texas Instruments Incorporated
fcl_foc_cpu_dm.asm                                                   PAGE  100

    5215                      .dwattr $C$DW$336, DW_AT_name("up")
    5216                      .dwattr $C$DW$336, DW_AT_data_member_location[DW_OP_plus_uconst 0xe]
    5217                      .dwattr $C$DW$336, DW_AT_accessibility(DW_ACCESS_public)
    5218                      .dwattr $C$DW$336, DW_AT_decl_file("C:/ti/C2000Ware_MotorControl_SDK_5_04_00_00/libraries/utilities/m
    5219                      .dwattr $C$DW$336, DW_AT_decl_line(0x31)
    5220                      .dwattr $C$DW$336, DW_AT_decl_column(0x12)
    5221              
    5222              $C$DW$337       .dwtag  DW_TAG_member
    5223                      .dwattr $C$DW$337, DW_AT_type(*$C$DW$T$21)
    5224                      .dwattr $C$DW$337, DW_AT_name("ui")
    5225                      .dwattr $C$DW$337, DW_AT_data_member_location[DW_OP_plus_uconst 0x10]
    5226                      .dwattr $C$DW$337, DW_AT_accessibility(DW_ACCESS_public)
    5227                      .dwattr $C$DW$337, DW_AT_decl_file("C:/ti/C2000Ware_MotorControl_SDK_5_04_00_00/libraries/utilities/m
    5228                      .dwattr $C$DW$337, DW_AT_decl_line(0x32)
    5229                      .dwattr $C$DW$337, DW_AT_decl_column(0x12)
    5230              
    5231              $C$DW$338       .dwtag  DW_TAG_member
    5232                      .dwattr $C$DW$338, DW_AT_type(*$C$DW$T$21)
    5233                      .dwattr $C$DW$338, DW_AT_name("v1")
    5234                      .dwattr $C$DW$338, DW_AT_data_member_location[DW_OP_plus_uconst 0x12]
    5235                      .dwattr $C$DW$338, DW_AT_accessibility(DW_ACCESS_public)
    5236                      .dwattr $C$DW$338, DW_AT_decl_file("C:/ti/C2000Ware_MotorControl_SDK_5_04_00_00/libraries/utilities/m
    5237                      .dwattr $C$DW$338, DW_AT_decl_line(0x33)
    5238                      .dwattr $C$DW$338, DW_AT_decl_column(0x12)
    5239              
    5240              $C$DW$339       .dwtag  DW_TAG_member
    5241                      .dwattr $C$DW$339, DW_AT_type(*$C$DW$T$21)
    5242                      .dwattr $C$DW$339, DW_AT_name("i1")
    5243                      .dwattr $C$DW$339, DW_AT_data_member_location[DW_OP_plus_uconst 0x14]
    5244                      .dwattr $C$DW$339, DW_AT_accessibility(DW_ACCESS_public)
    5245                      .dwattr $C$DW$339, DW_AT_decl_file("C:/ti/C2000Ware_MotorControl_SDK_5_04_00_00/libraries/utilities/m
    5246                      .dwattr $C$DW$339, DW_AT_decl_line(0x34)
    5247                      .dwattr $C$DW$339, DW_AT_decl_column(0x12)
    5248              
    5249              $C$DW$340       .dwtag  DW_TAG_member
    5250                      .dwattr $C$DW$340, DW_AT_type(*$C$DW$T$21)
    5251                      .dwattr $C$DW$340, DW_AT_name("w1")
    5252                      .dwattr $C$DW$340, DW_AT_data_member_location[DW_OP_plus_uconst 0x16]
    5253                      .dwattr $C$DW$340, DW_AT_accessibility(DW_ACCESS_public)
    5254                      .dwattr $C$DW$340, DW_AT_decl_file("C:/ti/C2000Ware_MotorControl_SDK_5_04_00_00/libraries/utilities/m
    5255                      .dwattr $C$DW$340, DW_AT_decl_line(0x35)
    5256                      .dwattr $C$DW$340, DW_AT_decl_column(0x12)
    5257              
    5258                      .dwattr $C$DW$T$42, DW_AT_decl_file("C:/ti/C2000Ware_MotorControl_SDK_5_04_00_00/libraries/utilities/
    5259                      .dwattr $C$DW$T$42, DW_AT_decl_line(0x2a)
    5260                      .dwattr $C$DW$T$42, DW_AT_decl_column(0x10)
    5261                      .dwendtag $C$DW$T$42
    5262              
    5263                      .dwendtag $C$DW$TU$42
    5264              
    5265              
    5266              $C$DW$TU$92     .dwtag  DW_TAG_type_unit
    5267                      .dwmtype  $C$DW$T$92
    5268              $C$DW$T$92      .dwtag  DW_TAG_typedef
    5269                      .dwattr $C$DW$T$92, DW_AT_name("PI_CONTROLLER")
TMS320C2000 Assembler PC v22.6.2 Wed Dec 10 14:45:02 2025

Copyright (c) 1996-2018 Texas Instruments Incorporated
fcl_foc_cpu_dm.asm                                                   PAGE  101

    5270                      .dwattr $C$DW$T$92, DW_AT_type(*$C$DW$T$42)
    5271                      .dwattr $C$DW$T$92, DW_AT_decl_file("C:/ti/C2000Ware_MotorControl_SDK_5_04_00_00/libraries/utilities/
    5272                      .dwattr $C$DW$T$92, DW_AT_decl_line(0x36)
    5273                      .dwattr $C$DW$T$92, DW_AT_decl_column(0x07)
    5274              
    5275                      .dwendtag $C$DW$TU$92
    5276              
    5277              
    5278              $C$DW$TU$44     .dwtag  DW_TAG_type_unit
    5279                      .dwmtype  $C$DW$T$44
    5280              
    5281              $C$DW$T$44      .dwtag  DW_TAG_structure_type
    5282                      .dwattr $C$DW$T$44, DW_AT_name("ADCINTFLG_BITS")
    5283                      .dwattr $C$DW$T$44, DW_AT_byte_size(0x01)
    5284              $C$DW$341       .dwtag  DW_TAG_member
    5285                      .dwattr $C$DW$341, DW_AT_type(*$C$DW$T$43)
    5286                      .dwattr $C$DW$341, DW_AT_name("ADCINT1")
    5287                      .dwattr $C$DW$341, DW_AT_bit_offset(0x0f)
    5288                      .dwattr $C$DW$341, DW_AT_bit_size(0x01)
    5289                      .dwattr $C$DW$341, DW_AT_accessibility(DW_ACCESS_public)
    5290                      .dwattr $C$DW$341, DW_AT_decl_file("C:\ti\C2000Ware_MotorControl_SDK_5_04_00_00\c2000ware\device_supp
    5291                      .dwattr $C$DW$341, DW_AT_decl_line(0x60)
    5292                      .dwattr $C$DW$341, DW_AT_decl_column(0x0c)
    5293              
    5294              $C$DW$342       .dwtag  DW_TAG_member
    5295                      .dwattr $C$DW$342, DW_AT_type(*$C$DW$T$43)
    5296                      .dwattr $C$DW$342, DW_AT_name("ADCINT2")
    5297                      .dwattr $C$DW$342, DW_AT_bit_offset(0x0e)
    5298                      .dwattr $C$DW$342, DW_AT_bit_size(0x01)
    5299                      .dwattr $C$DW$342, DW_AT_accessibility(DW_ACCESS_public)
    5300                      .dwattr $C$DW$342, DW_AT_decl_file("C:\ti\C2000Ware_MotorControl_SDK_5_04_00_00\c2000ware\device_supp
    5301                      .dwattr $C$DW$342, DW_AT_decl_line(0x61)
    5302                      .dwattr $C$DW$342, DW_AT_decl_column(0x0c)
    5303              
    5304              $C$DW$343       .dwtag  DW_TAG_member
    5305                      .dwattr $C$DW$343, DW_AT_type(*$C$DW$T$43)
    5306                      .dwattr $C$DW$343, DW_AT_name("ADCINT3")
    5307                      .dwattr $C$DW$343, DW_AT_bit_offset(0x0d)
    5308                      .dwattr $C$DW$343, DW_AT_bit_size(0x01)
    5309                      .dwattr $C$DW$343, DW_AT_accessibility(DW_ACCESS_public)
    5310                      .dwattr $C$DW$343, DW_AT_decl_file("C:\ti\C2000Ware_MotorControl_SDK_5_04_00_00\c2000ware\device_supp
    5311                      .dwattr $C$DW$343, DW_AT_decl_line(0x62)
    5312                      .dwattr $C$DW$343, DW_AT_decl_column(0x0c)
    5313              
    5314              $C$DW$344       .dwtag  DW_TAG_member
    5315                      .dwattr $C$DW$344, DW_AT_type(*$C$DW$T$43)
    5316                      .dwattr $C$DW$344, DW_AT_name("ADCINT4")
    5317                      .dwattr $C$DW$344, DW_AT_bit_offset(0x0c)
    5318                      .dwattr $C$DW$344, DW_AT_bit_size(0x01)
    5319                      .dwattr $C$DW$344, DW_AT_accessibility(DW_ACCESS_public)
    5320                      .dwattr $C$DW$344, DW_AT_decl_file("C:\ti\C2000Ware_MotorControl_SDK_5_04_00_00\c2000ware\device_supp
    5321                      .dwattr $C$DW$344, DW_AT_decl_line(0x63)
    5322                      .dwattr $C$DW$344, DW_AT_decl_column(0x0c)
    5323              
    5324              $C$DW$345       .dwtag  DW_TAG_member
TMS320C2000 Assembler PC v22.6.2 Wed Dec 10 14:45:02 2025

Copyright (c) 1996-2018 Texas Instruments Incorporated
fcl_foc_cpu_dm.asm                                                   PAGE  102

    5325                      .dwattr $C$DW$345, DW_AT_type(*$C$DW$T$43)
    5326                      .dwattr $C$DW$345, DW_AT_name("rsvd1")
    5327                      .dwattr $C$DW$345, DW_AT_bit_offset(0x00)
    5328                      .dwattr $C$DW$345, DW_AT_bit_size(0x0c)
    5329                      .dwattr $C$DW$345, DW_AT_accessibility(DW_ACCESS_public)
    5330                      .dwattr $C$DW$345, DW_AT_decl_file("C:\ti\C2000Ware_MotorControl_SDK_5_04_00_00\c2000ware\device_supp
    5331                      .dwattr $C$DW$345, DW_AT_decl_line(0x64)
    5332                      .dwattr $C$DW$345, DW_AT_decl_column(0x0c)
    5333              
    5334                      .dwattr $C$DW$T$44, DW_AT_decl_file("C:\ti\C2000Ware_MotorControl_SDK_5_04_00_00\c2000ware\device_sup
    5335                      .dwattr $C$DW$T$44, DW_AT_decl_line(0x5f)
    5336                      .dwattr $C$DW$T$44, DW_AT_decl_column(0x08)
    5337                      .dwendtag $C$DW$T$44
    5338              
    5339                      .dwendtag $C$DW$TU$44
    5340              
    5341              
    5342              $C$DW$TU$45     .dwtag  DW_TAG_type_unit
    5343                      .dwmtype  $C$DW$T$45
    5344              
    5345              $C$DW$T$45      .dwtag  DW_TAG_union_type
    5346                      .dwattr $C$DW$T$45, DW_AT_name("ADCINTFLG_REG")
    5347                      .dwattr $C$DW$T$45, DW_AT_byte_size(0x01)
    5348              $C$DW$346       .dwtag  DW_TAG_member
    5349                      .dwattr $C$DW$346, DW_AT_type(*$C$DW$T$43)
    5350                      .dwattr $C$DW$346, DW_AT_name("all")
    5351                      .dwattr $C$DW$346, DW_AT_accessibility(DW_ACCESS_public)
    5352                      .dwattr $C$DW$346, DW_AT_decl_file("C:\ti\C2000Ware_MotorControl_SDK_5_04_00_00\c2000ware\device_supp
    5353                      .dwattr $C$DW$346, DW_AT_decl_line(0x68)
    5354                      .dwattr $C$DW$346, DW_AT_decl_column(0x0d)
    5355              
    5356              $C$DW$347       .dwtag  DW_TAG_member
    5357                      .dwattr $C$DW$347, DW_AT_type(*$C$DW$T$44)
    5358                      .dwattr $C$DW$347, DW_AT_name("bit")
    5359                      .dwattr $C$DW$347, DW_AT_accessibility(DW_ACCESS_public)
    5360                      .dwattr $C$DW$347, DW_AT_decl_file("C:\ti\C2000Ware_MotorControl_SDK_5_04_00_00\c2000ware\device_supp
    5361                      .dwattr $C$DW$347, DW_AT_decl_line(0x69)
    5362                      .dwattr $C$DW$347, DW_AT_decl_column(0x1d)
    5363              
    5364                      .dwattr $C$DW$T$45, DW_AT_decl_file("C:\ti\C2000Ware_MotorControl_SDK_5_04_00_00\c2000ware\device_sup
    5365                      .dwattr $C$DW$T$45, DW_AT_decl_line(0x67)
    5366                      .dwattr $C$DW$T$45, DW_AT_decl_column(0x07)
    5367                      .dwendtag $C$DW$T$45
    5368              
    5369                      .dwendtag $C$DW$TU$45
    5370              
    5371              
    5372              $C$DW$TU$97     .dwtag  DW_TAG_type_unit
    5373                      .dwmtype  $C$DW$T$97
    5374              $C$DW$348       .dwtag  DW_TAG_TI_far_type
    5375                      .dwattr $C$DW$348, DW_AT_type(*$C$DW$T$45)
    5376              
    5377              $C$DW$T$97      .dwtag  DW_TAG_volatile_type
    5378                      .dwattr $C$DW$T$97, DW_AT_type(*$C$DW$348)
    5379              
TMS320C2000 Assembler PC v22.6.2 Wed Dec 10 14:45:02 2025

Copyright (c) 1996-2018 Texas Instruments Incorporated
fcl_foc_cpu_dm.asm                                                   PAGE  103

    5380                      .dwendtag $C$DW$TU$97
    5381              
    5382              
    5383              $C$DW$TU$98     .dwtag  DW_TAG_type_unit
    5384                      .dwmtype  $C$DW$T$98
    5385              $C$DW$T$98      .dwtag  DW_TAG_pointer_type
    5386                      .dwattr $C$DW$T$98, DW_AT_type(*$C$DW$T$97)
    5387                      .dwattr $C$DW$T$98, DW_AT_address_class(0x20)
    5388              
    5389                      .dwendtag $C$DW$TU$98
    5390              
    5391              
    5392              $C$DW$TU$48     .dwtag  DW_TAG_type_unit
    5393                      .dwmtype  $C$DW$T$48
    5394              
    5395              $C$DW$T$48      .dwtag  DW_TAG_structure_type
    5396                      .dwattr $C$DW$T$48, DW_AT_name("EQEP_REGS")
    5397                      .dwattr $C$DW$T$48, DW_AT_byte_size(0x38)
    5398              $C$DW$349       .dwtag  DW_TAG_member
    5399                      .dwattr $C$DW$349, DW_AT_type(*$C$DW$T$46)
    5400                      .dwattr $C$DW$349, DW_AT_name("QPOSCNT")
    5401                      .dwattr $C$DW$349, DW_AT_accessibility(DW_ACCESS_public)
    5402                      .dwattr $C$DW$349, DW_AT_decl_file("C:\ti\C2000Ware_MotorControl_SDK_5_04_00_00\c2000ware\device_supp
    5403                      .dwattr $C$DW$349, DW_AT_decl_line(0x10d)
    5404                      .dwattr $C$DW$349, DW_AT_decl_column(0x2e)
    5405              
    5406              $C$DW$350       .dwtag  DW_TAG_member
    5407                      .dwattr $C$DW$350, DW_AT_type(*$C$DW$T$46)
    5408                      .dwattr $C$DW$350, DW_AT_name("QPOSINIT")
    5409                      .dwattr $C$DW$350, DW_AT_data_member_location[DW_OP_plus_uconst 0x2]
    5410                      .dwattr $C$DW$350, DW_AT_accessibility(DW_ACCESS_public)
    5411                      .dwattr $C$DW$350, DW_AT_decl_file("C:\ti\C2000Ware_MotorControl_SDK_5_04_00_00\c2000ware\device_supp
    5412                      .dwattr $C$DW$350, DW_AT_decl_line(0x10e)
    5413                      .dwattr $C$DW$350, DW_AT_decl_column(0x2e)
    5414              
    5415              $C$DW$351       .dwtag  DW_TAG_member
    5416                      .dwattr $C$DW$351, DW_AT_type(*$C$DW$T$46)
    5417                      .dwattr $C$DW$351, DW_AT_name("QPOSMAX")
    5418                      .dwattr $C$DW$351, DW_AT_data_member_location[DW_OP_plus_uconst 0x4]
    5419                      .dwattr $C$DW$351, DW_AT_accessibility(DW_ACCESS_public)
    5420                      .dwattr $C$DW$351, DW_AT_decl_file("C:\ti\C2000Ware_MotorControl_SDK_5_04_00_00\c2000ware\device_supp
    5421                      .dwattr $C$DW$351, DW_AT_decl_line(0x10f)
    5422                      .dwattr $C$DW$351, DW_AT_decl_column(0x2e)
    5423              
    5424              $C$DW$352       .dwtag  DW_TAG_member
    5425                      .dwattr $C$DW$352, DW_AT_type(*$C$DW$T$46)
    5426                      .dwattr $C$DW$352, DW_AT_name("QPOSCMP")
    5427                      .dwattr $C$DW$352, DW_AT_data_member_location[DW_OP_plus_uconst 0x6]
    5428                      .dwattr $C$DW$352, DW_AT_accessibility(DW_ACCESS_public)
    5429                      .dwattr $C$DW$352, DW_AT_decl_file("C:\ti\C2000Ware_MotorControl_SDK_5_04_00_00\c2000ware\device_supp
    5430                      .dwattr $C$DW$352, DW_AT_decl_line(0x110)
    5431                      .dwattr $C$DW$352, DW_AT_decl_column(0x2e)
    5432              
    5433              $C$DW$353       .dwtag  DW_TAG_member
    5434                      .dwattr $C$DW$353, DW_AT_type(*$C$DW$T$46)
TMS320C2000 Assembler PC v22.6.2 Wed Dec 10 14:45:02 2025

Copyright (c) 1996-2018 Texas Instruments Incorporated
fcl_foc_cpu_dm.asm                                                   PAGE  104

    5435                      .dwattr $C$DW$353, DW_AT_name("QPOSILAT")
    5436                      .dwattr $C$DW$353, DW_AT_data_member_location[DW_OP_plus_uconst 0x8]
    5437                      .dwattr $C$DW$353, DW_AT_accessibility(DW_ACCESS_public)
    5438                      .dwattr $C$DW$353, DW_AT_decl_file("C:\ti\C2000Ware_MotorControl_SDK_5_04_00_00\c2000ware\device_supp
    5439                      .dwattr $C$DW$353, DW_AT_decl_line(0x111)
    5440                      .dwattr $C$DW$353, DW_AT_decl_column(0x2e)
    5441              
    5442              $C$DW$354       .dwtag  DW_TAG_member
    5443                      .dwattr $C$DW$354, DW_AT_type(*$C$DW$T$46)
    5444                      .dwattr $C$DW$354, DW_AT_name("QPOSSLAT")
    5445                      .dwattr $C$DW$354, DW_AT_data_member_location[DW_OP_plus_uconst 0xa]
    5446                      .dwattr $C$DW$354, DW_AT_accessibility(DW_ACCESS_public)
    5447                      .dwattr $C$DW$354, DW_AT_decl_file("C:\ti\C2000Ware_MotorControl_SDK_5_04_00_00\c2000ware\device_supp
    5448                      .dwattr $C$DW$354, DW_AT_decl_line(0x112)
    5449                      .dwattr $C$DW$354, DW_AT_decl_column(0x2e)
    5450              
    5451              $C$DW$355       .dwtag  DW_TAG_member
    5452                      .dwattr $C$DW$355, DW_AT_type(*$C$DW$T$46)
    5453                      .dwattr $C$DW$355, DW_AT_name("QPOSLAT")
    5454                      .dwattr $C$DW$355, DW_AT_data_member_location[DW_OP_plus_uconst 0xc]
    5455                      .dwattr $C$DW$355, DW_AT_accessibility(DW_ACCESS_public)
    5456                      .dwattr $C$DW$355, DW_AT_decl_file("C:\ti\C2000Ware_MotorControl_SDK_5_04_00_00\c2000ware\device_supp
    5457                      .dwattr $C$DW$355, DW_AT_decl_line(0x113)
    5458                      .dwattr $C$DW$355, DW_AT_decl_column(0x2e)
    5459              
    5460              $C$DW$356       .dwtag  DW_TAG_member
    5461                      .dwattr $C$DW$356, DW_AT_type(*$C$DW$T$46)
    5462                      .dwattr $C$DW$356, DW_AT_name("QUTMR")
    5463                      .dwattr $C$DW$356, DW_AT_data_member_location[DW_OP_plus_uconst 0xe]
    5464                      .dwattr $C$DW$356, DW_AT_accessibility(DW_ACCESS_public)
    5465                      .dwattr $C$DW$356, DW_AT_decl_file("C:\ti\C2000Ware_MotorControl_SDK_5_04_00_00\c2000ware\device_supp
    5466                      .dwattr $C$DW$356, DW_AT_decl_line(0x114)
    5467                      .dwattr $C$DW$356, DW_AT_decl_column(0x2e)
    5468              
    5469              $C$DW$357       .dwtag  DW_TAG_member
    5470                      .dwattr $C$DW$357, DW_AT_type(*$C$DW$T$46)
    5471                      .dwattr $C$DW$357, DW_AT_name("QUPRD")
    5472                      .dwattr $C$DW$357, DW_AT_data_member_location[DW_OP_plus_uconst 0x10]
    5473                      .dwattr $C$DW$357, DW_AT_accessibility(DW_ACCESS_public)
    5474                      .dwattr $C$DW$357, DW_AT_decl_file("C:\ti\C2000Ware_MotorControl_SDK_5_04_00_00\c2000ware\device_supp
    5475                      .dwattr $C$DW$357, DW_AT_decl_line(0x115)
    5476                      .dwattr $C$DW$357, DW_AT_decl_column(0x2e)
    5477              
    5478              $C$DW$358       .dwtag  DW_TAG_member
    5479                      .dwattr $C$DW$358, DW_AT_type(*$C$DW$T$43)
    5480                      .dwattr $C$DW$358, DW_AT_name("QWDTMR")
    5481                      .dwattr $C$DW$358, DW_AT_data_member_location[DW_OP_plus_uconst 0x12]
    5482                      .dwattr $C$DW$358, DW_AT_accessibility(DW_ACCESS_public)
    5483                      .dwattr $C$DW$358, DW_AT_decl_file("C:\ti\C2000Ware_MotorControl_SDK_5_04_00_00\c2000ware\device_supp
    5484                      .dwattr $C$DW$358, DW_AT_decl_line(0x116)
    5485                      .dwattr $C$DW$358, DW_AT_decl_column(0x2e)
    5486              
    5487              $C$DW$359       .dwtag  DW_TAG_member
    5488                      .dwattr $C$DW$359, DW_AT_type(*$C$DW$T$43)
    5489                      .dwattr $C$DW$359, DW_AT_name("QWDPRD")
TMS320C2000 Assembler PC v22.6.2 Wed Dec 10 14:45:02 2025

Copyright (c) 1996-2018 Texas Instruments Incorporated
fcl_foc_cpu_dm.asm                                                   PAGE  105

    5490                      .dwattr $C$DW$359, DW_AT_data_member_location[DW_OP_plus_uconst 0x13]
    5491                      .dwattr $C$DW$359, DW_AT_accessibility(DW_ACCESS_public)
    5492                      .dwattr $C$DW$359, DW_AT_decl_file("C:\ti\C2000Ware_MotorControl_SDK_5_04_00_00\c2000ware\device_supp
    5493                      .dwattr $C$DW$359, DW_AT_decl_line(0x117)
    5494                      .dwattr $C$DW$359, DW_AT_decl_column(0x2e)
    5495              
    5496              $C$DW$360       .dwtag  DW_TAG_member
    5497                      .dwattr $C$DW$360, DW_AT_type(*$C$DW$T$55)
    5498                      .dwattr $C$DW$360, DW_AT_name("QDECCTL")
    5499                      .dwattr $C$DW$360, DW_AT_data_member_location[DW_OP_plus_uconst 0x14]
    5500                      .dwattr $C$DW$360, DW_AT_accessibility(DW_ACCESS_public)
    5501                      .dwattr $C$DW$360, DW_AT_decl_file("C:\ti\C2000Ware_MotorControl_SDK_5_04_00_00\c2000ware\device_supp
    5502                      .dwattr $C$DW$360, DW_AT_decl_line(0x118)
    5503                      .dwattr $C$DW$360, DW_AT_decl_column(0x2e)
    5504              
    5505              $C$DW$361       .dwtag  DW_TAG_member
    5506                      .dwattr $C$DW$361, DW_AT_type(*$C$DW$T$59)
    5507                      .dwattr $C$DW$361, DW_AT_name("QEPCTL")
    5508                      .dwattr $C$DW$361, DW_AT_data_member_location[DW_OP_plus_uconst 0x15]
    5509                      .dwattr $C$DW$361, DW_AT_accessibility(DW_ACCESS_public)
    5510                      .dwattr $C$DW$361, DW_AT_decl_file("C:\ti\C2000Ware_MotorControl_SDK_5_04_00_00\c2000ware\device_supp
    5511                      .dwattr $C$DW$361, DW_AT_decl_line(0x119)
    5512                      .dwattr $C$DW$361, DW_AT_decl_column(0x2e)
    5513              
    5514              $C$DW$362       .dwtag  DW_TAG_member
    5515                      .dwattr $C$DW$362, DW_AT_type(*$C$DW$T$51)
    5516                      .dwattr $C$DW$362, DW_AT_name("QCAPCTL")
    5517                      .dwattr $C$DW$362, DW_AT_data_member_location[DW_OP_plus_uconst 0x16]
    5518                      .dwattr $C$DW$362, DW_AT_accessibility(DW_ACCESS_public)
    5519                      .dwattr $C$DW$362, DW_AT_decl_file("C:\ti\C2000Ware_MotorControl_SDK_5_04_00_00\c2000ware\device_supp
    5520                      .dwattr $C$DW$362, DW_AT_decl_line(0x11a)
    5521                      .dwattr $C$DW$362, DW_AT_decl_column(0x2e)
    5522              
    5523              $C$DW$363       .dwtag  DW_TAG_member
    5524                      .dwattr $C$DW$363, DW_AT_type(*$C$DW$T$73)
    5525                      .dwattr $C$DW$363, DW_AT_name("QPOSCTL")
    5526                      .dwattr $C$DW$363, DW_AT_data_member_location[DW_OP_plus_uconst 0x17]
    5527                      .dwattr $C$DW$363, DW_AT_accessibility(DW_ACCESS_public)
    5528                      .dwattr $C$DW$363, DW_AT_decl_file("C:\ti\C2000Ware_MotorControl_SDK_5_04_00_00\c2000ware\device_supp
    5529                      .dwattr $C$DW$363, DW_AT_decl_line(0x11b)
    5530                      .dwattr $C$DW$363, DW_AT_decl_column(0x2e)
    5531              
    5532              $C$DW$364       .dwtag  DW_TAG_member
    5533                      .dwattr $C$DW$364, DW_AT_type(*$C$DW$T$57)
    5534                      .dwattr $C$DW$364, DW_AT_name("QEINT")
    5535                      .dwattr $C$DW$364, DW_AT_data_member_location[DW_OP_plus_uconst 0x18]
    5536                      .dwattr $C$DW$364, DW_AT_accessibility(DW_ACCESS_public)
    5537                      .dwattr $C$DW$364, DW_AT_decl_file("C:\ti\C2000Ware_MotorControl_SDK_5_04_00_00\c2000ware\device_supp
    5538                      .dwattr $C$DW$364, DW_AT_decl_line(0x11c)
    5539                      .dwattr $C$DW$364, DW_AT_decl_column(0x2e)
    5540              
    5541              $C$DW$365       .dwtag  DW_TAG_member
    5542                      .dwattr $C$DW$365, DW_AT_type(*$C$DW$T$67)
    5543                      .dwattr $C$DW$365, DW_AT_name("QFLG")
    5544                      .dwattr $C$DW$365, DW_AT_data_member_location[DW_OP_plus_uconst 0x19]
TMS320C2000 Assembler PC v22.6.2 Wed Dec 10 14:45:02 2025

Copyright (c) 1996-2018 Texas Instruments Incorporated
fcl_foc_cpu_dm.asm                                                   PAGE  106

    5545                      .dwattr $C$DW$365, DW_AT_accessibility(DW_ACCESS_public)
    5546                      .dwattr $C$DW$365, DW_AT_decl_file("C:\ti\C2000Ware_MotorControl_SDK_5_04_00_00\c2000ware\device_supp
    5547                      .dwattr $C$DW$365, DW_AT_decl_line(0x11d)
    5548                      .dwattr $C$DW$365, DW_AT_decl_column(0x2e)
    5549              
    5550              $C$DW$366       .dwtag  DW_TAG_member
    5551                      .dwattr $C$DW$366, DW_AT_type(*$C$DW$T$53)
    5552                      .dwattr $C$DW$366, DW_AT_name("QCLR")
    5553                      .dwattr $C$DW$366, DW_AT_data_member_location[DW_OP_plus_uconst 0x1a]
    5554                      .dwattr $C$DW$366, DW_AT_accessibility(DW_ACCESS_public)
    5555                      .dwattr $C$DW$366, DW_AT_decl_file("C:\ti\C2000Ware_MotorControl_SDK_5_04_00_00\c2000ware\device_supp
    5556                      .dwattr $C$DW$366, DW_AT_decl_line(0x11e)
    5557                      .dwattr $C$DW$366, DW_AT_decl_column(0x2e)
    5558              
    5559              $C$DW$367       .dwtag  DW_TAG_member
    5560                      .dwattr $C$DW$367, DW_AT_type(*$C$DW$T$69)
    5561                      .dwattr $C$DW$367, DW_AT_name("QFRC")
    5562                      .dwattr $C$DW$367, DW_AT_data_member_location[DW_OP_plus_uconst 0x1b]
    5563                      .dwattr $C$DW$367, DW_AT_accessibility(DW_ACCESS_public)
    5564                      .dwattr $C$DW$367, DW_AT_decl_file("C:\ti\C2000Ware_MotorControl_SDK_5_04_00_00\c2000ware\device_supp
    5565                      .dwattr $C$DW$367, DW_AT_decl_line(0x11f)
    5566                      .dwattr $C$DW$367, DW_AT_decl_column(0x2e)
    5567              
    5568              $C$DW$368       .dwtag  DW_TAG_member
    5569                      .dwattr $C$DW$368, DW_AT_type(*$C$DW$T$65)
    5570                      .dwattr $C$DW$368, DW_AT_name("QEPSTS")
    5571                      .dwattr $C$DW$368, DW_AT_data_member_location[DW_OP_plus_uconst 0x1c]
    5572                      .dwattr $C$DW$368, DW_AT_accessibility(DW_ACCESS_public)
    5573                      .dwattr $C$DW$368, DW_AT_decl_file("C:\ti\C2000Ware_MotorControl_SDK_5_04_00_00\c2000ware\device_supp
    5574                      .dwattr $C$DW$368, DW_AT_decl_line(0x120)
    5575                      .dwattr $C$DW$368, DW_AT_decl_column(0x2e)
    5576              
    5577              $C$DW$369       .dwtag  DW_TAG_member
    5578                      .dwattr $C$DW$369, DW_AT_type(*$C$DW$T$43)
    5579                      .dwattr $C$DW$369, DW_AT_name("QCTMR")
    5580                      .dwattr $C$DW$369, DW_AT_data_member_location[DW_OP_plus_uconst 0x1d]
    5581                      .dwattr $C$DW$369, DW_AT_accessibility(DW_ACCESS_public)
    5582                      .dwattr $C$DW$369, DW_AT_decl_file("C:\ti\C2000Ware_MotorControl_SDK_5_04_00_00\c2000ware\device_supp
    5583                      .dwattr $C$DW$369, DW_AT_decl_line(0x121)
    5584                      .dwattr $C$DW$369, DW_AT_decl_column(0x2e)
    5585              
    5586              $C$DW$370       .dwtag  DW_TAG_member
    5587                      .dwattr $C$DW$370, DW_AT_type(*$C$DW$T$43)
    5588                      .dwattr $C$DW$370, DW_AT_name("QCPRD")
    5589                      .dwattr $C$DW$370, DW_AT_data_member_location[DW_OP_plus_uconst 0x1e]
    5590                      .dwattr $C$DW$370, DW_AT_accessibility(DW_ACCESS_public)
    5591                      .dwattr $C$DW$370, DW_AT_decl_file("C:\ti\C2000Ware_MotorControl_SDK_5_04_00_00\c2000ware\device_supp
    5592                      .dwattr $C$DW$370, DW_AT_decl_line(0x122)
    5593                      .dwattr $C$DW$370, DW_AT_decl_column(0x2e)
    5594              
    5595              $C$DW$371       .dwtag  DW_TAG_member
    5596                      .dwattr $C$DW$371, DW_AT_type(*$C$DW$T$43)
    5597                      .dwattr $C$DW$371, DW_AT_name("QCTMRLAT")
    5598                      .dwattr $C$DW$371, DW_AT_data_member_location[DW_OP_plus_uconst 0x1f]
    5599                      .dwattr $C$DW$371, DW_AT_accessibility(DW_ACCESS_public)
TMS320C2000 Assembler PC v22.6.2 Wed Dec 10 14:45:02 2025

Copyright (c) 1996-2018 Texas Instruments Incorporated
fcl_foc_cpu_dm.asm                                                   PAGE  107

    5600                      .dwattr $C$DW$371, DW_AT_decl_file("C:\ti\C2000Ware_MotorControl_SDK_5_04_00_00\c2000ware\device_supp
    5601                      .dwattr $C$DW$371, DW_AT_decl_line(0x123)
    5602                      .dwattr $C$DW$371, DW_AT_decl_column(0x2e)
    5603              
    5604              $C$DW$372       .dwtag  DW_TAG_member
    5605                      .dwattr $C$DW$372, DW_AT_type(*$C$DW$T$43)
    5606                      .dwattr $C$DW$372, DW_AT_name("QCPRDLAT")
    5607                      .dwattr $C$DW$372, DW_AT_data_member_location[DW_OP_plus_uconst 0x20]
    5608                      .dwattr $C$DW$372, DW_AT_accessibility(DW_ACCESS_public)
    5609                      .dwattr $C$DW$372, DW_AT_decl_file("C:\ti\C2000Ware_MotorControl_SDK_5_04_00_00\c2000ware\device_supp
    5610                      .dwattr $C$DW$372, DW_AT_decl_line(0x124)
    5611                      .dwattr $C$DW$372, DW_AT_decl_column(0x2e)
    5612              
    5613              $C$DW$373       .dwtag  DW_TAG_member
    5614                      .dwattr $C$DW$373, DW_AT_type(*$C$DW$T$47)
    5615                      .dwattr $C$DW$373, DW_AT_name("rsvd1")
    5616                      .dwattr $C$DW$373, DW_AT_data_member_location[DW_OP_plus_uconst 0x21]
    5617                      .dwattr $C$DW$373, DW_AT_accessibility(DW_ACCESS_public)
    5618                      .dwattr $C$DW$373, DW_AT_decl_file("C:\ti\C2000Ware_MotorControl_SDK_5_04_00_00\c2000ware\device_supp
    5619                      .dwattr $C$DW$373, DW_AT_decl_line(0x125)
    5620                      .dwattr $C$DW$373, DW_AT_decl_column(0x2e)
    5621              
    5622              $C$DW$374       .dwtag  DW_TAG_member
    5623                      .dwattr $C$DW$374, DW_AT_type(*$C$DW$T$75)
    5624                      .dwattr $C$DW$374, DW_AT_name("REV")
    5625                      .dwattr $C$DW$374, DW_AT_data_member_location[DW_OP_plus_uconst 0x30]
    5626                      .dwattr $C$DW$374, DW_AT_accessibility(DW_ACCESS_public)
    5627                      .dwattr $C$DW$374, DW_AT_decl_file("C:\ti\C2000Ware_MotorControl_SDK_5_04_00_00\c2000ware\device_supp
    5628                      .dwattr $C$DW$374, DW_AT_decl_line(0x126)
    5629                      .dwattr $C$DW$374, DW_AT_decl_column(0x2e)
    5630              
    5631              $C$DW$375       .dwtag  DW_TAG_member
    5632                      .dwattr $C$DW$375, DW_AT_type(*$C$DW$T$63)
    5633                      .dwattr $C$DW$375, DW_AT_name("QEPSTROBESEL")
    5634                      .dwattr $C$DW$375, DW_AT_data_member_location[DW_OP_plus_uconst 0x32]
    5635                      .dwattr $C$DW$375, DW_AT_accessibility(DW_ACCESS_public)
    5636                      .dwattr $C$DW$375, DW_AT_decl_file("C:\ti\C2000Ware_MotorControl_SDK_5_04_00_00\c2000ware\device_supp
    5637                      .dwattr $C$DW$375, DW_AT_decl_line(0x127)
    5638                      .dwattr $C$DW$375, DW_AT_decl_column(0x2e)
    5639              
    5640              $C$DW$376       .dwtag  DW_TAG_member
    5641                      .dwattr $C$DW$376, DW_AT_type(*$C$DW$T$71)
    5642                      .dwattr $C$DW$376, DW_AT_name("QMACTRL")
    5643                      .dwattr $C$DW$376, DW_AT_data_member_location[DW_OP_plus_uconst 0x34]
    5644                      .dwattr $C$DW$376, DW_AT_accessibility(DW_ACCESS_public)
    5645                      .dwattr $C$DW$376, DW_AT_decl_file("C:\ti\C2000Ware_MotorControl_SDK_5_04_00_00\c2000ware\device_supp
    5646                      .dwattr $C$DW$376, DW_AT_decl_line(0x128)
    5647                      .dwattr $C$DW$376, DW_AT_decl_column(0x2e)
    5648              
    5649              $C$DW$377       .dwtag  DW_TAG_member
    5650                      .dwattr $C$DW$377, DW_AT_type(*$C$DW$T$61)
    5651                      .dwattr $C$DW$377, DW_AT_name("QEPSRCSEL")
    5652                      .dwattr $C$DW$377, DW_AT_data_member_location[DW_OP_plus_uconst 0x36]
    5653                      .dwattr $C$DW$377, DW_AT_accessibility(DW_ACCESS_public)
    5654                      .dwattr $C$DW$377, DW_AT_decl_file("C:\ti\C2000Ware_MotorControl_SDK_5_04_00_00\c2000ware\device_supp
TMS320C2000 Assembler PC v22.6.2 Wed Dec 10 14:45:02 2025

Copyright (c) 1996-2018 Texas Instruments Incorporated
fcl_foc_cpu_dm.asm                                                   PAGE  108

    5655                      .dwattr $C$DW$377, DW_AT_decl_line(0x129)
    5656                      .dwattr $C$DW$377, DW_AT_decl_column(0x2e)
    5657              
    5658                      .dwattr $C$DW$T$48, DW_AT_decl_file("C:\ti\C2000Ware_MotorControl_SDK_5_04_00_00\c2000ware\device_sup
    5659                      .dwattr $C$DW$T$48, DW_AT_decl_line(0x10c)
    5660                      .dwattr $C$DW$T$48, DW_AT_decl_column(0x08)
    5661                      .dwendtag $C$DW$T$48
    5662              
    5663                      .dwendtag $C$DW$TU$48
    5664              
    5665              
    5666              $C$DW$TU$99     .dwtag  DW_TAG_type_unit
    5667                      .dwmtype  $C$DW$T$99
    5668              $C$DW$378       .dwtag  DW_TAG_TI_far_type
    5669                      .dwattr $C$DW$378, DW_AT_type(*$C$DW$T$48)
    5670              
    5671              $C$DW$T$99      .dwtag  DW_TAG_volatile_type
    5672                      .dwattr $C$DW$T$99, DW_AT_type(*$C$DW$378)
    5673              
    5674                      .dwendtag $C$DW$TU$99
    5675              
    5676              
    5677              $C$DW$TU$100    .dwtag  DW_TAG_type_unit
    5678                      .dwmtype  $C$DW$T$100
    5679              $C$DW$T$100     .dwtag  DW_TAG_pointer_type
    5680                      .dwattr $C$DW$T$100, DW_AT_type(*$C$DW$T$99)
    5681                      .dwattr $C$DW$T$100, DW_AT_address_class(0x20)
    5682              
    5683                      .dwendtag $C$DW$TU$100
    5684              
    5685              
    5686              $C$DW$TU$49     .dwtag  DW_TAG_type_unit
    5687                      .dwmtype  $C$DW$T$49
    5688              
    5689              $C$DW$T$49      .dwtag  DW_TAG_structure_type
    5690                      .dwattr $C$DW$T$49, DW_AT_name("FCL_cmplxCtrl_t")
    5691                      .dwattr $C$DW$T$49, DW_AT_byte_size(0x20)
    5692              $C$DW$379       .dwtag  DW_TAG_member
    5693                      .dwattr $C$DW$379, DW_AT_type(*$C$DW$T$21)
    5694                      .dwattr $C$DW$379, DW_AT_name("ref")
    5695                      .dwattr $C$DW$379, DW_AT_accessibility(DW_ACCESS_public)
    5696                      .dwattr $C$DW$379, DW_AT_decl_file("C:/ti/C2000Ware_MotorControl_SDK_5_04_00_00/libraries/fcl/include
    5697                      .dwattr $C$DW$379, DW_AT_decl_line(0x19)
    5698                      .dwattr $C$DW$379, DW_AT_decl_column(0x10)
    5699              
    5700              $C$DW$380       .dwtag  DW_TAG_member
    5701                      .dwattr $C$DW$380, DW_AT_type(*$C$DW$T$21)
    5702                      .dwattr $C$DW$380, DW_AT_name("fbk")
    5703                      .dwattr $C$DW$380, DW_AT_data_member_location[DW_OP_plus_uconst 0x2]
    5704                      .dwattr $C$DW$380, DW_AT_accessibility(DW_ACCESS_public)
    5705                      .dwattr $C$DW$380, DW_AT_decl_file("C:/ti/C2000Ware_MotorControl_SDK_5_04_00_00/libraries/fcl/include
    5706                      .dwattr $C$DW$380, DW_AT_decl_line(0x1a)
    5707                      .dwattr $C$DW$380, DW_AT_decl_column(0x10)
    5708              
    5709              $C$DW$381       .dwtag  DW_TAG_member
TMS320C2000 Assembler PC v22.6.2 Wed Dec 10 14:45:02 2025

Copyright (c) 1996-2018 Texas Instruments Incorporated
fcl_foc_cpu_dm.asm                                                   PAGE  109

    5710                      .dwattr $C$DW$381, DW_AT_type(*$C$DW$T$21)
    5711                      .dwattr $C$DW$381, DW_AT_name("err")
    5712                      .dwattr $C$DW$381, DW_AT_data_member_location[DW_OP_plus_uconst 0x4]
    5713                      .dwattr $C$DW$381, DW_AT_accessibility(DW_ACCESS_public)
    5714                      .dwattr $C$DW$381, DW_AT_decl_file("C:/ti/C2000Ware_MotorControl_SDK_5_04_00_00/libraries/fcl/include
    5715                      .dwattr $C$DW$381, DW_AT_decl_line(0x1b)
    5716                      .dwattr $C$DW$381, DW_AT_decl_column(0x10)
    5717              
    5718              $C$DW$382       .dwtag  DW_TAG_member
    5719                      .dwattr $C$DW$382, DW_AT_type(*$C$DW$T$21)
    5720                      .dwattr $C$DW$382, DW_AT_name("out")
    5721                      .dwattr $C$DW$382, DW_AT_data_member_location[DW_OP_plus_uconst 0x6]
    5722                      .dwattr $C$DW$382, DW_AT_accessibility(DW_ACCESS_public)
    5723                      .dwattr $C$DW$382, DW_AT_decl_file("C:/ti/C2000Ware_MotorControl_SDK_5_04_00_00/libraries/fcl/include
    5724                      .dwattr $C$DW$382, DW_AT_decl_line(0x1c)
    5725                      .dwattr $C$DW$382, DW_AT_decl_column(0x10)
    5726              
    5727              $C$DW$383       .dwtag  DW_TAG_member
    5728                      .dwattr $C$DW$383, DW_AT_type(*$C$DW$T$21)
    5729                      .dwattr $C$DW$383, DW_AT_name("carryOver")
    5730                      .dwattr $C$DW$383, DW_AT_data_member_location[DW_OP_plus_uconst 0x8]
    5731                      .dwattr $C$DW$383, DW_AT_accessibility(DW_ACCESS_public)
    5732                      .dwattr $C$DW$383, DW_AT_decl_file("C:/ti/C2000Ware_MotorControl_SDK_5_04_00_00/libraries/fcl/include
    5733                      .dwattr $C$DW$383, DW_AT_decl_line(0x1d)
    5734                      .dwattr $C$DW$383, DW_AT_decl_column(0x10)
    5735              
    5736              $C$DW$384       .dwtag  DW_TAG_member
    5737                      .dwattr $C$DW$384, DW_AT_type(*$C$DW$T$21)
    5738                      .dwattr $C$DW$384, DW_AT_name("Kp")
    5739                      .dwattr $C$DW$384, DW_AT_data_member_location[DW_OP_plus_uconst 0xa]
    5740                      .dwattr $C$DW$384, DW_AT_accessibility(DW_ACCESS_public)
    5741                      .dwattr $C$DW$384, DW_AT_decl_file("C:/ti/C2000Ware_MotorControl_SDK_5_04_00_00/libraries/fcl/include
    5742                      .dwattr $C$DW$384, DW_AT_decl_line(0x1e)
    5743                      .dwattr $C$DW$384, DW_AT_decl_column(0x10)
    5744              
    5745              $C$DW$385       .dwtag  DW_TAG_member
    5746                      .dwattr $C$DW$385, DW_AT_type(*$C$DW$T$21)
    5747                      .dwattr $C$DW$385, DW_AT_name("Ki")
    5748                      .dwattr $C$DW$385, DW_AT_data_member_location[DW_OP_plus_uconst 0xc]
    5749                      .dwattr $C$DW$385, DW_AT_accessibility(DW_ACCESS_public)
    5750                      .dwattr $C$DW$385, DW_AT_decl_file("C:/ti/C2000Ware_MotorControl_SDK_5_04_00_00/libraries/fcl/include
    5751                      .dwattr $C$DW$385, DW_AT_decl_line(0x1f)
    5752                      .dwattr $C$DW$385, DW_AT_decl_column(0x10)
    5753              
    5754              $C$DW$386       .dwtag  DW_TAG_member
    5755                      .dwattr $C$DW$386, DW_AT_type(*$C$DW$T$21)
    5756                      .dwattr $C$DW$386, DW_AT_name("Kerr")
    5757                      .dwattr $C$DW$386, DW_AT_data_member_location[DW_OP_plus_uconst 0xe]
    5758                      .dwattr $C$DW$386, DW_AT_accessibility(DW_ACCESS_public)
    5759                      .dwattr $C$DW$386, DW_AT_decl_file("C:/ti/C2000Ware_MotorControl_SDK_5_04_00_00/libraries/fcl/include
    5760                      .dwattr $C$DW$386, DW_AT_decl_line(0x20)
    5761                      .dwattr $C$DW$386, DW_AT_decl_column(0x10)
    5762              
    5763              $C$DW$387       .dwtag  DW_TAG_member
    5764                      .dwattr $C$DW$387, DW_AT_type(*$C$DW$T$21)
TMS320C2000 Assembler PC v22.6.2 Wed Dec 10 14:45:02 2025

Copyright (c) 1996-2018 Texas Instruments Incorporated
fcl_foc_cpu_dm.asm                                                   PAGE  110

    5765                      .dwattr $C$DW$387, DW_AT_name("KerrOld")
    5766                      .dwattr $C$DW$387, DW_AT_data_member_location[DW_OP_plus_uconst 0x10]
    5767                      .dwattr $C$DW$387, DW_AT_accessibility(DW_ACCESS_public)
    5768                      .dwattr $C$DW$387, DW_AT_decl_file("C:/ti/C2000Ware_MotorControl_SDK_5_04_00_00/libraries/fcl/include
    5769                      .dwattr $C$DW$387, DW_AT_decl_line(0x21)
    5770                      .dwattr $C$DW$387, DW_AT_decl_column(0x10)
    5771              
    5772              $C$DW$388       .dwtag  DW_TAG_member
    5773                      .dwattr $C$DW$388, DW_AT_type(*$C$DW$T$21)
    5774                      .dwattr $C$DW$388, DW_AT_name("Umax")
    5775                      .dwattr $C$DW$388, DW_AT_data_member_location[DW_OP_plus_uconst 0x12]
    5776                      .dwattr $C$DW$388, DW_AT_accessibility(DW_ACCESS_public)
    5777                      .dwattr $C$DW$388, DW_AT_decl_file("C:/ti/C2000Ware_MotorControl_SDK_5_04_00_00/libraries/fcl/include
    5778                      .dwattr $C$DW$388, DW_AT_decl_line(0x22)
    5779                      .dwattr $C$DW$388, DW_AT_decl_column(0x10)
    5780              
    5781              $C$DW$389       .dwtag  DW_TAG_member
    5782                      .dwattr $C$DW$389, DW_AT_type(*$C$DW$T$21)
    5783                      .dwattr $C$DW$389, DW_AT_name("Umin")
    5784                      .dwattr $C$DW$389, DW_AT_data_member_location[DW_OP_plus_uconst 0x14]
    5785                      .dwattr $C$DW$389, DW_AT_accessibility(DW_ACCESS_public)
    5786                      .dwattr $C$DW$389, DW_AT_decl_file("C:/ti/C2000Ware_MotorControl_SDK_5_04_00_00/libraries/fcl/include
    5787                      .dwattr $C$DW$389, DW_AT_decl_line(0x23)
    5788                      .dwattr $C$DW$389, DW_AT_decl_column(0x10)
    5789              
    5790              $C$DW$390       .dwtag  DW_TAG_member
    5791                      .dwattr $C$DW$390, DW_AT_type(*$C$DW$T$21)
    5792                      .dwattr $C$DW$390, DW_AT_name("cosWTs")
    5793                      .dwattr $C$DW$390, DW_AT_data_member_location[DW_OP_plus_uconst 0x16]
    5794                      .dwattr $C$DW$390, DW_AT_accessibility(DW_ACCESS_public)
    5795                      .dwattr $C$DW$390, DW_AT_decl_file("C:/ti/C2000Ware_MotorControl_SDK_5_04_00_00/libraries/fcl/include
    5796                      .dwattr $C$DW$390, DW_AT_decl_line(0x24)
    5797                      .dwattr $C$DW$390, DW_AT_decl_column(0x10)
    5798              
    5799              $C$DW$391       .dwtag  DW_TAG_member
    5800                      .dwattr $C$DW$391, DW_AT_type(*$C$DW$T$21)
    5801                      .dwattr $C$DW$391, DW_AT_name("sinWTs")
    5802                      .dwattr $C$DW$391, DW_AT_data_member_location[DW_OP_plus_uconst 0x18]
    5803                      .dwattr $C$DW$391, DW_AT_accessibility(DW_ACCESS_public)
    5804                      .dwattr $C$DW$391, DW_AT_decl_file("C:/ti/C2000Ware_MotorControl_SDK_5_04_00_00/libraries/fcl/include
    5805                      .dwattr $C$DW$391, DW_AT_decl_line(0x25)
    5806                      .dwattr $C$DW$391, DW_AT_decl_column(0x10)
    5807              
    5808              $C$DW$392       .dwtag  DW_TAG_member
    5809                      .dwattr $C$DW$392, DW_AT_type(*$C$DW$T$21)
    5810                      .dwattr $C$DW$392, DW_AT_name("expVal")
    5811                      .dwattr $C$DW$392, DW_AT_data_member_location[DW_OP_plus_uconst 0x1a]
    5812                      .dwattr $C$DW$392, DW_AT_accessibility(DW_ACCESS_public)
    5813                      .dwattr $C$DW$392, DW_AT_decl_file("C:/ti/C2000Ware_MotorControl_SDK_5_04_00_00/libraries/fcl/include
    5814                      .dwattr $C$DW$392, DW_AT_decl_line(0x26)
    5815                      .dwattr $C$DW$392, DW_AT_decl_column(0x10)
    5816              
    5817              $C$DW$393       .dwtag  DW_TAG_member
    5818                      .dwattr $C$DW$393, DW_AT_type(*$C$DW$T$21)
    5819                      .dwattr $C$DW$393, DW_AT_name("kDirect")
TMS320C2000 Assembler PC v22.6.2 Wed Dec 10 14:45:02 2025

Copyright (c) 1996-2018 Texas Instruments Incorporated
fcl_foc_cpu_dm.asm                                                   PAGE  111

    5820                      .dwattr $C$DW$393, DW_AT_data_member_location[DW_OP_plus_uconst 0x1c]
    5821                      .dwattr $C$DW$393, DW_AT_accessibility(DW_ACCESS_public)
    5822                      .dwattr $C$DW$393, DW_AT_decl_file("C:/ti/C2000Ware_MotorControl_SDK_5_04_00_00/libraries/fcl/include
    5823                      .dwattr $C$DW$393, DW_AT_decl_line(0x27)
    5824                      .dwattr $C$DW$393, DW_AT_decl_column(0x10)
    5825              
    5826              $C$DW$394       .dwtag  DW_TAG_member
    5827                      .dwattr $C$DW$394, DW_AT_type(*$C$DW$T$21)
    5828                      .dwattr $C$DW$394, DW_AT_name("xErr")
    5829                      .dwattr $C$DW$394, DW_AT_data_member_location[DW_OP_plus_uconst 0x1e]
    5830                      .dwattr $C$DW$394, DW_AT_accessibility(DW_ACCESS_public)
    5831                      .dwattr $C$DW$394, DW_AT_decl_file("C:/ti/C2000Ware_MotorControl_SDK_5_04_00_00/libraries/fcl/include
    5832                      .dwattr $C$DW$394, DW_AT_decl_line(0x28)
    5833                      .dwattr $C$DW$394, DW_AT_decl_column(0x10)
    5834              
    5835                      .dwattr $C$DW$T$49, DW_AT_decl_file("C:/ti/C2000Ware_MotorControl_SDK_5_04_00_00/libraries/fcl/includ
    5836                      .dwattr $C$DW$T$49, DW_AT_decl_line(0x17)
    5837                      .dwattr $C$DW$T$49, DW_AT_decl_column(0x10)
    5838                      .dwendtag $C$DW$T$49
    5839              
    5840                      .dwendtag $C$DW$TU$49
    5841              
    5842              
    5843              $C$DW$TU$93     .dwtag  DW_TAG_type_unit
    5844                      .dwmtype  $C$DW$T$93
    5845              $C$DW$T$93      .dwtag  DW_TAG_typedef
    5846                      .dwattr $C$DW$T$93, DW_AT_name("FCL_cmplxCtrl_t")
    5847                      .dwattr $C$DW$T$93, DW_AT_type(*$C$DW$T$49)
    5848                      .dwattr $C$DW$T$93, DW_AT_decl_file("C:/ti/C2000Ware_MotorControl_SDK_5_04_00_00/libraries/fcl/includ
    5849                      .dwattr $C$DW$T$93, DW_AT_decl_line(0x29)
    5850                      .dwattr $C$DW$T$93, DW_AT_decl_column(0x03)
    5851              
    5852                      .dwendtag $C$DW$TU$93
    5853              
    5854              
    5855              $C$DW$TU$50     .dwtag  DW_TAG_type_unit
    5856                      .dwmtype  $C$DW$T$50
    5857              
    5858              $C$DW$T$50      .dwtag  DW_TAG_structure_type
    5859                      .dwattr $C$DW$T$50, DW_AT_name("QCAPCTL_BITS")
    5860                      .dwattr $C$DW$T$50, DW_AT_byte_size(0x01)
    5861              $C$DW$395       .dwtag  DW_TAG_member
    5862                      .dwattr $C$DW$395, DW_AT_type(*$C$DW$T$43)
    5863                      .dwattr $C$DW$395, DW_AT_name("UPPS")
    5864                      .dwattr $C$DW$395, DW_AT_bit_offset(0x0c)
    5865                      .dwattr $C$DW$395, DW_AT_bit_size(0x04)
    5866                      .dwattr $C$DW$395, DW_AT_accessibility(DW_ACCESS_public)
    5867                      .dwattr $C$DW$395, DW_AT_decl_file("C:\ti\C2000Ware_MotorControl_SDK_5_04_00_00\c2000ware\device_supp
    5868                      .dwattr $C$DW$395, DW_AT_decl_line(0x5c)
    5869                      .dwattr $C$DW$395, DW_AT_decl_column(0x0c)
    5870              
    5871              $C$DW$396       .dwtag  DW_TAG_member
    5872                      .dwattr $C$DW$396, DW_AT_type(*$C$DW$T$43)
    5873                      .dwattr $C$DW$396, DW_AT_name("CCPS")
    5874                      .dwattr $C$DW$396, DW_AT_bit_offset(0x09)
TMS320C2000 Assembler PC v22.6.2 Wed Dec 10 14:45:02 2025

Copyright (c) 1996-2018 Texas Instruments Incorporated
fcl_foc_cpu_dm.asm                                                   PAGE  112

    5875                      .dwattr $C$DW$396, DW_AT_bit_size(0x03)
    5876                      .dwattr $C$DW$396, DW_AT_accessibility(DW_ACCESS_public)
    5877                      .dwattr $C$DW$396, DW_AT_decl_file("C:\ti\C2000Ware_MotorControl_SDK_5_04_00_00\c2000ware\device_supp
    5878                      .dwattr $C$DW$396, DW_AT_decl_line(0x5d)
    5879                      .dwattr $C$DW$396, DW_AT_decl_column(0x0c)
    5880              
    5881              $C$DW$397       .dwtag  DW_TAG_member
    5882                      .dwattr $C$DW$397, DW_AT_type(*$C$DW$T$43)
    5883                      .dwattr $C$DW$397, DW_AT_name("rsvd1")
    5884                      .dwattr $C$DW$397, DW_AT_bit_offset(0x01)
    5885                      .dwattr $C$DW$397, DW_AT_bit_size(0x08)
    5886                      .dwattr $C$DW$397, DW_AT_accessibility(DW_ACCESS_public)
    5887                      .dwattr $C$DW$397, DW_AT_decl_file("C:\ti\C2000Ware_MotorControl_SDK_5_04_00_00\c2000ware\device_supp
    5888                      .dwattr $C$DW$397, DW_AT_decl_line(0x5e)
    5889                      .dwattr $C$DW$397, DW_AT_decl_column(0x0c)
    5890              
    5891              $C$DW$398       .dwtag  DW_TAG_member
    5892                      .dwattr $C$DW$398, DW_AT_type(*$C$DW$T$43)
    5893                      .dwattr $C$DW$398, DW_AT_name("CEN")
    5894                      .dwattr $C$DW$398, DW_AT_bit_offset(0x00)
    5895                      .dwattr $C$DW$398, DW_AT_bit_size(0x01)
    5896                      .dwattr $C$DW$398, DW_AT_accessibility(DW_ACCESS_public)
    5897                      .dwattr $C$DW$398, DW_AT_decl_file("C:\ti\C2000Ware_MotorControl_SDK_5_04_00_00\c2000ware\device_supp
    5898                      .dwattr $C$DW$398, DW_AT_decl_line(0x5f)
    5899                      .dwattr $C$DW$398, DW_AT_decl_column(0x0c)
    5900              
    5901                      .dwattr $C$DW$T$50, DW_AT_decl_file("C:\ti\C2000Ware_MotorControl_SDK_5_04_00_00\c2000ware\device_sup
    5902                      .dwattr $C$DW$T$50, DW_AT_decl_line(0x5b)
    5903                      .dwattr $C$DW$T$50, DW_AT_decl_column(0x08)
    5904                      .dwendtag $C$DW$T$50
    5905              
    5906                      .dwendtag $C$DW$TU$50
    5907              
    5908              
    5909              $C$DW$TU$51     .dwtag  DW_TAG_type_unit
    5910                      .dwmtype  $C$DW$T$51
    5911              
    5912              $C$DW$T$51      .dwtag  DW_TAG_union_type
    5913                      .dwattr $C$DW$T$51, DW_AT_name("QCAPCTL_REG")
    5914                      .dwattr $C$DW$T$51, DW_AT_byte_size(0x01)
    5915              $C$DW$399       .dwtag  DW_TAG_member
    5916                      .dwattr $C$DW$399, DW_AT_type(*$C$DW$T$43)
    5917                      .dwattr $C$DW$399, DW_AT_name("all")
    5918                      .dwattr $C$DW$399, DW_AT_accessibility(DW_ACCESS_public)
    5919                      .dwattr $C$DW$399, DW_AT_decl_file("C:\ti\C2000Ware_MotorControl_SDK_5_04_00_00\c2000ware\device_supp
    5920                      .dwattr $C$DW$399, DW_AT_decl_line(0x63)
    5921                      .dwattr $C$DW$399, DW_AT_decl_column(0x0d)
    5922              
    5923              $C$DW$400       .dwtag  DW_TAG_member
    5924                      .dwattr $C$DW$400, DW_AT_type(*$C$DW$T$50)
    5925                      .dwattr $C$DW$400, DW_AT_name("bit")
    5926                      .dwattr $C$DW$400, DW_AT_accessibility(DW_ACCESS_public)
    5927                      .dwattr $C$DW$400, DW_AT_decl_file("C:\ti\C2000Ware_MotorControl_SDK_5_04_00_00\c2000ware\device_supp
    5928                      .dwattr $C$DW$400, DW_AT_decl_line(0x64)
    5929                      .dwattr $C$DW$400, DW_AT_decl_column(0x1b)
TMS320C2000 Assembler PC v22.6.2 Wed Dec 10 14:45:02 2025

Copyright (c) 1996-2018 Texas Instruments Incorporated
fcl_foc_cpu_dm.asm                                                   PAGE  113

    5930              
    5931                      .dwattr $C$DW$T$51, DW_AT_decl_file("C:\ti\C2000Ware_MotorControl_SDK_5_04_00_00\c2000ware\device_sup
    5932                      .dwattr $C$DW$T$51, DW_AT_decl_line(0x62)
    5933                      .dwattr $C$DW$T$51, DW_AT_decl_column(0x07)
    5934                      .dwendtag $C$DW$T$51
    5935              
    5936                      .dwendtag $C$DW$TU$51
    5937              
    5938              
    5939              $C$DW$TU$52     .dwtag  DW_TAG_type_unit
    5940                      .dwmtype  $C$DW$T$52
    5941              
    5942              $C$DW$T$52      .dwtag  DW_TAG_structure_type
    5943                      .dwattr $C$DW$T$52, DW_AT_name("QCLR_BITS")
    5944                      .dwattr $C$DW$T$52, DW_AT_byte_size(0x01)
    5945              $C$DW$401       .dwtag  DW_TAG_member
    5946                      .dwattr $C$DW$401, DW_AT_type(*$C$DW$T$43)
    5947                      .dwattr $C$DW$401, DW_AT_name("INT")
    5948                      .dwattr $C$DW$401, DW_AT_bit_offset(0x0f)
    5949                      .dwattr $C$DW$401, DW_AT_bit_size(0x01)
    5950                      .dwattr $C$DW$401, DW_AT_accessibility(DW_ACCESS_public)
    5951                      .dwattr $C$DW$401, DW_AT_decl_file("C:\ti\C2000Ware_MotorControl_SDK_5_04_00_00\c2000ware\device_supp
    5952                      .dwattr $C$DW$401, DW_AT_decl_line(0xa1)
    5953                      .dwattr $C$DW$401, DW_AT_decl_column(0x0c)
    5954              
    5955              $C$DW$402       .dwtag  DW_TAG_member
    5956                      .dwattr $C$DW$402, DW_AT_type(*$C$DW$T$43)
    5957                      .dwattr $C$DW$402, DW_AT_name("PCE")
    5958                      .dwattr $C$DW$402, DW_AT_bit_offset(0x0e)
    5959                      .dwattr $C$DW$402, DW_AT_bit_size(0x01)
    5960                      .dwattr $C$DW$402, DW_AT_accessibility(DW_ACCESS_public)
    5961                      .dwattr $C$DW$402, DW_AT_decl_file("C:\ti\C2000Ware_MotorControl_SDK_5_04_00_00\c2000ware\device_supp
    5962                      .dwattr $C$DW$402, DW_AT_decl_line(0xa2)
    5963                      .dwattr $C$DW$402, DW_AT_decl_column(0x0c)
    5964              
    5965              $C$DW$403       .dwtag  DW_TAG_member
    5966                      .dwattr $C$DW$403, DW_AT_type(*$C$DW$T$43)
    5967                      .dwattr $C$DW$403, DW_AT_name("PHE")
    5968                      .dwattr $C$DW$403, DW_AT_bit_offset(0x0d)
    5969                      .dwattr $C$DW$403, DW_AT_bit_size(0x01)
    5970                      .dwattr $C$DW$403, DW_AT_accessibility(DW_ACCESS_public)
    5971                      .dwattr $C$DW$403, DW_AT_decl_file("C:\ti\C2000Ware_MotorControl_SDK_5_04_00_00\c2000ware\device_supp
    5972                      .dwattr $C$DW$403, DW_AT_decl_line(0xa3)
    5973                      .dwattr $C$DW$403, DW_AT_decl_column(0x0c)
    5974              
    5975              $C$DW$404       .dwtag  DW_TAG_member
    5976                      .dwattr $C$DW$404, DW_AT_type(*$C$DW$T$43)
    5977                      .dwattr $C$DW$404, DW_AT_name("QDC")
    5978                      .dwattr $C$DW$404, DW_AT_bit_offset(0x0c)
    5979                      .dwattr $C$DW$404, DW_AT_bit_size(0x01)
    5980                      .dwattr $C$DW$404, DW_AT_accessibility(DW_ACCESS_public)
    5981                      .dwattr $C$DW$404, DW_AT_decl_file("C:\ti\C2000Ware_MotorControl_SDK_5_04_00_00\c2000ware\device_supp
    5982                      .dwattr $C$DW$404, DW_AT_decl_line(0xa4)
    5983                      .dwattr $C$DW$404, DW_AT_decl_column(0x0c)
    5984              
TMS320C2000 Assembler PC v22.6.2 Wed Dec 10 14:45:02 2025

Copyright (c) 1996-2018 Texas Instruments Incorporated
fcl_foc_cpu_dm.asm                                                   PAGE  114

    5985              $C$DW$405       .dwtag  DW_TAG_member
    5986                      .dwattr $C$DW$405, DW_AT_type(*$C$DW$T$43)
    5987                      .dwattr $C$DW$405, DW_AT_name("WTO")
    5988                      .dwattr $C$DW$405, DW_AT_bit_offset(0x0b)
    5989                      .dwattr $C$DW$405, DW_AT_bit_size(0x01)
    5990                      .dwattr $C$DW$405, DW_AT_accessibility(DW_ACCESS_public)
    5991                      .dwattr $C$DW$405, DW_AT_decl_file("C:\ti\C2000Ware_MotorControl_SDK_5_04_00_00\c2000ware\device_supp
    5992                      .dwattr $C$DW$405, DW_AT_decl_line(0xa5)
    5993                      .dwattr $C$DW$405, DW_AT_decl_column(0x0c)
    5994              
    5995              $C$DW$406       .dwtag  DW_TAG_member
    5996                      .dwattr $C$DW$406, DW_AT_type(*$C$DW$T$43)
    5997                      .dwattr $C$DW$406, DW_AT_name("PCU")
    5998                      .dwattr $C$DW$406, DW_AT_bit_offset(0x0a)
    5999                      .dwattr $C$DW$406, DW_AT_bit_size(0x01)
    6000                      .dwattr $C$DW$406, DW_AT_accessibility(DW_ACCESS_public)
    6001                      .dwattr $C$DW$406, DW_AT_decl_file("C:\ti\C2000Ware_MotorControl_SDK_5_04_00_00\c2000ware\device_supp
    6002                      .dwattr $C$DW$406, DW_AT_decl_line(0xa6)
    6003                      .dwattr $C$DW$406, DW_AT_decl_column(0x0c)
    6004              
    6005              $C$DW$407       .dwtag  DW_TAG_member
    6006                      .dwattr $C$DW$407, DW_AT_type(*$C$DW$T$43)
    6007                      .dwattr $C$DW$407, DW_AT_name("PCO")
    6008                      .dwattr $C$DW$407, DW_AT_bit_offset(0x09)
    6009                      .dwattr $C$DW$407, DW_AT_bit_size(0x01)
    6010                      .dwattr $C$DW$407, DW_AT_accessibility(DW_ACCESS_public)
    6011                      .dwattr $C$DW$407, DW_AT_decl_file("C:\ti\C2000Ware_MotorControl_SDK_5_04_00_00\c2000ware\device_supp
    6012                      .dwattr $C$DW$407, DW_AT_decl_line(0xa7)
    6013                      .dwattr $C$DW$407, DW_AT_decl_column(0x0c)
    6014              
    6015              $C$DW$408       .dwtag  DW_TAG_member
    6016                      .dwattr $C$DW$408, DW_AT_type(*$C$DW$T$43)
    6017                      .dwattr $C$DW$408, DW_AT_name("PCR")
    6018                      .dwattr $C$DW$408, DW_AT_bit_offset(0x08)
    6019                      .dwattr $C$DW$408, DW_AT_bit_size(0x01)
    6020                      .dwattr $C$DW$408, DW_AT_accessibility(DW_ACCESS_public)
    6021                      .dwattr $C$DW$408, DW_AT_decl_file("C:\ti\C2000Ware_MotorControl_SDK_5_04_00_00\c2000ware\device_supp
    6022                      .dwattr $C$DW$408, DW_AT_decl_line(0xa8)
    6023                      .dwattr $C$DW$408, DW_AT_decl_column(0x0c)
    6024              
    6025              $C$DW$409       .dwtag  DW_TAG_member
    6026                      .dwattr $C$DW$409, DW_AT_type(*$C$DW$T$43)
    6027                      .dwattr $C$DW$409, DW_AT_name("PCM")
    6028                      .dwattr $C$DW$409, DW_AT_bit_offset(0x07)
    6029                      .dwattr $C$DW$409, DW_AT_bit_size(0x01)
    6030                      .dwattr $C$DW$409, DW_AT_accessibility(DW_ACCESS_public)
    6031                      .dwattr $C$DW$409, DW_AT_decl_file("C:\ti\C2000Ware_MotorControl_SDK_5_04_00_00\c2000ware\device_supp
    6032                      .dwattr $C$DW$409, DW_AT_decl_line(0xa9)
    6033                      .dwattr $C$DW$409, DW_AT_decl_column(0x0c)
    6034              
    6035              $C$DW$410       .dwtag  DW_TAG_member
    6036                      .dwattr $C$DW$410, DW_AT_type(*$C$DW$T$43)
    6037                      .dwattr $C$DW$410, DW_AT_name("SEL")
    6038                      .dwattr $C$DW$410, DW_AT_bit_offset(0x06)
    6039                      .dwattr $C$DW$410, DW_AT_bit_size(0x01)
TMS320C2000 Assembler PC v22.6.2 Wed Dec 10 14:45:02 2025

Copyright (c) 1996-2018 Texas Instruments Incorporated
fcl_foc_cpu_dm.asm                                                   PAGE  115

    6040                      .dwattr $C$DW$410, DW_AT_accessibility(DW_ACCESS_public)
    6041                      .dwattr $C$DW$410, DW_AT_decl_file("C:\ti\C2000Ware_MotorControl_SDK_5_04_00_00\c2000ware\device_supp
    6042                      .dwattr $C$DW$410, DW_AT_decl_line(0xaa)
    6043                      .dwattr $C$DW$410, DW_AT_decl_column(0x0c)
    6044              
    6045              $C$DW$411       .dwtag  DW_TAG_member
    6046                      .dwattr $C$DW$411, DW_AT_type(*$C$DW$T$43)
    6047                      .dwattr $C$DW$411, DW_AT_name("IEL")
    6048                      .dwattr $C$DW$411, DW_AT_bit_offset(0x05)
    6049                      .dwattr $C$DW$411, DW_AT_bit_size(0x01)
    6050                      .dwattr $C$DW$411, DW_AT_accessibility(DW_ACCESS_public)
    6051                      .dwattr $C$DW$411, DW_AT_decl_file("C:\ti\C2000Ware_MotorControl_SDK_5_04_00_00\c2000ware\device_supp
    6052                      .dwattr $C$DW$411, DW_AT_decl_line(0xab)
    6053                      .dwattr $C$DW$411, DW_AT_decl_column(0x0c)
    6054              
    6055              $C$DW$412       .dwtag  DW_TAG_member
    6056                      .dwattr $C$DW$412, DW_AT_type(*$C$DW$T$43)
    6057                      .dwattr $C$DW$412, DW_AT_name("UTO")
    6058                      .dwattr $C$DW$412, DW_AT_bit_offset(0x04)
    6059                      .dwattr $C$DW$412, DW_AT_bit_size(0x01)
    6060                      .dwattr $C$DW$412, DW_AT_accessibility(DW_ACCESS_public)
    6061                      .dwattr $C$DW$412, DW_AT_decl_file("C:\ti\C2000Ware_MotorControl_SDK_5_04_00_00\c2000ware\device_supp
    6062                      .dwattr $C$DW$412, DW_AT_decl_line(0xac)
    6063                      .dwattr $C$DW$412, DW_AT_decl_column(0x0c)
    6064              
    6065              $C$DW$413       .dwtag  DW_TAG_member
    6066                      .dwattr $C$DW$413, DW_AT_type(*$C$DW$T$43)
    6067                      .dwattr $C$DW$413, DW_AT_name("QMAE")
    6068                      .dwattr $C$DW$413, DW_AT_bit_offset(0x03)
    6069                      .dwattr $C$DW$413, DW_AT_bit_size(0x01)
    6070                      .dwattr $C$DW$413, DW_AT_accessibility(DW_ACCESS_public)
    6071                      .dwattr $C$DW$413, DW_AT_decl_file("C:\ti\C2000Ware_MotorControl_SDK_5_04_00_00\c2000ware\device_supp
    6072                      .dwattr $C$DW$413, DW_AT_decl_line(0xad)
    6073                      .dwattr $C$DW$413, DW_AT_decl_column(0x0c)
    6074              
    6075              $C$DW$414       .dwtag  DW_TAG_member
    6076                      .dwattr $C$DW$414, DW_AT_type(*$C$DW$T$43)
    6077                      .dwattr $C$DW$414, DW_AT_name("rsvd1")
    6078                      .dwattr $C$DW$414, DW_AT_bit_offset(0x00)
    6079                      .dwattr $C$DW$414, DW_AT_bit_size(0x03)
    6080                      .dwattr $C$DW$414, DW_AT_accessibility(DW_ACCESS_public)
    6081                      .dwattr $C$DW$414, DW_AT_decl_file("C:\ti\C2000Ware_MotorControl_SDK_5_04_00_00\c2000ware\device_supp
    6082                      .dwattr $C$DW$414, DW_AT_decl_line(0xae)
    6083                      .dwattr $C$DW$414, DW_AT_decl_column(0x0c)
    6084              
    6085                      .dwattr $C$DW$T$52, DW_AT_decl_file("C:\ti\C2000Ware_MotorControl_SDK_5_04_00_00\c2000ware\device_sup
    6086                      .dwattr $C$DW$T$52, DW_AT_decl_line(0xa0)
    6087                      .dwattr $C$DW$T$52, DW_AT_decl_column(0x08)
    6088                      .dwendtag $C$DW$T$52
    6089              
    6090                      .dwendtag $C$DW$TU$52
    6091              
    6092              
    6093              $C$DW$TU$53     .dwtag  DW_TAG_type_unit
    6094                      .dwmtype  $C$DW$T$53
TMS320C2000 Assembler PC v22.6.2 Wed Dec 10 14:45:02 2025

Copyright (c) 1996-2018 Texas Instruments Incorporated
fcl_foc_cpu_dm.asm                                                   PAGE  116

    6095              
    6096              $C$DW$T$53      .dwtag  DW_TAG_union_type
    6097                      .dwattr $C$DW$T$53, DW_AT_name("QCLR_REG")
    6098                      .dwattr $C$DW$T$53, DW_AT_byte_size(0x01)
    6099              $C$DW$415       .dwtag  DW_TAG_member
    6100                      .dwattr $C$DW$415, DW_AT_type(*$C$DW$T$43)
    6101                      .dwattr $C$DW$415, DW_AT_name("all")
    6102                      .dwattr $C$DW$415, DW_AT_accessibility(DW_ACCESS_public)
    6103                      .dwattr $C$DW$415, DW_AT_decl_file("C:\ti\C2000Ware_MotorControl_SDK_5_04_00_00\c2000ware\device_supp
    6104                      .dwattr $C$DW$415, DW_AT_decl_line(0xb2)
    6105                      .dwattr $C$DW$415, DW_AT_decl_column(0x0d)
    6106              
    6107              $C$DW$416       .dwtag  DW_TAG_member
    6108                      .dwattr $C$DW$416, DW_AT_type(*$C$DW$T$52)
    6109                      .dwattr $C$DW$416, DW_AT_name("bit")
    6110                      .dwattr $C$DW$416, DW_AT_accessibility(DW_ACCESS_public)
    6111                      .dwattr $C$DW$416, DW_AT_decl_file("C:\ti\C2000Ware_MotorControl_SDK_5_04_00_00\c2000ware\device_supp
    6112                      .dwattr $C$DW$416, DW_AT_decl_line(0xb3)
    6113                      .dwattr $C$DW$416, DW_AT_decl_column(0x18)
    6114              
    6115                      .dwattr $C$DW$T$53, DW_AT_decl_file("C:\ti\C2000Ware_MotorControl_SDK_5_04_00_00\c2000ware\device_sup
    6116                      .dwattr $C$DW$T$53, DW_AT_decl_line(0xb1)
    6117                      .dwattr $C$DW$T$53, DW_AT_decl_column(0x07)
    6118                      .dwendtag $C$DW$T$53
    6119              
    6120                      .dwendtag $C$DW$TU$53
    6121              
    6122              
    6123              $C$DW$TU$54     .dwtag  DW_TAG_type_unit
    6124                      .dwmtype  $C$DW$T$54
    6125              
    6126              $C$DW$T$54      .dwtag  DW_TAG_structure_type
    6127                      .dwattr $C$DW$T$54, DW_AT_name("QDECCTL_BITS")
    6128                      .dwattr $C$DW$T$54, DW_AT_byte_size(0x01)
    6129              $C$DW$417       .dwtag  DW_TAG_member
    6130                      .dwattr $C$DW$417, DW_AT_type(*$C$DW$T$43)
    6131                      .dwattr $C$DW$417, DW_AT_name("QIDIRE")
    6132                      .dwattr $C$DW$417, DW_AT_bit_offset(0x0f)
    6133                      .dwattr $C$DW$417, DW_AT_bit_size(0x01)
    6134                      .dwattr $C$DW$417, DW_AT_accessibility(DW_ACCESS_public)
    6135                      .dwattr $C$DW$417, DW_AT_decl_file("C:\ti\C2000Ware_MotorControl_SDK_5_04_00_00\c2000ware\device_supp
    6136                      .dwattr $C$DW$417, DW_AT_decl_line(0x35)
    6137                      .dwattr $C$DW$417, DW_AT_decl_column(0x0c)
    6138              
    6139              $C$DW$418       .dwtag  DW_TAG_member
    6140                      .dwattr $C$DW$418, DW_AT_type(*$C$DW$T$43)
    6141                      .dwattr $C$DW$418, DW_AT_name("rsvd1")
    6142                      .dwattr $C$DW$418, DW_AT_bit_offset(0x0b)
    6143                      .dwattr $C$DW$418, DW_AT_bit_size(0x04)
    6144                      .dwattr $C$DW$418, DW_AT_accessibility(DW_ACCESS_public)
    6145                      .dwattr $C$DW$418, DW_AT_decl_file("C:\ti\C2000Ware_MotorControl_SDK_5_04_00_00\c2000ware\device_supp
    6146                      .dwattr $C$DW$418, DW_AT_decl_line(0x36)
    6147                      .dwattr $C$DW$418, DW_AT_decl_column(0x0c)
    6148              
    6149              $C$DW$419       .dwtag  DW_TAG_member
TMS320C2000 Assembler PC v22.6.2 Wed Dec 10 14:45:02 2025

Copyright (c) 1996-2018 Texas Instruments Incorporated
fcl_foc_cpu_dm.asm                                                   PAGE  117

    6150                      .dwattr $C$DW$419, DW_AT_type(*$C$DW$T$43)
    6151                      .dwattr $C$DW$419, DW_AT_name("QSP")
    6152                      .dwattr $C$DW$419, DW_AT_bit_offset(0x0a)
    6153                      .dwattr $C$DW$419, DW_AT_bit_size(0x01)
    6154                      .dwattr $C$DW$419, DW_AT_accessibility(DW_ACCESS_public)
    6155                      .dwattr $C$DW$419, DW_AT_decl_file("C:\ti\C2000Ware_MotorControl_SDK_5_04_00_00\c2000ware\device_supp
    6156                      .dwattr $C$DW$419, DW_AT_decl_line(0x37)
    6157                      .dwattr $C$DW$419, DW_AT_decl_column(0x0c)
    6158              
    6159              $C$DW$420       .dwtag  DW_TAG_member
    6160                      .dwattr $C$DW$420, DW_AT_type(*$C$DW$T$43)
    6161                      .dwattr $C$DW$420, DW_AT_name("QIP")
    6162                      .dwattr $C$DW$420, DW_AT_bit_offset(0x09)
    6163                      .dwattr $C$DW$420, DW_AT_bit_size(0x01)
    6164                      .dwattr $C$DW$420, DW_AT_accessibility(DW_ACCESS_public)
    6165                      .dwattr $C$DW$420, DW_AT_decl_file("C:\ti\C2000Ware_MotorControl_SDK_5_04_00_00\c2000ware\device_supp
    6166                      .dwattr $C$DW$420, DW_AT_decl_line(0x38)
    6167                      .dwattr $C$DW$420, DW_AT_decl_column(0x0c)
    6168              
    6169              $C$DW$421       .dwtag  DW_TAG_member
    6170                      .dwattr $C$DW$421, DW_AT_type(*$C$DW$T$43)
    6171                      .dwattr $C$DW$421, DW_AT_name("QBP")
    6172                      .dwattr $C$DW$421, DW_AT_bit_offset(0x08)
    6173                      .dwattr $C$DW$421, DW_AT_bit_size(0x01)
    6174                      .dwattr $C$DW$421, DW_AT_accessibility(DW_ACCESS_public)
    6175                      .dwattr $C$DW$421, DW_AT_decl_file("C:\ti\C2000Ware_MotorControl_SDK_5_04_00_00\c2000ware\device_supp
    6176                      .dwattr $C$DW$421, DW_AT_decl_line(0x39)
    6177                      .dwattr $C$DW$421, DW_AT_decl_column(0x0c)
    6178              
    6179              $C$DW$422       .dwtag  DW_TAG_member
    6180                      .dwattr $C$DW$422, DW_AT_type(*$C$DW$T$43)
    6181                      .dwattr $C$DW$422, DW_AT_name("QAP")
    6182                      .dwattr $C$DW$422, DW_AT_bit_offset(0x07)
    6183                      .dwattr $C$DW$422, DW_AT_bit_size(0x01)
    6184                      .dwattr $C$DW$422, DW_AT_accessibility(DW_ACCESS_public)
    6185                      .dwattr $C$DW$422, DW_AT_decl_file("C:\ti\C2000Ware_MotorControl_SDK_5_04_00_00\c2000ware\device_supp
    6186                      .dwattr $C$DW$422, DW_AT_decl_line(0x3a)
    6187                      .dwattr $C$DW$422, DW_AT_decl_column(0x0c)
    6188              
    6189              $C$DW$423       .dwtag  DW_TAG_member
    6190                      .dwattr $C$DW$423, DW_AT_type(*$C$DW$T$43)
    6191                      .dwattr $C$DW$423, DW_AT_name("IGATE")
    6192                      .dwattr $C$DW$423, DW_AT_bit_offset(0x06)
    6193                      .dwattr $C$DW$423, DW_AT_bit_size(0x01)
    6194                      .dwattr $C$DW$423, DW_AT_accessibility(DW_ACCESS_public)
    6195                      .dwattr $C$DW$423, DW_AT_decl_file("C:\ti\C2000Ware_MotorControl_SDK_5_04_00_00\c2000ware\device_supp
    6196                      .dwattr $C$DW$423, DW_AT_decl_line(0x3b)
    6197                      .dwattr $C$DW$423, DW_AT_decl_column(0x0c)
    6198              
    6199              $C$DW$424       .dwtag  DW_TAG_member
    6200                      .dwattr $C$DW$424, DW_AT_type(*$C$DW$T$43)
    6201                      .dwattr $C$DW$424, DW_AT_name("SWAP")
    6202                      .dwattr $C$DW$424, DW_AT_bit_offset(0x05)
    6203                      .dwattr $C$DW$424, DW_AT_bit_size(0x01)
    6204                      .dwattr $C$DW$424, DW_AT_accessibility(DW_ACCESS_public)
TMS320C2000 Assembler PC v22.6.2 Wed Dec 10 14:45:02 2025

Copyright (c) 1996-2018 Texas Instruments Incorporated
fcl_foc_cpu_dm.asm                                                   PAGE  118

    6205                      .dwattr $C$DW$424, DW_AT_decl_file("C:\ti\C2000Ware_MotorControl_SDK_5_04_00_00\c2000ware\device_supp
    6206                      .dwattr $C$DW$424, DW_AT_decl_line(0x3c)
    6207                      .dwattr $C$DW$424, DW_AT_decl_column(0x0c)
    6208              
    6209              $C$DW$425       .dwtag  DW_TAG_member
    6210                      .dwattr $C$DW$425, DW_AT_type(*$C$DW$T$43)
    6211                      .dwattr $C$DW$425, DW_AT_name("XCR")
    6212                      .dwattr $C$DW$425, DW_AT_bit_offset(0x04)
    6213                      .dwattr $C$DW$425, DW_AT_bit_size(0x01)
    6214                      .dwattr $C$DW$425, DW_AT_accessibility(DW_ACCESS_public)
    6215                      .dwattr $C$DW$425, DW_AT_decl_file("C:\ti\C2000Ware_MotorControl_SDK_5_04_00_00\c2000ware\device_supp
    6216                      .dwattr $C$DW$425, DW_AT_decl_line(0x3d)
    6217                      .dwattr $C$DW$425, DW_AT_decl_column(0x0c)
    6218              
    6219              $C$DW$426       .dwtag  DW_TAG_member
    6220                      .dwattr $C$DW$426, DW_AT_type(*$C$DW$T$43)
    6221                      .dwattr $C$DW$426, DW_AT_name("SPSEL")
    6222                      .dwattr $C$DW$426, DW_AT_bit_offset(0x03)
    6223                      .dwattr $C$DW$426, DW_AT_bit_size(0x01)
    6224                      .dwattr $C$DW$426, DW_AT_accessibility(DW_ACCESS_public)
    6225                      .dwattr $C$DW$426, DW_AT_decl_file("C:\ti\C2000Ware_MotorControl_SDK_5_04_00_00\c2000ware\device_supp
    6226                      .dwattr $C$DW$426, DW_AT_decl_line(0x3e)
    6227                      .dwattr $C$DW$426, DW_AT_decl_column(0x0c)
    6228              
    6229              $C$DW$427       .dwtag  DW_TAG_member
    6230                      .dwattr $C$DW$427, DW_AT_type(*$C$DW$T$43)
    6231                      .dwattr $C$DW$427, DW_AT_name("SOEN")
    6232                      .dwattr $C$DW$427, DW_AT_bit_offset(0x02)
    6233                      .dwattr $C$DW$427, DW_AT_bit_size(0x01)
    6234                      .dwattr $C$DW$427, DW_AT_accessibility(DW_ACCESS_public)
    6235                      .dwattr $C$DW$427, DW_AT_decl_file("C:\ti\C2000Ware_MotorControl_SDK_5_04_00_00\c2000ware\device_supp
    6236                      .dwattr $C$DW$427, DW_AT_decl_line(0x3f)
    6237                      .dwattr $C$DW$427, DW_AT_decl_column(0x0c)
    6238              
    6239              $C$DW$428       .dwtag  DW_TAG_member
    6240                      .dwattr $C$DW$428, DW_AT_type(*$C$DW$T$43)
    6241                      .dwattr $C$DW$428, DW_AT_name("QSRC")
    6242                      .dwattr $C$DW$428, DW_AT_bit_offset(0x00)
    6243                      .dwattr $C$DW$428, DW_AT_bit_size(0x02)
    6244                      .dwattr $C$DW$428, DW_AT_accessibility(DW_ACCESS_public)
    6245                      .dwattr $C$DW$428, DW_AT_decl_file("C:\ti\C2000Ware_MotorControl_SDK_5_04_00_00\c2000ware\device_supp
    6246                      .dwattr $C$DW$428, DW_AT_decl_line(0x40)
    6247                      .dwattr $C$DW$428, DW_AT_decl_column(0x0c)
    6248              
    6249                      .dwattr $C$DW$T$54, DW_AT_decl_file("C:\ti\C2000Ware_MotorControl_SDK_5_04_00_00\c2000ware\device_sup
    6250                      .dwattr $C$DW$T$54, DW_AT_decl_line(0x34)
    6251                      .dwattr $C$DW$T$54, DW_AT_decl_column(0x08)
    6252                      .dwendtag $C$DW$T$54
    6253              
    6254                      .dwendtag $C$DW$TU$54
    6255              
    6256              
    6257              $C$DW$TU$55     .dwtag  DW_TAG_type_unit
    6258                      .dwmtype  $C$DW$T$55
    6259              
TMS320C2000 Assembler PC v22.6.2 Wed Dec 10 14:45:02 2025

Copyright (c) 1996-2018 Texas Instruments Incorporated
fcl_foc_cpu_dm.asm                                                   PAGE  119

    6260              $C$DW$T$55      .dwtag  DW_TAG_union_type
    6261                      .dwattr $C$DW$T$55, DW_AT_name("QDECCTL_REG")
    6262                      .dwattr $C$DW$T$55, DW_AT_byte_size(0x01)
    6263              $C$DW$429       .dwtag  DW_TAG_member
    6264                      .dwattr $C$DW$429, DW_AT_type(*$C$DW$T$43)
    6265                      .dwattr $C$DW$429, DW_AT_name("all")
    6266                      .dwattr $C$DW$429, DW_AT_accessibility(DW_ACCESS_public)
    6267                      .dwattr $C$DW$429, DW_AT_decl_file("C:\ti\C2000Ware_MotorControl_SDK_5_04_00_00\c2000ware\device_supp
    6268                      .dwattr $C$DW$429, DW_AT_decl_line(0x44)
    6269                      .dwattr $C$DW$429, DW_AT_decl_column(0x0d)
    6270              
    6271              $C$DW$430       .dwtag  DW_TAG_member
    6272                      .dwattr $C$DW$430, DW_AT_type(*$C$DW$T$54)
    6273                      .dwattr $C$DW$430, DW_AT_name("bit")
    6274                      .dwattr $C$DW$430, DW_AT_accessibility(DW_ACCESS_public)
    6275                      .dwattr $C$DW$430, DW_AT_decl_file("C:\ti\C2000Ware_MotorControl_SDK_5_04_00_00\c2000ware\device_supp
    6276                      .dwattr $C$DW$430, DW_AT_decl_line(0x45)
    6277                      .dwattr $C$DW$430, DW_AT_decl_column(0x1b)
    6278              
    6279                      .dwattr $C$DW$T$55, DW_AT_decl_file("C:\ti\C2000Ware_MotorControl_SDK_5_04_00_00\c2000ware\device_sup
    6280                      .dwattr $C$DW$T$55, DW_AT_decl_line(0x43)
    6281                      .dwattr $C$DW$T$55, DW_AT_decl_column(0x07)
    6282                      .dwendtag $C$DW$T$55
    6283              
    6284                      .dwendtag $C$DW$TU$55
    6285              
    6286              
    6287              $C$DW$TU$56     .dwtag  DW_TAG_type_unit
    6288                      .dwmtype  $C$DW$T$56
    6289              
    6290              $C$DW$T$56      .dwtag  DW_TAG_structure_type
    6291                      .dwattr $C$DW$T$56, DW_AT_name("QEINT_BITS")
    6292                      .dwattr $C$DW$T$56, DW_AT_byte_size(0x01)
    6293              $C$DW$431       .dwtag  DW_TAG_member
    6294                      .dwattr $C$DW$431, DW_AT_type(*$C$DW$T$43)
    6295                      .dwattr $C$DW$431, DW_AT_name("rsvd1")
    6296                      .dwattr $C$DW$431, DW_AT_bit_offset(0x0f)
    6297                      .dwattr $C$DW$431, DW_AT_bit_size(0x01)
    6298                      .dwattr $C$DW$431, DW_AT_accessibility(DW_ACCESS_public)
    6299                      .dwattr $C$DW$431, DW_AT_decl_file("C:\ti\C2000Ware_MotorControl_SDK_5_04_00_00\c2000ware\device_supp
    6300                      .dwattr $C$DW$431, DW_AT_decl_line(0x75)
    6301                      .dwattr $C$DW$431, DW_AT_decl_column(0x0c)
    6302              
    6303              $C$DW$432       .dwtag  DW_TAG_member
    6304                      .dwattr $C$DW$432, DW_AT_type(*$C$DW$T$43)
    6305                      .dwattr $C$DW$432, DW_AT_name("PCE")
    6306                      .dwattr $C$DW$432, DW_AT_bit_offset(0x0e)
    6307                      .dwattr $C$DW$432, DW_AT_bit_size(0x01)
    6308                      .dwattr $C$DW$432, DW_AT_accessibility(DW_ACCESS_public)
    6309                      .dwattr $C$DW$432, DW_AT_decl_file("C:\ti\C2000Ware_MotorControl_SDK_5_04_00_00\c2000ware\device_supp
    6310                      .dwattr $C$DW$432, DW_AT_decl_line(0x76)
    6311                      .dwattr $C$DW$432, DW_AT_decl_column(0x0c)
    6312              
    6313              $C$DW$433       .dwtag  DW_TAG_member
    6314                      .dwattr $C$DW$433, DW_AT_type(*$C$DW$T$43)
TMS320C2000 Assembler PC v22.6.2 Wed Dec 10 14:45:02 2025

Copyright (c) 1996-2018 Texas Instruments Incorporated
fcl_foc_cpu_dm.asm                                                   PAGE  120

    6315                      .dwattr $C$DW$433, DW_AT_name("QPE")
    6316                      .dwattr $C$DW$433, DW_AT_bit_offset(0x0d)
    6317                      .dwattr $C$DW$433, DW_AT_bit_size(0x01)
    6318                      .dwattr $C$DW$433, DW_AT_accessibility(DW_ACCESS_public)
    6319                      .dwattr $C$DW$433, DW_AT_decl_file("C:\ti\C2000Ware_MotorControl_SDK_5_04_00_00\c2000ware\device_supp
    6320                      .dwattr $C$DW$433, DW_AT_decl_line(0x77)
    6321                      .dwattr $C$DW$433, DW_AT_decl_column(0x0c)
    6322              
    6323              $C$DW$434       .dwtag  DW_TAG_member
    6324                      .dwattr $C$DW$434, DW_AT_type(*$C$DW$T$43)
    6325                      .dwattr $C$DW$434, DW_AT_name("QDC")
    6326                      .dwattr $C$DW$434, DW_AT_bit_offset(0x0c)
    6327                      .dwattr $C$DW$434, DW_AT_bit_size(0x01)
    6328                      .dwattr $C$DW$434, DW_AT_accessibility(DW_ACCESS_public)
    6329                      .dwattr $C$DW$434, DW_AT_decl_file("C:\ti\C2000Ware_MotorControl_SDK_5_04_00_00\c2000ware\device_supp
    6330                      .dwattr $C$DW$434, DW_AT_decl_line(0x78)
    6331                      .dwattr $C$DW$434, DW_AT_decl_column(0x0c)
    6332              
    6333              $C$DW$435       .dwtag  DW_TAG_member
    6334                      .dwattr $C$DW$435, DW_AT_type(*$C$DW$T$43)
    6335                      .dwattr $C$DW$435, DW_AT_name("WTO")
    6336                      .dwattr $C$DW$435, DW_AT_bit_offset(0x0b)
    6337                      .dwattr $C$DW$435, DW_AT_bit_size(0x01)
    6338                      .dwattr $C$DW$435, DW_AT_accessibility(DW_ACCESS_public)
    6339                      .dwattr $C$DW$435, DW_AT_decl_file("C:\ti\C2000Ware_MotorControl_SDK_5_04_00_00\c2000ware\device_supp
    6340                      .dwattr $C$DW$435, DW_AT_decl_line(0x79)
    6341                      .dwattr $C$DW$435, DW_AT_decl_column(0x0c)
    6342              
    6343              $C$DW$436       .dwtag  DW_TAG_member
    6344                      .dwattr $C$DW$436, DW_AT_type(*$C$DW$T$43)
    6345                      .dwattr $C$DW$436, DW_AT_name("PCU")
    6346                      .dwattr $C$DW$436, DW_AT_bit_offset(0x0a)
    6347                      .dwattr $C$DW$436, DW_AT_bit_size(0x01)
    6348                      .dwattr $C$DW$436, DW_AT_accessibility(DW_ACCESS_public)
    6349                      .dwattr $C$DW$436, DW_AT_decl_file("C:\ti\C2000Ware_MotorControl_SDK_5_04_00_00\c2000ware\device_supp
    6350                      .dwattr $C$DW$436, DW_AT_decl_line(0x7a)
    6351                      .dwattr $C$DW$436, DW_AT_decl_column(0x0c)
    6352              
    6353              $C$DW$437       .dwtag  DW_TAG_member
    6354                      .dwattr $C$DW$437, DW_AT_type(*$C$DW$T$43)
    6355                      .dwattr $C$DW$437, DW_AT_name("PCO")
    6356                      .dwattr $C$DW$437, DW_AT_bit_offset(0x09)
    6357                      .dwattr $C$DW$437, DW_AT_bit_size(0x01)
    6358                      .dwattr $C$DW$437, DW_AT_accessibility(DW_ACCESS_public)
    6359                      .dwattr $C$DW$437, DW_AT_decl_file("C:\ti\C2000Ware_MotorControl_SDK_5_04_00_00\c2000ware\device_supp
    6360                      .dwattr $C$DW$437, DW_AT_decl_line(0x7b)
    6361                      .dwattr $C$DW$437, DW_AT_decl_column(0x0c)
    6362              
    6363              $C$DW$438       .dwtag  DW_TAG_member
    6364                      .dwattr $C$DW$438, DW_AT_type(*$C$DW$T$43)
    6365                      .dwattr $C$DW$438, DW_AT_name("PCR")
    6366                      .dwattr $C$DW$438, DW_AT_bit_offset(0x08)
    6367                      .dwattr $C$DW$438, DW_AT_bit_size(0x01)
    6368                      .dwattr $C$DW$438, DW_AT_accessibility(DW_ACCESS_public)
    6369                      .dwattr $C$DW$438, DW_AT_decl_file("C:\ti\C2000Ware_MotorControl_SDK_5_04_00_00\c2000ware\device_supp
TMS320C2000 Assembler PC v22.6.2 Wed Dec 10 14:45:02 2025

Copyright (c) 1996-2018 Texas Instruments Incorporated
fcl_foc_cpu_dm.asm                                                   PAGE  121

    6370                      .dwattr $C$DW$438, DW_AT_decl_line(0x7c)
    6371                      .dwattr $C$DW$438, DW_AT_decl_column(0x0c)
    6372              
    6373              $C$DW$439       .dwtag  DW_TAG_member
    6374                      .dwattr $C$DW$439, DW_AT_type(*$C$DW$T$43)
    6375                      .dwattr $C$DW$439, DW_AT_name("PCM")
    6376                      .dwattr $C$DW$439, DW_AT_bit_offset(0x07)
    6377                      .dwattr $C$DW$439, DW_AT_bit_size(0x01)
    6378                      .dwattr $C$DW$439, DW_AT_accessibility(DW_ACCESS_public)
    6379                      .dwattr $C$DW$439, DW_AT_decl_file("C:\ti\C2000Ware_MotorControl_SDK_5_04_00_00\c2000ware\device_supp
    6380                      .dwattr $C$DW$439, DW_AT_decl_line(0x7d)
    6381                      .dwattr $C$DW$439, DW_AT_decl_column(0x0c)
    6382              
    6383              $C$DW$440       .dwtag  DW_TAG_member
    6384                      .dwattr $C$DW$440, DW_AT_type(*$C$DW$T$43)
    6385                      .dwattr $C$DW$440, DW_AT_name("SEL")
    6386                      .dwattr $C$DW$440, DW_AT_bit_offset(0x06)
    6387                      .dwattr $C$DW$440, DW_AT_bit_size(0x01)
    6388                      .dwattr $C$DW$440, DW_AT_accessibility(DW_ACCESS_public)
    6389                      .dwattr $C$DW$440, DW_AT_decl_file("C:\ti\C2000Ware_MotorControl_SDK_5_04_00_00\c2000ware\device_supp
    6390                      .dwattr $C$DW$440, DW_AT_decl_line(0x7e)
    6391                      .dwattr $C$DW$440, DW_AT_decl_column(0x0c)
    6392              
    6393              $C$DW$441       .dwtag  DW_TAG_member
    6394                      .dwattr $C$DW$441, DW_AT_type(*$C$DW$T$43)
    6395                      .dwattr $C$DW$441, DW_AT_name("IEL")
    6396                      .dwattr $C$DW$441, DW_AT_bit_offset(0x05)
    6397                      .dwattr $C$DW$441, DW_AT_bit_size(0x01)
    6398                      .dwattr $C$DW$441, DW_AT_accessibility(DW_ACCESS_public)
    6399                      .dwattr $C$DW$441, DW_AT_decl_file("C:\ti\C2000Ware_MotorControl_SDK_5_04_00_00\c2000ware\device_supp
    6400                      .dwattr $C$DW$441, DW_AT_decl_line(0x7f)
    6401                      .dwattr $C$DW$441, DW_AT_decl_column(0x0c)
    6402              
    6403              $C$DW$442       .dwtag  DW_TAG_member
    6404                      .dwattr $C$DW$442, DW_AT_type(*$C$DW$T$43)
    6405                      .dwattr $C$DW$442, DW_AT_name("UTO")
    6406                      .dwattr $C$DW$442, DW_AT_bit_offset(0x04)
    6407                      .dwattr $C$DW$442, DW_AT_bit_size(0x01)
    6408                      .dwattr $C$DW$442, DW_AT_accessibility(DW_ACCESS_public)
    6409                      .dwattr $C$DW$442, DW_AT_decl_file("C:\ti\C2000Ware_MotorControl_SDK_5_04_00_00\c2000ware\device_supp
    6410                      .dwattr $C$DW$442, DW_AT_decl_line(0x80)
    6411                      .dwattr $C$DW$442, DW_AT_decl_column(0x0c)
    6412              
    6413              $C$DW$443       .dwtag  DW_TAG_member
    6414                      .dwattr $C$DW$443, DW_AT_type(*$C$DW$T$43)
    6415                      .dwattr $C$DW$443, DW_AT_name("QMAE")
    6416                      .dwattr $C$DW$443, DW_AT_bit_offset(0x03)
    6417                      .dwattr $C$DW$443, DW_AT_bit_size(0x01)
    6418                      .dwattr $C$DW$443, DW_AT_accessibility(DW_ACCESS_public)
    6419                      .dwattr $C$DW$443, DW_AT_decl_file("C:\ti\C2000Ware_MotorControl_SDK_5_04_00_00\c2000ware\device_supp
    6420                      .dwattr $C$DW$443, DW_AT_decl_line(0x81)
    6421                      .dwattr $C$DW$443, DW_AT_decl_column(0x0c)
    6422              
    6423              $C$DW$444       .dwtag  DW_TAG_member
    6424                      .dwattr $C$DW$444, DW_AT_type(*$C$DW$T$43)
TMS320C2000 Assembler PC v22.6.2 Wed Dec 10 14:45:02 2025

Copyright (c) 1996-2018 Texas Instruments Incorporated
fcl_foc_cpu_dm.asm                                                   PAGE  122

    6425                      .dwattr $C$DW$444, DW_AT_name("rsvd2")
    6426                      .dwattr $C$DW$444, DW_AT_bit_offset(0x00)
    6427                      .dwattr $C$DW$444, DW_AT_bit_size(0x03)
    6428                      .dwattr $C$DW$444, DW_AT_accessibility(DW_ACCESS_public)
    6429                      .dwattr $C$DW$444, DW_AT_decl_file("C:\ti\C2000Ware_MotorControl_SDK_5_04_00_00\c2000ware\device_supp
    6430                      .dwattr $C$DW$444, DW_AT_decl_line(0x82)
    6431                      .dwattr $C$DW$444, DW_AT_decl_column(0x0c)
    6432              
    6433                      .dwattr $C$DW$T$56, DW_AT_decl_file("C:\ti\C2000Ware_MotorControl_SDK_5_04_00_00\c2000ware\device_sup
    6434                      .dwattr $C$DW$T$56, DW_AT_decl_line(0x74)
    6435                      .dwattr $C$DW$T$56, DW_AT_decl_column(0x08)
    6436                      .dwendtag $C$DW$T$56
    6437              
    6438                      .dwendtag $C$DW$TU$56
    6439              
    6440              
    6441              $C$DW$TU$57     .dwtag  DW_TAG_type_unit
    6442                      .dwmtype  $C$DW$T$57
    6443              
    6444              $C$DW$T$57      .dwtag  DW_TAG_union_type
    6445                      .dwattr $C$DW$T$57, DW_AT_name("QEINT_REG")
    6446                      .dwattr $C$DW$T$57, DW_AT_byte_size(0x01)
    6447              $C$DW$445       .dwtag  DW_TAG_member
    6448                      .dwattr $C$DW$445, DW_AT_type(*$C$DW$T$43)
    6449                      .dwattr $C$DW$445, DW_AT_name("all")
    6450                      .dwattr $C$DW$445, DW_AT_accessibility(DW_ACCESS_public)
    6451                      .dwattr $C$DW$445, DW_AT_decl_file("C:\ti\C2000Ware_MotorControl_SDK_5_04_00_00\c2000ware\device_supp
    6452                      .dwattr $C$DW$445, DW_AT_decl_line(0x86)
    6453                      .dwattr $C$DW$445, DW_AT_decl_column(0x0d)
    6454              
    6455              $C$DW$446       .dwtag  DW_TAG_member
    6456                      .dwattr $C$DW$446, DW_AT_type(*$C$DW$T$56)
    6457                      .dwattr $C$DW$446, DW_AT_name("bit")
    6458                      .dwattr $C$DW$446, DW_AT_accessibility(DW_ACCESS_public)
    6459                      .dwattr $C$DW$446, DW_AT_decl_file("C:\ti\C2000Ware_MotorControl_SDK_5_04_00_00\c2000ware\device_supp
    6460                      .dwattr $C$DW$446, DW_AT_decl_line(0x87)
    6461                      .dwattr $C$DW$446, DW_AT_decl_column(0x19)
    6462              
    6463                      .dwattr $C$DW$T$57, DW_AT_decl_file("C:\ti\C2000Ware_MotorControl_SDK_5_04_00_00\c2000ware\device_sup
    6464                      .dwattr $C$DW$T$57, DW_AT_decl_line(0x85)
    6465                      .dwattr $C$DW$T$57, DW_AT_decl_column(0x07)
    6466                      .dwendtag $C$DW$T$57
    6467              
    6468                      .dwendtag $C$DW$TU$57
    6469              
    6470              
    6471              $C$DW$TU$58     .dwtag  DW_TAG_type_unit
    6472                      .dwmtype  $C$DW$T$58
    6473              
    6474              $C$DW$T$58      .dwtag  DW_TAG_structure_type
    6475                      .dwattr $C$DW$T$58, DW_AT_name("QEPCTL_BITS")
    6476                      .dwattr $C$DW$T$58, DW_AT_byte_size(0x01)
    6477              $C$DW$447       .dwtag  DW_TAG_member
    6478                      .dwattr $C$DW$447, DW_AT_type(*$C$DW$T$43)
    6479                      .dwattr $C$DW$447, DW_AT_name("WDE")
TMS320C2000 Assembler PC v22.6.2 Wed Dec 10 14:45:02 2025

Copyright (c) 1996-2018 Texas Instruments Incorporated
fcl_foc_cpu_dm.asm                                                   PAGE  123

    6480                      .dwattr $C$DW$447, DW_AT_bit_offset(0x0f)
    6481                      .dwattr $C$DW$447, DW_AT_bit_size(0x01)
    6482                      .dwattr $C$DW$447, DW_AT_accessibility(DW_ACCESS_public)
    6483                      .dwattr $C$DW$447, DW_AT_decl_file("C:\ti\C2000Ware_MotorControl_SDK_5_04_00_00\c2000ware\device_supp
    6484                      .dwattr $C$DW$447, DW_AT_decl_line(0x49)
    6485                      .dwattr $C$DW$447, DW_AT_decl_column(0x0c)
    6486              
    6487              $C$DW$448       .dwtag  DW_TAG_member
    6488                      .dwattr $C$DW$448, DW_AT_type(*$C$DW$T$43)
    6489                      .dwattr $C$DW$448, DW_AT_name("UTE")
    6490                      .dwattr $C$DW$448, DW_AT_bit_offset(0x0e)
    6491                      .dwattr $C$DW$448, DW_AT_bit_size(0x01)
    6492                      .dwattr $C$DW$448, DW_AT_accessibility(DW_ACCESS_public)
    6493                      .dwattr $C$DW$448, DW_AT_decl_file("C:\ti\C2000Ware_MotorControl_SDK_5_04_00_00\c2000ware\device_supp
    6494                      .dwattr $C$DW$448, DW_AT_decl_line(0x4a)
    6495                      .dwattr $C$DW$448, DW_AT_decl_column(0x0c)
    6496              
    6497              $C$DW$449       .dwtag  DW_TAG_member
    6498                      .dwattr $C$DW$449, DW_AT_type(*$C$DW$T$43)
    6499                      .dwattr $C$DW$449, DW_AT_name("QCLM")
    6500                      .dwattr $C$DW$449, DW_AT_bit_offset(0x0d)
    6501                      .dwattr $C$DW$449, DW_AT_bit_size(0x01)
    6502                      .dwattr $C$DW$449, DW_AT_accessibility(DW_ACCESS_public)
    6503                      .dwattr $C$DW$449, DW_AT_decl_file("C:\ti\C2000Ware_MotorControl_SDK_5_04_00_00\c2000ware\device_supp
    6504                      .dwattr $C$DW$449, DW_AT_decl_line(0x4b)
    6505                      .dwattr $C$DW$449, DW_AT_decl_column(0x0c)
    6506              
    6507              $C$DW$450       .dwtag  DW_TAG_member
    6508                      .dwattr $C$DW$450, DW_AT_type(*$C$DW$T$43)
    6509                      .dwattr $C$DW$450, DW_AT_name("QPEN")
    6510                      .dwattr $C$DW$450, DW_AT_bit_offset(0x0c)
    6511                      .dwattr $C$DW$450, DW_AT_bit_size(0x01)
    6512                      .dwattr $C$DW$450, DW_AT_accessibility(DW_ACCESS_public)
    6513                      .dwattr $C$DW$450, DW_AT_decl_file("C:\ti\C2000Ware_MotorControl_SDK_5_04_00_00\c2000ware\device_supp
    6514                      .dwattr $C$DW$450, DW_AT_decl_line(0x4c)
    6515                      .dwattr $C$DW$450, DW_AT_decl_column(0x0c)
    6516              
    6517              $C$DW$451       .dwtag  DW_TAG_member
    6518                      .dwattr $C$DW$451, DW_AT_type(*$C$DW$T$43)
    6519                      .dwattr $C$DW$451, DW_AT_name("IEL")
    6520                      .dwattr $C$DW$451, DW_AT_bit_offset(0x0a)
    6521                      .dwattr $C$DW$451, DW_AT_bit_size(0x02)
    6522                      .dwattr $C$DW$451, DW_AT_accessibility(DW_ACCESS_public)
    6523                      .dwattr $C$DW$451, DW_AT_decl_file("C:\ti\C2000Ware_MotorControl_SDK_5_04_00_00\c2000ware\device_supp
    6524                      .dwattr $C$DW$451, DW_AT_decl_line(0x4d)
    6525                      .dwattr $C$DW$451, DW_AT_decl_column(0x0c)
    6526              
    6527              $C$DW$452       .dwtag  DW_TAG_member
    6528                      .dwattr $C$DW$452, DW_AT_type(*$C$DW$T$43)
    6529                      .dwattr $C$DW$452, DW_AT_name("SEL")
    6530                      .dwattr $C$DW$452, DW_AT_bit_offset(0x09)
    6531                      .dwattr $C$DW$452, DW_AT_bit_size(0x01)
    6532                      .dwattr $C$DW$452, DW_AT_accessibility(DW_ACCESS_public)
    6533                      .dwattr $C$DW$452, DW_AT_decl_file("C:\ti\C2000Ware_MotorControl_SDK_5_04_00_00\c2000ware\device_supp
    6534                      .dwattr $C$DW$452, DW_AT_decl_line(0x4e)
TMS320C2000 Assembler PC v22.6.2 Wed Dec 10 14:45:02 2025

Copyright (c) 1996-2018 Texas Instruments Incorporated
fcl_foc_cpu_dm.asm                                                   PAGE  124

    6535                      .dwattr $C$DW$452, DW_AT_decl_column(0x0c)
    6536              
    6537              $C$DW$453       .dwtag  DW_TAG_member
    6538                      .dwattr $C$DW$453, DW_AT_type(*$C$DW$T$43)
    6539                      .dwattr $C$DW$453, DW_AT_name("SWI")
    6540                      .dwattr $C$DW$453, DW_AT_bit_offset(0x08)
    6541                      .dwattr $C$DW$453, DW_AT_bit_size(0x01)
    6542                      .dwattr $C$DW$453, DW_AT_accessibility(DW_ACCESS_public)
    6543                      .dwattr $C$DW$453, DW_AT_decl_file("C:\ti\C2000Ware_MotorControl_SDK_5_04_00_00\c2000ware\device_supp
    6544                      .dwattr $C$DW$453, DW_AT_decl_line(0x4f)
    6545                      .dwattr $C$DW$453, DW_AT_decl_column(0x0c)
    6546              
    6547              $C$DW$454       .dwtag  DW_TAG_member
    6548                      .dwattr $C$DW$454, DW_AT_type(*$C$DW$T$43)
    6549                      .dwattr $C$DW$454, DW_AT_name("IEI")
    6550                      .dwattr $C$DW$454, DW_AT_bit_offset(0x06)
    6551                      .dwattr $C$DW$454, DW_AT_bit_size(0x02)
    6552                      .dwattr $C$DW$454, DW_AT_accessibility(DW_ACCESS_public)
    6553                      .dwattr $C$DW$454, DW_AT_decl_file("C:\ti\C2000Ware_MotorControl_SDK_5_04_00_00\c2000ware\device_supp
    6554                      .dwattr $C$DW$454, DW_AT_decl_line(0x50)
    6555                      .dwattr $C$DW$454, DW_AT_decl_column(0x0c)
    6556              
    6557              $C$DW$455       .dwtag  DW_TAG_member
    6558                      .dwattr $C$DW$455, DW_AT_type(*$C$DW$T$43)
    6559                      .dwattr $C$DW$455, DW_AT_name("SEI")
    6560                      .dwattr $C$DW$455, DW_AT_bit_offset(0x04)
    6561                      .dwattr $C$DW$455, DW_AT_bit_size(0x02)
    6562                      .dwattr $C$DW$455, DW_AT_accessibility(DW_ACCESS_public)
    6563                      .dwattr $C$DW$455, DW_AT_decl_file("C:\ti\C2000Ware_MotorControl_SDK_5_04_00_00\c2000ware\device_supp
    6564                      .dwattr $C$DW$455, DW_AT_decl_line(0x51)
    6565                      .dwattr $C$DW$455, DW_AT_decl_column(0x0c)
    6566              
    6567              $C$DW$456       .dwtag  DW_TAG_member
    6568                      .dwattr $C$DW$456, DW_AT_type(*$C$DW$T$43)
    6569                      .dwattr $C$DW$456, DW_AT_name("PCRM")
    6570                      .dwattr $C$DW$456, DW_AT_bit_offset(0x02)
    6571                      .dwattr $C$DW$456, DW_AT_bit_size(0x02)
    6572                      .dwattr $C$DW$456, DW_AT_accessibility(DW_ACCESS_public)
    6573                      .dwattr $C$DW$456, DW_AT_decl_file("C:\ti\C2000Ware_MotorControl_SDK_5_04_00_00\c2000ware\device_supp
    6574                      .dwattr $C$DW$456, DW_AT_decl_line(0x52)
    6575                      .dwattr $C$DW$456, DW_AT_decl_column(0x0c)
    6576              
    6577              $C$DW$457       .dwtag  DW_TAG_member
    6578                      .dwattr $C$DW$457, DW_AT_type(*$C$DW$T$43)
    6579                      .dwattr $C$DW$457, DW_AT_name("FREE_SOFT")
    6580                      .dwattr $C$DW$457, DW_AT_bit_offset(0x00)
    6581                      .dwattr $C$DW$457, DW_AT_bit_size(0x02)
    6582                      .dwattr $C$DW$457, DW_AT_accessibility(DW_ACCESS_public)
    6583                      .dwattr $C$DW$457, DW_AT_decl_file("C:\ti\C2000Ware_MotorControl_SDK_5_04_00_00\c2000ware\device_supp
    6584                      .dwattr $C$DW$457, DW_AT_decl_line(0x53)
    6585                      .dwattr $C$DW$457, DW_AT_decl_column(0x0c)
    6586              
    6587                      .dwattr $C$DW$T$58, DW_AT_decl_file("C:\ti\C2000Ware_MotorControl_SDK_5_04_00_00\c2000ware\device_sup
    6588                      .dwattr $C$DW$T$58, DW_AT_decl_line(0x48)
    6589                      .dwattr $C$DW$T$58, DW_AT_decl_column(0x08)
TMS320C2000 Assembler PC v22.6.2 Wed Dec 10 14:45:02 2025

Copyright (c) 1996-2018 Texas Instruments Incorporated
fcl_foc_cpu_dm.asm                                                   PAGE  125

    6590                      .dwendtag $C$DW$T$58
    6591              
    6592                      .dwendtag $C$DW$TU$58
    6593              
    6594              
    6595              $C$DW$TU$59     .dwtag  DW_TAG_type_unit
    6596                      .dwmtype  $C$DW$T$59
    6597              
    6598              $C$DW$T$59      .dwtag  DW_TAG_union_type
    6599                      .dwattr $C$DW$T$59, DW_AT_name("QEPCTL_REG")
    6600                      .dwattr $C$DW$T$59, DW_AT_byte_size(0x01)
    6601              $C$DW$458       .dwtag  DW_TAG_member
    6602                      .dwattr $C$DW$458, DW_AT_type(*$C$DW$T$43)
    6603                      .dwattr $C$DW$458, DW_AT_name("all")
    6604                      .dwattr $C$DW$458, DW_AT_accessibility(DW_ACCESS_public)
    6605                      .dwattr $C$DW$458, DW_AT_decl_file("C:\ti\C2000Ware_MotorControl_SDK_5_04_00_00\c2000ware\device_supp
    6606                      .dwattr $C$DW$458, DW_AT_decl_line(0x57)
    6607                      .dwattr $C$DW$458, DW_AT_decl_column(0x0d)
    6608              
    6609              $C$DW$459       .dwtag  DW_TAG_member
    6610                      .dwattr $C$DW$459, DW_AT_type(*$C$DW$T$58)
    6611                      .dwattr $C$DW$459, DW_AT_name("bit")
    6612                      .dwattr $C$DW$459, DW_AT_accessibility(DW_ACCESS_public)
    6613                      .dwattr $C$DW$459, DW_AT_decl_file("C:\ti\C2000Ware_MotorControl_SDK_5_04_00_00\c2000ware\device_supp
    6614                      .dwattr $C$DW$459, DW_AT_decl_line(0x58)
    6615                      .dwattr $C$DW$459, DW_AT_decl_column(0x1a)
    6616              
    6617                      .dwattr $C$DW$T$59, DW_AT_decl_file("C:\ti\C2000Ware_MotorControl_SDK_5_04_00_00\c2000ware\device_sup
    6618                      .dwattr $C$DW$T$59, DW_AT_decl_line(0x56)
    6619                      .dwattr $C$DW$T$59, DW_AT_decl_column(0x07)
    6620                      .dwendtag $C$DW$T$59
    6621              
    6622                      .dwendtag $C$DW$TU$59
    6623              
    6624              
    6625              $C$DW$TU$60     .dwtag  DW_TAG_type_unit
    6626                      .dwmtype  $C$DW$T$60
    6627              
    6628              $C$DW$T$60      .dwtag  DW_TAG_structure_type
    6629                      .dwattr $C$DW$T$60, DW_AT_name("QEPSRCSEL_BITS")
    6630                      .dwattr $C$DW$T$60, DW_AT_byte_size(0x02)
    6631              $C$DW$460       .dwtag  DW_TAG_member
    6632                      .dwattr $C$DW$460, DW_AT_type(*$C$DW$T$43)
    6633                      .dwattr $C$DW$460, DW_AT_name("QEPASEL")
    6634                      .dwattr $C$DW$460, DW_AT_bit_offset(0x0c)
    6635                      .dwattr $C$DW$460, DW_AT_bit_size(0x04)
    6636                      .dwattr $C$DW$460, DW_AT_accessibility(DW_ACCESS_public)
    6637                      .dwattr $C$DW$460, DW_AT_decl_file("C:\ti\C2000Ware_MotorControl_SDK_5_04_00_00\c2000ware\device_supp
    6638                      .dwattr $C$DW$460, DW_AT_decl_line(0x100)
    6639                      .dwattr $C$DW$460, DW_AT_decl_column(0x0c)
    6640              
    6641              $C$DW$461       .dwtag  DW_TAG_member
    6642                      .dwattr $C$DW$461, DW_AT_type(*$C$DW$T$43)
    6643                      .dwattr $C$DW$461, DW_AT_name("QEPBSEL")
    6644                      .dwattr $C$DW$461, DW_AT_bit_offset(0x08)
TMS320C2000 Assembler PC v22.6.2 Wed Dec 10 14:45:02 2025

Copyright (c) 1996-2018 Texas Instruments Incorporated
fcl_foc_cpu_dm.asm                                                   PAGE  126

    6645                      .dwattr $C$DW$461, DW_AT_bit_size(0x04)
    6646                      .dwattr $C$DW$461, DW_AT_accessibility(DW_ACCESS_public)
    6647                      .dwattr $C$DW$461, DW_AT_decl_file("C:\ti\C2000Ware_MotorControl_SDK_5_04_00_00\c2000ware\device_supp
    6648                      .dwattr $C$DW$461, DW_AT_decl_line(0x101)
    6649                      .dwattr $C$DW$461, DW_AT_decl_column(0x0c)
    6650              
    6651              $C$DW$462       .dwtag  DW_TAG_member
    6652                      .dwattr $C$DW$462, DW_AT_type(*$C$DW$T$43)
    6653                      .dwattr $C$DW$462, DW_AT_name("QEPISEL")
    6654                      .dwattr $C$DW$462, DW_AT_bit_offset(0x04)
    6655                      .dwattr $C$DW$462, DW_AT_bit_size(0x04)
    6656                      .dwattr $C$DW$462, DW_AT_accessibility(DW_ACCESS_public)
    6657                      .dwattr $C$DW$462, DW_AT_decl_file("C:\ti\C2000Ware_MotorControl_SDK_5_04_00_00\c2000ware\device_supp
    6658                      .dwattr $C$DW$462, DW_AT_decl_line(0x102)
    6659                      .dwattr $C$DW$462, DW_AT_decl_column(0x0c)
    6660              
    6661              $C$DW$463       .dwtag  DW_TAG_member
    6662                      .dwattr $C$DW$463, DW_AT_type(*$C$DW$T$43)
    6663                      .dwattr $C$DW$463, DW_AT_name("QEPSSEL")
    6664                      .dwattr $C$DW$463, DW_AT_bit_offset(0x00)
    6665                      .dwattr $C$DW$463, DW_AT_bit_size(0x04)
    6666                      .dwattr $C$DW$463, DW_AT_accessibility(DW_ACCESS_public)
    6667                      .dwattr $C$DW$463, DW_AT_decl_file("C:\ti\C2000Ware_MotorControl_SDK_5_04_00_00\c2000ware\device_supp
    6668                      .dwattr $C$DW$463, DW_AT_decl_line(0x103)
    6669                      .dwattr $C$DW$463, DW_AT_decl_column(0x0c)
    6670              
    6671              $C$DW$464       .dwtag  DW_TAG_member
    6672                      .dwattr $C$DW$464, DW_AT_type(*$C$DW$T$43)
    6673                      .dwattr $C$DW$464, DW_AT_name("rsvd1")
    6674                      .dwattr $C$DW$464, DW_AT_bit_offset(0x00)
    6675                      .dwattr $C$DW$464, DW_AT_bit_size(0x10)
    6676                      .dwattr $C$DW$464, DW_AT_data_member_location[DW_OP_plus_uconst 0x1]
    6677                      .dwattr $C$DW$464, DW_AT_accessibility(DW_ACCESS_public)
    6678                      .dwattr $C$DW$464, DW_AT_decl_file("C:\ti\C2000Ware_MotorControl_SDK_5_04_00_00\c2000ware\device_supp
    6679                      .dwattr $C$DW$464, DW_AT_decl_line(0x104)
    6680                      .dwattr $C$DW$464, DW_AT_decl_column(0x0c)
    6681              
    6682                      .dwattr $C$DW$T$60, DW_AT_decl_file("C:\ti\C2000Ware_MotorControl_SDK_5_04_00_00\c2000ware\device_sup
    6683                      .dwattr $C$DW$T$60, DW_AT_decl_line(0xff)
    6684                      .dwattr $C$DW$T$60, DW_AT_decl_column(0x08)
    6685                      .dwendtag $C$DW$T$60
    6686              
    6687                      .dwendtag $C$DW$TU$60
    6688              
    6689              
    6690              $C$DW$TU$61     .dwtag  DW_TAG_type_unit
    6691                      .dwmtype  $C$DW$T$61
    6692              
    6693              $C$DW$T$61      .dwtag  DW_TAG_union_type
    6694                      .dwattr $C$DW$T$61, DW_AT_name("QEPSRCSEL_REG")
    6695                      .dwattr $C$DW$T$61, DW_AT_byte_size(0x02)
    6696              $C$DW$465       .dwtag  DW_TAG_member
    6697                      .dwattr $C$DW$465, DW_AT_type(*$C$DW$T$46)
    6698                      .dwattr $C$DW$465, DW_AT_name("all")
    6699                      .dwattr $C$DW$465, DW_AT_accessibility(DW_ACCESS_public)
TMS320C2000 Assembler PC v22.6.2 Wed Dec 10 14:45:02 2025

Copyright (c) 1996-2018 Texas Instruments Incorporated
fcl_foc_cpu_dm.asm                                                   PAGE  127

    6700                      .dwattr $C$DW$465, DW_AT_decl_file("C:\ti\C2000Ware_MotorControl_SDK_5_04_00_00\c2000ware\device_supp
    6701                      .dwattr $C$DW$465, DW_AT_decl_line(0x108)
    6702                      .dwattr $C$DW$465, DW_AT_decl_column(0x0d)
    6703              
    6704              $C$DW$466       .dwtag  DW_TAG_member
    6705                      .dwattr $C$DW$466, DW_AT_type(*$C$DW$T$60)
    6706                      .dwattr $C$DW$466, DW_AT_name("bit")
    6707                      .dwattr $C$DW$466, DW_AT_accessibility(DW_ACCESS_public)
    6708                      .dwattr $C$DW$466, DW_AT_decl_file("C:\ti\C2000Ware_MotorControl_SDK_5_04_00_00\c2000ware\device_supp
    6709                      .dwattr $C$DW$466, DW_AT_decl_line(0x109)
    6710                      .dwattr $C$DW$466, DW_AT_decl_column(0x1d)
    6711              
    6712                      .dwattr $C$DW$T$61, DW_AT_decl_file("C:\ti\C2000Ware_MotorControl_SDK_5_04_00_00\c2000ware\device_sup
    6713                      .dwattr $C$DW$T$61, DW_AT_decl_line(0x107)
    6714                      .dwattr $C$DW$T$61, DW_AT_decl_column(0x07)
    6715                      .dwendtag $C$DW$T$61
    6716              
    6717                      .dwendtag $C$DW$TU$61
    6718              
    6719              
    6720              $C$DW$TU$62     .dwtag  DW_TAG_type_unit
    6721                      .dwmtype  $C$DW$T$62
    6722              
    6723              $C$DW$T$62      .dwtag  DW_TAG_structure_type
    6724                      .dwattr $C$DW$T$62, DW_AT_name("QEPSTROBESEL_BITS")
    6725                      .dwattr $C$DW$T$62, DW_AT_byte_size(0x02)
    6726              $C$DW$467       .dwtag  DW_TAG_member
    6727                      .dwattr $C$DW$467, DW_AT_type(*$C$DW$T$43)
    6728                      .dwattr $C$DW$467, DW_AT_name("STROBESEL")
    6729                      .dwattr $C$DW$467, DW_AT_bit_offset(0x0e)
    6730                      .dwattr $C$DW$467, DW_AT_bit_size(0x02)
    6731                      .dwattr $C$DW$467, DW_AT_accessibility(DW_ACCESS_public)
    6732                      .dwattr $C$DW$467, DW_AT_decl_file("C:\ti\C2000Ware_MotorControl_SDK_5_04_00_00\c2000ware\device_supp
    6733                      .dwattr $C$DW$467, DW_AT_decl_line(0xea)
    6734                      .dwattr $C$DW$467, DW_AT_decl_column(0x0c)
    6735              
    6736              $C$DW$468       .dwtag  DW_TAG_member
    6737                      .dwattr $C$DW$468, DW_AT_type(*$C$DW$T$43)
    6738                      .dwattr $C$DW$468, DW_AT_name("rsvd1")
    6739                      .dwattr $C$DW$468, DW_AT_bit_offset(0x00)
    6740                      .dwattr $C$DW$468, DW_AT_bit_size(0x0e)
    6741                      .dwattr $C$DW$468, DW_AT_accessibility(DW_ACCESS_public)
    6742                      .dwattr $C$DW$468, DW_AT_decl_file("C:\ti\C2000Ware_MotorControl_SDK_5_04_00_00\c2000ware\device_supp
    6743                      .dwattr $C$DW$468, DW_AT_decl_line(0xeb)
    6744                      .dwattr $C$DW$468, DW_AT_decl_column(0x0c)
    6745              
    6746              $C$DW$469       .dwtag  DW_TAG_member
    6747                      .dwattr $C$DW$469, DW_AT_type(*$C$DW$T$43)
    6748                      .dwattr $C$DW$469, DW_AT_name("rsvd2")
    6749                      .dwattr $C$DW$469, DW_AT_bit_offset(0x00)
    6750                      .dwattr $C$DW$469, DW_AT_bit_size(0x10)
    6751                      .dwattr $C$DW$469, DW_AT_data_member_location[DW_OP_plus_uconst 0x1]
    6752                      .dwattr $C$DW$469, DW_AT_accessibility(DW_ACCESS_public)
    6753                      .dwattr $C$DW$469, DW_AT_decl_file("C:\ti\C2000Ware_MotorControl_SDK_5_04_00_00\c2000ware\device_supp
    6754                      .dwattr $C$DW$469, DW_AT_decl_line(0xec)
TMS320C2000 Assembler PC v22.6.2 Wed Dec 10 14:45:02 2025

Copyright (c) 1996-2018 Texas Instruments Incorporated
fcl_foc_cpu_dm.asm                                                   PAGE  128

    6755                      .dwattr $C$DW$469, DW_AT_decl_column(0x0c)
    6756              
    6757                      .dwattr $C$DW$T$62, DW_AT_decl_file("C:\ti\C2000Ware_MotorControl_SDK_5_04_00_00\c2000ware\device_sup
    6758                      .dwattr $C$DW$T$62, DW_AT_decl_line(0xe9)
    6759                      .dwattr $C$DW$T$62, DW_AT_decl_column(0x08)
    6760                      .dwendtag $C$DW$T$62
    6761              
    6762                      .dwendtag $C$DW$TU$62
    6763              
    6764              
    6765              $C$DW$TU$63     .dwtag  DW_TAG_type_unit
    6766                      .dwmtype  $C$DW$T$63
    6767              
    6768              $C$DW$T$63      .dwtag  DW_TAG_union_type
    6769                      .dwattr $C$DW$T$63, DW_AT_name("QEPSTROBESEL_REG")
    6770                      .dwattr $C$DW$T$63, DW_AT_byte_size(0x02)
    6771              $C$DW$470       .dwtag  DW_TAG_member
    6772                      .dwattr $C$DW$470, DW_AT_type(*$C$DW$T$46)
    6773                      .dwattr $C$DW$470, DW_AT_name("all")
    6774                      .dwattr $C$DW$470, DW_AT_accessibility(DW_ACCESS_public)
    6775                      .dwattr $C$DW$470, DW_AT_decl_file("C:\ti\C2000Ware_MotorControl_SDK_5_04_00_00\c2000ware\device_supp
    6776                      .dwattr $C$DW$470, DW_AT_decl_line(0xf0)
    6777                      .dwattr $C$DW$470, DW_AT_decl_column(0x0d)
    6778              
    6779              $C$DW$471       .dwtag  DW_TAG_member
    6780                      .dwattr $C$DW$471, DW_AT_type(*$C$DW$T$62)
    6781                      .dwattr $C$DW$471, DW_AT_name("bit")
    6782                      .dwattr $C$DW$471, DW_AT_accessibility(DW_ACCESS_public)
    6783                      .dwattr $C$DW$471, DW_AT_decl_file("C:\ti\C2000Ware_MotorControl_SDK_5_04_00_00\c2000ware\device_supp
    6784                      .dwattr $C$DW$471, DW_AT_decl_line(0xf1)
    6785                      .dwattr $C$DW$471, DW_AT_decl_column(0x20)
    6786              
    6787                      .dwattr $C$DW$T$63, DW_AT_decl_file("C:\ti\C2000Ware_MotorControl_SDK_5_04_00_00\c2000ware\device_sup
    6788                      .dwattr $C$DW$T$63, DW_AT_decl_line(0xef)
    6789                      .dwattr $C$DW$T$63, DW_AT_decl_column(0x07)
    6790                      .dwendtag $C$DW$T$63
    6791              
    6792                      .dwendtag $C$DW$TU$63
    6793              
    6794              
    6795              $C$DW$TU$64     .dwtag  DW_TAG_type_unit
    6796                      .dwmtype  $C$DW$T$64
    6797              
    6798              $C$DW$T$64      .dwtag  DW_TAG_structure_type
    6799                      .dwattr $C$DW$T$64, DW_AT_name("QEPSTS_BITS")
    6800                      .dwattr $C$DW$T$64, DW_AT_byte_size(0x01)
    6801              $C$DW$472       .dwtag  DW_TAG_member
    6802                      .dwattr $C$DW$472, DW_AT_type(*$C$DW$T$43)
    6803                      .dwattr $C$DW$472, DW_AT_name("PCEF")
    6804                      .dwattr $C$DW$472, DW_AT_bit_offset(0x0f)
    6805                      .dwattr $C$DW$472, DW_AT_bit_size(0x01)
    6806                      .dwattr $C$DW$472, DW_AT_accessibility(DW_ACCESS_public)
    6807                      .dwattr $C$DW$472, DW_AT_decl_file("C:\ti\C2000Ware_MotorControl_SDK_5_04_00_00\c2000ware\device_supp
    6808                      .dwattr $C$DW$472, DW_AT_decl_line(0xcd)
    6809                      .dwattr $C$DW$472, DW_AT_decl_column(0x0c)
TMS320C2000 Assembler PC v22.6.2 Wed Dec 10 14:45:02 2025

Copyright (c) 1996-2018 Texas Instruments Incorporated
fcl_foc_cpu_dm.asm                                                   PAGE  129

    6810              
    6811              $C$DW$473       .dwtag  DW_TAG_member
    6812                      .dwattr $C$DW$473, DW_AT_type(*$C$DW$T$43)
    6813                      .dwattr $C$DW$473, DW_AT_name("FIMF")
    6814                      .dwattr $C$DW$473, DW_AT_bit_offset(0x0e)
    6815                      .dwattr $C$DW$473, DW_AT_bit_size(0x01)
    6816                      .dwattr $C$DW$473, DW_AT_accessibility(DW_ACCESS_public)
    6817                      .dwattr $C$DW$473, DW_AT_decl_file("C:\ti\C2000Ware_MotorControl_SDK_5_04_00_00\c2000ware\device_supp
    6818                      .dwattr $C$DW$473, DW_AT_decl_line(0xce)
    6819                      .dwattr $C$DW$473, DW_AT_decl_column(0x0c)
    6820              
    6821              $C$DW$474       .dwtag  DW_TAG_member
    6822                      .dwattr $C$DW$474, DW_AT_type(*$C$DW$T$43)
    6823                      .dwattr $C$DW$474, DW_AT_name("CDEF")
    6824                      .dwattr $C$DW$474, DW_AT_bit_offset(0x0d)
    6825                      .dwattr $C$DW$474, DW_AT_bit_size(0x01)
    6826                      .dwattr $C$DW$474, DW_AT_accessibility(DW_ACCESS_public)
    6827                      .dwattr $C$DW$474, DW_AT_decl_file("C:\ti\C2000Ware_MotorControl_SDK_5_04_00_00\c2000ware\device_supp
    6828                      .dwattr $C$DW$474, DW_AT_decl_line(0xcf)
    6829                      .dwattr $C$DW$474, DW_AT_decl_column(0x0c)
    6830              
    6831              $C$DW$475       .dwtag  DW_TAG_member
    6832                      .dwattr $C$DW$475, DW_AT_type(*$C$DW$T$43)
    6833                      .dwattr $C$DW$475, DW_AT_name("COEF")
    6834                      .dwattr $C$DW$475, DW_AT_bit_offset(0x0c)
    6835                      .dwattr $C$DW$475, DW_AT_bit_size(0x01)
    6836                      .dwattr $C$DW$475, DW_AT_accessibility(DW_ACCESS_public)
    6837                      .dwattr $C$DW$475, DW_AT_decl_file("C:\ti\C2000Ware_MotorControl_SDK_5_04_00_00\c2000ware\device_supp
    6838                      .dwattr $C$DW$475, DW_AT_decl_line(0xd0)
    6839                      .dwattr $C$DW$475, DW_AT_decl_column(0x0c)
    6840              
    6841              $C$DW$476       .dwtag  DW_TAG_member
    6842                      .dwattr $C$DW$476, DW_AT_type(*$C$DW$T$43)
    6843                      .dwattr $C$DW$476, DW_AT_name("QDLF")
    6844                      .dwattr $C$DW$476, DW_AT_bit_offset(0x0b)
    6845                      .dwattr $C$DW$476, DW_AT_bit_size(0x01)
    6846                      .dwattr $C$DW$476, DW_AT_accessibility(DW_ACCESS_public)
    6847                      .dwattr $C$DW$476, DW_AT_decl_file("C:\ti\C2000Ware_MotorControl_SDK_5_04_00_00\c2000ware\device_supp
    6848                      .dwattr $C$DW$476, DW_AT_decl_line(0xd1)
    6849                      .dwattr $C$DW$476, DW_AT_decl_column(0x0c)
    6850              
    6851              $C$DW$477       .dwtag  DW_TAG_member
    6852                      .dwattr $C$DW$477, DW_AT_type(*$C$DW$T$43)
    6853                      .dwattr $C$DW$477, DW_AT_name("QDF")
    6854                      .dwattr $C$DW$477, DW_AT_bit_offset(0x0a)
    6855                      .dwattr $C$DW$477, DW_AT_bit_size(0x01)
    6856                      .dwattr $C$DW$477, DW_AT_accessibility(DW_ACCESS_public)
    6857                      .dwattr $C$DW$477, DW_AT_decl_file("C:\ti\C2000Ware_MotorControl_SDK_5_04_00_00\c2000ware\device_supp
    6858                      .dwattr $C$DW$477, DW_AT_decl_line(0xd2)
    6859                      .dwattr $C$DW$477, DW_AT_decl_column(0x0c)
    6860              
    6861              $C$DW$478       .dwtag  DW_TAG_member
    6862                      .dwattr $C$DW$478, DW_AT_type(*$C$DW$T$43)
    6863                      .dwattr $C$DW$478, DW_AT_name("FIDF")
    6864                      .dwattr $C$DW$478, DW_AT_bit_offset(0x09)
TMS320C2000 Assembler PC v22.6.2 Wed Dec 10 14:45:02 2025

Copyright (c) 1996-2018 Texas Instruments Incorporated
fcl_foc_cpu_dm.asm                                                   PAGE  130

    6865                      .dwattr $C$DW$478, DW_AT_bit_size(0x01)
    6866                      .dwattr $C$DW$478, DW_AT_accessibility(DW_ACCESS_public)
    6867                      .dwattr $C$DW$478, DW_AT_decl_file("C:\ti\C2000Ware_MotorControl_SDK_5_04_00_00\c2000ware\device_supp
    6868                      .dwattr $C$DW$478, DW_AT_decl_line(0xd3)
    6869                      .dwattr $C$DW$478, DW_AT_decl_column(0x0c)
    6870              
    6871              $C$DW$479       .dwtag  DW_TAG_member
    6872                      .dwattr $C$DW$479, DW_AT_type(*$C$DW$T$43)
    6873                      .dwattr $C$DW$479, DW_AT_name("UPEVNT")
    6874                      .dwattr $C$DW$479, DW_AT_bit_offset(0x08)
    6875                      .dwattr $C$DW$479, DW_AT_bit_size(0x01)
    6876                      .dwattr $C$DW$479, DW_AT_accessibility(DW_ACCESS_public)
    6877                      .dwattr $C$DW$479, DW_AT_decl_file("C:\ti\C2000Ware_MotorControl_SDK_5_04_00_00\c2000ware\device_supp
    6878                      .dwattr $C$DW$479, DW_AT_decl_line(0xd4)
    6879                      .dwattr $C$DW$479, DW_AT_decl_column(0x0c)
    6880              
    6881              $C$DW$480       .dwtag  DW_TAG_member
    6882                      .dwattr $C$DW$480, DW_AT_type(*$C$DW$T$43)
    6883                      .dwattr $C$DW$480, DW_AT_name("rsvd1")
    6884                      .dwattr $C$DW$480, DW_AT_bit_offset(0x00)
    6885                      .dwattr $C$DW$480, DW_AT_bit_size(0x08)
    6886                      .dwattr $C$DW$480, DW_AT_accessibility(DW_ACCESS_public)
    6887                      .dwattr $C$DW$480, DW_AT_decl_file("C:\ti\C2000Ware_MotorControl_SDK_5_04_00_00\c2000ware\device_supp
    6888                      .dwattr $C$DW$480, DW_AT_decl_line(0xd5)
    6889                      .dwattr $C$DW$480, DW_AT_decl_column(0x0c)
    6890              
    6891                      .dwattr $C$DW$T$64, DW_AT_decl_file("C:\ti\C2000Ware_MotorControl_SDK_5_04_00_00\c2000ware\device_sup
    6892                      .dwattr $C$DW$T$64, DW_AT_decl_line(0xcc)
    6893                      .dwattr $C$DW$T$64, DW_AT_decl_column(0x08)
    6894                      .dwendtag $C$DW$T$64
    6895              
    6896                      .dwendtag $C$DW$TU$64
    6897              
    6898              
    6899              $C$DW$TU$65     .dwtag  DW_TAG_type_unit
    6900                      .dwmtype  $C$DW$T$65
    6901              
    6902              $C$DW$T$65      .dwtag  DW_TAG_union_type
    6903                      .dwattr $C$DW$T$65, DW_AT_name("QEPSTS_REG")
    6904                      .dwattr $C$DW$T$65, DW_AT_byte_size(0x01)
    6905              $C$DW$481       .dwtag  DW_TAG_member
    6906                      .dwattr $C$DW$481, DW_AT_type(*$C$DW$T$43)
    6907                      .dwattr $C$DW$481, DW_AT_name("all")
    6908                      .dwattr $C$DW$481, DW_AT_accessibility(DW_ACCESS_public)
    6909                      .dwattr $C$DW$481, DW_AT_decl_file("C:\ti\C2000Ware_MotorControl_SDK_5_04_00_00\c2000ware\device_supp
    6910                      .dwattr $C$DW$481, DW_AT_decl_line(0xd9)
    6911                      .dwattr $C$DW$481, DW_AT_decl_column(0x0d)
    6912              
    6913              $C$DW$482       .dwtag  DW_TAG_member
    6914                      .dwattr $C$DW$482, DW_AT_type(*$C$DW$T$64)
    6915                      .dwattr $C$DW$482, DW_AT_name("bit")
    6916                      .dwattr $C$DW$482, DW_AT_accessibility(DW_ACCESS_public)
    6917                      .dwattr $C$DW$482, DW_AT_decl_file("C:\ti\C2000Ware_MotorControl_SDK_5_04_00_00\c2000ware\device_supp
    6918                      .dwattr $C$DW$482, DW_AT_decl_line(0xda)
    6919                      .dwattr $C$DW$482, DW_AT_decl_column(0x1a)
TMS320C2000 Assembler PC v22.6.2 Wed Dec 10 14:45:02 2025

Copyright (c) 1996-2018 Texas Instruments Incorporated
fcl_foc_cpu_dm.asm                                                   PAGE  131

    6920              
    6921                      .dwattr $C$DW$T$65, DW_AT_decl_file("C:\ti\C2000Ware_MotorControl_SDK_5_04_00_00\c2000ware\device_sup
    6922                      .dwattr $C$DW$T$65, DW_AT_decl_line(0xd8)
    6923                      .dwattr $C$DW$T$65, DW_AT_decl_column(0x07)
    6924                      .dwendtag $C$DW$T$65
    6925              
    6926                      .dwendtag $C$DW$TU$65
    6927              
    6928              
    6929              $C$DW$TU$66     .dwtag  DW_TAG_type_unit
    6930                      .dwmtype  $C$DW$T$66
    6931              
    6932              $C$DW$T$66      .dwtag  DW_TAG_structure_type
    6933                      .dwattr $C$DW$T$66, DW_AT_name("QFLG_BITS")
    6934                      .dwattr $C$DW$T$66, DW_AT_byte_size(0x01)
    6935              $C$DW$483       .dwtag  DW_TAG_member
    6936                      .dwattr $C$DW$483, DW_AT_type(*$C$DW$T$43)
    6937                      .dwattr $C$DW$483, DW_AT_name("INT")
    6938                      .dwattr $C$DW$483, DW_AT_bit_offset(0x0f)
    6939                      .dwattr $C$DW$483, DW_AT_bit_size(0x01)
    6940                      .dwattr $C$DW$483, DW_AT_accessibility(DW_ACCESS_public)
    6941                      .dwattr $C$DW$483, DW_AT_decl_file("C:\ti\C2000Ware_MotorControl_SDK_5_04_00_00\c2000ware\device_supp
    6942                      .dwattr $C$DW$483, DW_AT_decl_line(0x8b)
    6943                      .dwattr $C$DW$483, DW_AT_decl_column(0x0c)
    6944              
    6945              $C$DW$484       .dwtag  DW_TAG_member
    6946                      .dwattr $C$DW$484, DW_AT_type(*$C$DW$T$43)
    6947                      .dwattr $C$DW$484, DW_AT_name("PCE")
    6948                      .dwattr $C$DW$484, DW_AT_bit_offset(0x0e)
    6949                      .dwattr $C$DW$484, DW_AT_bit_size(0x01)
    6950                      .dwattr $C$DW$484, DW_AT_accessibility(DW_ACCESS_public)
    6951                      .dwattr $C$DW$484, DW_AT_decl_file("C:\ti\C2000Ware_MotorControl_SDK_5_04_00_00\c2000ware\device_supp
    6952                      .dwattr $C$DW$484, DW_AT_decl_line(0x8c)
    6953                      .dwattr $C$DW$484, DW_AT_decl_column(0x0c)
    6954              
    6955              $C$DW$485       .dwtag  DW_TAG_member
    6956                      .dwattr $C$DW$485, DW_AT_type(*$C$DW$T$43)
    6957                      .dwattr $C$DW$485, DW_AT_name("PHE")
    6958                      .dwattr $C$DW$485, DW_AT_bit_offset(0x0d)
    6959                      .dwattr $C$DW$485, DW_AT_bit_size(0x01)
    6960                      .dwattr $C$DW$485, DW_AT_accessibility(DW_ACCESS_public)
    6961                      .dwattr $C$DW$485, DW_AT_decl_file("C:\ti\C2000Ware_MotorControl_SDK_5_04_00_00\c2000ware\device_supp
    6962                      .dwattr $C$DW$485, DW_AT_decl_line(0x8d)
    6963                      .dwattr $C$DW$485, DW_AT_decl_column(0x0c)
    6964              
    6965              $C$DW$486       .dwtag  DW_TAG_member
    6966                      .dwattr $C$DW$486, DW_AT_type(*$C$DW$T$43)
    6967                      .dwattr $C$DW$486, DW_AT_name("QDC")
    6968                      .dwattr $C$DW$486, DW_AT_bit_offset(0x0c)
    6969                      .dwattr $C$DW$486, DW_AT_bit_size(0x01)
    6970                      .dwattr $C$DW$486, DW_AT_accessibility(DW_ACCESS_public)
    6971                      .dwattr $C$DW$486, DW_AT_decl_file("C:\ti\C2000Ware_MotorControl_SDK_5_04_00_00\c2000ware\device_supp
    6972                      .dwattr $C$DW$486, DW_AT_decl_line(0x8e)
    6973                      .dwattr $C$DW$486, DW_AT_decl_column(0x0c)
    6974              
TMS320C2000 Assembler PC v22.6.2 Wed Dec 10 14:45:02 2025

Copyright (c) 1996-2018 Texas Instruments Incorporated
fcl_foc_cpu_dm.asm                                                   PAGE  132

    6975              $C$DW$487       .dwtag  DW_TAG_member
    6976                      .dwattr $C$DW$487, DW_AT_type(*$C$DW$T$43)
    6977                      .dwattr $C$DW$487, DW_AT_name("WTO")
    6978                      .dwattr $C$DW$487, DW_AT_bit_offset(0x0b)
    6979                      .dwattr $C$DW$487, DW_AT_bit_size(0x01)
    6980                      .dwattr $C$DW$487, DW_AT_accessibility(DW_ACCESS_public)
    6981                      .dwattr $C$DW$487, DW_AT_decl_file("C:\ti\C2000Ware_MotorControl_SDK_5_04_00_00\c2000ware\device_supp
    6982                      .dwattr $C$DW$487, DW_AT_decl_line(0x8f)
    6983                      .dwattr $C$DW$487, DW_AT_decl_column(0x0c)
    6984              
    6985              $C$DW$488       .dwtag  DW_TAG_member
    6986                      .dwattr $C$DW$488, DW_AT_type(*$C$DW$T$43)
    6987                      .dwattr $C$DW$488, DW_AT_name("PCU")
    6988                      .dwattr $C$DW$488, DW_AT_bit_offset(0x0a)
    6989                      .dwattr $C$DW$488, DW_AT_bit_size(0x01)
    6990                      .dwattr $C$DW$488, DW_AT_accessibility(DW_ACCESS_public)
    6991                      .dwattr $C$DW$488, DW_AT_decl_file("C:\ti\C2000Ware_MotorControl_SDK_5_04_00_00\c2000ware\device_supp
    6992                      .dwattr $C$DW$488, DW_AT_decl_line(0x90)
    6993                      .dwattr $C$DW$488, DW_AT_decl_column(0x0c)
    6994              
    6995              $C$DW$489       .dwtag  DW_TAG_member
    6996                      .dwattr $C$DW$489, DW_AT_type(*$C$DW$T$43)
    6997                      .dwattr $C$DW$489, DW_AT_name("PCO")
    6998                      .dwattr $C$DW$489, DW_AT_bit_offset(0x09)
    6999                      .dwattr $C$DW$489, DW_AT_bit_size(0x01)
    7000                      .dwattr $C$DW$489, DW_AT_accessibility(DW_ACCESS_public)
    7001                      .dwattr $C$DW$489, DW_AT_decl_file("C:\ti\C2000Ware_MotorControl_SDK_5_04_00_00\c2000ware\device_supp
    7002                      .dwattr $C$DW$489, DW_AT_decl_line(0x91)
    7003                      .dwattr $C$DW$489, DW_AT_decl_column(0x0c)
    7004              
    7005              $C$DW$490       .dwtag  DW_TAG_member
    7006                      .dwattr $C$DW$490, DW_AT_type(*$C$DW$T$43)
    7007                      .dwattr $C$DW$490, DW_AT_name("PCR")
    7008                      .dwattr $C$DW$490, DW_AT_bit_offset(0x08)
    7009                      .dwattr $C$DW$490, DW_AT_bit_size(0x01)
    7010                      .dwattr $C$DW$490, DW_AT_accessibility(DW_ACCESS_public)
    7011                      .dwattr $C$DW$490, DW_AT_decl_file("C:\ti\C2000Ware_MotorControl_SDK_5_04_00_00\c2000ware\device_supp
    7012                      .dwattr $C$DW$490, DW_AT_decl_line(0x92)
    7013                      .dwattr $C$DW$490, DW_AT_decl_column(0x0c)
    7014              
    7015              $C$DW$491       .dwtag  DW_TAG_member
    7016                      .dwattr $C$DW$491, DW_AT_type(*$C$DW$T$43)
    7017                      .dwattr $C$DW$491, DW_AT_name("PCM")
    7018                      .dwattr $C$DW$491, DW_AT_bit_offset(0x07)
    7019                      .dwattr $C$DW$491, DW_AT_bit_size(0x01)
    7020                      .dwattr $C$DW$491, DW_AT_accessibility(DW_ACCESS_public)
    7021                      .dwattr $C$DW$491, DW_AT_decl_file("C:\ti\C2000Ware_MotorControl_SDK_5_04_00_00\c2000ware\device_supp
    7022                      .dwattr $C$DW$491, DW_AT_decl_line(0x93)
    7023                      .dwattr $C$DW$491, DW_AT_decl_column(0x0c)
    7024              
    7025              $C$DW$492       .dwtag  DW_TAG_member
    7026                      .dwattr $C$DW$492, DW_AT_type(*$C$DW$T$43)
    7027                      .dwattr $C$DW$492, DW_AT_name("SEL")
    7028                      .dwattr $C$DW$492, DW_AT_bit_offset(0x06)
    7029                      .dwattr $C$DW$492, DW_AT_bit_size(0x01)
TMS320C2000 Assembler PC v22.6.2 Wed Dec 10 14:45:02 2025

Copyright (c) 1996-2018 Texas Instruments Incorporated
fcl_foc_cpu_dm.asm                                                   PAGE  133

    7030                      .dwattr $C$DW$492, DW_AT_accessibility(DW_ACCESS_public)
    7031                      .dwattr $C$DW$492, DW_AT_decl_file("C:\ti\C2000Ware_MotorControl_SDK_5_04_00_00\c2000ware\device_supp
    7032                      .dwattr $C$DW$492, DW_AT_decl_line(0x94)
    7033                      .dwattr $C$DW$492, DW_AT_decl_column(0x0c)
    7034              
    7035              $C$DW$493       .dwtag  DW_TAG_member
    7036                      .dwattr $C$DW$493, DW_AT_type(*$C$DW$T$43)
    7037                      .dwattr $C$DW$493, DW_AT_name("IEL")
    7038                      .dwattr $C$DW$493, DW_AT_bit_offset(0x05)
    7039                      .dwattr $C$DW$493, DW_AT_bit_size(0x01)
    7040                      .dwattr $C$DW$493, DW_AT_accessibility(DW_ACCESS_public)
    7041                      .dwattr $C$DW$493, DW_AT_decl_file("C:\ti\C2000Ware_MotorControl_SDK_5_04_00_00\c2000ware\device_supp
    7042                      .dwattr $C$DW$493, DW_AT_decl_line(0x95)
    7043                      .dwattr $C$DW$493, DW_AT_decl_column(0x0c)
    7044              
    7045              $C$DW$494       .dwtag  DW_TAG_member
    7046                      .dwattr $C$DW$494, DW_AT_type(*$C$DW$T$43)
    7047                      .dwattr $C$DW$494, DW_AT_name("UTO")
    7048                      .dwattr $C$DW$494, DW_AT_bit_offset(0x04)
    7049                      .dwattr $C$DW$494, DW_AT_bit_size(0x01)
    7050                      .dwattr $C$DW$494, DW_AT_accessibility(DW_ACCESS_public)
    7051                      .dwattr $C$DW$494, DW_AT_decl_file("C:\ti\C2000Ware_MotorControl_SDK_5_04_00_00\c2000ware\device_supp
    7052                      .dwattr $C$DW$494, DW_AT_decl_line(0x96)
    7053                      .dwattr $C$DW$494, DW_AT_decl_column(0x0c)
    7054              
    7055              $C$DW$495       .dwtag  DW_TAG_member
    7056                      .dwattr $C$DW$495, DW_AT_type(*$C$DW$T$43)
    7057                      .dwattr $C$DW$495, DW_AT_name("QMAE")
    7058                      .dwattr $C$DW$495, DW_AT_bit_offset(0x03)
    7059                      .dwattr $C$DW$495, DW_AT_bit_size(0x01)
    7060                      .dwattr $C$DW$495, DW_AT_accessibility(DW_ACCESS_public)
    7061                      .dwattr $C$DW$495, DW_AT_decl_file("C:\ti\C2000Ware_MotorControl_SDK_5_04_00_00\c2000ware\device_supp
    7062                      .dwattr $C$DW$495, DW_AT_decl_line(0x97)
    7063                      .dwattr $C$DW$495, DW_AT_decl_column(0x0c)
    7064              
    7065              $C$DW$496       .dwtag  DW_TAG_member
    7066                      .dwattr $C$DW$496, DW_AT_type(*$C$DW$T$43)
    7067                      .dwattr $C$DW$496, DW_AT_name("rsvd1")
    7068                      .dwattr $C$DW$496, DW_AT_bit_offset(0x00)
    7069                      .dwattr $C$DW$496, DW_AT_bit_size(0x03)
    7070                      .dwattr $C$DW$496, DW_AT_accessibility(DW_ACCESS_public)
    7071                      .dwattr $C$DW$496, DW_AT_decl_file("C:\ti\C2000Ware_MotorControl_SDK_5_04_00_00\c2000ware\device_supp
    7072                      .dwattr $C$DW$496, DW_AT_decl_line(0x98)
    7073                      .dwattr $C$DW$496, DW_AT_decl_column(0x0c)
    7074              
    7075                      .dwattr $C$DW$T$66, DW_AT_decl_file("C:\ti\C2000Ware_MotorControl_SDK_5_04_00_00\c2000ware\device_sup
    7076                      .dwattr $C$DW$T$66, DW_AT_decl_line(0x8a)
    7077                      .dwattr $C$DW$T$66, DW_AT_decl_column(0x08)
    7078                      .dwendtag $C$DW$T$66
    7079              
    7080                      .dwendtag $C$DW$TU$66
    7081              
    7082              
    7083              $C$DW$TU$67     .dwtag  DW_TAG_type_unit
    7084                      .dwmtype  $C$DW$T$67
TMS320C2000 Assembler PC v22.6.2 Wed Dec 10 14:45:02 2025

Copyright (c) 1996-2018 Texas Instruments Incorporated
fcl_foc_cpu_dm.asm                                                   PAGE  134

    7085              
    7086              $C$DW$T$67      .dwtag  DW_TAG_union_type
    7087                      .dwattr $C$DW$T$67, DW_AT_name("QFLG_REG")
    7088                      .dwattr $C$DW$T$67, DW_AT_byte_size(0x01)
    7089              $C$DW$497       .dwtag  DW_TAG_member
    7090                      .dwattr $C$DW$497, DW_AT_type(*$C$DW$T$43)
    7091                      .dwattr $C$DW$497, DW_AT_name("all")
    7092                      .dwattr $C$DW$497, DW_AT_accessibility(DW_ACCESS_public)
    7093                      .dwattr $C$DW$497, DW_AT_decl_file("C:\ti\C2000Ware_MotorControl_SDK_5_04_00_00\c2000ware\device_supp
    7094                      .dwattr $C$DW$497, DW_AT_decl_line(0x9c)
    7095                      .dwattr $C$DW$497, DW_AT_decl_column(0x0d)
    7096              
    7097              $C$DW$498       .dwtag  DW_TAG_member
    7098                      .dwattr $C$DW$498, DW_AT_type(*$C$DW$T$66)
    7099                      .dwattr $C$DW$498, DW_AT_name("bit")
    7100                      .dwattr $C$DW$498, DW_AT_accessibility(DW_ACCESS_public)
    7101                      .dwattr $C$DW$498, DW_AT_decl_file("C:\ti\C2000Ware_MotorControl_SDK_5_04_00_00\c2000ware\device_supp
    7102                      .dwattr $C$DW$498, DW_AT_decl_line(0x9d)
    7103                      .dwattr $C$DW$498, DW_AT_decl_column(0x18)
    7104              
    7105                      .dwattr $C$DW$T$67, DW_AT_decl_file("C:\ti\C2000Ware_MotorControl_SDK_5_04_00_00\c2000ware\device_sup
    7106                      .dwattr $C$DW$T$67, DW_AT_decl_line(0x9b)
    7107                      .dwattr $C$DW$T$67, DW_AT_decl_column(0x07)
    7108                      .dwendtag $C$DW$T$67
    7109              
    7110                      .dwendtag $C$DW$TU$67
    7111              
    7112              
    7113              $C$DW$TU$68     .dwtag  DW_TAG_type_unit
    7114                      .dwmtype  $C$DW$T$68
    7115              
    7116              $C$DW$T$68      .dwtag  DW_TAG_structure_type
    7117                      .dwattr $C$DW$T$68, DW_AT_name("QFRC_BITS")
    7118                      .dwattr $C$DW$T$68, DW_AT_byte_size(0x01)
    7119              $C$DW$499       .dwtag  DW_TAG_member
    7120                      .dwattr $C$DW$499, DW_AT_type(*$C$DW$T$43)
    7121                      .dwattr $C$DW$499, DW_AT_name("rsvd1")
    7122                      .dwattr $C$DW$499, DW_AT_bit_offset(0x0f)
    7123                      .dwattr $C$DW$499, DW_AT_bit_size(0x01)
    7124                      .dwattr $C$DW$499, DW_AT_accessibility(DW_ACCESS_public)
    7125                      .dwattr $C$DW$499, DW_AT_decl_file("C:\ti\C2000Ware_MotorControl_SDK_5_04_00_00\c2000ware\device_supp
    7126                      .dwattr $C$DW$499, DW_AT_decl_line(0xb7)
    7127                      .dwattr $C$DW$499, DW_AT_decl_column(0x0c)
    7128              
    7129              $C$DW$500       .dwtag  DW_TAG_member
    7130                      .dwattr $C$DW$500, DW_AT_type(*$C$DW$T$43)
    7131                      .dwattr $C$DW$500, DW_AT_name("PCE")
    7132                      .dwattr $C$DW$500, DW_AT_bit_offset(0x0e)
    7133                      .dwattr $C$DW$500, DW_AT_bit_size(0x01)
    7134                      .dwattr $C$DW$500, DW_AT_accessibility(DW_ACCESS_public)
    7135                      .dwattr $C$DW$500, DW_AT_decl_file("C:\ti\C2000Ware_MotorControl_SDK_5_04_00_00\c2000ware\device_supp
    7136                      .dwattr $C$DW$500, DW_AT_decl_line(0xb8)
    7137                      .dwattr $C$DW$500, DW_AT_decl_column(0x0c)
    7138              
    7139              $C$DW$501       .dwtag  DW_TAG_member
TMS320C2000 Assembler PC v22.6.2 Wed Dec 10 14:45:02 2025

Copyright (c) 1996-2018 Texas Instruments Incorporated
fcl_foc_cpu_dm.asm                                                   PAGE  135

    7140                      .dwattr $C$DW$501, DW_AT_type(*$C$DW$T$43)
    7141                      .dwattr $C$DW$501, DW_AT_name("PHE")
    7142                      .dwattr $C$DW$501, DW_AT_bit_offset(0x0d)
    7143                      .dwattr $C$DW$501, DW_AT_bit_size(0x01)
    7144                      .dwattr $C$DW$501, DW_AT_accessibility(DW_ACCESS_public)
    7145                      .dwattr $C$DW$501, DW_AT_decl_file("C:\ti\C2000Ware_MotorControl_SDK_5_04_00_00\c2000ware\device_supp
    7146                      .dwattr $C$DW$501, DW_AT_decl_line(0xb9)
    7147                      .dwattr $C$DW$501, DW_AT_decl_column(0x0c)
    7148              
    7149              $C$DW$502       .dwtag  DW_TAG_member
    7150                      .dwattr $C$DW$502, DW_AT_type(*$C$DW$T$43)
    7151                      .dwattr $C$DW$502, DW_AT_name("QDC")
    7152                      .dwattr $C$DW$502, DW_AT_bit_offset(0x0c)
    7153                      .dwattr $C$DW$502, DW_AT_bit_size(0x01)
    7154                      .dwattr $C$DW$502, DW_AT_accessibility(DW_ACCESS_public)
    7155                      .dwattr $C$DW$502, DW_AT_decl_file("C:\ti\C2000Ware_MotorControl_SDK_5_04_00_00\c2000ware\device_supp
    7156                      .dwattr $C$DW$502, DW_AT_decl_line(0xba)
    7157                      .dwattr $C$DW$502, DW_AT_decl_column(0x0c)
    7158              
    7159              $C$DW$503       .dwtag  DW_TAG_member
    7160                      .dwattr $C$DW$503, DW_AT_type(*$C$DW$T$43)
    7161                      .dwattr $C$DW$503, DW_AT_name("WTO")
    7162                      .dwattr $C$DW$503, DW_AT_bit_offset(0x0b)
    7163                      .dwattr $C$DW$503, DW_AT_bit_size(0x01)
    7164                      .dwattr $C$DW$503, DW_AT_accessibility(DW_ACCESS_public)
    7165                      .dwattr $C$DW$503, DW_AT_decl_file("C:\ti\C2000Ware_MotorControl_SDK_5_04_00_00\c2000ware\device_supp
    7166                      .dwattr $C$DW$503, DW_AT_decl_line(0xbb)
    7167                      .dwattr $C$DW$503, DW_AT_decl_column(0x0c)
    7168              
    7169              $C$DW$504       .dwtag  DW_TAG_member
    7170                      .dwattr $C$DW$504, DW_AT_type(*$C$DW$T$43)
    7171                      .dwattr $C$DW$504, DW_AT_name("PCU")
    7172                      .dwattr $C$DW$504, DW_AT_bit_offset(0x0a)
    7173                      .dwattr $C$DW$504, DW_AT_bit_size(0x01)
    7174                      .dwattr $C$DW$504, DW_AT_accessibility(DW_ACCESS_public)
    7175                      .dwattr $C$DW$504, DW_AT_decl_file("C:\ti\C2000Ware_MotorControl_SDK_5_04_00_00\c2000ware\device_supp
    7176                      .dwattr $C$DW$504, DW_AT_decl_line(0xbc)
    7177                      .dwattr $C$DW$504, DW_AT_decl_column(0x0c)
    7178              
    7179              $C$DW$505       .dwtag  DW_TAG_member
    7180                      .dwattr $C$DW$505, DW_AT_type(*$C$DW$T$43)
    7181                      .dwattr $C$DW$505, DW_AT_name("PCO")
    7182                      .dwattr $C$DW$505, DW_AT_bit_offset(0x09)
    7183                      .dwattr $C$DW$505, DW_AT_bit_size(0x01)
    7184                      .dwattr $C$DW$505, DW_AT_accessibility(DW_ACCESS_public)
    7185                      .dwattr $C$DW$505, DW_AT_decl_file("C:\ti\C2000Ware_MotorControl_SDK_5_04_00_00\c2000ware\device_supp
    7186                      .dwattr $C$DW$505, DW_AT_decl_line(0xbd)
    7187                      .dwattr $C$DW$505, DW_AT_decl_column(0x0c)
    7188              
    7189              $C$DW$506       .dwtag  DW_TAG_member
    7190                      .dwattr $C$DW$506, DW_AT_type(*$C$DW$T$43)
    7191                      .dwattr $C$DW$506, DW_AT_name("PCR")
    7192                      .dwattr $C$DW$506, DW_AT_bit_offset(0x08)
    7193                      .dwattr $C$DW$506, DW_AT_bit_size(0x01)
    7194                      .dwattr $C$DW$506, DW_AT_accessibility(DW_ACCESS_public)
TMS320C2000 Assembler PC v22.6.2 Wed Dec 10 14:45:02 2025

Copyright (c) 1996-2018 Texas Instruments Incorporated
fcl_foc_cpu_dm.asm                                                   PAGE  136

    7195                      .dwattr $C$DW$506, DW_AT_decl_file("C:\ti\C2000Ware_MotorControl_SDK_5_04_00_00\c2000ware\device_supp
    7196                      .dwattr $C$DW$506, DW_AT_decl_line(0xbe)
    7197                      .dwattr $C$DW$506, DW_AT_decl_column(0x0c)
    7198              
    7199              $C$DW$507       .dwtag  DW_TAG_member
    7200                      .dwattr $C$DW$507, DW_AT_type(*$C$DW$T$43)
    7201                      .dwattr $C$DW$507, DW_AT_name("PCM")
    7202                      .dwattr $C$DW$507, DW_AT_bit_offset(0x07)
    7203                      .dwattr $C$DW$507, DW_AT_bit_size(0x01)
    7204                      .dwattr $C$DW$507, DW_AT_accessibility(DW_ACCESS_public)
    7205                      .dwattr $C$DW$507, DW_AT_decl_file("C:\ti\C2000Ware_MotorControl_SDK_5_04_00_00\c2000ware\device_supp
    7206                      .dwattr $C$DW$507, DW_AT_decl_line(0xbf)
    7207                      .dwattr $C$DW$507, DW_AT_decl_column(0x0c)
    7208              
    7209              $C$DW$508       .dwtag  DW_TAG_member
    7210                      .dwattr $C$DW$508, DW_AT_type(*$C$DW$T$43)
    7211                      .dwattr $C$DW$508, DW_AT_name("SEL")
    7212                      .dwattr $C$DW$508, DW_AT_bit_offset(0x06)
    7213                      .dwattr $C$DW$508, DW_AT_bit_size(0x01)
    7214                      .dwattr $C$DW$508, DW_AT_accessibility(DW_ACCESS_public)
    7215                      .dwattr $C$DW$508, DW_AT_decl_file("C:\ti\C2000Ware_MotorControl_SDK_5_04_00_00\c2000ware\device_supp
    7216                      .dwattr $C$DW$508, DW_AT_decl_line(0xc0)
    7217                      .dwattr $C$DW$508, DW_AT_decl_column(0x0c)
    7218              
    7219              $C$DW$509       .dwtag  DW_TAG_member
    7220                      .dwattr $C$DW$509, DW_AT_type(*$C$DW$T$43)
    7221                      .dwattr $C$DW$509, DW_AT_name("IEL")
    7222                      .dwattr $C$DW$509, DW_AT_bit_offset(0x05)
    7223                      .dwattr $C$DW$509, DW_AT_bit_size(0x01)
    7224                      .dwattr $C$DW$509, DW_AT_accessibility(DW_ACCESS_public)
    7225                      .dwattr $C$DW$509, DW_AT_decl_file("C:\ti\C2000Ware_MotorControl_SDK_5_04_00_00\c2000ware\device_supp
    7226                      .dwattr $C$DW$509, DW_AT_decl_line(0xc1)
    7227                      .dwattr $C$DW$509, DW_AT_decl_column(0x0c)
    7228              
    7229              $C$DW$510       .dwtag  DW_TAG_member
    7230                      .dwattr $C$DW$510, DW_AT_type(*$C$DW$T$43)
    7231                      .dwattr $C$DW$510, DW_AT_name("UTO")
    7232                      .dwattr $C$DW$510, DW_AT_bit_offset(0x04)
    7233                      .dwattr $C$DW$510, DW_AT_bit_size(0x01)
    7234                      .dwattr $C$DW$510, DW_AT_accessibility(DW_ACCESS_public)
    7235                      .dwattr $C$DW$510, DW_AT_decl_file("C:\ti\C2000Ware_MotorControl_SDK_5_04_00_00\c2000ware\device_supp
    7236                      .dwattr $C$DW$510, DW_AT_decl_line(0xc2)
    7237                      .dwattr $C$DW$510, DW_AT_decl_column(0x0c)
    7238              
    7239              $C$DW$511       .dwtag  DW_TAG_member
    7240                      .dwattr $C$DW$511, DW_AT_type(*$C$DW$T$43)
    7241                      .dwattr $C$DW$511, DW_AT_name("QMAE")
    7242                      .dwattr $C$DW$511, DW_AT_bit_offset(0x03)
    7243                      .dwattr $C$DW$511, DW_AT_bit_size(0x01)
    7244                      .dwattr $C$DW$511, DW_AT_accessibility(DW_ACCESS_public)
    7245                      .dwattr $C$DW$511, DW_AT_decl_file("C:\ti\C2000Ware_MotorControl_SDK_5_04_00_00\c2000ware\device_supp
    7246                      .dwattr $C$DW$511, DW_AT_decl_line(0xc3)
    7247                      .dwattr $C$DW$511, DW_AT_decl_column(0x0c)
    7248              
    7249              $C$DW$512       .dwtag  DW_TAG_member
TMS320C2000 Assembler PC v22.6.2 Wed Dec 10 14:45:02 2025

Copyright (c) 1996-2018 Texas Instruments Incorporated
fcl_foc_cpu_dm.asm                                                   PAGE  137

    7250                      .dwattr $C$DW$512, DW_AT_type(*$C$DW$T$43)
    7251                      .dwattr $C$DW$512, DW_AT_name("rsvd2")
    7252                      .dwattr $C$DW$512, DW_AT_bit_offset(0x00)
    7253                      .dwattr $C$DW$512, DW_AT_bit_size(0x03)
    7254                      .dwattr $C$DW$512, DW_AT_accessibility(DW_ACCESS_public)
    7255                      .dwattr $C$DW$512, DW_AT_decl_file("C:\ti\C2000Ware_MotorControl_SDK_5_04_00_00\c2000ware\device_supp
    7256                      .dwattr $C$DW$512, DW_AT_decl_line(0xc4)
    7257                      .dwattr $C$DW$512, DW_AT_decl_column(0x0c)
    7258              
    7259                      .dwattr $C$DW$T$68, DW_AT_decl_file("C:\ti\C2000Ware_MotorControl_SDK_5_04_00_00\c2000ware\device_sup
    7260                      .dwattr $C$DW$T$68, DW_AT_decl_line(0xb6)
    7261                      .dwattr $C$DW$T$68, DW_AT_decl_column(0x08)
    7262                      .dwendtag $C$DW$T$68
    7263              
    7264                      .dwendtag $C$DW$TU$68
    7265              
    7266              
    7267              $C$DW$TU$69     .dwtag  DW_TAG_type_unit
    7268                      .dwmtype  $C$DW$T$69
    7269              
    7270              $C$DW$T$69      .dwtag  DW_TAG_union_type
    7271                      .dwattr $C$DW$T$69, DW_AT_name("QFRC_REG")
    7272                      .dwattr $C$DW$T$69, DW_AT_byte_size(0x01)
    7273              $C$DW$513       .dwtag  DW_TAG_member
    7274                      .dwattr $C$DW$513, DW_AT_type(*$C$DW$T$43)
    7275                      .dwattr $C$DW$513, DW_AT_name("all")
    7276                      .dwattr $C$DW$513, DW_AT_accessibility(DW_ACCESS_public)
    7277                      .dwattr $C$DW$513, DW_AT_decl_file("C:\ti\C2000Ware_MotorControl_SDK_5_04_00_00\c2000ware\device_supp
    7278                      .dwattr $C$DW$513, DW_AT_decl_line(0xc8)
    7279                      .dwattr $C$DW$513, DW_AT_decl_column(0x0d)
    7280              
    7281              $C$DW$514       .dwtag  DW_TAG_member
    7282                      .dwattr $C$DW$514, DW_AT_type(*$C$DW$T$68)
    7283                      .dwattr $C$DW$514, DW_AT_name("bit")
    7284                      .dwattr $C$DW$514, DW_AT_accessibility(DW_ACCESS_public)
    7285                      .dwattr $C$DW$514, DW_AT_decl_file("C:\ti\C2000Ware_MotorControl_SDK_5_04_00_00\c2000ware\device_supp
    7286                      .dwattr $C$DW$514, DW_AT_decl_line(0xc9)
    7287                      .dwattr $C$DW$514, DW_AT_decl_column(0x18)
    7288              
    7289                      .dwattr $C$DW$T$69, DW_AT_decl_file("C:\ti\C2000Ware_MotorControl_SDK_5_04_00_00\c2000ware\device_sup
    7290                      .dwattr $C$DW$T$69, DW_AT_decl_line(0xc7)
    7291                      .dwattr $C$DW$T$69, DW_AT_decl_column(0x07)
    7292                      .dwendtag $C$DW$T$69
    7293              
    7294                      .dwendtag $C$DW$TU$69
    7295              
    7296              
    7297              $C$DW$TU$70     .dwtag  DW_TAG_type_unit
    7298                      .dwmtype  $C$DW$T$70
    7299              
    7300              $C$DW$T$70      .dwtag  DW_TAG_structure_type
    7301                      .dwattr $C$DW$T$70, DW_AT_name("QMACTRL_BITS")
    7302                      .dwattr $C$DW$T$70, DW_AT_byte_size(0x02)
    7303              $C$DW$515       .dwtag  DW_TAG_member
    7304                      .dwattr $C$DW$515, DW_AT_type(*$C$DW$T$43)
TMS320C2000 Assembler PC v22.6.2 Wed Dec 10 14:45:02 2025

Copyright (c) 1996-2018 Texas Instruments Incorporated
fcl_foc_cpu_dm.asm                                                   PAGE  138

    7305                      .dwattr $C$DW$515, DW_AT_name("MODE")
    7306                      .dwattr $C$DW$515, DW_AT_bit_offset(0x0d)
    7307                      .dwattr $C$DW$515, DW_AT_bit_size(0x03)
    7308                      .dwattr $C$DW$515, DW_AT_accessibility(DW_ACCESS_public)
    7309                      .dwattr $C$DW$515, DW_AT_decl_file("C:\ti\C2000Ware_MotorControl_SDK_5_04_00_00\c2000ware\device_supp
    7310                      .dwattr $C$DW$515, DW_AT_decl_line(0xf5)
    7311                      .dwattr $C$DW$515, DW_AT_decl_column(0x0c)
    7312              
    7313              $C$DW$516       .dwtag  DW_TAG_member
    7314                      .dwattr $C$DW$516, DW_AT_type(*$C$DW$T$43)
    7315                      .dwattr $C$DW$516, DW_AT_name("rsvd1")
    7316                      .dwattr $C$DW$516, DW_AT_bit_offset(0x00)
    7317                      .dwattr $C$DW$516, DW_AT_bit_size(0x0d)
    7318                      .dwattr $C$DW$516, DW_AT_accessibility(DW_ACCESS_public)
    7319                      .dwattr $C$DW$516, DW_AT_decl_file("C:\ti\C2000Ware_MotorControl_SDK_5_04_00_00\c2000ware\device_supp
    7320                      .dwattr $C$DW$516, DW_AT_decl_line(0xf6)
    7321                      .dwattr $C$DW$516, DW_AT_decl_column(0x0c)
    7322              
    7323              $C$DW$517       .dwtag  DW_TAG_member
    7324                      .dwattr $C$DW$517, DW_AT_type(*$C$DW$T$43)
    7325                      .dwattr $C$DW$517, DW_AT_name("rsvd2")
    7326                      .dwattr $C$DW$517, DW_AT_bit_offset(0x00)
    7327                      .dwattr $C$DW$517, DW_AT_bit_size(0x10)
    7328                      .dwattr $C$DW$517, DW_AT_data_member_location[DW_OP_plus_uconst 0x1]
    7329                      .dwattr $C$DW$517, DW_AT_accessibility(DW_ACCESS_public)
    7330                      .dwattr $C$DW$517, DW_AT_decl_file("C:\ti\C2000Ware_MotorControl_SDK_5_04_00_00\c2000ware\device_supp
    7331                      .dwattr $C$DW$517, DW_AT_decl_line(0xf7)
    7332                      .dwattr $C$DW$517, DW_AT_decl_column(0x0c)
    7333              
    7334                      .dwattr $C$DW$T$70, DW_AT_decl_file("C:\ti\C2000Ware_MotorControl_SDK_5_04_00_00\c2000ware\device_sup
    7335                      .dwattr $C$DW$T$70, DW_AT_decl_line(0xf4)
    7336                      .dwattr $C$DW$T$70, DW_AT_decl_column(0x08)
    7337                      .dwendtag $C$DW$T$70
    7338              
    7339                      .dwendtag $C$DW$TU$70
    7340              
    7341              
    7342              $C$DW$TU$71     .dwtag  DW_TAG_type_unit
    7343                      .dwmtype  $C$DW$T$71
    7344              
    7345              $C$DW$T$71      .dwtag  DW_TAG_union_type
    7346                      .dwattr $C$DW$T$71, DW_AT_name("QMACTRL_REG")
    7347                      .dwattr $C$DW$T$71, DW_AT_byte_size(0x02)
    7348              $C$DW$518       .dwtag  DW_TAG_member
    7349                      .dwattr $C$DW$518, DW_AT_type(*$C$DW$T$46)
    7350                      .dwattr $C$DW$518, DW_AT_name("all")
    7351                      .dwattr $C$DW$518, DW_AT_accessibility(DW_ACCESS_public)
    7352                      .dwattr $C$DW$518, DW_AT_decl_file("C:\ti\C2000Ware_MotorControl_SDK_5_04_00_00\c2000ware\device_supp
    7353                      .dwattr $C$DW$518, DW_AT_decl_line(0xfb)
    7354                      .dwattr $C$DW$518, DW_AT_decl_column(0x0d)
    7355              
    7356              $C$DW$519       .dwtag  DW_TAG_member
    7357                      .dwattr $C$DW$519, DW_AT_type(*$C$DW$T$70)
    7358                      .dwattr $C$DW$519, DW_AT_name("bit")
    7359                      .dwattr $C$DW$519, DW_AT_accessibility(DW_ACCESS_public)
TMS320C2000 Assembler PC v22.6.2 Wed Dec 10 14:45:02 2025

Copyright (c) 1996-2018 Texas Instruments Incorporated
fcl_foc_cpu_dm.asm                                                   PAGE  139

    7360                      .dwattr $C$DW$519, DW_AT_decl_file("C:\ti\C2000Ware_MotorControl_SDK_5_04_00_00\c2000ware\device_supp
    7361                      .dwattr $C$DW$519, DW_AT_decl_line(0xfc)
    7362                      .dwattr $C$DW$519, DW_AT_decl_column(0x1b)
    7363              
    7364                      .dwattr $C$DW$T$71, DW_AT_decl_file("C:\ti\C2000Ware_MotorControl_SDK_5_04_00_00\c2000ware\device_sup
    7365                      .dwattr $C$DW$T$71, DW_AT_decl_line(0xfa)
    7366                      .dwattr $C$DW$T$71, DW_AT_decl_column(0x07)
    7367                      .dwendtag $C$DW$T$71
    7368              
    7369                      .dwendtag $C$DW$TU$71
    7370              
    7371              
    7372              $C$DW$TU$72     .dwtag  DW_TAG_type_unit
    7373                      .dwmtype  $C$DW$T$72
    7374              
    7375              $C$DW$T$72      .dwtag  DW_TAG_structure_type
    7376                      .dwattr $C$DW$T$72, DW_AT_name("QPOSCTL_BITS")
    7377                      .dwattr $C$DW$T$72, DW_AT_byte_size(0x01)
    7378              $C$DW$520       .dwtag  DW_TAG_member
    7379                      .dwattr $C$DW$520, DW_AT_type(*$C$DW$T$43)
    7380                      .dwattr $C$DW$520, DW_AT_name("PCSPW")
    7381                      .dwattr $C$DW$520, DW_AT_bit_offset(0x04)
    7382                      .dwattr $C$DW$520, DW_AT_bit_size(0x0c)
    7383                      .dwattr $C$DW$520, DW_AT_accessibility(DW_ACCESS_public)
    7384                      .dwattr $C$DW$520, DW_AT_decl_file("C:\ti\C2000Ware_MotorControl_SDK_5_04_00_00\c2000ware\device_supp
    7385                      .dwattr $C$DW$520, DW_AT_decl_line(0x68)
    7386                      .dwattr $C$DW$520, DW_AT_decl_column(0x0c)
    7387              
    7388              $C$DW$521       .dwtag  DW_TAG_member
    7389                      .dwattr $C$DW$521, DW_AT_type(*$C$DW$T$43)
    7390                      .dwattr $C$DW$521, DW_AT_name("PCE")
    7391                      .dwattr $C$DW$521, DW_AT_bit_offset(0x03)
    7392                      .dwattr $C$DW$521, DW_AT_bit_size(0x01)
    7393                      .dwattr $C$DW$521, DW_AT_accessibility(DW_ACCESS_public)
    7394                      .dwattr $C$DW$521, DW_AT_decl_file("C:\ti\C2000Ware_MotorControl_SDK_5_04_00_00\c2000ware\device_supp
    7395                      .dwattr $C$DW$521, DW_AT_decl_line(0x69)
    7396                      .dwattr $C$DW$521, DW_AT_decl_column(0x0c)
    7397              
    7398              $C$DW$522       .dwtag  DW_TAG_member
    7399                      .dwattr $C$DW$522, DW_AT_type(*$C$DW$T$43)
    7400                      .dwattr $C$DW$522, DW_AT_name("PCPOL")
    7401                      .dwattr $C$DW$522, DW_AT_bit_offset(0x02)
    7402                      .dwattr $C$DW$522, DW_AT_bit_size(0x01)
    7403                      .dwattr $C$DW$522, DW_AT_accessibility(DW_ACCESS_public)
    7404                      .dwattr $C$DW$522, DW_AT_decl_file("C:\ti\C2000Ware_MotorControl_SDK_5_04_00_00\c2000ware\device_supp
    7405                      .dwattr $C$DW$522, DW_AT_decl_line(0x6a)
    7406                      .dwattr $C$DW$522, DW_AT_decl_column(0x0c)
    7407              
    7408              $C$DW$523       .dwtag  DW_TAG_member
    7409                      .dwattr $C$DW$523, DW_AT_type(*$C$DW$T$43)
    7410                      .dwattr $C$DW$523, DW_AT_name("PCLOAD")
    7411                      .dwattr $C$DW$523, DW_AT_bit_offset(0x01)
    7412                      .dwattr $C$DW$523, DW_AT_bit_size(0x01)
    7413                      .dwattr $C$DW$523, DW_AT_accessibility(DW_ACCESS_public)
    7414                      .dwattr $C$DW$523, DW_AT_decl_file("C:\ti\C2000Ware_MotorControl_SDK_5_04_00_00\c2000ware\device_supp
TMS320C2000 Assembler PC v22.6.2 Wed Dec 10 14:45:02 2025

Copyright (c) 1996-2018 Texas Instruments Incorporated
fcl_foc_cpu_dm.asm                                                   PAGE  140

    7415                      .dwattr $C$DW$523, DW_AT_decl_line(0x6b)
    7416                      .dwattr $C$DW$523, DW_AT_decl_column(0x0c)
    7417              
    7418              $C$DW$524       .dwtag  DW_TAG_member
    7419                      .dwattr $C$DW$524, DW_AT_type(*$C$DW$T$43)
    7420                      .dwattr $C$DW$524, DW_AT_name("PCSHDW")
    7421                      .dwattr $C$DW$524, DW_AT_bit_offset(0x00)
    7422                      .dwattr $C$DW$524, DW_AT_bit_size(0x01)
    7423                      .dwattr $C$DW$524, DW_AT_accessibility(DW_ACCESS_public)
    7424                      .dwattr $C$DW$524, DW_AT_decl_file("C:\ti\C2000Ware_MotorControl_SDK_5_04_00_00\c2000ware\device_supp
    7425                      .dwattr $C$DW$524, DW_AT_decl_line(0x6c)
    7426                      .dwattr $C$DW$524, DW_AT_decl_column(0x0c)
    7427              
    7428                      .dwattr $C$DW$T$72, DW_AT_decl_file("C:\ti\C2000Ware_MotorControl_SDK_5_04_00_00\c2000ware\device_sup
    7429                      .dwattr $C$DW$T$72, DW_AT_decl_line(0x67)
    7430                      .dwattr $C$DW$T$72, DW_AT_decl_column(0x08)
    7431                      .dwendtag $C$DW$T$72
    7432              
    7433                      .dwendtag $C$DW$TU$72
    7434              
    7435              
    7436              $C$DW$TU$73     .dwtag  DW_TAG_type_unit
    7437                      .dwmtype  $C$DW$T$73
    7438              
    7439              $C$DW$T$73      .dwtag  DW_TAG_union_type
    7440                      .dwattr $C$DW$T$73, DW_AT_name("QPOSCTL_REG")
    7441                      .dwattr $C$DW$T$73, DW_AT_byte_size(0x01)
    7442              $C$DW$525       .dwtag  DW_TAG_member
    7443                      .dwattr $C$DW$525, DW_AT_type(*$C$DW$T$43)
    7444                      .dwattr $C$DW$525, DW_AT_name("all")
    7445                      .dwattr $C$DW$525, DW_AT_accessibility(DW_ACCESS_public)
    7446                      .dwattr $C$DW$525, DW_AT_decl_file("C:\ti\C2000Ware_MotorControl_SDK_5_04_00_00\c2000ware\device_supp
    7447                      .dwattr $C$DW$525, DW_AT_decl_line(0x70)
    7448                      .dwattr $C$DW$525, DW_AT_decl_column(0x0d)
    7449              
    7450              $C$DW$526       .dwtag  DW_TAG_member
    7451                      .dwattr $C$DW$526, DW_AT_type(*$C$DW$T$72)
    7452                      .dwattr $C$DW$526, DW_AT_name("bit")
    7453                      .dwattr $C$DW$526, DW_AT_accessibility(DW_ACCESS_public)
    7454                      .dwattr $C$DW$526, DW_AT_decl_file("C:\ti\C2000Ware_MotorControl_SDK_5_04_00_00\c2000ware\device_supp
    7455                      .dwattr $C$DW$526, DW_AT_decl_line(0x71)
    7456                      .dwattr $C$DW$526, DW_AT_decl_column(0x1b)
    7457              
    7458                      .dwattr $C$DW$T$73, DW_AT_decl_file("C:\ti\C2000Ware_MotorControl_SDK_5_04_00_00\c2000ware\device_sup
    7459                      .dwattr $C$DW$T$73, DW_AT_decl_line(0x6f)
    7460                      .dwattr $C$DW$T$73, DW_AT_decl_column(0x07)
    7461                      .dwendtag $C$DW$T$73
    7462              
    7463                      .dwendtag $C$DW$TU$73
    7464              
    7465              
    7466              $C$DW$TU$74     .dwtag  DW_TAG_type_unit
    7467                      .dwmtype  $C$DW$T$74
    7468              
    7469              $C$DW$T$74      .dwtag  DW_TAG_structure_type
TMS320C2000 Assembler PC v22.6.2 Wed Dec 10 14:45:02 2025

Copyright (c) 1996-2018 Texas Instruments Incorporated
fcl_foc_cpu_dm.asm                                                   PAGE  141

    7470                      .dwattr $C$DW$T$74, DW_AT_name("REV_BITS")
    7471                      .dwattr $C$DW$T$74, DW_AT_byte_size(0x02)
    7472              $C$DW$527       .dwtag  DW_TAG_member
    7473                      .dwattr $C$DW$527, DW_AT_type(*$C$DW$T$43)
    7474                      .dwattr $C$DW$527, DW_AT_name("MAJOR")
    7475                      .dwattr $C$DW$527, DW_AT_bit_offset(0x0d)
    7476                      .dwattr $C$DW$527, DW_AT_bit_size(0x03)
    7477                      .dwattr $C$DW$527, DW_AT_accessibility(DW_ACCESS_public)
    7478                      .dwattr $C$DW$527, DW_AT_decl_file("C:\ti\C2000Ware_MotorControl_SDK_5_04_00_00\c2000ware\device_supp
    7479                      .dwattr $C$DW$527, DW_AT_decl_line(0xde)
    7480                      .dwattr $C$DW$527, DW_AT_decl_column(0x0c)
    7481              
    7482              $C$DW$528       .dwtag  DW_TAG_member
    7483                      .dwattr $C$DW$528, DW_AT_type(*$C$DW$T$43)
    7484                      .dwattr $C$DW$528, DW_AT_name("MINOR")
    7485                      .dwattr $C$DW$528, DW_AT_bit_offset(0x0a)
    7486                      .dwattr $C$DW$528, DW_AT_bit_size(0x03)
    7487                      .dwattr $C$DW$528, DW_AT_accessibility(DW_ACCESS_public)
    7488                      .dwattr $C$DW$528, DW_AT_decl_file("C:\ti\C2000Ware_MotorControl_SDK_5_04_00_00\c2000ware\device_supp
    7489                      .dwattr $C$DW$528, DW_AT_decl_line(0xdf)
    7490                      .dwattr $C$DW$528, DW_AT_decl_column(0x0c)
    7491              
    7492              $C$DW$529       .dwtag  DW_TAG_member
    7493                      .dwattr $C$DW$529, DW_AT_type(*$C$DW$T$43)
    7494                      .dwattr $C$DW$529, DW_AT_name("rsvd1")
    7495                      .dwattr $C$DW$529, DW_AT_bit_offset(0x00)
    7496                      .dwattr $C$DW$529, DW_AT_bit_size(0x0a)
    7497                      .dwattr $C$DW$529, DW_AT_accessibility(DW_ACCESS_public)
    7498                      .dwattr $C$DW$529, DW_AT_decl_file("C:\ti\C2000Ware_MotorControl_SDK_5_04_00_00\c2000ware\device_supp
    7499                      .dwattr $C$DW$529, DW_AT_decl_line(0xe0)
    7500                      .dwattr $C$DW$529, DW_AT_decl_column(0x0c)
    7501              
    7502              $C$DW$530       .dwtag  DW_TAG_member
    7503                      .dwattr $C$DW$530, DW_AT_type(*$C$DW$T$43)
    7504                      .dwattr $C$DW$530, DW_AT_name("rsvd2")
    7505                      .dwattr $C$DW$530, DW_AT_bit_offset(0x00)
    7506                      .dwattr $C$DW$530, DW_AT_bit_size(0x10)
    7507                      .dwattr $C$DW$530, DW_AT_data_member_location[DW_OP_plus_uconst 0x1]
    7508                      .dwattr $C$DW$530, DW_AT_accessibility(DW_ACCESS_public)
    7509                      .dwattr $C$DW$530, DW_AT_decl_file("C:\ti\C2000Ware_MotorControl_SDK_5_04_00_00\c2000ware\device_supp
    7510                      .dwattr $C$DW$530, DW_AT_decl_line(0xe1)
    7511                      .dwattr $C$DW$530, DW_AT_decl_column(0x0c)
    7512              
    7513                      .dwattr $C$DW$T$74, DW_AT_decl_file("C:\ti\C2000Ware_MotorControl_SDK_5_04_00_00\c2000ware\device_sup
    7514                      .dwattr $C$DW$T$74, DW_AT_decl_line(0xdd)
    7515                      .dwattr $C$DW$T$74, DW_AT_decl_column(0x08)
    7516                      .dwendtag $C$DW$T$74
    7517              
    7518                      .dwendtag $C$DW$TU$74
    7519              
    7520              
    7521              $C$DW$TU$75     .dwtag  DW_TAG_type_unit
    7522                      .dwmtype  $C$DW$T$75
    7523              
    7524              $C$DW$T$75      .dwtag  DW_TAG_union_type
TMS320C2000 Assembler PC v22.6.2 Wed Dec 10 14:45:02 2025

Copyright (c) 1996-2018 Texas Instruments Incorporated
fcl_foc_cpu_dm.asm                                                   PAGE  142

    7525                      .dwattr $C$DW$T$75, DW_AT_name("REV_REG")
    7526                      .dwattr $C$DW$T$75, DW_AT_byte_size(0x02)
    7527              $C$DW$531       .dwtag  DW_TAG_member
    7528                      .dwattr $C$DW$531, DW_AT_type(*$C$DW$T$46)
    7529                      .dwattr $C$DW$531, DW_AT_name("all")
    7530                      .dwattr $C$DW$531, DW_AT_accessibility(DW_ACCESS_public)
    7531                      .dwattr $C$DW$531, DW_AT_decl_file("C:\ti\C2000Ware_MotorControl_SDK_5_04_00_00\c2000ware\device_supp
    7532                      .dwattr $C$DW$531, DW_AT_decl_line(0xe5)
    7533                      .dwattr $C$DW$531, DW_AT_decl_column(0x0d)
    7534              
    7535              $C$DW$532       .dwtag  DW_TAG_member
    7536                      .dwattr $C$DW$532, DW_AT_type(*$C$DW$T$74)
    7537                      .dwattr $C$DW$532, DW_AT_name("bit")
    7538                      .dwattr $C$DW$532, DW_AT_accessibility(DW_ACCESS_public)
    7539                      .dwattr $C$DW$532, DW_AT_decl_file("C:\ti\C2000Ware_MotorControl_SDK_5_04_00_00\c2000ware\device_supp
    7540                      .dwattr $C$DW$532, DW_AT_decl_line(0xe6)
    7541                      .dwattr $C$DW$532, DW_AT_decl_column(0x17)
    7542              
    7543                      .dwattr $C$DW$T$75, DW_AT_decl_file("C:\ti\C2000Ware_MotorControl_SDK_5_04_00_00\c2000ware\device_sup
    7544                      .dwattr $C$DW$T$75, DW_AT_decl_line(0xe4)
    7545                      .dwattr $C$DW$T$75, DW_AT_decl_column(0x07)
    7546                      .dwendtag $C$DW$T$75
    7547              
    7548                      .dwendtag $C$DW$TU$75
    7549              
    7550              
    7551              $C$DW$TU$77     .dwtag  DW_TAG_type_unit
    7552                      .dwmtype  $C$DW$T$77
    7553              
    7554              $C$DW$T$77      .dwtag  DW_TAG_structure_type
    7555                      .dwattr $C$DW$T$77, DW_AT_name("_Complex_double")
    7556                      .dwattr $C$DW$T$77, DW_AT_byte_size(0x08)
    7557              $C$DW$533       .dwtag  DW_TAG_member
    7558                      .dwattr $C$DW$533, DW_AT_type(*$C$DW$T$76)
    7559                      .dwattr $C$DW$533, DW_AT_name("_Vals")
    7560                      .dwattr $C$DW$533, DW_AT_accessibility(DW_ACCESS_public)
    7561                      .dwattr $C$DW$533, DW_AT_decl_file("C:/ti/C2000Ware_MotorControl_SDK_5_04_00_00/c2000ware/driverlib/f
    7562                      .dwattr $C$DW$533, DW_AT_decl_line(0xa04)
    7563                      .dwattr $C$DW$533, DW_AT_decl_column(0x01)
    7564              
    7565                      .dwendtag $C$DW$T$77
    7566              
    7567                      .dwendtag $C$DW$TU$77
    7568              
    7569              
    7570              $C$DW$TU$134    .dwtag  DW_TAG_type_unit
    7571                      .dwmtype  $C$DW$T$134
    7572              $C$DW$T$134     .dwtag  DW_TAG_typedef
    7573                      .dwattr $C$DW$T$134, DW_AT_name("_Complex_double")
    7574                      .dwattr $C$DW$T$134, DW_AT_type(*$C$DW$T$77)
    7575                      .dwattr $C$DW$T$134, DW_AT_decl_file("C:/ti/C2000Ware_MotorControl_SDK_5_04_00_00/c2000ware/driverlib
    7576                      .dwattr $C$DW$T$134, DW_AT_decl_line(0xa04)
    7577                      .dwattr $C$DW$T$134, DW_AT_decl_column(0x01)
    7578              
    7579                      .dwendtag $C$DW$TU$134
TMS320C2000 Assembler PC v22.6.2 Wed Dec 10 14:45:02 2025

Copyright (c) 1996-2018 Texas Instruments Incorporated
fcl_foc_cpu_dm.asm                                                   PAGE  143

    7580              
    7581              
    7582              $C$DW$TU$79     .dwtag  DW_TAG_type_unit
    7583                      .dwmtype  $C$DW$T$79
    7584              
    7585              $C$DW$T$79      .dwtag  DW_TAG_structure_type
    7586                      .dwattr $C$DW$T$79, DW_AT_name("_Complex_float")
    7587                      .dwattr $C$DW$T$79, DW_AT_byte_size(0x04)
    7588              $C$DW$534       .dwtag  DW_TAG_member
    7589                      .dwattr $C$DW$534, DW_AT_type(*$C$DW$T$78)
    7590                      .dwattr $C$DW$534, DW_AT_name("_Vals")
    7591                      .dwattr $C$DW$534, DW_AT_accessibility(DW_ACCESS_public)
    7592                      .dwattr $C$DW$534, DW_AT_decl_file("C:/ti/C2000Ware_MotorControl_SDK_5_04_00_00/c2000ware/driverlib/f
    7593                      .dwattr $C$DW$534, DW_AT_decl_line(0xa04)
    7594                      .dwattr $C$DW$534, DW_AT_decl_column(0x01)
    7595              
    7596                      .dwendtag $C$DW$T$79
    7597              
    7598                      .dwendtag $C$DW$TU$79
    7599              
    7600              
    7601              $C$DW$TU$135    .dwtag  DW_TAG_type_unit
    7602                      .dwmtype  $C$DW$T$135
    7603              $C$DW$T$135     .dwtag  DW_TAG_typedef
    7604                      .dwattr $C$DW$T$135, DW_AT_name("_Complex_float")
    7605                      .dwattr $C$DW$T$135, DW_AT_type(*$C$DW$T$79)
    7606                      .dwattr $C$DW$T$135, DW_AT_decl_file("C:/ti/C2000Ware_MotorControl_SDK_5_04_00_00/c2000ware/driverlib
    7607                      .dwattr $C$DW$T$135, DW_AT_decl_line(0xa04)
    7608                      .dwattr $C$DW$T$135, DW_AT_decl_column(0x01)
    7609              
    7610                      .dwendtag $C$DW$TU$135
    7611              
    7612              
    7613              $C$DW$TU$81     .dwtag  DW_TAG_type_unit
    7614                      .dwmtype  $C$DW$T$81
    7615              
    7616              $C$DW$T$81      .dwtag  DW_TAG_structure_type
    7617                      .dwattr $C$DW$T$81, DW_AT_name("_Complex_long_double")
    7618                      .dwattr $C$DW$T$81, DW_AT_byte_size(0x08)
    7619              $C$DW$535       .dwtag  DW_TAG_member
    7620                      .dwattr $C$DW$535, DW_AT_type(*$C$DW$T$80)
    7621                      .dwattr $C$DW$535, DW_AT_name("_Vals")
    7622                      .dwattr $C$DW$535, DW_AT_accessibility(DW_ACCESS_public)
    7623                      .dwattr $C$DW$535, DW_AT_decl_file("C:/ti/C2000Ware_MotorControl_SDK_5_04_00_00/c2000ware/driverlib/f
    7624                      .dwattr $C$DW$535, DW_AT_decl_line(0xa04)
    7625                      .dwattr $C$DW$535, DW_AT_decl_column(0x01)
    7626              
    7627                      .dwendtag $C$DW$T$81
    7628              
    7629                      .dwendtag $C$DW$TU$81
    7630              
    7631              
    7632              $C$DW$TU$137    .dwtag  DW_TAG_type_unit
    7633                      .dwmtype  $C$DW$T$137
    7634              $C$DW$T$137     .dwtag  DW_TAG_typedef
TMS320C2000 Assembler PC v22.6.2 Wed Dec 10 14:45:02 2025

Copyright (c) 1996-2018 Texas Instruments Incorporated
fcl_foc_cpu_dm.asm                                                   PAGE  144

    7635                      .dwattr $C$DW$T$137, DW_AT_name("_Complex_long_double")
    7636                      .dwattr $C$DW$T$137, DW_AT_type(*$C$DW$T$81)
    7637                      .dwattr $C$DW$T$137, DW_AT_decl_file("C:/ti/C2000Ware_MotorControl_SDK_5_04_00_00/c2000ware/driverlib
    7638                      .dwattr $C$DW$T$137, DW_AT_decl_line(0xa04)
    7639                      .dwattr $C$DW$T$137, DW_AT_decl_column(0x01)
    7640              
    7641                      .dwendtag $C$DW$TU$137
    7642              
    7643              
    7644              $C$DW$TU$82     .dwtag  DW_TAG_type_unit
    7645                      .dwmtype  $C$DW$T$82
    7646              
    7647              $C$DW$T$82      .dwtag  DW_TAG_structure_type
    7648                      .dwattr $C$DW$T$82, DW_AT_name("_FCL_Parameters_t_")
    7649                      .dwattr $C$DW$T$82, DW_AT_byte_size(0x24)
    7650              $C$DW$536       .dwtag  DW_TAG_member
    7651                      .dwattr $C$DW$536, DW_AT_type(*$C$DW$T$21)
    7652                      .dwattr $C$DW$536, DW_AT_name("carrierMid")
    7653                      .dwattr $C$DW$536, DW_AT_accessibility(DW_ACCESS_public)
    7654                      .dwattr $C$DW$536, DW_AT_decl_file("..\sources\fcl_foc_cpu_dm.h")
    7655                      .dwattr $C$DW$536, DW_AT_decl_line(0x55)
    7656                      .dwattr $C$DW$536, DW_AT_decl_column(0x11)
    7657              
    7658              $C$DW$537       .dwtag  DW_TAG_member
    7659                      .dwattr $C$DW$537, DW_AT_type(*$C$DW$T$21)
    7660                      .dwattr $C$DW$537, DW_AT_name("adcPPBScale")
    7661                      .dwattr $C$DW$537, DW_AT_data_member_location[DW_OP_plus_uconst 0x2]
    7662                      .dwattr $C$DW$537, DW_AT_accessibility(DW_ACCESS_public)
    7663                      .dwattr $C$DW$537, DW_AT_decl_file("..\sources\fcl_foc_cpu_dm.h")
    7664                      .dwattr $C$DW$537, DW_AT_decl_line(0x56)
    7665                      .dwattr $C$DW$537, DW_AT_decl_column(0x11)
    7666              
    7667              $C$DW$538       .dwtag  DW_TAG_member
    7668                      .dwattr $C$DW$538, DW_AT_type(*$C$DW$T$21)
    7669                      .dwattr $C$DW$538, DW_AT_name("adcAlphaScale")
    7670                      .dwattr $C$DW$538, DW_AT_data_member_location[DW_OP_plus_uconst 0x4]
    7671                      .dwattr $C$DW$538, DW_AT_accessibility(DW_ACCESS_public)
    7672                      .dwattr $C$DW$538, DW_AT_decl_file("..\sources\fcl_foc_cpu_dm.h")
    7673                      .dwattr $C$DW$538, DW_AT_decl_line(0x57)
    7674                      .dwattr $C$DW$538, DW_AT_decl_column(0x11)
    7675              
    7676              $C$DW$539       .dwtag  DW_TAG_member
    7677                      .dwattr $C$DW$539, DW_AT_type(*$C$DW$T$21)
    7678                      .dwattr $C$DW$539, DW_AT_name("adcBetaScale")
    7679                      .dwattr $C$DW$539, DW_AT_data_member_location[DW_OP_plus_uconst 0x6]
    7680                      .dwattr $C$DW$539, DW_AT_accessibility(DW_ACCESS_public)
    7681                      .dwattr $C$DW$539, DW_AT_decl_file("..\sources\fcl_foc_cpu_dm.h")
    7682                      .dwattr $C$DW$539, DW_AT_decl_line(0x58)
    7683                      .dwattr $C$DW$539, DW_AT_decl_column(0x11)
    7684              
    7685              $C$DW$540       .dwtag  DW_TAG_member
    7686                      .dwattr $C$DW$540, DW_AT_type(*$C$DW$T$21)
    7687                      .dwattr $C$DW$540, DW_AT_name("cmidsqrt3")
    7688                      .dwattr $C$DW$540, DW_AT_data_member_location[DW_OP_plus_uconst 0x8]
    7689                      .dwattr $C$DW$540, DW_AT_accessibility(DW_ACCESS_public)
TMS320C2000 Assembler PC v22.6.2 Wed Dec 10 14:45:02 2025

Copyright (c) 1996-2018 Texas Instruments Incorporated
fcl_foc_cpu_dm.asm                                                   PAGE  145

    7690                      .dwattr $C$DW$540, DW_AT_decl_file("..\sources\fcl_foc_cpu_dm.h")
    7691                      .dwattr $C$DW$540, DW_AT_decl_line(0x59)
    7692                      .dwattr $C$DW$540, DW_AT_decl_column(0x11)
    7693              
    7694              $C$DW$541       .dwtag  DW_TAG_member
    7695                      .dwattr $C$DW$541, DW_AT_type(*$C$DW$T$21)
    7696                      .dwattr $C$DW$541, DW_AT_name("tSamp")
    7697                      .dwattr $C$DW$541, DW_AT_data_member_location[DW_OP_plus_uconst 0xa]
    7698                      .dwattr $C$DW$541, DW_AT_accessibility(DW_ACCESS_public)
    7699                      .dwattr $C$DW$541, DW_AT_decl_file("..\sources\fcl_foc_cpu_dm.h")
    7700                      .dwattr $C$DW$541, DW_AT_decl_line(0x5b)
    7701                      .dwattr $C$DW$541, DW_AT_decl_column(0x11)
    7702              
    7703              $C$DW$542       .dwtag  DW_TAG_member
    7704                      .dwattr $C$DW$542, DW_AT_type(*$C$DW$T$21)
    7705                      .dwattr $C$DW$542, DW_AT_name("Rd")
    7706                      .dwattr $C$DW$542, DW_AT_data_member_location[DW_OP_plus_uconst 0xc]
    7707                      .dwattr $C$DW$542, DW_AT_accessibility(DW_ACCESS_public)
    7708                      .dwattr $C$DW$542, DW_AT_decl_file("..\sources\fcl_foc_cpu_dm.h")
    7709                      .dwattr $C$DW$542, DW_AT_decl_line(0x5c)
    7710                      .dwattr $C$DW$542, DW_AT_decl_column(0x11)
    7711              
    7712              $C$DW$543       .dwtag  DW_TAG_member
    7713                      .dwattr $C$DW$543, DW_AT_type(*$C$DW$T$21)
    7714                      .dwattr $C$DW$543, DW_AT_name("Rq")
    7715                      .dwattr $C$DW$543, DW_AT_data_member_location[DW_OP_plus_uconst 0xe]
    7716                      .dwattr $C$DW$543, DW_AT_accessibility(DW_ACCESS_public)
    7717                      .dwattr $C$DW$543, DW_AT_decl_file("..\sources\fcl_foc_cpu_dm.h")
    7718                      .dwattr $C$DW$543, DW_AT_decl_line(0x5d)
    7719                      .dwattr $C$DW$543, DW_AT_decl_column(0x11)
    7720              
    7721              $C$DW$544       .dwtag  DW_TAG_member
    7722                      .dwattr $C$DW$544, DW_AT_type(*$C$DW$T$21)
    7723                      .dwattr $C$DW$544, DW_AT_name("Ld")
    7724                      .dwattr $C$DW$544, DW_AT_data_member_location[DW_OP_plus_uconst 0x10]
    7725                      .dwattr $C$DW$544, DW_AT_accessibility(DW_ACCESS_public)
    7726                      .dwattr $C$DW$544, DW_AT_decl_file("..\sources\fcl_foc_cpu_dm.h")
    7727                      .dwattr $C$DW$544, DW_AT_decl_line(0x5e)
    7728                      .dwattr $C$DW$544, DW_AT_decl_column(0x11)
    7729              
    7730              $C$DW$545       .dwtag  DW_TAG_member
    7731                      .dwattr $C$DW$545, DW_AT_type(*$C$DW$T$21)
    7732                      .dwattr $C$DW$545, DW_AT_name("Lq")
    7733                      .dwattr $C$DW$545, DW_AT_data_member_location[DW_OP_plus_uconst 0x12]
    7734                      .dwattr $C$DW$545, DW_AT_accessibility(DW_ACCESS_public)
    7735                      .dwattr $C$DW$545, DW_AT_decl_file("..\sources\fcl_foc_cpu_dm.h")
    7736                      .dwattr $C$DW$545, DW_AT_decl_line(0x5f)
    7737                      .dwattr $C$DW$545, DW_AT_decl_column(0x11)
    7738              
    7739              $C$DW$546       .dwtag  DW_TAG_member
    7740                      .dwattr $C$DW$546, DW_AT_type(*$C$DW$T$21)
    7741                      .dwattr $C$DW$546, DW_AT_name("Vbase")
    7742                      .dwattr $C$DW$546, DW_AT_data_member_location[DW_OP_plus_uconst 0x14]
    7743                      .dwattr $C$DW$546, DW_AT_accessibility(DW_ACCESS_public)
    7744                      .dwattr $C$DW$546, DW_AT_decl_file("..\sources\fcl_foc_cpu_dm.h")
TMS320C2000 Assembler PC v22.6.2 Wed Dec 10 14:45:02 2025

Copyright (c) 1996-2018 Texas Instruments Incorporated
fcl_foc_cpu_dm.asm                                                   PAGE  146

    7745                      .dwattr $C$DW$546, DW_AT_decl_line(0x60)
    7746                      .dwattr $C$DW$546, DW_AT_decl_column(0x11)
    7747              
    7748              $C$DW$547       .dwtag  DW_TAG_member
    7749                      .dwattr $C$DW$547, DW_AT_type(*$C$DW$T$21)
    7750                      .dwattr $C$DW$547, DW_AT_name("Ibase")
    7751                      .dwattr $C$DW$547, DW_AT_data_member_location[DW_OP_plus_uconst 0x16]
    7752                      .dwattr $C$DW$547, DW_AT_accessibility(DW_ACCESS_public)
    7753                      .dwattr $C$DW$547, DW_AT_decl_file("..\sources\fcl_foc_cpu_dm.h")
    7754                      .dwattr $C$DW$547, DW_AT_decl_line(0x61)
    7755                      .dwattr $C$DW$547, DW_AT_decl_column(0x11)
    7756              
    7757              $C$DW$548       .dwtag  DW_TAG_member
    7758                      .dwattr $C$DW$548, DW_AT_type(*$C$DW$T$21)
    7759                      .dwattr $C$DW$548, DW_AT_name("invZbase")
    7760                      .dwattr $C$DW$548, DW_AT_data_member_location[DW_OP_plus_uconst 0x18]
    7761                      .dwattr $C$DW$548, DW_AT_accessibility(DW_ACCESS_public)
    7762                      .dwattr $C$DW$548, DW_AT_decl_file("..\sources\fcl_foc_cpu_dm.h")
    7763                      .dwattr $C$DW$548, DW_AT_decl_line(0x62)
    7764                      .dwattr $C$DW$548, DW_AT_decl_column(0x11)
    7765              
    7766              $C$DW$549       .dwtag  DW_TAG_member
    7767                      .dwattr $C$DW$549, DW_AT_type(*$C$DW$T$21)
    7768                      .dwattr $C$DW$549, DW_AT_name("wccD")
    7769                      .dwattr $C$DW$549, DW_AT_data_member_location[DW_OP_plus_uconst 0x1a]
    7770                      .dwattr $C$DW$549, DW_AT_accessibility(DW_ACCESS_public)
    7771                      .dwattr $C$DW$549, DW_AT_decl_file("..\sources\fcl_foc_cpu_dm.h")
    7772                      .dwattr $C$DW$549, DW_AT_decl_line(0x63)
    7773                      .dwattr $C$DW$549, DW_AT_decl_column(0x11)
    7774              
    7775              $C$DW$550       .dwtag  DW_TAG_member
    7776                      .dwattr $C$DW$550, DW_AT_type(*$C$DW$T$21)
    7777                      .dwattr $C$DW$550, DW_AT_name("wccQ")
    7778                      .dwattr $C$DW$550, DW_AT_data_member_location[DW_OP_plus_uconst 0x1c]
    7779                      .dwattr $C$DW$550, DW_AT_accessibility(DW_ACCESS_public)
    7780                      .dwattr $C$DW$550, DW_AT_decl_file("..\sources\fcl_foc_cpu_dm.h")
    7781                      .dwattr $C$DW$550, DW_AT_decl_line(0x64)
    7782                      .dwattr $C$DW$550, DW_AT_decl_column(0x11)
    7783              
    7784              $C$DW$551       .dwtag  DW_TAG_member
    7785                      .dwattr $C$DW$551, DW_AT_type(*$C$DW$T$21)
    7786                      .dwattr $C$DW$551, DW_AT_name("Vdcbus")
    7787                      .dwattr $C$DW$551, DW_AT_data_member_location[DW_OP_plus_uconst 0x1e]
    7788                      .dwattr $C$DW$551, DW_AT_accessibility(DW_ACCESS_public)
    7789                      .dwattr $C$DW$551, DW_AT_decl_file("..\sources\fcl_foc_cpu_dm.h")
    7790                      .dwattr $C$DW$551, DW_AT_decl_line(0x65)
    7791                      .dwattr $C$DW$551, DW_AT_decl_column(0x11)
    7792              
    7793              $C$DW$552       .dwtag  DW_TAG_member
    7794                      .dwattr $C$DW$552, DW_AT_type(*$C$DW$T$21)
    7795                      .dwattr $C$DW$552, DW_AT_name("BemfK")
    7796                      .dwattr $C$DW$552, DW_AT_data_member_location[DW_OP_plus_uconst 0x20]
    7797                      .dwattr $C$DW$552, DW_AT_accessibility(DW_ACCESS_public)
    7798                      .dwattr $C$DW$552, DW_AT_decl_file("..\sources\fcl_foc_cpu_dm.h")
    7799                      .dwattr $C$DW$552, DW_AT_decl_line(0x66)
TMS320C2000 Assembler PC v22.6.2 Wed Dec 10 14:45:02 2025

Copyright (c) 1996-2018 Texas Instruments Incorporated
fcl_foc_cpu_dm.asm                                                   PAGE  147

    7800                      .dwattr $C$DW$552, DW_AT_decl_column(0x11)
    7801              
    7802              $C$DW$553       .dwtag  DW_TAG_member
    7803                      .dwattr $C$DW$553, DW_AT_type(*$C$DW$T$21)
    7804                      .dwattr $C$DW$553, DW_AT_name("Wbase")
    7805                      .dwattr $C$DW$553, DW_AT_data_member_location[DW_OP_plus_uconst 0x22]
    7806                      .dwattr $C$DW$553, DW_AT_accessibility(DW_ACCESS_public)
    7807                      .dwattr $C$DW$553, DW_AT_decl_file("..\sources\fcl_foc_cpu_dm.h")
    7808                      .dwattr $C$DW$553, DW_AT_decl_line(0x67)
    7809                      .dwattr $C$DW$553, DW_AT_decl_column(0x11)
    7810              
    7811                      .dwattr $C$DW$T$82, DW_AT_decl_file("..\sources\fcl_foc_cpu_dm.h")
    7812                      .dwattr $C$DW$T$82, DW_AT_decl_line(0x53)
    7813                      .dwattr $C$DW$T$82, DW_AT_decl_column(0x10)
    7814                      .dwendtag $C$DW$T$82
    7815              
    7816                      .dwendtag $C$DW$TU$82
    7817              
    7818              
    7819              $C$DW$TU$94     .dwtag  DW_TAG_type_unit
    7820                      .dwmtype  $C$DW$T$94
    7821              $C$DW$T$94      .dwtag  DW_TAG_typedef
    7822                      .dwattr $C$DW$T$94, DW_AT_name("FCL_Parameters_t")
    7823                      .dwattr $C$DW$T$94, DW_AT_type(*$C$DW$T$82)
    7824                      .dwattr $C$DW$T$94, DW_AT_decl_file("..\sources\fcl_foc_cpu_dm.h")
    7825                      .dwattr $C$DW$T$94, DW_AT_decl_line(0x68)
    7826                      .dwattr $C$DW$T$94, DW_AT_decl_column(0x03)
    7827              
    7828                      .dwendtag $C$DW$TU$94
    7829              
    7830              
    7831              $C$DW$TU$116    .dwtag  DW_TAG_type_unit
    7832                      .dwmtype  $C$DW$T$116
    7833              
    7834              $C$DW$T$116     .dwtag  DW_TAG_structure_type
    7835                      .dwattr $C$DW$T$116, DW_AT_name("_MOTOR_Vars_t_")
    7836                      .dwattr $C$DW$T$116, DW_AT_byte_size(0x1ca)
    7837              $C$DW$554       .dwtag  DW_TAG_member
    7838                      .dwattr $C$DW$554, DW_AT_type(*$C$DW$T$24)
    7839                      .dwattr $C$DW$554, DW_AT_name("posCntr")
    7840                      .dwattr $C$DW$554, DW_AT_accessibility(DW_ACCESS_public)
    7841                      .dwattr $C$DW$554, DW_AT_decl_file("..\sources\fcl_foc_cpu_dm.h")
    7842                      .dwattr $C$DW$554, DW_AT_decl_line(0x81)
    7843                      .dwattr $C$DW$554, DW_AT_decl_column(0x0e)
    7844              
    7845              $C$DW$555       .dwtag  DW_TAG_member
    7846                      .dwattr $C$DW$555, DW_AT_type(*$C$DW$T$24)
    7847                      .dwattr $C$DW$555, DW_AT_name("posCntrMax")
    7848                      .dwattr $C$DW$555, DW_AT_data_member_location[DW_OP_plus_uconst 0x2]
    7849                      .dwattr $C$DW$555, DW_AT_accessibility(DW_ACCESS_public)
    7850                      .dwattr $C$DW$555, DW_AT_decl_file("..\sources\fcl_foc_cpu_dm.h")
    7851                      .dwattr $C$DW$555, DW_AT_decl_line(0x82)
    7852                      .dwattr $C$DW$555, DW_AT_decl_column(0x0e)
    7853              
    7854              $C$DW$556       .dwtag  DW_TAG_member
TMS320C2000 Assembler PC v22.6.2 Wed Dec 10 14:45:02 2025

Copyright (c) 1996-2018 Texas Instruments Incorporated
fcl_foc_cpu_dm.asm                                                   PAGE  148

    7855                      .dwattr $C$DW$556, DW_AT_type(*$C$DW$T$21)
    7856                      .dwattr $C$DW$556, DW_AT_name("posSlewRate")
    7857                      .dwattr $C$DW$556, DW_AT_data_member_location[DW_OP_plus_uconst 0x4]
    7858                      .dwattr $C$DW$556, DW_AT_accessibility(DW_ACCESS_public)
    7859                      .dwattr $C$DW$556, DW_AT_decl_file("..\sources\fcl_foc_cpu_dm.h")
    7860                      .dwattr $C$DW$556, DW_AT_decl_line(0x83)
    7861                      .dwattr $C$DW$556, DW_AT_decl_column(0x0f)
    7862              
    7863              $C$DW$557       .dwtag  DW_TAG_member
    7864                      .dwattr $C$DW$557, DW_AT_type(*$C$DW$T$21)
    7865                      .dwattr $C$DW$557, DW_AT_name("baseFreq")
    7866                      .dwattr $C$DW$557, DW_AT_data_member_location[DW_OP_plus_uconst 0x6]
    7867                      .dwattr $C$DW$557, DW_AT_accessibility(DW_ACCESS_public)
    7868                      .dwattr $C$DW$557, DW_AT_decl_file("..\sources\fcl_foc_cpu_dm.h")
    7869                      .dwattr $C$DW$557, DW_AT_decl_line(0x85)
    7870                      .dwattr $C$DW$557, DW_AT_decl_column(0x0f)
    7871              
    7872              $C$DW$558       .dwtag  DW_TAG_member
    7873                      .dwattr $C$DW$558, DW_AT_type(*$C$DW$T$21)
    7874                      .dwattr $C$DW$558, DW_AT_name("polePairs")
    7875                      .dwattr $C$DW$558, DW_AT_data_member_location[DW_OP_plus_uconst 0x8]
    7876                      .dwattr $C$DW$558, DW_AT_accessibility(DW_ACCESS_public)
    7877                      .dwattr $C$DW$558, DW_AT_decl_file("..\sources\fcl_foc_cpu_dm.h")
    7878                      .dwattr $C$DW$558, DW_AT_decl_line(0x86)
    7879                      .dwattr $C$DW$558, DW_AT_decl_column(0x0f)
    7880              
    7881              $C$DW$559       .dwtag  DW_TAG_member
    7882                      .dwattr $C$DW$559, DW_AT_type(*$C$DW$T$21)
    7883                      .dwattr $C$DW$559, DW_AT_name("posMechScaler")
    7884                      .dwattr $C$DW$559, DW_AT_data_member_location[DW_OP_plus_uconst 0xa]
    7885                      .dwattr $C$DW$559, DW_AT_accessibility(DW_ACCESS_public)
    7886                      .dwattr $C$DW$559, DW_AT_decl_file("..\sources\fcl_foc_cpu_dm.h")
    7887                      .dwattr $C$DW$559, DW_AT_decl_line(0x87)
    7888                      .dwattr $C$DW$559, DW_AT_decl_column(0x0f)
    7889              
    7890              $C$DW$560       .dwtag  DW_TAG_member
    7891                      .dwattr $C$DW$560, DW_AT_type(*$C$DW$T$21)
    7892                      .dwattr $C$DW$560, DW_AT_name("Ts")
    7893                      .dwattr $C$DW$560, DW_AT_data_member_location[DW_OP_plus_uconst 0xc]
    7894                      .dwattr $C$DW$560, DW_AT_accessibility(DW_ACCESS_public)
    7895                      .dwattr $C$DW$560, DW_AT_decl_file("..\sources\fcl_foc_cpu_dm.h")
    7896                      .dwattr $C$DW$560, DW_AT_decl_line(0x89)
    7897                      .dwattr $C$DW$560, DW_AT_decl_column(0x0f)
    7898              
    7899              $C$DW$561       .dwtag  DW_TAG_member
    7900                      .dwattr $C$DW$561, DW_AT_type(*$C$DW$T$21)
    7901                      .dwattr $C$DW$561, DW_AT_name("maxModIndex")
    7902                      .dwattr $C$DW$561, DW_AT_data_member_location[DW_OP_plus_uconst 0xe]
    7903                      .dwattr $C$DW$561, DW_AT_accessibility(DW_ACCESS_public)
    7904                      .dwattr $C$DW$561, DW_AT_decl_file("..\sources\fcl_foc_cpu_dm.h")
    7905                      .dwattr $C$DW$561, DW_AT_decl_line(0x8a)
    7906                      .dwattr $C$DW$561, DW_AT_decl_column(0x0f)
    7907              
    7908              $C$DW$562       .dwtag  DW_TAG_member
    7909                      .dwattr $C$DW$562, DW_AT_type(*$C$DW$T$21)
TMS320C2000 Assembler PC v22.6.2 Wed Dec 10 14:45:02 2025

Copyright (c) 1996-2018 Texas Instruments Incorporated
fcl_foc_cpu_dm.asm                                                   PAGE  149

    7910                      .dwattr $C$DW$562, DW_AT_name("pwmHalfPeriod")
    7911                      .dwattr $C$DW$562, DW_AT_data_member_location[DW_OP_plus_uconst 0x10]
    7912                      .dwattr $C$DW$562, DW_AT_accessibility(DW_ACCESS_public)
    7913                      .dwattr $C$DW$562, DW_AT_decl_file("..\sources\fcl_foc_cpu_dm.h")
    7914                      .dwattr $C$DW$562, DW_AT_decl_line(0x8b)
    7915                      .dwattr $C$DW$562, DW_AT_decl_column(0x0f)
    7916              
    7917              $C$DW$563       .dwtag  DW_TAG_member
    7918                      .dwattr $C$DW$563, DW_AT_type(*$C$DW$T$21)
    7919                      .dwattr $C$DW$563, DW_AT_name("voltageLimit")
    7920                      .dwattr $C$DW$563, DW_AT_data_member_location[DW_OP_plus_uconst 0x12]
    7921                      .dwattr $C$DW$563, DW_AT_accessibility(DW_ACCESS_public)
    7922                      .dwattr $C$DW$563, DW_AT_decl_file("..\sources\fcl_foc_cpu_dm.h")
    7923                      .dwattr $C$DW$563, DW_AT_decl_line(0x8d)
    7924                      .dwattr $C$DW$563, DW_AT_decl_column(0x0f)
    7925              
    7926              $C$DW$564       .dwtag  DW_TAG_member
    7927                      .dwattr $C$DW$564, DW_AT_type(*$C$DW$T$21)
    7928                      .dwattr $C$DW$564, DW_AT_name("currentLimit")
    7929                      .dwattr $C$DW$564, DW_AT_data_member_location[DW_OP_plus_uconst 0x14]
    7930                      .dwattr $C$DW$564, DW_AT_accessibility(DW_ACCESS_public)
    7931                      .dwattr $C$DW$564, DW_AT_decl_file("..\sources\fcl_foc_cpu_dm.h")
    7932                      .dwattr $C$DW$564, DW_AT_decl_line(0x8e)
    7933                      .dwattr $C$DW$564, DW_AT_decl_column(0x0f)
    7934              
    7935              $C$DW$565       .dwtag  DW_TAG_member
    7936                      .dwattr $C$DW$565, DW_AT_type(*$C$DW$T$21)
    7937                      .dwattr $C$DW$565, DW_AT_name("speedRefStart")
    7938                      .dwattr $C$DW$565, DW_AT_data_member_location[DW_OP_plus_uconst 0x16]
    7939                      .dwattr $C$DW$565, DW_AT_accessibility(DW_ACCESS_public)
    7940                      .dwattr $C$DW$565, DW_AT_decl_file("..\sources\fcl_foc_cpu_dm.h")
    7941                      .dwattr $C$DW$565, DW_AT_decl_line(0x8f)
    7942                      .dwattr $C$DW$565, DW_AT_decl_column(0x0f)
    7943              
    7944              $C$DW$566       .dwtag  DW_TAG_member
    7945                      .dwattr $C$DW$566, DW_AT_type(*$C$DW$T$21)
    7946                      .dwattr $C$DW$566, DW_AT_name("speedRefMax")
    7947                      .dwattr $C$DW$566, DW_AT_data_member_location[DW_OP_plus_uconst 0x18]
    7948                      .dwattr $C$DW$566, DW_AT_accessibility(DW_ACCESS_public)
    7949                      .dwattr $C$DW$566, DW_AT_decl_file("..\sources\fcl_foc_cpu_dm.h")
    7950                      .dwattr $C$DW$566, DW_AT_decl_line(0x90)
    7951                      .dwattr $C$DW$566, DW_AT_decl_column(0x0f)
    7952              
    7953              $C$DW$567       .dwtag  DW_TAG_member
    7954                      .dwattr $C$DW$567, DW_AT_type(*$C$DW$T$21)
    7955                      .dwattr $C$DW$567, DW_AT_name("IdRefSet")
    7956                      .dwattr $C$DW$567, DW_AT_data_member_location[DW_OP_plus_uconst 0x1a]
    7957                      .dwattr $C$DW$567, DW_AT_accessibility(DW_ACCESS_public)
    7958                      .dwattr $C$DW$567, DW_AT_decl_file("..\sources\fcl_foc_cpu_dm.h")
    7959                      .dwattr $C$DW$567, DW_AT_decl_line(0x91)
    7960                      .dwattr $C$DW$567, DW_AT_decl_column(0x0f)
    7961              
    7962              $C$DW$568       .dwtag  DW_TAG_member
    7963                      .dwattr $C$DW$568, DW_AT_type(*$C$DW$T$21)
    7964                      .dwattr $C$DW$568, DW_AT_name("IqRefSet")
TMS320C2000 Assembler PC v22.6.2 Wed Dec 10 14:45:02 2025

Copyright (c) 1996-2018 Texas Instruments Incorporated
fcl_foc_cpu_dm.asm                                                   PAGE  150

    7965                      .dwattr $C$DW$568, DW_AT_data_member_location[DW_OP_plus_uconst 0x1c]
    7966                      .dwattr $C$DW$568, DW_AT_accessibility(DW_ACCESS_public)
    7967                      .dwattr $C$DW$568, DW_AT_decl_file("..\sources\fcl_foc_cpu_dm.h")
    7968                      .dwattr $C$DW$568, DW_AT_decl_line(0x92)
    7969                      .dwattr $C$DW$568, DW_AT_decl_column(0x0f)
    7970              
    7971              $C$DW$569       .dwtag  DW_TAG_member
    7972                      .dwattr $C$DW$569, DW_AT_type(*$C$DW$T$21)
    7973                      .dwattr $C$DW$569, DW_AT_name("IdRef_start")
    7974                      .dwattr $C$DW$569, DW_AT_data_member_location[DW_OP_plus_uconst 0x1e]
    7975                      .dwattr $C$DW$569, DW_AT_accessibility(DW_ACCESS_public)
    7976                      .dwattr $C$DW$569, DW_AT_decl_file("..\sources\fcl_foc_cpu_dm.h")
    7977                      .dwattr $C$DW$569, DW_AT_decl_line(0x94)
    7978                      .dwattr $C$DW$569, DW_AT_decl_column(0x0f)
    7979              
    7980              $C$DW$570       .dwtag  DW_TAG_member
    7981                      .dwattr $C$DW$570, DW_AT_type(*$C$DW$T$21)
    7982                      .dwattr $C$DW$570, DW_AT_name("IdRef_run")
    7983                      .dwattr $C$DW$570, DW_AT_data_member_location[DW_OP_plus_uconst 0x20]
    7984                      .dwattr $C$DW$570, DW_AT_accessibility(DW_ACCESS_public)
    7985                      .dwattr $C$DW$570, DW_AT_decl_file("..\sources\fcl_foc_cpu_dm.h")
    7986                      .dwattr $C$DW$570, DW_AT_decl_line(0x95)
    7987                      .dwattr $C$DW$570, DW_AT_decl_column(0x0f)
    7988              
    7989              $C$DW$571       .dwtag  DW_TAG_member
    7990                      .dwattr $C$DW$571, DW_AT_type(*$C$DW$T$21)
    7991                      .dwattr $C$DW$571, DW_AT_name("IqRef_start")
    7992                      .dwattr $C$DW$571, DW_AT_data_member_location[DW_OP_plus_uconst 0x22]
    7993                      .dwattr $C$DW$571, DW_AT_accessibility(DW_ACCESS_public)
    7994                      .dwattr $C$DW$571, DW_AT_decl_file("..\sources\fcl_foc_cpu_dm.h")
    7995                      .dwattr $C$DW$571, DW_AT_decl_line(0x96)
    7996                      .dwattr $C$DW$571, DW_AT_decl_column(0x0f)
    7997              
    7998              $C$DW$572       .dwtag  DW_TAG_member
    7999                      .dwattr $C$DW$572, DW_AT_type(*$C$DW$T$21)
    8000                      .dwattr $C$DW$572, DW_AT_name("IdRef")
    8001                      .dwattr $C$DW$572, DW_AT_data_member_location[DW_OP_plus_uconst 0x24]
    8002                      .dwattr $C$DW$572, DW_AT_accessibility(DW_ACCESS_public)
    8003                      .dwattr $C$DW$572, DW_AT_decl_file("..\sources\fcl_foc_cpu_dm.h")
    8004                      .dwattr $C$DW$572, DW_AT_decl_line(0x98)
    8005                      .dwattr $C$DW$572, DW_AT_decl_column(0x0f)
    8006              
    8007              $C$DW$573       .dwtag  DW_TAG_member
    8008                      .dwattr $C$DW$573, DW_AT_type(*$C$DW$T$21)
    8009                      .dwattr $C$DW$573, DW_AT_name("IqRef")
    8010                      .dwattr $C$DW$573, DW_AT_data_member_location[DW_OP_plus_uconst 0x26]
    8011                      .dwattr $C$DW$573, DW_AT_accessibility(DW_ACCESS_public)
    8012                      .dwattr $C$DW$573, DW_AT_decl_file("..\sources\fcl_foc_cpu_dm.h")
    8013                      .dwattr $C$DW$573, DW_AT_decl_line(0x99)
    8014                      .dwattr $C$DW$573, DW_AT_decl_column(0x0f)
    8015              
    8016              $C$DW$574       .dwtag  DW_TAG_member
    8017                      .dwattr $C$DW$574, DW_AT_type(*$C$DW$T$21)
    8018                      .dwattr $C$DW$574, DW_AT_name("ctrlIdRef")
    8019                      .dwattr $C$DW$574, DW_AT_data_member_location[DW_OP_plus_uconst 0x28]
TMS320C2000 Assembler PC v22.6.2 Wed Dec 10 14:45:02 2025

Copyright (c) 1996-2018 Texas Instruments Incorporated
fcl_foc_cpu_dm.asm                                                   PAGE  151

    8020                      .dwattr $C$DW$574, DW_AT_accessibility(DW_ACCESS_public)
    8021                      .dwattr $C$DW$574, DW_AT_decl_file("..\sources\fcl_foc_cpu_dm.h")
    8022                      .dwattr $C$DW$574, DW_AT_decl_line(0x9b)
    8023                      .dwattr $C$DW$574, DW_AT_decl_column(0x0f)
    8024              
    8025              $C$DW$575       .dwtag  DW_TAG_member
    8026                      .dwattr $C$DW$575, DW_AT_type(*$C$DW$T$21)
    8027                      .dwattr $C$DW$575, DW_AT_name("ctrlIqRef")
    8028                      .dwattr $C$DW$575, DW_AT_data_member_location[DW_OP_plus_uconst 0x2a]
    8029                      .dwattr $C$DW$575, DW_AT_accessibility(DW_ACCESS_public)
    8030                      .dwattr $C$DW$575, DW_AT_decl_file("..\sources\fcl_foc_cpu_dm.h")
    8031                      .dwattr $C$DW$575, DW_AT_decl_line(0x9c)
    8032                      .dwattr $C$DW$575, DW_AT_decl_column(0x0f)
    8033              
    8034              $C$DW$576       .dwtag  DW_TAG_member
    8035                      .dwattr $C$DW$576, DW_AT_type(*$C$DW$T$21)
    8036                      .dwattr $C$DW$576, DW_AT_name("speedRef")
    8037                      .dwattr $C$DW$576, DW_AT_data_member_location[DW_OP_plus_uconst 0x2c]
    8038                      .dwattr $C$DW$576, DW_AT_accessibility(DW_ACCESS_public)
    8039                      .dwattr $C$DW$576, DW_AT_decl_file("..\sources\fcl_foc_cpu_dm.h")
    8040                      .dwattr $C$DW$576, DW_AT_decl_line(0x9e)
    8041                      .dwattr $C$DW$576, DW_AT_decl_column(0x0f)
    8042              
    8043              $C$DW$577       .dwtag  DW_TAG_member
    8044                      .dwattr $C$DW$577, DW_AT_type(*$C$DW$T$21)
    8045                      .dwattr $C$DW$577, DW_AT_name("positionRef")
    8046                      .dwattr $C$DW$577, DW_AT_data_member_location[DW_OP_plus_uconst 0x2e]
    8047                      .dwattr $C$DW$577, DW_AT_accessibility(DW_ACCESS_public)
    8048                      .dwattr $C$DW$577, DW_AT_decl_file("..\sources\fcl_foc_cpu_dm.h")
    8049                      .dwattr $C$DW$577, DW_AT_decl_line(0x9f)
    8050                      .dwattr $C$DW$577, DW_AT_decl_column(0x0f)
    8051              
    8052              $C$DW$578       .dwtag  DW_TAG_member
    8053                      .dwattr $C$DW$578, DW_AT_type(*$C$DW$T$21)
    8054                      .dwattr $C$DW$578, DW_AT_name("lsw1Speed")
    8055                      .dwattr $C$DW$578, DW_AT_data_member_location[DW_OP_plus_uconst 0x30]
    8056                      .dwattr $C$DW$578, DW_AT_accessibility(DW_ACCESS_public)
    8057                      .dwattr $C$DW$578, DW_AT_decl_file("..\sources\fcl_foc_cpu_dm.h")
    8058                      .dwattr $C$DW$578, DW_AT_decl_line(0xa0)
    8059                      .dwattr $C$DW$578, DW_AT_decl_column(0x0f)
    8060              
    8061              $C$DW$579       .dwtag  DW_TAG_member
    8062                      .dwattr $C$DW$579, DW_AT_type(*$C$DW$T$21)
    8063                      .dwattr $C$DW$579, DW_AT_name("offset_currentAs")
    8064                      .dwattr $C$DW$579, DW_AT_data_member_location[DW_OP_plus_uconst 0x32]
    8065                      .dwattr $C$DW$579, DW_AT_accessibility(DW_ACCESS_public)
    8066                      .dwattr $C$DW$579, DW_AT_decl_file("..\sources\fcl_foc_cpu_dm.h")
    8067                      .dwattr $C$DW$579, DW_AT_decl_line(0xa3)
    8068                      .dwattr $C$DW$579, DW_AT_decl_column(0x0f)
    8069              
    8070              $C$DW$580       .dwtag  DW_TAG_member
    8071                      .dwattr $C$DW$580, DW_AT_type(*$C$DW$T$21)
    8072                      .dwattr $C$DW$580, DW_AT_name("offset_currentBs")
    8073                      .dwattr $C$DW$580, DW_AT_data_member_location[DW_OP_plus_uconst 0x34]
    8074                      .dwattr $C$DW$580, DW_AT_accessibility(DW_ACCESS_public)
TMS320C2000 Assembler PC v22.6.2 Wed Dec 10 14:45:02 2025

Copyright (c) 1996-2018 Texas Instruments Incorporated
fcl_foc_cpu_dm.asm                                                   PAGE  152

    8075                      .dwattr $C$DW$580, DW_AT_decl_file("..\sources\fcl_foc_cpu_dm.h")
    8076                      .dwattr $C$DW$580, DW_AT_decl_line(0xa4)
    8077                      .dwattr $C$DW$580, DW_AT_decl_column(0x0f)
    8078              
    8079              $C$DW$581       .dwtag  DW_TAG_member
    8080                      .dwattr $C$DW$581, DW_AT_type(*$C$DW$T$21)
    8081                      .dwattr $C$DW$581, DW_AT_name("offset_currentCs")
    8082                      .dwattr $C$DW$581, DW_AT_data_member_location[DW_OP_plus_uconst 0x36]
    8083                      .dwattr $C$DW$581, DW_AT_accessibility(DW_ACCESS_public)
    8084                      .dwattr $C$DW$581, DW_AT_decl_file("..\sources\fcl_foc_cpu_dm.h")
    8085                      .dwattr $C$DW$581, DW_AT_decl_line(0xa5)
    8086                      .dwattr $C$DW$581, DW_AT_decl_column(0x0f)
    8087              
    8088              $C$DW$582       .dwtag  DW_TAG_member
    8089                      .dwattr $C$DW$582, DW_AT_type(*$C$DW$T$21)
    8090                      .dwattr $C$DW$582, DW_AT_name("currentAs")
    8091                      .dwattr $C$DW$582, DW_AT_data_member_location[DW_OP_plus_uconst 0x38]
    8092                      .dwattr $C$DW$582, DW_AT_accessibility(DW_ACCESS_public)
    8093                      .dwattr $C$DW$582, DW_AT_decl_file("..\sources\fcl_foc_cpu_dm.h")
    8094                      .dwattr $C$DW$582, DW_AT_decl_line(0xa7)
    8095                      .dwattr $C$DW$582, DW_AT_decl_column(0x0f)
    8096              
    8097              $C$DW$583       .dwtag  DW_TAG_member
    8098                      .dwattr $C$DW$583, DW_AT_type(*$C$DW$T$21)
    8099                      .dwattr $C$DW$583, DW_AT_name("currentBs")
    8100                      .dwattr $C$DW$583, DW_AT_data_member_location[DW_OP_plus_uconst 0x3a]
    8101                      .dwattr $C$DW$583, DW_AT_accessibility(DW_ACCESS_public)
    8102                      .dwattr $C$DW$583, DW_AT_decl_file("..\sources\fcl_foc_cpu_dm.h")
    8103                      .dwattr $C$DW$583, DW_AT_decl_line(0xa8)
    8104                      .dwattr $C$DW$583, DW_AT_decl_column(0x0f)
    8105              
    8106              $C$DW$584       .dwtag  DW_TAG_member
    8107                      .dwattr $C$DW$584, DW_AT_type(*$C$DW$T$21)
    8108                      .dwattr $C$DW$584, DW_AT_name("currentCs")
    8109                      .dwattr $C$DW$584, DW_AT_data_member_location[DW_OP_plus_uconst 0x3c]
    8110                      .dwattr $C$DW$584, DW_AT_accessibility(DW_ACCESS_public)
    8111                      .dwattr $C$DW$584, DW_AT_decl_file("..\sources\fcl_foc_cpu_dm.h")
    8112                      .dwattr $C$DW$584, DW_AT_decl_line(0xa9)
    8113                      .dwattr $C$DW$584, DW_AT_decl_column(0x0f)
    8114              
    8115              $C$DW$585       .dwtag  DW_TAG_member
    8116                      .dwattr $C$DW$585, DW_AT_type(*$C$DW$T$21)
    8117                      .dwattr $C$DW$585, DW_AT_name("currentScale")
    8118                      .dwattr $C$DW$585, DW_AT_data_member_location[DW_OP_plus_uconst 0x3e]
    8119                      .dwattr $C$DW$585, DW_AT_accessibility(DW_ACCESS_public)
    8120                      .dwattr $C$DW$585, DW_AT_decl_file("..\sources\fcl_foc_cpu_dm.h")
    8121                      .dwattr $C$DW$585, DW_AT_decl_line(0xab)
    8122                      .dwattr $C$DW$585, DW_AT_decl_column(0x0f)
    8123              
    8124              $C$DW$586       .dwtag  DW_TAG_member
    8125                      .dwattr $C$DW$586, DW_AT_type(*$C$DW$T$21)
    8126                      .dwattr $C$DW$586, DW_AT_name("voltageScale")
    8127                      .dwattr $C$DW$586, DW_AT_data_member_location[DW_OP_plus_uconst 0x40]
    8128                      .dwattr $C$DW$586, DW_AT_accessibility(DW_ACCESS_public)
    8129                      .dwattr $C$DW$586, DW_AT_decl_file("..\sources\fcl_foc_cpu_dm.h")
TMS320C2000 Assembler PC v22.6.2 Wed Dec 10 14:45:02 2025

Copyright (c) 1996-2018 Texas Instruments Incorporated
fcl_foc_cpu_dm.asm                                                   PAGE  153

    8130                      .dwattr $C$DW$586, DW_AT_decl_line(0xac)
    8131                      .dwattr $C$DW$586, DW_AT_decl_column(0x0f)
    8132              
    8133              $C$DW$587       .dwtag  DW_TAG_member
    8134                      .dwattr $C$DW$587, DW_AT_type(*$C$DW$T$21)
    8135                      .dwattr $C$DW$587, DW_AT_name("adcScale")
    8136                      .dwattr $C$DW$587, DW_AT_data_member_location[DW_OP_plus_uconst 0x42]
    8137                      .dwattr $C$DW$587, DW_AT_accessibility(DW_ACCESS_public)
    8138                      .dwattr $C$DW$587, DW_AT_decl_file("..\sources\fcl_foc_cpu_dm.h")
    8139                      .dwattr $C$DW$587, DW_AT_decl_line(0xad)
    8140                      .dwattr $C$DW$587, DW_AT_decl_column(0x0f)
    8141              
    8142              $C$DW$588       .dwtag  DW_TAG_member
    8143                      .dwattr $C$DW$588, DW_AT_type(*$C$DW$T$21)
    8144                      .dwattr $C$DW$588, DW_AT_name("currentInvSF")
    8145                      .dwattr $C$DW$588, DW_AT_data_member_location[DW_OP_plus_uconst 0x44]
    8146                      .dwattr $C$DW$588, DW_AT_accessibility(DW_ACCESS_public)
    8147                      .dwattr $C$DW$588, DW_AT_decl_file("..\sources\fcl_foc_cpu_dm.h")
    8148                      .dwattr $C$DW$588, DW_AT_decl_line(0xae)
    8149                      .dwattr $C$DW$588, DW_AT_decl_column(0x0f)
    8150              
    8151              $C$DW$589       .dwtag  DW_TAG_member
    8152                      .dwattr $C$DW$589, DW_AT_type(*$C$DW$T$21)
    8153                      .dwattr $C$DW$589, DW_AT_name("voltageInvSF")
    8154                      .dwattr $C$DW$589, DW_AT_data_member_location[DW_OP_plus_uconst 0x46]
    8155                      .dwattr $C$DW$589, DW_AT_accessibility(DW_ACCESS_public)
    8156                      .dwattr $C$DW$589, DW_AT_decl_file("..\sources\fcl_foc_cpu_dm.h")
    8157                      .dwattr $C$DW$589, DW_AT_decl_line(0xaf)
    8158                      .dwattr $C$DW$589, DW_AT_decl_column(0x0f)
    8159              
    8160              $C$DW$590       .dwtag  DW_TAG_member
    8161                      .dwattr $C$DW$590, DW_AT_type(*$C$DW$T$21)
    8162                      .dwattr $C$DW$590, DW_AT_name("posElecTheta")
    8163                      .dwattr $C$DW$590, DW_AT_data_member_location[DW_OP_plus_uconst 0x48]
    8164                      .dwattr $C$DW$590, DW_AT_accessibility(DW_ACCESS_public)
    8165                      .dwattr $C$DW$590, DW_AT_decl_file("..\sources\fcl_foc_cpu_dm.h")
    8166                      .dwattr $C$DW$590, DW_AT_decl_line(0xb1)
    8167                      .dwattr $C$DW$590, DW_AT_decl_column(0x0f)
    8168              
    8169              $C$DW$591       .dwtag  DW_TAG_member
    8170                      .dwattr $C$DW$591, DW_AT_type(*$C$DW$T$21)
    8171                      .dwattr $C$DW$591, DW_AT_name("posMechTheta")
    8172                      .dwattr $C$DW$591, DW_AT_data_member_location[DW_OP_plus_uconst 0x4a]
    8173                      .dwattr $C$DW$591, DW_AT_accessibility(DW_ACCESS_public)
    8174                      .dwattr $C$DW$591, DW_AT_decl_file("..\sources\fcl_foc_cpu_dm.h")
    8175                      .dwattr $C$DW$591, DW_AT_decl_line(0xb2)
    8176                      .dwattr $C$DW$591, DW_AT_decl_column(0x0f)
    8177              
    8178              $C$DW$592       .dwtag  DW_TAG_member
    8179                      .dwattr $C$DW$592, DW_AT_type(*$C$DW$T$21)
    8180                      .dwattr $C$DW$592, DW_AT_name("speedWe")
    8181                      .dwattr $C$DW$592, DW_AT_data_member_location[DW_OP_plus_uconst 0x4c]
    8182                      .dwattr $C$DW$592, DW_AT_accessibility(DW_ACCESS_public)
    8183                      .dwattr $C$DW$592, DW_AT_decl_file("..\sources\fcl_foc_cpu_dm.h")
    8184                      .dwattr $C$DW$592, DW_AT_decl_line(0xb3)
TMS320C2000 Assembler PC v22.6.2 Wed Dec 10 14:45:02 2025

Copyright (c) 1996-2018 Texas Instruments Incorporated
fcl_foc_cpu_dm.asm                                                   PAGE  154

    8185                      .dwattr $C$DW$592, DW_AT_decl_column(0x0f)
    8186              
    8187              $C$DW$593       .dwtag  DW_TAG_member
    8188                      .dwattr $C$DW$593, DW_AT_type(*$C$DW$T$21)
    8189                      .dwattr $C$DW$593, DW_AT_name("speedWePrev")
    8190                      .dwattr $C$DW$593, DW_AT_data_member_location[DW_OP_plus_uconst 0x4e]
    8191                      .dwattr $C$DW$593, DW_AT_accessibility(DW_ACCESS_public)
    8192                      .dwattr $C$DW$593, DW_AT_decl_file("..\sources\fcl_foc_cpu_dm.h")
    8193                      .dwattr $C$DW$593, DW_AT_decl_line(0xb4)
    8194                      .dwattr $C$DW$593, DW_AT_decl_column(0x0f)
    8195              
    8196              $C$DW$594       .dwtag  DW_TAG_member
    8197                      .dwattr $C$DW$594, DW_AT_type(*$C$DW$T$21)
    8198                      .dwattr $C$DW$594, DW_AT_name("pangle")
    8199                      .dwattr $C$DW$594, DW_AT_data_member_location[DW_OP_plus_uconst 0x50]
    8200                      .dwattr $C$DW$594, DW_AT_accessibility(DW_ACCESS_public)
    8201                      .dwattr $C$DW$594, DW_AT_decl_file("..\sources\fcl_foc_cpu_dm.h")
    8202                      .dwattr $C$DW$594, DW_AT_decl_line(0xb5)
    8203                      .dwattr $C$DW$594, DW_AT_decl_column(0x0f)
    8204              
    8205              $C$DW$595       .dwtag  DW_TAG_member
    8206                      .dwattr $C$DW$595, DW_AT_type(*$C$DW$T$21)
    8207                      .dwattr $C$DW$595, DW_AT_name("speedWeObs")
    8208                      .dwattr $C$DW$595, DW_AT_data_member_location[DW_OP_plus_uconst 0x52]
    8209                      .dwattr $C$DW$595, DW_AT_accessibility(DW_ACCESS_public)
    8210                      .dwattr $C$DW$595, DW_AT_decl_file("..\sources\fcl_foc_cpu_dm.h")
    8211                      .dwattr $C$DW$595, DW_AT_decl_line(0xb6)
    8212                      .dwattr $C$DW$595, DW_AT_decl_column(0x0f)
    8213              
    8214              $C$DW$596       .dwtag  DW_TAG_member
    8215                      .dwattr $C$DW$596, DW_AT_type(*$C$DW$T$21)
    8216                      .dwattr $C$DW$596, DW_AT_name("Vdcbus")
    8217                      .dwattr $C$DW$596, DW_AT_data_member_location[DW_OP_plus_uconst 0x54]
    8218                      .dwattr $C$DW$596, DW_AT_accessibility(DW_ACCESS_public)
    8219                      .dwattr $C$DW$596, DW_AT_decl_file("..\sources\fcl_foc_cpu_dm.h")
    8220                      .dwattr $C$DW$596, DW_AT_decl_line(0xb8)
    8221                      .dwattr $C$DW$596, DW_AT_decl_column(0x0f)
    8222              
    8223              $C$DW$597       .dwtag  DW_TAG_member
    8224                      .dwattr $C$DW$597, DW_AT_type(*$C$DW$T$21)
    8225                      .dwattr $C$DW$597, DW_AT_name("VdcbusMax")
    8226                      .dwattr $C$DW$597, DW_AT_data_member_location[DW_OP_plus_uconst 0x56]
    8227                      .dwattr $C$DW$597, DW_AT_accessibility(DW_ACCESS_public)
    8228                      .dwattr $C$DW$597, DW_AT_decl_file("..\sources\fcl_foc_cpu_dm.h")
    8229                      .dwattr $C$DW$597, DW_AT_decl_line(0xb9)
    8230                      .dwattr $C$DW$597, DW_AT_decl_column(0x0f)
    8231              
    8232              $C$DW$598       .dwtag  DW_TAG_member
    8233                      .dwattr $C$DW$598, DW_AT_type(*$C$DW$T$21)
    8234                      .dwattr $C$DW$598, DW_AT_name("VdcbusMin")
    8235                      .dwattr $C$DW$598, DW_AT_data_member_location[DW_OP_plus_uconst 0x58]
    8236                      .dwattr $C$DW$598, DW_AT_accessibility(DW_ACCESS_public)
    8237                      .dwattr $C$DW$598, DW_AT_decl_file("..\sources\fcl_foc_cpu_dm.h")
    8238                      .dwattr $C$DW$598, DW_AT_decl_line(0xba)
    8239                      .dwattr $C$DW$598, DW_AT_decl_column(0x0f)
TMS320C2000 Assembler PC v22.6.2 Wed Dec 10 14:45:02 2025

Copyright (c) 1996-2018 Texas Instruments Incorporated
fcl_foc_cpu_dm.asm                                                   PAGE  155

    8240              
    8241              $C$DW$599       .dwtag  DW_TAG_member
    8242                      .dwattr $C$DW$599, DW_AT_type(*$C$DW$T$83)
    8243                      .dwattr $C$DW$599, DW_AT_name("rg")
    8244                      .dwattr $C$DW$599, DW_AT_data_member_location[DW_OP_plus_uconst 0x5a]
    8245                      .dwattr $C$DW$599, DW_AT_accessibility(DW_ACCESS_public)
    8246                      .dwattr $C$DW$599, DW_AT_decl_file("..\sources\fcl_foc_cpu_dm.h")
    8247                      .dwattr $C$DW$599, DW_AT_decl_line(0xbc)
    8248                      .dwattr $C$DW$599, DW_AT_decl_column(0x0d)
    8249              
    8250              $C$DW$600       .dwtag  DW_TAG_member
    8251                      .dwattr $C$DW$600, DW_AT_type(*$C$DW$T$84)
    8252                      .dwattr $C$DW$600, DW_AT_name("rc")
    8253                      .dwattr $C$DW$600, DW_AT_data_member_location[DW_OP_plus_uconst 0x66]
    8254                      .dwattr $C$DW$600, DW_AT_accessibility(DW_ACCESS_public)
    8255                      .dwattr $C$DW$600, DW_AT_decl_file("..\sources\fcl_foc_cpu_dm.h")
    8256                      .dwattr $C$DW$600, DW_AT_decl_line(0xbd)
    8257                      .dwattr $C$DW$600, DW_AT_decl_column(0x0d)
    8258              
    8259              $C$DW$601       .dwtag  DW_TAG_member
    8260                      .dwattr $C$DW$601, DW_AT_type(*$C$DW$T$85)
    8261                      .dwattr $C$DW$601, DW_AT_name("clarke")
    8262                      .dwattr $C$DW$601, DW_AT_data_member_location[DW_OP_plus_uconst 0x76]
    8263                      .dwattr $C$DW$601, DW_AT_accessibility(DW_ACCESS_public)
    8264                      .dwattr $C$DW$601, DW_AT_decl_file("..\sources\fcl_foc_cpu_dm.h")
    8265                      .dwattr $C$DW$601, DW_AT_decl_line(0xbe)
    8266                      .dwattr $C$DW$601, DW_AT_decl_column(0x0c)
    8267              
    8268              $C$DW$602       .dwtag  DW_TAG_member
    8269                      .dwattr $C$DW$602, DW_AT_type(*$C$DW$T$86)
    8270                      .dwattr $C$DW$602, DW_AT_name("park")
    8271                      .dwattr $C$DW$602, DW_AT_data_member_location[DW_OP_plus_uconst 0x80]
    8272                      .dwattr $C$DW$602, DW_AT_accessibility(DW_ACCESS_public)
    8273                      .dwattr $C$DW$602, DW_AT_decl_file("..\sources\fcl_foc_cpu_dm.h")
    8274                      .dwattr $C$DW$602, DW_AT_decl_line(0xbf)
    8275                      .dwattr $C$DW$602, DW_AT_decl_column(0x0a)
    8276              
    8277              $C$DW$603       .dwtag  DW_TAG_member
    8278                      .dwattr $C$DW$603, DW_AT_type(*$C$DW$T$87)
    8279                      .dwattr $C$DW$603, DW_AT_name("ipark")
    8280                      .dwattr $C$DW$603, DW_AT_data_member_location[DW_OP_plus_uconst 0x8e]
    8281                      .dwattr $C$DW$603, DW_AT_accessibility(DW_ACCESS_public)
    8282                      .dwattr $C$DW$603, DW_AT_decl_file("..\sources\fcl_foc_cpu_dm.h")
    8283                      .dwattr $C$DW$603, DW_AT_decl_line(0xc0)
    8284                      .dwattr $C$DW$603, DW_AT_decl_column(0x0b)
    8285              
    8286              $C$DW$604       .dwtag  DW_TAG_member
    8287                      .dwattr $C$DW$604, DW_AT_type(*$C$DW$T$88)
    8288                      .dwattr $C$DW$604, DW_AT_name("svgen")
    8289                      .dwattr $C$DW$604, DW_AT_data_member_location[DW_OP_plus_uconst 0x9c]
    8290                      .dwattr $C$DW$604, DW_AT_accessibility(DW_ACCESS_public)
    8291                      .dwattr $C$DW$604, DW_AT_decl_file("..\sources\fcl_foc_cpu_dm.h")
    8292                      .dwattr $C$DW$604, DW_AT_decl_line(0xc1)
    8293                      .dwattr $C$DW$604, DW_AT_decl_column(0x0b)
    8294              
TMS320C2000 Assembler PC v22.6.2 Wed Dec 10 14:45:02 2025

Copyright (c) 1996-2018 Texas Instruments Incorporated
fcl_foc_cpu_dm.asm                                                   PAGE  156

    8295              $C$DW$605       .dwtag  DW_TAG_member
    8296                      .dwattr $C$DW$605, DW_AT_type(*$C$DW$T$89)
    8297                      .dwattr $C$DW$605, DW_AT_name("speed")
    8298                      .dwattr $C$DW$605, DW_AT_data_member_location[DW_OP_plus_uconst 0xae]
    8299                      .dwattr $C$DW$605, DW_AT_accessibility(DW_ACCESS_public)
    8300                      .dwattr $C$DW$605, DW_AT_decl_file("..\sources\fcl_foc_cpu_dm.h")
    8301                      .dwattr $C$DW$605, DW_AT_decl_line(0xc3)
    8302                      .dwattr $C$DW$605, DW_AT_decl_column(0x14)
    8303              
    8304              $C$DW$606       .dwtag  DW_TAG_member
    8305                      .dwattr $C$DW$606, DW_AT_type(*$C$DW$T$90)
    8306                      .dwattr $C$DW$606, DW_AT_name("speedObs")
    8307                      .dwattr $C$DW$606, DW_AT_data_member_location[DW_OP_plus_uconst 0xc2]
    8308                      .dwattr $C$DW$606, DW_AT_accessibility(DW_ACCESS_public)
    8309                      .dwattr $C$DW$606, DW_AT_decl_file("..\sources\fcl_foc_cpu_dm.h")
    8310                      .dwattr $C$DW$606, DW_AT_decl_line(0xc4)
    8311                      .dwattr $C$DW$606, DW_AT_decl_column(0x14)
    8312              
    8313              $C$DW$607       .dwtag  DW_TAG_member
    8314                      .dwattr $C$DW$607, DW_AT_type(*$C$DW$T$91)
    8315                      .dwattr $C$DW$607, DW_AT_name("pid_spd")
    8316                      .dwattr $C$DW$607, DW_AT_data_member_location[DW_OP_plus_uconst 0xde]
    8317                      .dwattr $C$DW$607, DW_AT_accessibility(DW_ACCESS_public)
    8318                      .dwattr $C$DW$607, DW_AT_decl_file("..\sources\fcl_foc_cpu_dm.h")
    8319                      .dwattr $C$DW$607, DW_AT_decl_line(0xc6)
    8320                      .dwattr $C$DW$607, DW_AT_decl_column(0x15)
    8321              
    8322              $C$DW$608       .dwtag  DW_TAG_member
    8323                      .dwattr $C$DW$608, DW_AT_type(*$C$DW$T$92)
    8324                      .dwattr $C$DW$608, DW_AT_name("pi_pos")
    8325                      .dwattr $C$DW$608, DW_AT_data_member_location[DW_OP_plus_uconst 0x106]
    8326                      .dwattr $C$DW$608, DW_AT_accessibility(DW_ACCESS_public)
    8327                      .dwattr $C$DW$608, DW_AT_decl_file("..\sources\fcl_foc_cpu_dm.h")
    8328                      .dwattr $C$DW$608, DW_AT_decl_line(0xc7)
    8329                      .dwattr $C$DW$608, DW_AT_decl_column(0x13)
    8330              
    8331              $C$DW$609       .dwtag  DW_TAG_member
    8332                      .dwattr $C$DW$609, DW_AT_type(*$C$DW$T$93)
    8333                      .dwattr $C$DW$609, DW_AT_name("cmplx_Id")
    8334                      .dwattr $C$DW$609, DW_AT_data_member_location[DW_OP_plus_uconst 0x11e]
    8335                      .dwattr $C$DW$609, DW_AT_accessibility(DW_ACCESS_public)
    8336                      .dwattr $C$DW$609, DW_AT_decl_file("..\sources\fcl_foc_cpu_dm.h")
    8337                      .dwattr $C$DW$609, DW_AT_decl_line(0xc9)
    8338                      .dwattr $C$DW$609, DW_AT_decl_column(0x15)
    8339              
    8340              $C$DW$610       .dwtag  DW_TAG_member
    8341                      .dwattr $C$DW$610, DW_AT_type(*$C$DW$T$93)
    8342                      .dwattr $C$DW$610, DW_AT_name("cmplx_Iq")
    8343                      .dwattr $C$DW$610, DW_AT_data_member_location[DW_OP_plus_uconst 0x13e]
    8344                      .dwattr $C$DW$610, DW_AT_accessibility(DW_ACCESS_public)
    8345                      .dwattr $C$DW$610, DW_AT_decl_file("..\sources\fcl_foc_cpu_dm.h")
    8346                      .dwattr $C$DW$610, DW_AT_decl_line(0xca)
    8347                      .dwattr $C$DW$610, DW_AT_decl_column(0x15)
    8348              
    8349              $C$DW$611       .dwtag  DW_TAG_member
TMS320C2000 Assembler PC v22.6.2 Wed Dec 10 14:45:02 2025

Copyright (c) 1996-2018 Texas Instruments Incorporated
fcl_foc_cpu_dm.asm                                                   PAGE  157

    8350                      .dwattr $C$DW$611, DW_AT_type(*$C$DW$T$94)
    8351                      .dwattr $C$DW$611, DW_AT_name("FCL_params")
    8352                      .dwattr $C$DW$611, DW_AT_data_member_location[DW_OP_plus_uconst 0x15e]
    8353                      .dwattr $C$DW$611, DW_AT_accessibility(DW_ACCESS_public)
    8354                      .dwattr $C$DW$611, DW_AT_decl_file("..\sources\fcl_foc_cpu_dm.h")
    8355                      .dwattr $C$DW$611, DW_AT_decl_line(0xcb)
    8356                      .dwattr $C$DW$611, DW_AT_decl_column(0x16)
    8357              
    8358              $C$DW$612       .dwtag  DW_TAG_member
    8359                      .dwattr $C$DW$612, DW_AT_type(*$C$DW$T$21)
    8360                      .dwattr $C$DW$612, DW_AT_name("fclUpdateLatency_us")
    8361                      .dwattr $C$DW$612, DW_AT_data_member_location[DW_OP_plus_uconst 0x182]
    8362                      .dwattr $C$DW$612, DW_AT_accessibility(DW_ACCESS_public)
    8363                      .dwattr $C$DW$612, DW_AT_decl_file("..\sources\fcl_foc_cpu_dm.h")
    8364                      .dwattr $C$DW$612, DW_AT_decl_line(0xcd)
    8365                      .dwattr $C$DW$612, DW_AT_decl_column(0x0f)
    8366              
    8367              $C$DW$613       .dwtag  DW_TAG_member
    8368                      .dwattr $C$DW$613, DW_AT_type(*$C$DW$T$21)
    8369                      .dwattr $C$DW$613, DW_AT_name("focExecutionTime_us")
    8370                      .dwattr $C$DW$613, DW_AT_data_member_location[DW_OP_plus_uconst 0x184]
    8371                      .dwattr $C$DW$613, DW_AT_accessibility(DW_ACCESS_public)
    8372                      .dwattr $C$DW$613, DW_AT_decl_file("..\sources\fcl_foc_cpu_dm.h")
    8373                      .dwattr $C$DW$613, DW_AT_decl_line(0xce)
    8374                      .dwattr $C$DW$613, DW_AT_decl_column(0x0f)
    8375              
    8376              $C$DW$614       .dwtag  DW_TAG_member
    8377                      .dwattr $C$DW$614, DW_AT_type(*$C$DW$T$24)
    8378                      .dwattr $C$DW$614, DW_AT_name("isrTicker")
    8379                      .dwattr $C$DW$614, DW_AT_data_member_location[DW_OP_plus_uconst 0x186]
    8380                      .dwattr $C$DW$614, DW_AT_accessibility(DW_ACCESS_public)
    8381                      .dwattr $C$DW$614, DW_AT_decl_file("..\sources\fcl_foc_cpu_dm.h")
    8382                      .dwattr $C$DW$614, DW_AT_decl_line(0xd0)
    8383                      .dwattr $C$DW$614, DW_AT_decl_column(0x0e)
    8384              
    8385              $C$DW$615       .dwtag  DW_TAG_member
    8386                      .dwattr $C$DW$615, DW_AT_type(*$C$DW$T$96)
    8387                      .dwattr $C$DW$615, DW_AT_name("pwmCompA")
    8388                      .dwattr $C$DW$615, DW_AT_data_member_location[DW_OP_plus_uconst 0x188]
    8389                      .dwattr $C$DW$615, DW_AT_accessibility(DW_ACCESS_public)
    8390                      .dwattr $C$DW$615, DW_AT_decl_file("..\sources\fcl_foc_cpu_dm.h")
    8391                      .dwattr $C$DW$615, DW_AT_decl_line(0xd2)
    8392                      .dwattr $C$DW$615, DW_AT_decl_column(0x18)
    8393              
    8394              $C$DW$616       .dwtag  DW_TAG_member
    8395                      .dwattr $C$DW$616, DW_AT_type(*$C$DW$T$96)
    8396                      .dwattr $C$DW$616, DW_AT_name("pwmCompB")
    8397                      .dwattr $C$DW$616, DW_AT_data_member_location[DW_OP_plus_uconst 0x18a]
    8398                      .dwattr $C$DW$616, DW_AT_accessibility(DW_ACCESS_public)
    8399                      .dwattr $C$DW$616, DW_AT_decl_file("..\sources\fcl_foc_cpu_dm.h")
    8400                      .dwattr $C$DW$616, DW_AT_decl_line(0xd3)
    8401                      .dwattr $C$DW$616, DW_AT_decl_column(0x18)
    8402              
    8403              $C$DW$617       .dwtag  DW_TAG_member
    8404                      .dwattr $C$DW$617, DW_AT_type(*$C$DW$T$96)
TMS320C2000 Assembler PC v22.6.2 Wed Dec 10 14:45:02 2025

Copyright (c) 1996-2018 Texas Instruments Incorporated
fcl_foc_cpu_dm.asm                                                   PAGE  158

    8405                      .dwattr $C$DW$617, DW_AT_name("pwmCompC")
    8406                      .dwattr $C$DW$617, DW_AT_data_member_location[DW_OP_plus_uconst 0x18c]
    8407                      .dwattr $C$DW$617, DW_AT_accessibility(DW_ACCESS_public)
    8408                      .dwattr $C$DW$617, DW_AT_decl_file("..\sources\fcl_foc_cpu_dm.h")
    8409                      .dwattr $C$DW$617, DW_AT_decl_line(0xd4)
    8410                      .dwattr $C$DW$617, DW_AT_decl_column(0x18)
    8411              
    8412              $C$DW$618       .dwtag  DW_TAG_member
    8413                      .dwattr $C$DW$618, DW_AT_type(*$C$DW$T$95)
    8414                      .dwattr $C$DW$618, DW_AT_name("curA_PPBRESULT")
    8415                      .dwattr $C$DW$618, DW_AT_data_member_location[DW_OP_plus_uconst 0x18e]
    8416                      .dwattr $C$DW$618, DW_AT_accessibility(DW_ACCESS_public)
    8417                      .dwattr $C$DW$618, DW_AT_decl_file("..\sources\fcl_foc_cpu_dm.h")
    8418                      .dwattr $C$DW$618, DW_AT_decl_line(0xd6)
    8419                      .dwattr $C$DW$618, DW_AT_decl_column(0x17)
    8420              
    8421              $C$DW$619       .dwtag  DW_TAG_member
    8422                      .dwattr $C$DW$619, DW_AT_type(*$C$DW$T$95)
    8423                      .dwattr $C$DW$619, DW_AT_name("curB_PPBRESULT")
    8424                      .dwattr $C$DW$619, DW_AT_data_member_location[DW_OP_plus_uconst 0x190]
    8425                      .dwattr $C$DW$619, DW_AT_accessibility(DW_ACCESS_public)
    8426                      .dwattr $C$DW$619, DW_AT_decl_file("..\sources\fcl_foc_cpu_dm.h")
    8427                      .dwattr $C$DW$619, DW_AT_decl_line(0xd7)
    8428                      .dwattr $C$DW$619, DW_AT_decl_column(0x17)
    8429              
    8430              $C$DW$620       .dwtag  DW_TAG_member
    8431                      .dwattr $C$DW$620, DW_AT_type(*$C$DW$T$95)
    8432                      .dwattr $C$DW$620, DW_AT_name("curC_PPBRESULT")
    8433                      .dwattr $C$DW$620, DW_AT_data_member_location[DW_OP_plus_uconst 0x192]
    8434                      .dwattr $C$DW$620, DW_AT_accessibility(DW_ACCESS_public)
    8435                      .dwattr $C$DW$620, DW_AT_decl_file("..\sources\fcl_foc_cpu_dm.h")
    8436                      .dwattr $C$DW$620, DW_AT_decl_line(0xd8)
    8437                      .dwattr $C$DW$620, DW_AT_decl_column(0x17)
    8438              
    8439              $C$DW$621       .dwtag  DW_TAG_member
    8440                      .dwattr $C$DW$621, DW_AT_type(*$C$DW$T$95)
    8441                      .dwattr $C$DW$621, DW_AT_name("volDC_PPBRESULT")
    8442                      .dwattr $C$DW$621, DW_AT_data_member_location[DW_OP_plus_uconst 0x194]
    8443                      .dwattr $C$DW$621, DW_AT_accessibility(DW_ACCESS_public)
    8444                      .dwattr $C$DW$621, DW_AT_decl_file("..\sources\fcl_foc_cpu_dm.h")
    8445                      .dwattr $C$DW$621, DW_AT_decl_line(0xd9)
    8446                      .dwattr $C$DW$621, DW_AT_decl_column(0x17)
    8447              
    8448              $C$DW$622       .dwtag  DW_TAG_member
    8449                      .dwattr $C$DW$622, DW_AT_type(*$C$DW$T$98)
    8450                      .dwattr $C$DW$622, DW_AT_name("pADCIntFlag")
    8451                      .dwattr $C$DW$622, DW_AT_data_member_location[DW_OP_plus_uconst 0x196]
    8452                      .dwattr $C$DW$622, DW_AT_accessibility(DW_ACCESS_public)
    8453                      .dwattr $C$DW$622, DW_AT_decl_file("..\sources\fcl_foc_cpu_dm.h")
    8454                      .dwattr $C$DW$622, DW_AT_decl_line(0xdb)
    8455                      .dwattr $C$DW$622, DW_AT_decl_column(0x23)
    8456              
    8457              $C$DW$623       .dwtag  DW_TAG_member
    8458                      .dwattr $C$DW$623, DW_AT_type(*$C$DW$T$100)
    8459                      .dwattr $C$DW$623, DW_AT_name("pQEPRegs")
TMS320C2000 Assembler PC v22.6.2 Wed Dec 10 14:45:02 2025

Copyright (c) 1996-2018 Texas Instruments Incorporated
fcl_foc_cpu_dm.asm                                                   PAGE  159

    8460                      .dwattr $C$DW$623, DW_AT_data_member_location[DW_OP_plus_uconst 0x198]
    8461                      .dwattr $C$DW$623, DW_AT_accessibility(DW_ACCESS_public)
    8462                      .dwattr $C$DW$623, DW_AT_decl_file("..\sources\fcl_foc_cpu_dm.h")
    8463                      .dwattr $C$DW$623, DW_AT_decl_line(0xdc)
    8464                      .dwattr $C$DW$623, DW_AT_decl_column(0x20)
    8465              
    8466              $C$DW$624       .dwtag  DW_TAG_member
    8467                      .dwattr $C$DW$624, DW_AT_type(*$C$DW$T$24)
    8468                      .dwattr $C$DW$624, DW_AT_name("curA_resultBase")
    8469                      .dwattr $C$DW$624, DW_AT_data_member_location[DW_OP_plus_uconst 0x19a]
    8470                      .dwattr $C$DW$624, DW_AT_accessibility(DW_ACCESS_public)
    8471                      .dwattr $C$DW$624, DW_AT_decl_file("..\sources\fcl_foc_cpu_dm.h")
    8472                      .dwattr $C$DW$624, DW_AT_decl_line(0xde)
    8473                      .dwattr $C$DW$624, DW_AT_decl_column(0x0e)
    8474              
    8475              $C$DW$625       .dwtag  DW_TAG_member
    8476                      .dwattr $C$DW$625, DW_AT_type(*$C$DW$T$24)
    8477                      .dwattr $C$DW$625, DW_AT_name("curB_resultBase")
    8478                      .dwattr $C$DW$625, DW_AT_data_member_location[DW_OP_plus_uconst 0x19c]
    8479                      .dwattr $C$DW$625, DW_AT_accessibility(DW_ACCESS_public)
    8480                      .dwattr $C$DW$625, DW_AT_decl_file("..\sources\fcl_foc_cpu_dm.h")
    8481                      .dwattr $C$DW$625, DW_AT_decl_line(0xdf)
    8482                      .dwattr $C$DW$625, DW_AT_decl_column(0x0e)
    8483              
    8484              $C$DW$626       .dwtag  DW_TAG_member
    8485                      .dwattr $C$DW$626, DW_AT_type(*$C$DW$T$24)
    8486                      .dwattr $C$DW$626, DW_AT_name("curC_resultBase")
    8487                      .dwattr $C$DW$626, DW_AT_data_member_location[DW_OP_plus_uconst 0x19e]
    8488                      .dwattr $C$DW$626, DW_AT_accessibility(DW_ACCESS_public)
    8489                      .dwattr $C$DW$626, DW_AT_decl_file("..\sources\fcl_foc_cpu_dm.h")
    8490                      .dwattr $C$DW$626, DW_AT_decl_line(0xe0)
    8491                      .dwattr $C$DW$626, DW_AT_decl_column(0x0e)
    8492              
    8493              $C$DW$627       .dwtag  DW_TAG_member
    8494                      .dwattr $C$DW$627, DW_AT_type(*$C$DW$T$24)
    8495                      .dwattr $C$DW$627, DW_AT_name("pwmBaseU")
    8496                      .dwattr $C$DW$627, DW_AT_data_member_location[DW_OP_plus_uconst 0x1a0]
    8497                      .dwattr $C$DW$627, DW_AT_accessibility(DW_ACCESS_public)
    8498                      .dwattr $C$DW$627, DW_AT_decl_file("..\sources\fcl_foc_cpu_dm.h")
    8499                      .dwattr $C$DW$627, DW_AT_decl_line(0xe2)
    8500                      .dwattr $C$DW$627, DW_AT_decl_column(0x0e)
    8501              
    8502              $C$DW$628       .dwtag  DW_TAG_member
    8503                      .dwattr $C$DW$628, DW_AT_type(*$C$DW$T$24)
    8504                      .dwattr $C$DW$628, DW_AT_name("pwmBaseV")
    8505                      .dwattr $C$DW$628, DW_AT_data_member_location[DW_OP_plus_uconst 0x1a2]
    8506                      .dwattr $C$DW$628, DW_AT_accessibility(DW_ACCESS_public)
    8507                      .dwattr $C$DW$628, DW_AT_decl_file("..\sources\fcl_foc_cpu_dm.h")
    8508                      .dwattr $C$DW$628, DW_AT_decl_line(0xe3)
    8509                      .dwattr $C$DW$628, DW_AT_decl_column(0x0e)
    8510              
    8511              $C$DW$629       .dwtag  DW_TAG_member
    8512                      .dwattr $C$DW$629, DW_AT_type(*$C$DW$T$24)
    8513                      .dwattr $C$DW$629, DW_AT_name("pwmBaseW")
    8514                      .dwattr $C$DW$629, DW_AT_data_member_location[DW_OP_plus_uconst 0x1a4]
TMS320C2000 Assembler PC v22.6.2 Wed Dec 10 14:45:02 2025

Copyright (c) 1996-2018 Texas Instruments Incorporated
fcl_foc_cpu_dm.asm                                                   PAGE  160

    8515                      .dwattr $C$DW$629, DW_AT_accessibility(DW_ACCESS_public)
    8516                      .dwattr $C$DW$629, DW_AT_decl_file("..\sources\fcl_foc_cpu_dm.h")
    8517                      .dwattr $C$DW$629, DW_AT_decl_line(0xe4)
    8518                      .dwattr $C$DW$629, DW_AT_decl_column(0x0e)
    8519              
    8520              $C$DW$630       .dwtag  DW_TAG_member
    8521                      .dwattr $C$DW$630, DW_AT_type(*$C$DW$T$24)
    8522                      .dwattr $C$DW$630, DW_AT_name("adcBaseW")
    8523                      .dwattr $C$DW$630, DW_AT_data_member_location[DW_OP_plus_uconst 0x1a6]
    8524                      .dwattr $C$DW$630, DW_AT_accessibility(DW_ACCESS_public)
    8525                      .dwattr $C$DW$630, DW_AT_decl_file("..\sources\fcl_foc_cpu_dm.h")
    8526                      .dwattr $C$DW$630, DW_AT_decl_line(0xe5)
    8527                      .dwattr $C$DW$630, DW_AT_decl_column(0x0e)
    8528              
    8529              $C$DW$631       .dwtag  DW_TAG_member
    8530                      .dwattr $C$DW$631, DW_AT_type(*$C$DW$T$102)
    8531                      .dwattr $C$DW$631, DW_AT_name("curA_PPBNumber")
    8532                      .dwattr $C$DW$631, DW_AT_data_member_location[DW_OP_plus_uconst 0x1a8]
    8533                      .dwattr $C$DW$631, DW_AT_accessibility(DW_ACCESS_public)
    8534                      .dwattr $C$DW$631, DW_AT_decl_file("..\sources\fcl_foc_cpu_dm.h")
    8535                      .dwattr $C$DW$631, DW_AT_decl_line(0xe7)
    8536                      .dwattr $C$DW$631, DW_AT_decl_column(0x13)
    8537              
    8538              $C$DW$632       .dwtag  DW_TAG_member
    8539                      .dwattr $C$DW$632, DW_AT_type(*$C$DW$T$102)
    8540                      .dwattr $C$DW$632, DW_AT_name("curB_PPBNumber")
    8541                      .dwattr $C$DW$632, DW_AT_data_member_location[DW_OP_plus_uconst 0x1a9]
    8542                      .dwattr $C$DW$632, DW_AT_accessibility(DW_ACCESS_public)
    8543                      .dwattr $C$DW$632, DW_AT_decl_file("..\sources\fcl_foc_cpu_dm.h")
    8544                      .dwattr $C$DW$632, DW_AT_decl_line(0xe8)
    8545                      .dwattr $C$DW$632, DW_AT_decl_column(0x13)
    8546              
    8547              $C$DW$633       .dwtag  DW_TAG_member
    8548                      .dwattr $C$DW$633, DW_AT_type(*$C$DW$T$102)
    8549                      .dwattr $C$DW$633, DW_AT_name("curC_PPBNumber")
    8550                      .dwattr $C$DW$633, DW_AT_data_member_location[DW_OP_plus_uconst 0x1aa]
    8551                      .dwattr $C$DW$633, DW_AT_accessibility(DW_ACCESS_public)
    8552                      .dwattr $C$DW$633, DW_AT_decl_file("..\sources\fcl_foc_cpu_dm.h")
    8553                      .dwattr $C$DW$633, DW_AT_decl_line(0xe9)
    8554                      .dwattr $C$DW$633, DW_AT_decl_column(0x13)
    8555              
    8556              $C$DW$634       .dwtag  DW_TAG_member
    8557                      .dwattr $C$DW$634, DW_AT_type(*$C$DW$T$104)
    8558                      .dwattr $C$DW$634, DW_AT_name("adcIntNumber")
    8559                      .dwattr $C$DW$634, DW_AT_data_member_location[DW_OP_plus_uconst 0x1ab]
    8560                      .dwattr $C$DW$634, DW_AT_accessibility(DW_ACCESS_public)
    8561                      .dwattr $C$DW$634, DW_AT_decl_file("..\sources\fcl_foc_cpu_dm.h")
    8562                      .dwattr $C$DW$634, DW_AT_decl_line(0xeb)
    8563                      .dwattr $C$DW$634, DW_AT_decl_column(0x13)
    8564              
    8565              $C$DW$635       .dwtag  DW_TAG_member
    8566                      .dwattr $C$DW$635, DW_AT_type(*$C$DW$T$30)
    8567                      .dwattr $C$DW$635, DW_AT_name("fclClrCntr")
    8568                      .dwattr $C$DW$635, DW_AT_data_member_location[DW_OP_plus_uconst 0x1ac]
    8569                      .dwattr $C$DW$635, DW_AT_accessibility(DW_ACCESS_public)
TMS320C2000 Assembler PC v22.6.2 Wed Dec 10 14:45:02 2025

Copyright (c) 1996-2018 Texas Instruments Incorporated
fcl_foc_cpu_dm.asm                                                   PAGE  161

    8570                      .dwattr $C$DW$635, DW_AT_decl_file("..\sources\fcl_foc_cpu_dm.h")
    8571                      .dwattr $C$DW$635, DW_AT_decl_line(0xed)
    8572                      .dwattr $C$DW$635, DW_AT_decl_column(0x0f)
    8573              
    8574              $C$DW$636       .dwtag  DW_TAG_member
    8575                      .dwattr $C$DW$636, DW_AT_type(*$C$DW$T$30)
    8576                      .dwattr $C$DW$636, DW_AT_name("fclCycleCountMax")
    8577                      .dwattr $C$DW$636, DW_AT_data_member_location[DW_OP_plus_uconst 0x1ad]
    8578                      .dwattr $C$DW$636, DW_AT_accessibility(DW_ACCESS_public)
    8579                      .dwattr $C$DW$636, DW_AT_decl_file("..\sources\fcl_foc_cpu_dm.h")
    8580                      .dwattr $C$DW$636, DW_AT_decl_line(0xee)
    8581                      .dwattr $C$DW$636, DW_AT_decl_column(0x0f)
    8582              
    8583              $C$DW$637       .dwtag  DW_TAG_member
    8584                      .dwattr $C$DW$637, DW_AT_type(*$C$DW$T$30)
    8585                      .dwattr $C$DW$637, DW_AT_name("fclCycleCount")
    8586                      .dwattr $C$DW$637, DW_AT_data_member_location[DW_OP_plus_uconst 0x1ae]
    8587                      .dwattr $C$DW$637, DW_AT_accessibility(DW_ACCESS_public)
    8588                      .dwattr $C$DW$637, DW_AT_decl_file("..\sources\fcl_foc_cpu_dm.h")
    8589                      .dwattr $C$DW$637, DW_AT_decl_line(0xef)
    8590                      .dwattr $C$DW$637, DW_AT_decl_column(0x0f)
    8591              
    8592              $C$DW$638       .dwtag  DW_TAG_member
    8593                      .dwattr $C$DW$638, DW_AT_type(*$C$DW$T$30)
    8594                      .dwattr $C$DW$638, DW_AT_name("focClrCntr")
    8595                      .dwattr $C$DW$638, DW_AT_data_member_location[DW_OP_plus_uconst 0x1af]
    8596                      .dwattr $C$DW$638, DW_AT_accessibility(DW_ACCESS_public)
    8597                      .dwattr $C$DW$638, DW_AT_decl_file("..\sources\fcl_foc_cpu_dm.h")
    8598                      .dwattr $C$DW$638, DW_AT_decl_line(0xf1)
    8599                      .dwattr $C$DW$638, DW_AT_decl_column(0x0f)
    8600              
    8601              $C$DW$639       .dwtag  DW_TAG_member
    8602                      .dwattr $C$DW$639, DW_AT_type(*$C$DW$T$30)
    8603                      .dwattr $C$DW$639, DW_AT_name("focCycleCountMax")
    8604                      .dwattr $C$DW$639, DW_AT_data_member_location[DW_OP_plus_uconst 0x1b0]
    8605                      .dwattr $C$DW$639, DW_AT_accessibility(DW_ACCESS_public)
    8606                      .dwattr $C$DW$639, DW_AT_decl_file("..\sources\fcl_foc_cpu_dm.h")
    8607                      .dwattr $C$DW$639, DW_AT_decl_line(0xf2)
    8608                      .dwattr $C$DW$639, DW_AT_decl_column(0x0f)
    8609              
    8610              $C$DW$640       .dwtag  DW_TAG_member
    8611                      .dwattr $C$DW$640, DW_AT_type(*$C$DW$T$30)
    8612                      .dwattr $C$DW$640, DW_AT_name("focCycleCount")
    8613                      .dwattr $C$DW$640, DW_AT_data_member_location[DW_OP_plus_uconst 0x1b1]
    8614                      .dwattr $C$DW$640, DW_AT_accessibility(DW_ACCESS_public)
    8615                      .dwattr $C$DW$640, DW_AT_decl_file("..\sources\fcl_foc_cpu_dm.h")
    8616                      .dwattr $C$DW$640, DW_AT_decl_line(0xf3)
    8617                      .dwattr $C$DW$640, DW_AT_decl_column(0x0f)
    8618              
    8619              $C$DW$641       .dwtag  DW_TAG_member
    8620                      .dwattr $C$DW$641, DW_AT_type(*$C$DW$T$30)
    8621                      .dwattr $C$DW$641, DW_AT_name("speedLoopPrescaler")
    8622                      .dwattr $C$DW$641, DW_AT_data_member_location[DW_OP_plus_uconst 0x1b2]
    8623                      .dwattr $C$DW$641, DW_AT_accessibility(DW_ACCESS_public)
    8624                      .dwattr $C$DW$641, DW_AT_decl_file("..\sources\fcl_foc_cpu_dm.h")
TMS320C2000 Assembler PC v22.6.2 Wed Dec 10 14:45:02 2025

Copyright (c) 1996-2018 Texas Instruments Incorporated
fcl_foc_cpu_dm.asm                                                   PAGE  162

    8625                      .dwattr $C$DW$641, DW_AT_decl_line(0xf5)
    8626                      .dwattr $C$DW$641, DW_AT_decl_column(0x0e)
    8627              
    8628              $C$DW$642       .dwtag  DW_TAG_member
    8629                      .dwattr $C$DW$642, DW_AT_type(*$C$DW$T$30)
    8630                      .dwattr $C$DW$642, DW_AT_name("speedLoopCount")
    8631                      .dwattr $C$DW$642, DW_AT_data_member_location[DW_OP_plus_uconst 0x1b3]
    8632                      .dwattr $C$DW$642, DW_AT_accessibility(DW_ACCESS_public)
    8633                      .dwattr $C$DW$642, DW_AT_decl_file("..\sources\fcl_foc_cpu_dm.h")
    8634                      .dwattr $C$DW$642, DW_AT_decl_line(0xf6)
    8635                      .dwattr $C$DW$642, DW_AT_decl_column(0x0e)
    8636              
    8637              $C$DW$643       .dwtag  DW_TAG_member
    8638                      .dwattr $C$DW$643, DW_AT_type(*$C$DW$T$30)
    8639                      .dwattr $C$DW$643, DW_AT_name("alignCntr")
    8640                      .dwattr $C$DW$643, DW_AT_data_member_location[DW_OP_plus_uconst 0x1b4]
    8641                      .dwattr $C$DW$643, DW_AT_accessibility(DW_ACCESS_public)
    8642                      .dwattr $C$DW$643, DW_AT_decl_file("..\sources\fcl_foc_cpu_dm.h")
    8643                      .dwattr $C$DW$643, DW_AT_decl_line(0xf7)
    8644                      .dwattr $C$DW$643, DW_AT_decl_column(0x0e)
    8645              
    8646              $C$DW$644       .dwtag  DW_TAG_member
    8647                      .dwattr $C$DW$644, DW_AT_type(*$C$DW$T$30)
    8648                      .dwattr $C$DW$644, DW_AT_name("alignCnt")
    8649                      .dwattr $C$DW$644, DW_AT_data_member_location[DW_OP_plus_uconst 0x1b5]
    8650                      .dwattr $C$DW$644, DW_AT_accessibility(DW_ACCESS_public)
    8651                      .dwattr $C$DW$644, DW_AT_decl_file("..\sources\fcl_foc_cpu_dm.h")
    8652                      .dwattr $C$DW$644, DW_AT_decl_line(0xf8)
    8653                      .dwattr $C$DW$644, DW_AT_decl_column(0x0e)
    8654              
    8655              $C$DW$645       .dwtag  DW_TAG_member
    8656                      .dwattr $C$DW$645, DW_AT_type(*$C$DW$T$30)
    8657                      .dwattr $C$DW$645, DW_AT_name("posPtrMax")
    8658                      .dwattr $C$DW$645, DW_AT_data_member_location[DW_OP_plus_uconst 0x1b6]
    8659                      .dwattr $C$DW$645, DW_AT_accessibility(DW_ACCESS_public)
    8660                      .dwattr $C$DW$645, DW_AT_decl_file("..\sources\fcl_foc_cpu_dm.h")
    8661                      .dwattr $C$DW$645, DW_AT_decl_line(0xf9)
    8662                      .dwattr $C$DW$645, DW_AT_decl_column(0x0e)
    8663              
    8664              $C$DW$646       .dwtag  DW_TAG_member
    8665                      .dwattr $C$DW$646, DW_AT_type(*$C$DW$T$30)
    8666                      .dwattr $C$DW$646, DW_AT_name("posPtr")
    8667                      .dwattr $C$DW$646, DW_AT_data_member_location[DW_OP_plus_uconst 0x1b7]
    8668                      .dwattr $C$DW$646, DW_AT_accessibility(DW_ACCESS_public)
    8669                      .dwattr $C$DW$646, DW_AT_decl_file("..\sources\fcl_foc_cpu_dm.h")
    8670                      .dwattr $C$DW$646, DW_AT_decl_line(0xfa)
    8671                      .dwattr $C$DW$646, DW_AT_decl_column(0x0e)
    8672              
    8673              $C$DW$647       .dwtag  DW_TAG_member
    8674                      .dwattr $C$DW$647, DW_AT_type(*$C$DW$T$30)
    8675                      .dwattr $C$DW$647, DW_AT_name("currentThreshHi")
    8676                      .dwattr $C$DW$647, DW_AT_data_member_location[DW_OP_plus_uconst 0x1b8]
    8677                      .dwattr $C$DW$647, DW_AT_accessibility(DW_ACCESS_public)
    8678                      .dwattr $C$DW$647, DW_AT_decl_file("..\sources\fcl_foc_cpu_dm.h")
    8679                      .dwattr $C$DW$647, DW_AT_decl_line(0xfc)
TMS320C2000 Assembler PC v22.6.2 Wed Dec 10 14:45:02 2025

Copyright (c) 1996-2018 Texas Instruments Incorporated
fcl_foc_cpu_dm.asm                                                   PAGE  163

    8680                      .dwattr $C$DW$647, DW_AT_decl_column(0x0e)
    8681              
    8682              $C$DW$648       .dwtag  DW_TAG_member
    8683                      .dwattr $C$DW$648, DW_AT_type(*$C$DW$T$30)
    8684                      .dwattr $C$DW$648, DW_AT_name("currentThreshLo")
    8685                      .dwattr $C$DW$648, DW_AT_data_member_location[DW_OP_plus_uconst 0x1b9]
    8686                      .dwattr $C$DW$648, DW_AT_accessibility(DW_ACCESS_public)
    8687                      .dwattr $C$DW$648, DW_AT_decl_file("..\sources\fcl_foc_cpu_dm.h")
    8688                      .dwattr $C$DW$648, DW_AT_decl_line(0xfd)
    8689                      .dwattr $C$DW$648, DW_AT_decl_column(0x0e)
    8690              
    8691              $C$DW$649       .dwtag  DW_TAG_member
    8692                      .dwattr $C$DW$649, DW_AT_type(*$C$DW$T$30)
    8693                      .dwattr $C$DW$649, DW_AT_name("drvEnableGateGPIO")
    8694                      .dwattr $C$DW$649, DW_AT_data_member_location[DW_OP_plus_uconst 0x1ba]
    8695                      .dwattr $C$DW$649, DW_AT_accessibility(DW_ACCESS_public)
    8696                      .dwattr $C$DW$649, DW_AT_decl_file("..\sources\fcl_foc_cpu_dm.h")
    8697                      .dwattr $C$DW$649, DW_AT_decl_line(0xff)
    8698                      .dwattr $C$DW$649, DW_AT_decl_column(0x0e)
    8699              
    8700              $C$DW$650       .dwtag  DW_TAG_member
    8701                      .dwattr $C$DW$650, DW_AT_type(*$C$DW$T$30)
    8702                      .dwattr $C$DW$650, DW_AT_name("drvFaultTripGPIO")
    8703                      .dwattr $C$DW$650, DW_AT_data_member_location[DW_OP_plus_uconst 0x1bb]
    8704                      .dwattr $C$DW$650, DW_AT_accessibility(DW_ACCESS_public)
    8705                      .dwattr $C$DW$650, DW_AT_decl_file("..\sources\fcl_foc_cpu_dm.h")
    8706                      .dwattr $C$DW$650, DW_AT_decl_line(0x100)
    8707                      .dwattr $C$DW$650, DW_AT_decl_column(0x0e)
    8708              
    8709              $C$DW$651       .dwtag  DW_TAG_member
    8710                      .dwattr $C$DW$651, DW_AT_type(*$C$DW$T$30)
    8711                      .dwattr $C$DW$651, DW_AT_name("drvClearFaultGPIO")
    8712                      .dwattr $C$DW$651, DW_AT_data_member_location[DW_OP_plus_uconst 0x1bc]
    8713                      .dwattr $C$DW$651, DW_AT_accessibility(DW_ACCESS_public)
    8714                      .dwattr $C$DW$651, DW_AT_decl_file("..\sources\fcl_foc_cpu_dm.h")
    8715                      .dwattr $C$DW$651, DW_AT_decl_line(0x101)
    8716                      .dwattr $C$DW$651, DW_AT_decl_column(0x0e)
    8717              
    8718              $C$DW$652       .dwtag  DW_TAG_member
    8719                      .dwattr $C$DW$652, DW_AT_type(*$C$DW$T$30)
    8720                      .dwattr $C$DW$652, DW_AT_name("tripCountDMC")
    8721                      .dwattr $C$DW$652, DW_AT_data_member_location[DW_OP_plus_uconst 0x1bd]
    8722                      .dwattr $C$DW$652, DW_AT_accessibility(DW_ACCESS_public)
    8723                      .dwattr $C$DW$652, DW_AT_decl_file("..\sources\fcl_foc_cpu_dm.h")
    8724                      .dwattr $C$DW$652, DW_AT_decl_line(0x103)
    8725                      .dwattr $C$DW$652, DW_AT_decl_column(0x0e)
    8726              
    8727              $C$DW$653       .dwtag  DW_TAG_member
    8728                      .dwattr $C$DW$653, DW_AT_type(*$C$DW$T$30)
    8729                      .dwattr $C$DW$653, DW_AT_name("tripFlagDMC")
    8730                      .dwattr $C$DW$653, DW_AT_data_member_location[DW_OP_plus_uconst 0x1be]
    8731                      .dwattr $C$DW$653, DW_AT_accessibility(DW_ACCESS_public)
    8732                      .dwattr $C$DW$653, DW_AT_decl_file("..\sources\fcl_foc_cpu_dm.h")
    8733                      .dwattr $C$DW$653, DW_AT_decl_line(0x104)
    8734                      .dwattr $C$DW$653, DW_AT_decl_column(0x0e)
TMS320C2000 Assembler PC v22.6.2 Wed Dec 10 14:45:02 2025

Copyright (c) 1996-2018 Texas Instruments Incorporated
fcl_foc_cpu_dm.asm                                                   PAGE  164

    8735              
    8736              $C$DW$654       .dwtag  DW_TAG_member
    8737                      .dwattr $C$DW$654, DW_AT_type(*$C$DW$T$30)
    8738                      .dwattr $C$DW$654, DW_AT_name("tripFlagPrev")
    8739                      .dwattr $C$DW$654, DW_AT_data_member_location[DW_OP_plus_uconst 0x1bf]
    8740                      .dwattr $C$DW$654, DW_AT_accessibility(DW_ACCESS_public)
    8741                      .dwattr $C$DW$654, DW_AT_decl_file("..\sources\fcl_foc_cpu_dm.h")
    8742                      .dwattr $C$DW$654, DW_AT_decl_line(0x105)
    8743                      .dwattr $C$DW$654, DW_AT_decl_column(0x0e)
    8744              
    8745              $C$DW$655       .dwtag  DW_TAG_member
    8746                      .dwattr $C$DW$655, DW_AT_type(*$C$DW$T$106)
    8747                      .dwattr $C$DW$655, DW_AT_name("lsw")
    8748                      .dwattr $C$DW$655, DW_AT_data_member_location[DW_OP_plus_uconst 0x1c0]
    8749                      .dwattr $C$DW$655, DW_AT_accessibility(DW_ACCESS_public)
    8750                      .dwattr $C$DW$655, DW_AT_decl_file("..\sources\fcl_foc_cpu_dm.h")
    8751                      .dwattr $C$DW$655, DW_AT_decl_line(0x107)
    8752                      .dwattr $C$DW$655, DW_AT_decl_column(0x15)
    8753              
    8754              $C$DW$656       .dwtag  DW_TAG_member
    8755                      .dwattr $C$DW$656, DW_AT_type(*$C$DW$T$108)
    8756                      .dwattr $C$DW$656, DW_AT_name("pwmUpdateMode")
    8757                      .dwattr $C$DW$656, DW_AT_data_member_location[DW_OP_plus_uconst 0x1c1]
    8758                      .dwattr $C$DW$656, DW_AT_accessibility(DW_ACCESS_public)
    8759                      .dwattr $C$DW$656, DW_AT_decl_file("..\sources\fcl_foc_cpu_dm.h")
    8760                      .dwattr $C$DW$656, DW_AT_decl_line(0x108)
    8761                      .dwattr $C$DW$656, DW_AT_decl_column(0x15)
    8762              
    8763              $C$DW$657       .dwtag  DW_TAG_member
    8764                      .dwattr $C$DW$657, DW_AT_type(*$C$DW$T$110)
    8765                      .dwattr $C$DW$657, DW_AT_name("motorNum")
    8766                      .dwattr $C$DW$657, DW_AT_data_member_location[DW_OP_plus_uconst 0x1c2]
    8767                      .dwattr $C$DW$657, DW_AT_accessibility(DW_ACCESS_public)
    8768                      .dwattr $C$DW$657, DW_AT_decl_file("..\sources\fcl_foc_cpu_dm.h")
    8769                      .dwattr $C$DW$657, DW_AT_decl_line(0x109)
    8770                      .dwattr $C$DW$657, DW_AT_decl_column(0x15)
    8771              
    8772              $C$DW$658       .dwtag  DW_TAG_member
    8773                      .dwattr $C$DW$658, DW_AT_type(*$C$DW$T$112)
    8774                      .dwattr $C$DW$658, DW_AT_name("runMotor")
    8775                      .dwattr $C$DW$658, DW_AT_data_member_location[DW_OP_plus_uconst 0x1c3]
    8776                      .dwattr $C$DW$658, DW_AT_accessibility(DW_ACCESS_public)
    8777                      .dwattr $C$DW$658, DW_AT_decl_file("..\sources\fcl_foc_cpu_dm.h")
    8778                      .dwattr $C$DW$658, DW_AT_decl_line(0x10a)
    8779                      .dwattr $C$DW$658, DW_AT_decl_column(0x15)
    8780              
    8781              $C$DW$659       .dwtag  DW_TAG_member
    8782                      .dwattr $C$DW$659, DW_AT_type(*$C$DW$T$114)
    8783                      .dwattr $C$DW$659, DW_AT_name("ctrlState")
    8784                      .dwattr $C$DW$659, DW_AT_data_member_location[DW_OP_plus_uconst 0x1c4]
    8785                      .dwattr $C$DW$659, DW_AT_accessibility(DW_ACCESS_public)
    8786                      .dwattr $C$DW$659, DW_AT_decl_file("..\sources\fcl_foc_cpu_dm.h")
    8787                      .dwattr $C$DW$659, DW_AT_decl_line(0x10b)
    8788                      .dwattr $C$DW$659, DW_AT_decl_column(0x15)
    8789              
TMS320C2000 Assembler PC v22.6.2 Wed Dec 10 14:45:02 2025

Copyright (c) 1996-2018 Texas Instruments Incorporated
fcl_foc_cpu_dm.asm                                                   PAGE  165

    8790              $C$DW$660       .dwtag  DW_TAG_member
    8791                      .dwattr $C$DW$660, DW_AT_type(*$C$DW$T$115)
    8792                      .dwattr $C$DW$660, DW_AT_name("clearTripFlagDMC")
    8793                      .dwattr $C$DW$660, DW_AT_data_member_location[DW_OP_plus_uconst 0x1c5]
    8794                      .dwattr $C$DW$660, DW_AT_accessibility(DW_ACCESS_public)
    8795                      .dwattr $C$DW$660, DW_AT_decl_file("..\sources\fcl_foc_cpu_dm.h")
    8796                      .dwattr $C$DW$660, DW_AT_decl_line(0x10d)
    8797                      .dwattr $C$DW$660, DW_AT_decl_column(0x0a)
    8798              
    8799              $C$DW$661       .dwtag  DW_TAG_member
    8800                      .dwattr $C$DW$661, DW_AT_type(*$C$DW$T$115)
    8801                      .dwattr $C$DW$661, DW_AT_name("lsw2EntryFlag")
    8802                      .dwattr $C$DW$661, DW_AT_data_member_location[DW_OP_plus_uconst 0x1c6]
    8803                      .dwattr $C$DW$661, DW_AT_accessibility(DW_ACCESS_public)
    8804                      .dwattr $C$DW$661, DW_AT_decl_file("..\sources\fcl_foc_cpu_dm.h")
    8805                      .dwattr $C$DW$661, DW_AT_decl_line(0x10e)
    8806                      .dwattr $C$DW$661, DW_AT_decl_column(0x0a)
    8807              
    8808              $C$DW$662       .dwtag  DW_TAG_member
    8809                      .dwattr $C$DW$662, DW_AT_type(*$C$DW$T$115)
    8810                      .dwattr $C$DW$662, DW_AT_name("offsetDoneFlag")
    8811                      .dwattr $C$DW$662, DW_AT_data_member_location[DW_OP_plus_uconst 0x1c7]
    8812                      .dwattr $C$DW$662, DW_AT_accessibility(DW_ACCESS_public)
    8813                      .dwattr $C$DW$662, DW_AT_decl_file("..\sources\fcl_foc_cpu_dm.h")
    8814                      .dwattr $C$DW$662, DW_AT_decl_line(0x10f)
    8815                      .dwattr $C$DW$662, DW_AT_decl_column(0x0a)
    8816              
    8817              $C$DW$663       .dwtag  DW_TAG_member
    8818                      .dwattr $C$DW$663, DW_AT_type(*$C$DW$T$115)
    8819                      .dwattr $C$DW$663, DW_AT_name("sfraEnableFlag")
    8820                      .dwattr $C$DW$663, DW_AT_data_member_location[DW_OP_plus_uconst 0x1c8]
    8821                      .dwattr $C$DW$663, DW_AT_accessibility(DW_ACCESS_public)
    8822                      .dwattr $C$DW$663, DW_AT_decl_file("..\sources\fcl_foc_cpu_dm.h")
    8823                      .dwattr $C$DW$663, DW_AT_decl_line(0x110)
    8824                      .dwattr $C$DW$663, DW_AT_decl_column(0x0a)
    8825              
    8826                      .dwattr $C$DW$T$116, DW_AT_decl_file("..\sources\fcl_foc_cpu_dm.h")
    8827                      .dwattr $C$DW$T$116, DW_AT_decl_line(0x7f)
    8828                      .dwattr $C$DW$T$116, DW_AT_decl_column(0x10)
    8829                      .dwendtag $C$DW$T$116
    8830              
    8831                      .dwendtag $C$DW$TU$116
    8832              
    8833              
    8834              $C$DW$TU$138    .dwtag  DW_TAG_type_unit
    8835                      .dwmtype  $C$DW$T$138
    8836              $C$DW$T$138     .dwtag  DW_TAG_typedef
    8837                      .dwattr $C$DW$T$138, DW_AT_name("MOTOR_Vars_t")
    8838                      .dwattr $C$DW$T$138, DW_AT_type(*$C$DW$T$116)
    8839                      .dwattr $C$DW$T$138, DW_AT_decl_file("..\sources\fcl_foc_cpu_dm.h")
    8840                      .dwattr $C$DW$T$138, DW_AT_decl_line(0x111)
    8841                      .dwattr $C$DW$T$138, DW_AT_decl_column(0x03)
    8842              
    8843                      .dwendtag $C$DW$TU$138
    8844              
TMS320C2000 Assembler PC v22.6.2 Wed Dec 10 14:45:02 2025

Copyright (c) 1996-2018 Texas Instruments Incorporated
fcl_foc_cpu_dm.asm                                                   PAGE  166

    8845              
    8846              $C$DW$TU$139    .dwtag  DW_TAG_type_unit
    8847                      .dwmtype  $C$DW$T$139
    8848              $C$DW$T$139     .dwtag  DW_TAG_pointer_type
    8849                      .dwattr $C$DW$T$139, DW_AT_type(*$C$DW$T$138)
    8850                      .dwattr $C$DW$T$139, DW_AT_address_class(0x20)
    8851              
    8852                      .dwendtag $C$DW$TU$139
    8853              
    8854              
    8855              $C$DW$TU$140    .dwtag  DW_TAG_type_unit
    8856                      .dwmtype  $C$DW$T$140
    8857              $C$DW$664       .dwtag  DW_TAG_TI_far_type
    8858                      .dwattr $C$DW$664, DW_AT_type(*$C$DW$T$139)
    8859              
    8860              $C$DW$T$140     .dwtag  DW_TAG_const_type
    8861                      .dwattr $C$DW$T$140, DW_AT_type(*$C$DW$664)
    8862              
    8863                      .dwendtag $C$DW$TU$140
    8864              
    8865              
    8866              $C$DW$TU$117    .dwtag  DW_TAG_type_unit
    8867                      .dwmtype  $C$DW$T$117
    8868              
    8869              $C$DW$T$117     .dwtag  DW_TAG_structure_type
    8870                      .dwattr $C$DW$T$117, DW_AT_name("_SPD_OBSERVER_obj_")
    8871                      .dwattr $C$DW$T$117, DW_AT_byte_size(0x1c)
    8872              $C$DW$665       .dwtag  DW_TAG_member
    8873                      .dwattr $C$DW$665, DW_AT_type(*$C$DW$T$21)
    8874                      .dwattr $C$DW$665, DW_AT_name("Ref")
    8875                      .dwattr $C$DW$665, DW_AT_accessibility(DW_ACCESS_public)
    8876                      .dwattr $C$DW$665, DW_AT_decl_file("C:/ti/C2000Ware_MotorControl_SDK_5_04_00_00/libraries/observers/s
    8877                      .dwattr $C$DW$665, DW_AT_decl_line(0x33)
    8878                      .dwattr $C$DW$665, DW_AT_decl_column(0x10)
    8879              
    8880              $C$DW$666       .dwtag  DW_TAG_member
    8881                      .dwattr $C$DW$666, DW_AT_type(*$C$DW$T$21)
    8882                      .dwattr $C$DW$666, DW_AT_name("Fbk")
    8883                      .dwattr $C$DW$666, DW_AT_data_member_location[DW_OP_plus_uconst 0x2]
    8884                      .dwattr $C$DW$666, DW_AT_accessibility(DW_ACCESS_public)
    8885                      .dwattr $C$DW$666, DW_AT_decl_file("C:/ti/C2000Ware_MotorControl_SDK_5_04_00_00/libraries/observers/s
    8886                      .dwattr $C$DW$666, DW_AT_decl_line(0x34)
    8887                      .dwattr $C$DW$666, DW_AT_decl_column(0x10)
    8888              
    8889              $C$DW$667       .dwtag  DW_TAG_member
    8890                      .dwattr $C$DW$667, DW_AT_type(*$C$DW$T$21)
    8891                      .dwattr $C$DW$667, DW_AT_name("Err")
    8892                      .dwattr $C$DW$667, DW_AT_data_member_location[DW_OP_plus_uconst 0x4]
    8893                      .dwattr $C$DW$667, DW_AT_accessibility(DW_ACCESS_public)
    8894                      .dwattr $C$DW$667, DW_AT_decl_file("C:/ti/C2000Ware_MotorControl_SDK_5_04_00_00/libraries/observers/s
    8895                      .dwattr $C$DW$667, DW_AT_decl_line(0x35)
    8896                      .dwattr $C$DW$667, DW_AT_decl_column(0x10)
    8897              
    8898              $C$DW$668       .dwtag  DW_TAG_member
    8899                      .dwattr $C$DW$668, DW_AT_type(*$C$DW$T$21)
TMS320C2000 Assembler PC v22.6.2 Wed Dec 10 14:45:02 2025

Copyright (c) 1996-2018 Texas Instruments Incorporated
fcl_foc_cpu_dm.asm                                                   PAGE  167

    8900                      .dwattr $C$DW$668, DW_AT_name("Out")
    8901                      .dwattr $C$DW$668, DW_AT_data_member_location[DW_OP_plus_uconst 0x6]
    8902                      .dwattr $C$DW$668, DW_AT_accessibility(DW_ACCESS_public)
    8903                      .dwattr $C$DW$668, DW_AT_decl_file("C:/ti/C2000Ware_MotorControl_SDK_5_04_00_00/libraries/observers/s
    8904                      .dwattr $C$DW$668, DW_AT_decl_line(0x36)
    8905                      .dwattr $C$DW$668, DW_AT_decl_column(0x10)
    8906              
    8907              $C$DW$669       .dwtag  DW_TAG_member
    8908                      .dwattr $C$DW$669, DW_AT_type(*$C$DW$T$21)
    8909                      .dwattr $C$DW$669, DW_AT_name("Kp")
    8910                      .dwattr $C$DW$669, DW_AT_data_member_location[DW_OP_plus_uconst 0x8]
    8911                      .dwattr $C$DW$669, DW_AT_accessibility(DW_ACCESS_public)
    8912                      .dwattr $C$DW$669, DW_AT_decl_file("C:/ti/C2000Ware_MotorControl_SDK_5_04_00_00/libraries/observers/s
    8913                      .dwattr $C$DW$669, DW_AT_decl_line(0x37)
    8914                      .dwattr $C$DW$669, DW_AT_decl_column(0x10)
    8915              
    8916              $C$DW$670       .dwtag  DW_TAG_member
    8917                      .dwattr $C$DW$670, DW_AT_type(*$C$DW$T$21)
    8918                      .dwattr $C$DW$670, DW_AT_name("Ki")
    8919                      .dwattr $C$DW$670, DW_AT_data_member_location[DW_OP_plus_uconst 0xa]
    8920                      .dwattr $C$DW$670, DW_AT_accessibility(DW_ACCESS_public)
    8921                      .dwattr $C$DW$670, DW_AT_decl_file("C:/ti/C2000Ware_MotorControl_SDK_5_04_00_00/libraries/observers/s
    8922                      .dwattr $C$DW$670, DW_AT_decl_line(0x38)
    8923                      .dwattr $C$DW$670, DW_AT_decl_column(0x10)
    8924              
    8925              $C$DW$671       .dwtag  DW_TAG_member
    8926                      .dwattr $C$DW$671, DW_AT_type(*$C$DW$T$21)
    8927                      .dwattr $C$DW$671, DW_AT_name("KiT")
    8928                      .dwattr $C$DW$671, DW_AT_data_member_location[DW_OP_plus_uconst 0xc]
    8929                      .dwattr $C$DW$671, DW_AT_accessibility(DW_ACCESS_public)
    8930                      .dwattr $C$DW$671, DW_AT_decl_file("C:/ti/C2000Ware_MotorControl_SDK_5_04_00_00/libraries/observers/s
    8931                      .dwattr $C$DW$671, DW_AT_decl_line(0x39)
    8932                      .dwattr $C$DW$671, DW_AT_decl_column(0x10)
    8933              
    8934              $C$DW$672       .dwtag  DW_TAG_member
    8935                      .dwattr $C$DW$672, DW_AT_type(*$C$DW$T$21)
    8936                      .dwattr $C$DW$672, DW_AT_name("Umax")
    8937                      .dwattr $C$DW$672, DW_AT_data_member_location[DW_OP_plus_uconst 0xe]
    8938                      .dwattr $C$DW$672, DW_AT_accessibility(DW_ACCESS_public)
    8939                      .dwattr $C$DW$672, DW_AT_decl_file("C:/ti/C2000Ware_MotorControl_SDK_5_04_00_00/libraries/observers/s
    8940                      .dwattr $C$DW$672, DW_AT_decl_line(0x3a)
    8941                      .dwattr $C$DW$672, DW_AT_decl_column(0x10)
    8942              
    8943              $C$DW$673       .dwtag  DW_TAG_member
    8944                      .dwattr $C$DW$673, DW_AT_type(*$C$DW$T$21)
    8945                      .dwattr $C$DW$673, DW_AT_name("Umin")
    8946                      .dwattr $C$DW$673, DW_AT_data_member_location[DW_OP_plus_uconst 0x10]
    8947                      .dwattr $C$DW$673, DW_AT_accessibility(DW_ACCESS_public)
    8948                      .dwattr $C$DW$673, DW_AT_decl_file("C:/ti/C2000Ware_MotorControl_SDK_5_04_00_00/libraries/observers/s
    8949                      .dwattr $C$DW$673, DW_AT_decl_line(0x3b)
    8950                      .dwattr $C$DW$673, DW_AT_decl_column(0x10)
    8951              
    8952              $C$DW$674       .dwtag  DW_TAG_member
    8953                      .dwattr $C$DW$674, DW_AT_type(*$C$DW$T$21)
    8954                      .dwattr $C$DW$674, DW_AT_name("up")
TMS320C2000 Assembler PC v22.6.2 Wed Dec 10 14:45:02 2025

Copyright (c) 1996-2018 Texas Instruments Incorporated
fcl_foc_cpu_dm.asm                                                   PAGE  168

    8955                      .dwattr $C$DW$674, DW_AT_data_member_location[DW_OP_plus_uconst 0x12]
    8956                      .dwattr $C$DW$674, DW_AT_accessibility(DW_ACCESS_public)
    8957                      .dwattr $C$DW$674, DW_AT_decl_file("C:/ti/C2000Ware_MotorControl_SDK_5_04_00_00/libraries/observers/s
    8958                      .dwattr $C$DW$674, DW_AT_decl_line(0x3c)
    8959                      .dwattr $C$DW$674, DW_AT_decl_column(0x10)
    8960              
    8961              $C$DW$675       .dwtag  DW_TAG_member
    8962                      .dwattr $C$DW$675, DW_AT_type(*$C$DW$T$21)
    8963                      .dwattr $C$DW$675, DW_AT_name("ui")
    8964                      .dwattr $C$DW$675, DW_AT_data_member_location[DW_OP_plus_uconst 0x14]
    8965                      .dwattr $C$DW$675, DW_AT_accessibility(DW_ACCESS_public)
    8966                      .dwattr $C$DW$675, DW_AT_decl_file("C:/ti/C2000Ware_MotorControl_SDK_5_04_00_00/libraries/observers/s
    8967                      .dwattr $C$DW$675, DW_AT_decl_line(0x3d)
    8968                      .dwattr $C$DW$675, DW_AT_decl_column(0x10)
    8969              
    8970              $C$DW$676       .dwtag  DW_TAG_member
    8971                      .dwattr $C$DW$676, DW_AT_type(*$C$DW$T$21)
    8972                      .dwattr $C$DW$676, DW_AT_name("IqMax")
    8973                      .dwattr $C$DW$676, DW_AT_data_member_location[DW_OP_plus_uconst 0x16]
    8974                      .dwattr $C$DW$676, DW_AT_accessibility(DW_ACCESS_public)
    8975                      .dwattr $C$DW$676, DW_AT_decl_file("C:/ti/C2000Ware_MotorControl_SDK_5_04_00_00/libraries/observers/s
    8976                      .dwattr $C$DW$676, DW_AT_decl_line(0x3e)
    8977                      .dwattr $C$DW$676, DW_AT_decl_column(0x10)
    8978              
    8979              $C$DW$677       .dwtag  DW_TAG_member
    8980                      .dwattr $C$DW$677, DW_AT_type(*$C$DW$T$21)
    8981                      .dwattr $C$DW$677, DW_AT_name("IqKf")
    8982                      .dwattr $C$DW$677, DW_AT_data_member_location[DW_OP_plus_uconst 0x18]
    8983                      .dwattr $C$DW$677, DW_AT_accessibility(DW_ACCESS_public)
    8984                      .dwattr $C$DW$677, DW_AT_decl_file("C:/ti/C2000Ware_MotorControl_SDK_5_04_00_00/libraries/observers/s
    8985                      .dwattr $C$DW$677, DW_AT_decl_line(0x3f)
    8986                      .dwattr $C$DW$677, DW_AT_decl_column(0x10)
    8987              
    8988              $C$DW$678       .dwtag  DW_TAG_member
    8989                      .dwattr $C$DW$678, DW_AT_type(*$C$DW$T$21)
    8990                      .dwattr $C$DW$678, DW_AT_name("thetaMax")
    8991                      .dwattr $C$DW$678, DW_AT_data_member_location[DW_OP_plus_uconst 0x1a]
    8992                      .dwattr $C$DW$678, DW_AT_accessibility(DW_ACCESS_public)
    8993                      .dwattr $C$DW$678, DW_AT_decl_file("C:/ti/C2000Ware_MotorControl_SDK_5_04_00_00/libraries/observers/s
    8994                      .dwattr $C$DW$678, DW_AT_decl_line(0x40)
    8995                      .dwattr $C$DW$678, DW_AT_decl_column(0x10)
    8996              
    8997                      .dwattr $C$DW$T$117, DW_AT_decl_file("C:/ti/C2000Ware_MotorControl_SDK_5_04_00_00/libraries/observers
    8998                      .dwattr $C$DW$T$117, DW_AT_decl_line(0x31)
    8999                      .dwattr $C$DW$T$117, DW_AT_decl_column(0x10)
    9000                      .dwendtag $C$DW$T$117
    9001              
    9002                      .dwendtag $C$DW$TU$117
    9003              
    9004              
    9005              $C$DW$TU$90     .dwtag  DW_TAG_type_unit
    9006                      .dwmtype  $C$DW$T$90
    9007              $C$DW$T$90      .dwtag  DW_TAG_typedef
    9008                      .dwattr $C$DW$T$90, DW_AT_name("SPD_OBSERVER")
    9009                      .dwattr $C$DW$T$90, DW_AT_type(*$C$DW$T$117)
TMS320C2000 Assembler PC v22.6.2 Wed Dec 10 14:45:02 2025

Copyright (c) 1996-2018 Texas Instruments Incorporated
fcl_foc_cpu_dm.asm                                                   PAGE  169

    9010                      .dwattr $C$DW$T$90, DW_AT_decl_file("C:/ti/C2000Ware_MotorControl_SDK_5_04_00_00/libraries/observers/
    9011                      .dwattr $C$DW$T$90, DW_AT_decl_line(0x41)
    9012                      .dwattr $C$DW$T$90, DW_AT_decl_column(0x03)
    9013              
    9014                      .dwendtag $C$DW$TU$90
    9015              
    9016              
    9017              $C$DW$TU$2      .dwtag  DW_TAG_type_unit
    9018                      .dwmtype  $C$DW$T$2
    9019              $C$DW$T$2       .dwtag  DW_TAG_unspecified_type
    9020                      .dwattr $C$DW$T$2, DW_AT_name("void")
    9021              
    9022                      .dwendtag $C$DW$TU$2
    9023              
    9024              
    9025              $C$DW$TU$4      .dwtag  DW_TAG_type_unit
    9026                      .dwmtype  $C$DW$T$4
    9027              $C$DW$T$4       .dwtag  DW_TAG_base_type
    9028                      .dwattr $C$DW$T$4, DW_AT_encoding(DW_ATE_boolean)
    9029                      .dwattr $C$DW$T$4, DW_AT_name("bool")
    9030                      .dwattr $C$DW$T$4, DW_AT_byte_size(0x01)
    9031              
    9032                      .dwendtag $C$DW$TU$4
    9033              
    9034              
    9035              $C$DW$TU$5      .dwtag  DW_TAG_type_unit
    9036                      .dwmtype  $C$DW$T$5
    9037              $C$DW$T$5       .dwtag  DW_TAG_base_type
    9038                      .dwattr $C$DW$T$5, DW_AT_encoding(DW_ATE_signed_char)
    9039                      .dwattr $C$DW$T$5, DW_AT_name("signed char")
    9040                      .dwattr $C$DW$T$5, DW_AT_byte_size(0x01)
    9041              
    9042                      .dwendtag $C$DW$TU$5
    9043              
    9044              
    9045              $C$DW$TU$6      .dwtag  DW_TAG_type_unit
    9046                      .dwmtype  $C$DW$T$6
    9047              $C$DW$T$6       .dwtag  DW_TAG_base_type
    9048                      .dwattr $C$DW$T$6, DW_AT_encoding(DW_ATE_unsigned_char)
    9049                      .dwattr $C$DW$T$6, DW_AT_name("unsigned char")
    9050                      .dwattr $C$DW$T$6, DW_AT_byte_size(0x01)
    9051              
    9052                      .dwendtag $C$DW$TU$6
    9053              
    9054              
    9055              $C$DW$TU$7      .dwtag  DW_TAG_type_unit
    9056                      .dwmtype  $C$DW$T$7
    9057              $C$DW$T$7       .dwtag  DW_TAG_base_type
    9058                      .dwattr $C$DW$T$7, DW_AT_encoding(DW_ATE_signed_char)
    9059                      .dwattr $C$DW$T$7, DW_AT_name("wchar_t")
    9060                      .dwattr $C$DW$T$7, DW_AT_byte_size(0x02)
    9061              
    9062                      .dwendtag $C$DW$TU$7
    9063              
    9064              
TMS320C2000 Assembler PC v22.6.2 Wed Dec 10 14:45:02 2025

Copyright (c) 1996-2018 Texas Instruments Incorporated
fcl_foc_cpu_dm.asm                                                   PAGE  170

    9065              $C$DW$TU$8      .dwtag  DW_TAG_type_unit
    9066                      .dwmtype  $C$DW$T$8
    9067              $C$DW$T$8       .dwtag  DW_TAG_base_type
    9068                      .dwattr $C$DW$T$8, DW_AT_encoding(DW_ATE_signed)
    9069                      .dwattr $C$DW$T$8, DW_AT_name("short")
    9070                      .dwattr $C$DW$T$8, DW_AT_byte_size(0x01)
    9071              
    9072                      .dwendtag $C$DW$TU$8
    9073              
    9074              
    9075              $C$DW$TU$9      .dwtag  DW_TAG_type_unit
    9076                      .dwmtype  $C$DW$T$9
    9077              $C$DW$T$9       .dwtag  DW_TAG_base_type
    9078                      .dwattr $C$DW$T$9, DW_AT_encoding(DW_ATE_unsigned)
    9079                      .dwattr $C$DW$T$9, DW_AT_name("unsigned short")
    9080                      .dwattr $C$DW$T$9, DW_AT_byte_size(0x01)
    9081              
    9082                      .dwendtag $C$DW$TU$9
    9083              
    9084              
    9085              $C$DW$TU$10     .dwtag  DW_TAG_type_unit
    9086                      .dwmtype  $C$DW$T$10
    9087              $C$DW$T$10      .dwtag  DW_TAG_base_type
    9088                      .dwattr $C$DW$T$10, DW_AT_encoding(DW_ATE_signed)
    9089                      .dwattr $C$DW$T$10, DW_AT_name("int")
    9090                      .dwattr $C$DW$T$10, DW_AT_byte_size(0x01)
    9091              
    9092                      .dwendtag $C$DW$TU$10
    9093              
    9094              
    9095              $C$DW$TU$11     .dwtag  DW_TAG_type_unit
    9096                      .dwmtype  $C$DW$T$11
    9097              $C$DW$T$11      .dwtag  DW_TAG_base_type
    9098                      .dwattr $C$DW$T$11, DW_AT_encoding(DW_ATE_unsigned)
    9099                      .dwattr $C$DW$T$11, DW_AT_name("unsigned int")
    9100                      .dwattr $C$DW$T$11, DW_AT_byte_size(0x01)
    9101              
    9102                      .dwendtag $C$DW$TU$11
    9103              
    9104              
    9105              $C$DW$TU$43     .dwtag  DW_TAG_type_unit
    9106                      .dwmtype  $C$DW$T$43
    9107              $C$DW$T$43      .dwtag  DW_TAG_typedef
    9108                      .dwattr $C$DW$T$43, DW_AT_name("Uint16")
    9109                      .dwattr $C$DW$T$43, DW_AT_type(*$C$DW$T$11)
    9110                      .dwattr $C$DW$T$43, DW_AT_decl_file("C:/ti/C2000Ware_MotorControl_SDK_5_04_00_00/c2000ware/device_sup
    9111                      .dwattr $C$DW$T$43, DW_AT_decl_line(0xbe)
    9112                      .dwattr $C$DW$T$43, DW_AT_decl_column(0x31)
    9113              
    9114                      .dwendtag $C$DW$TU$43
    9115              
    9116              
    9117              $C$DW$TU$47     .dwtag  DW_TAG_type_unit
    9118                      .dwmtype  $C$DW$T$47
    9119              
TMS320C2000 Assembler PC v22.6.2 Wed Dec 10 14:45:02 2025

Copyright (c) 1996-2018 Texas Instruments Incorporated
fcl_foc_cpu_dm.asm                                                   PAGE  171

    9120              $C$DW$T$47      .dwtag  DW_TAG_array_type
    9121                      .dwattr $C$DW$T$47, DW_AT_type(*$C$DW$T$43)
    9122                      .dwattr $C$DW$T$47, DW_AT_byte_size(0x0f)
    9123              $C$DW$679       .dwtag  DW_TAG_subrange_type
    9124                      .dwattr $C$DW$679, DW_AT_upper_bound(0x0e)
    9125              
    9126                      .dwendtag $C$DW$T$47
    9127              
    9128                      .dwendtag $C$DW$TU$47
    9129              
    9130              
    9131              $C$DW$TU$29     .dwtag  DW_TAG_type_unit
    9132                      .dwmtype  $C$DW$T$29
    9133              $C$DW$T$29      .dwtag  DW_TAG_typedef
    9134                      .dwattr $C$DW$T$29, DW_AT_name("__uint16_t")
    9135                      .dwattr $C$DW$T$29, DW_AT_type(*$C$DW$T$11)
    9136                      .dwattr $C$DW$T$29, DW_AT_decl_file("C:/ti/ccs2031/ccs/tools/compiler/ti-cgt-c2000_22.6.2.LTS/include
    9137                      .dwattr $C$DW$T$29, DW_AT_decl_line(0x41)
    9138                      .dwattr $C$DW$T$29, DW_AT_decl_column(0x1c)
    9139              
    9140                      .dwendtag $C$DW$TU$29
    9141              
    9142              
    9143              $C$DW$TU$30     .dwtag  DW_TAG_type_unit
    9144                      .dwmtype  $C$DW$T$30
    9145              $C$DW$T$30      .dwtag  DW_TAG_typedef
    9146                      .dwattr $C$DW$T$30, DW_AT_name("uint16_t")
    9147                      .dwattr $C$DW$T$30, DW_AT_type(*$C$DW$T$29)
    9148                      .dwattr $C$DW$T$30, DW_AT_decl_file("C:/ti/ccs2031/ccs/tools/compiler/ti-cgt-c2000_22.6.2.LTS/include
    9149                      .dwattr $C$DW$T$30, DW_AT_decl_line(0x41)
    9150                      .dwattr $C$DW$T$30, DW_AT_decl_column(0x15)
    9151              
    9152                      .dwendtag $C$DW$TU$30
    9153              
    9154              
    9155              $C$DW$TU$12     .dwtag  DW_TAG_type_unit
    9156                      .dwmtype  $C$DW$T$12
    9157              $C$DW$T$12      .dwtag  DW_TAG_base_type
    9158                      .dwattr $C$DW$T$12, DW_AT_encoding(DW_ATE_signed)
    9159                      .dwattr $C$DW$T$12, DW_AT_name("long")
    9160                      .dwattr $C$DW$T$12, DW_AT_byte_size(0x02)
    9161              
    9162                      .dwendtag $C$DW$TU$12
    9163              
    9164              
    9165              $C$DW$TU$156    .dwtag  DW_TAG_type_unit
    9166                      .dwmtype  $C$DW$T$156
    9167              $C$DW$680       .dwtag  DW_TAG_TI_far_type
    9168                      .dwattr $C$DW$680, DW_AT_type(*$C$DW$T$12)
    9169              
    9170              $C$DW$T$156     .dwtag  DW_TAG_const_type
    9171                      .dwattr $C$DW$T$156, DW_AT_type(*$C$DW$680)
    9172              
    9173                      .dwendtag $C$DW$TU$156
    9174              
TMS320C2000 Assembler PC v22.6.2 Wed Dec 10 14:45:02 2025

Copyright (c) 1996-2018 Texas Instruments Incorporated
fcl_foc_cpu_dm.asm                                                   PAGE  172

    9175              
    9176              $C$DW$TU$32     .dwtag  DW_TAG_type_unit
    9177                      .dwmtype  $C$DW$T$32
    9178              $C$DW$T$32      .dwtag  DW_TAG_typedef
    9179                      .dwattr $C$DW$T$32, DW_AT_name("__int32_t")
    9180                      .dwattr $C$DW$T$32, DW_AT_type(*$C$DW$T$12)
    9181                      .dwattr $C$DW$T$32, DW_AT_decl_file("C:/ti/ccs2031/ccs/tools/compiler/ti-cgt-c2000_22.6.2.LTS/include
    9182                      .dwattr $C$DW$T$32, DW_AT_decl_line(0x42)
    9183                      .dwattr $C$DW$T$32, DW_AT_decl_column(0x1d)
    9184              
    9185                      .dwendtag $C$DW$TU$32
    9186              
    9187              
    9188              $C$DW$TU$33     .dwtag  DW_TAG_type_unit
    9189                      .dwmtype  $C$DW$T$33
    9190              $C$DW$T$33      .dwtag  DW_TAG_typedef
    9191                      .dwattr $C$DW$T$33, DW_AT_name("int32_t")
    9192                      .dwattr $C$DW$T$33, DW_AT_type(*$C$DW$T$32)
    9193                      .dwattr $C$DW$T$33, DW_AT_decl_file("C:/ti/ccs2031/ccs/tools/compiler/ti-cgt-c2000_22.6.2.LTS/include
    9194                      .dwattr $C$DW$T$33, DW_AT_decl_line(0x30)
    9195                      .dwattr $C$DW$T$33, DW_AT_decl_column(0x14)
    9196              
    9197                      .dwendtag $C$DW$TU$33
    9198              
    9199              
    9200              $C$DW$TU$13     .dwtag  DW_TAG_type_unit
    9201                      .dwmtype  $C$DW$T$13
    9202              $C$DW$T$13      .dwtag  DW_TAG_base_type
    9203                      .dwattr $C$DW$T$13, DW_AT_encoding(DW_ATE_unsigned)
    9204                      .dwattr $C$DW$T$13, DW_AT_name("unsigned long")
    9205                      .dwattr $C$DW$T$13, DW_AT_byte_size(0x02)
    9206              
    9207                      .dwendtag $C$DW$TU$13
    9208              
    9209              
    9210              $C$DW$TU$46     .dwtag  DW_TAG_type_unit
    9211                      .dwmtype  $C$DW$T$46
    9212              $C$DW$T$46      .dwtag  DW_TAG_typedef
    9213                      .dwattr $C$DW$T$46, DW_AT_name("Uint32")
    9214                      .dwattr $C$DW$T$46, DW_AT_type(*$C$DW$T$13)
    9215                      .dwattr $C$DW$T$46, DW_AT_decl_file("C:/ti/C2000Ware_MotorControl_SDK_5_04_00_00/c2000ware/device_sup
    9216                      .dwattr $C$DW$T$46, DW_AT_decl_line(0xbf)
    9217                      .dwattr $C$DW$T$46, DW_AT_decl_column(0x31)
    9218              
    9219                      .dwendtag $C$DW$TU$46
    9220              
    9221              
    9222              $C$DW$TU$23     .dwtag  DW_TAG_type_unit
    9223                      .dwmtype  $C$DW$T$23
    9224              $C$DW$T$23      .dwtag  DW_TAG_typedef
    9225                      .dwattr $C$DW$T$23, DW_AT_name("__uint32_t")
    9226                      .dwattr $C$DW$T$23, DW_AT_type(*$C$DW$T$13)
    9227                      .dwattr $C$DW$T$23, DW_AT_decl_file("C:/ti/ccs2031/ccs/tools/compiler/ti-cgt-c2000_22.6.2.LTS/include
    9228                      .dwattr $C$DW$T$23, DW_AT_decl_line(0x43)
    9229                      .dwattr $C$DW$T$23, DW_AT_decl_column(0x1c)
TMS320C2000 Assembler PC v22.6.2 Wed Dec 10 14:45:02 2025

Copyright (c) 1996-2018 Texas Instruments Incorporated
fcl_foc_cpu_dm.asm                                                   PAGE  173

    9230              
    9231                      .dwendtag $C$DW$TU$23
    9232              
    9233              
    9234              $C$DW$TU$24     .dwtag  DW_TAG_type_unit
    9235                      .dwmtype  $C$DW$T$24
    9236              $C$DW$T$24      .dwtag  DW_TAG_typedef
    9237                      .dwattr $C$DW$T$24, DW_AT_name("uint32_t")
    9238                      .dwattr $C$DW$T$24, DW_AT_type(*$C$DW$T$23)
    9239                      .dwattr $C$DW$T$24, DW_AT_decl_file("C:/ti/ccs2031/ccs/tools/compiler/ti-cgt-c2000_22.6.2.LTS/include
    9240                      .dwattr $C$DW$T$24, DW_AT_decl_line(0x46)
    9241                      .dwattr $C$DW$T$24, DW_AT_decl_column(0x15)
    9242              
    9243                      .dwendtag $C$DW$TU$24
    9244              
    9245              
    9246              $C$DW$TU$95     .dwtag  DW_TAG_type_unit
    9247                      .dwmtype  $C$DW$T$95
    9248              $C$DW$681       .dwtag  DW_TAG_TI_far_type
    9249                      .dwattr $C$DW$681, DW_AT_type(*$C$DW$T$24)
    9250              
    9251              $C$DW$T$95      .dwtag  DW_TAG_volatile_type
    9252                      .dwattr $C$DW$T$95, DW_AT_type(*$C$DW$681)
    9253              
    9254                      .dwendtag $C$DW$TU$95
    9255              
    9256              
    9257              $C$DW$TU$96     .dwtag  DW_TAG_type_unit
    9258                      .dwmtype  $C$DW$T$96
    9259              $C$DW$T$96      .dwtag  DW_TAG_pointer_type
    9260                      .dwattr $C$DW$T$96, DW_AT_type(*$C$DW$T$95)
    9261                      .dwattr $C$DW$T$96, DW_AT_address_class(0x20)
    9262              
    9263                      .dwendtag $C$DW$TU$96
    9264              
    9265              
    9266              $C$DW$TU$145    .dwtag  DW_TAG_type_unit
    9267                      .dwmtype  $C$DW$T$145
    9268              $C$DW$682       .dwtag  DW_TAG_TI_far_type
    9269                      .dwattr $C$DW$682, DW_AT_type(*$C$DW$T$24)
    9270              
    9271              $C$DW$T$145     .dwtag  DW_TAG_const_type
    9272                      .dwattr $C$DW$T$145, DW_AT_type(*$C$DW$682)
    9273              
    9274                      .dwendtag $C$DW$TU$145
    9275              
    9276              
    9277              $C$DW$TU$14     .dwtag  DW_TAG_type_unit
    9278                      .dwmtype  $C$DW$T$14
    9279              $C$DW$T$14      .dwtag  DW_TAG_base_type
    9280                      .dwattr $C$DW$T$14, DW_AT_encoding(DW_ATE_signed)
    9281                      .dwattr $C$DW$T$14, DW_AT_name("long long")
    9282                      .dwattr $C$DW$T$14, DW_AT_byte_size(0x04)
    9283              
    9284                      .dwendtag $C$DW$TU$14
TMS320C2000 Assembler PC v22.6.2 Wed Dec 10 14:45:02 2025

Copyright (c) 1996-2018 Texas Instruments Incorporated
fcl_foc_cpu_dm.asm                                                   PAGE  174

    9285              
    9286              
    9287              $C$DW$TU$15     .dwtag  DW_TAG_type_unit
    9288                      .dwmtype  $C$DW$T$15
    9289              $C$DW$T$15      .dwtag  DW_TAG_base_type
    9290                      .dwattr $C$DW$T$15, DW_AT_encoding(DW_ATE_unsigned)
    9291                      .dwattr $C$DW$T$15, DW_AT_name("unsigned long long")
    9292                      .dwattr $C$DW$T$15, DW_AT_byte_size(0x04)
    9293              
    9294                      .dwendtag $C$DW$TU$15
    9295              
    9296              
    9297              $C$DW$TU$16     .dwtag  DW_TAG_type_unit
    9298                      .dwmtype  $C$DW$T$16
    9299              $C$DW$T$16      .dwtag  DW_TAG_base_type
    9300                      .dwattr $C$DW$T$16, DW_AT_encoding(DW_ATE_float)
    9301                      .dwattr $C$DW$T$16, DW_AT_name("float")
    9302                      .dwattr $C$DW$T$16, DW_AT_byte_size(0x02)
    9303              
    9304                      .dwendtag $C$DW$TU$16
    9305              
    9306              
    9307              $C$DW$TU$78     .dwtag  DW_TAG_type_unit
    9308                      .dwmtype  $C$DW$T$78
    9309              
    9310              $C$DW$T$78      .dwtag  DW_TAG_array_type
    9311                      .dwattr $C$DW$T$78, DW_AT_type(*$C$DW$T$16)
    9312                      .dwattr $C$DW$T$78, DW_AT_byte_size(0x04)
    9313              $C$DW$683       .dwtag  DW_TAG_subrange_type
    9314                      .dwattr $C$DW$683, DW_AT_upper_bound(0x01)
    9315              
    9316                      .dwendtag $C$DW$T$78
    9317              
    9318                      .dwendtag $C$DW$TU$78
    9319              
    9320              
    9321              $C$DW$TU$167    .dwtag  DW_TAG_type_unit
    9322                      .dwmtype  $C$DW$T$167
    9323              $C$DW$684       .dwtag  DW_TAG_TI_far_type
    9324                      .dwattr $C$DW$684, DW_AT_type(*$C$DW$T$16)
    9325              
    9326              $C$DW$T$167     .dwtag  DW_TAG_const_type
    9327                      .dwattr $C$DW$T$167, DW_AT_type(*$C$DW$684)
    9328              
    9329                      .dwendtag $C$DW$TU$167
    9330              
    9331              
    9332              $C$DW$TU$21     .dwtag  DW_TAG_type_unit
    9333                      .dwmtype  $C$DW$T$21
    9334              $C$DW$T$21      .dwtag  DW_TAG_typedef
    9335                      .dwattr $C$DW$T$21, DW_AT_name("float32_t")
    9336                      .dwattr $C$DW$T$21, DW_AT_type(*$C$DW$T$16)
    9337                      .dwattr $C$DW$T$21, DW_AT_decl_file("C:/ti/C2000Ware_MotorControl_SDK_5_04_00_00/c2000ware/device_sup
    9338                      .dwattr $C$DW$T$21, DW_AT_decl_line(0xc4)
    9339                      .dwattr $C$DW$T$21, DW_AT_decl_column(0x17)
TMS320C2000 Assembler PC v22.6.2 Wed Dec 10 14:45:02 2025

Copyright (c) 1996-2018 Texas Instruments Incorporated
fcl_foc_cpu_dm.asm                                                   PAGE  175

    9340              
    9341                      .dwendtag $C$DW$TU$21
    9342              
    9343              
    9344              $C$DW$TU$17     .dwtag  DW_TAG_type_unit
    9345                      .dwmtype  $C$DW$T$17
    9346              $C$DW$T$17      .dwtag  DW_TAG_base_type
    9347                      .dwattr $C$DW$T$17, DW_AT_encoding(DW_ATE_float)
    9348                      .dwattr $C$DW$T$17, DW_AT_name("double")
    9349                      .dwattr $C$DW$T$17, DW_AT_byte_size(0x04)
    9350              
    9351                      .dwendtag $C$DW$TU$17
    9352              
    9353              
    9354              $C$DW$TU$76     .dwtag  DW_TAG_type_unit
    9355                      .dwmtype  $C$DW$T$76
    9356              
    9357              $C$DW$T$76      .dwtag  DW_TAG_array_type
    9358                      .dwattr $C$DW$T$76, DW_AT_type(*$C$DW$T$17)
    9359                      .dwattr $C$DW$T$76, DW_AT_byte_size(0x08)
    9360              $C$DW$685       .dwtag  DW_TAG_subrange_type
    9361                      .dwattr $C$DW$685, DW_AT_upper_bound(0x01)
    9362              
    9363                      .dwendtag $C$DW$T$76
    9364              
    9365                      .dwendtag $C$DW$TU$76
    9366              
    9367              
    9368              $C$DW$TU$168    .dwtag  DW_TAG_type_unit
    9369                      .dwmtype  $C$DW$T$168
    9370              $C$DW$T$168     .dwtag  DW_TAG_pointer_type
    9371                      .dwattr $C$DW$T$168, DW_AT_type(*$C$DW$T$17)
    9372                      .dwattr $C$DW$T$168, DW_AT_address_class(0x20)
    9373              
    9374                      .dwendtag $C$DW$TU$168
    9375              
    9376              
    9377              $C$DW$TU$169    .dwtag  DW_TAG_type_unit
    9378                      .dwmtype  $C$DW$T$169
    9379              $C$DW$686       .dwtag  DW_TAG_TI_far_type
    9380                      .dwattr $C$DW$686, DW_AT_type(*$C$DW$T$168)
    9381              
    9382              $C$DW$T$169     .dwtag  DW_TAG_const_type
    9383                      .dwattr $C$DW$T$169, DW_AT_type(*$C$DW$686)
    9384              
    9385                      .dwendtag $C$DW$TU$169
    9386              
    9387              
    9388              $C$DW$TU$18     .dwtag  DW_TAG_type_unit
    9389                      .dwmtype  $C$DW$T$18
    9390              $C$DW$T$18      .dwtag  DW_TAG_base_type
    9391                      .dwattr $C$DW$T$18, DW_AT_encoding(DW_ATE_float)
    9392                      .dwattr $C$DW$T$18, DW_AT_name("long double")
    9393                      .dwattr $C$DW$T$18, DW_AT_byte_size(0x04)
    9394              
TMS320C2000 Assembler PC v22.6.2 Wed Dec 10 14:45:02 2025

Copyright (c) 1996-2018 Texas Instruments Incorporated
fcl_foc_cpu_dm.asm                                                   PAGE  176

    9395                      .dwendtag $C$DW$TU$18
    9396              
    9397              
    9398              $C$DW$TU$80     .dwtag  DW_TAG_type_unit
    9399                      .dwmtype  $C$DW$T$80
    9400              
    9401              $C$DW$T$80      .dwtag  DW_TAG_array_type
    9402                      .dwattr $C$DW$T$80, DW_AT_type(*$C$DW$T$18)
    9403                      .dwattr $C$DW$T$80, DW_AT_byte_size(0x08)
    9404              $C$DW$687       .dwtag  DW_TAG_subrange_type
    9405                      .dwattr $C$DW$687, DW_AT_upper_bound(0x01)
    9406              
    9407                      .dwendtag $C$DW$T$80
    9408              
    9409                      .dwendtag $C$DW$TU$80
    9410              
    9411              
    9412              $C$DW$TU$171    .dwtag  DW_TAG_type_unit
    9413                      .dwmtype  $C$DW$T$171
    9414              $C$DW$T$171     .dwtag  DW_TAG_pointer_type
    9415                      .dwattr $C$DW$T$171, DW_AT_type(*$C$DW$T$18)
    9416                      .dwattr $C$DW$T$171, DW_AT_address_class(0x20)
    9417              
    9418                      .dwendtag $C$DW$TU$171
    9419              
    9420              
    9421              $C$DW$TU$172    .dwtag  DW_TAG_type_unit
    9422                      .dwmtype  $C$DW$T$172
    9423              $C$DW$688       .dwtag  DW_TAG_TI_far_type
    9424                      .dwattr $C$DW$688, DW_AT_type(*$C$DW$T$171)
    9425              
    9426              $C$DW$T$172     .dwtag  DW_TAG_const_type
    9427                      .dwattr $C$DW$T$172, DW_AT_type(*$C$DW$688)
    9428              
    9429                      .dwendtag $C$DW$TU$172
    9430              
    9431              
    9432              $C$DW$TU$115    .dwtag  DW_TAG_type_unit
    9433                      .dwmtype  $C$DW$T$115
    9434              $C$DW$T$115     .dwtag  DW_TAG_base_type
    9435                      .dwattr $C$DW$T$115, DW_AT_encoding(DW_ATE_unsigned_char)
    9436                      .dwattr $C$DW$T$115, DW_AT_name("unsigned char")
    9437                      .dwattr $C$DW$T$115, DW_AT_byte_size(0x01)
    9438              
    9439                      .dwendtag $C$DW$TU$115
    9440              

No Assembly Errors, No Assembly Warnings
